(dp1
S'output'
p2
S"<type 'exceptions.SyntaxError'> invalid syntax (default.py, line 10)"
p3
sS'layer'
p4
S'/var/www/web2py_curso/applications/projeto/controllers/default.py'
p5
sS'code'
p6
S'# coding: utf-8\n\ndef index():\n\tprint "Action index"\n\tprint request.args\n\tprint request.vars\n\tprint request.post_vars\n    \t#nome = request.vars[\'nome\']\n        mensagem = "Bem Vindo"\n        form = "<form action= "method=\'POST\'><input name=\'nome\' id=\'nome\'/><input type=\'Submit\'></form><br>"\n        if \'nome\' in request.vars:\n\t\tform = "<p>Bem vindo %(nome)s</p>" % request.vars + form\t\t\n\t\t#mensagem = mensagem + " usu\xc3\xa1rio %(nome)s" % request.vars\n        \t#mensagem = mensagem + " usu\xc3\xa1rio %s" %str(nome)    \n\treturn form\n\ndef contato():\n\treturn "<form><label>Nome</label><input /></form><br><a href=\'http://www.w3schools.com\'>Visit W3Schools</a>"\n\t#return dict(nome="fernando")\n\t#return response.render("teste.html", dict(nome="fernando"))\n\ndef soma(x, y):\n\treturn x + y\n\n \n\nresponse._vars=response._caller(index)\n'
p7
sS'snapshot'
p8
(dp9
S'exception'
p10
(dp11
S'__getslice__'
p12
S"<method-wrapper '__getslice__' of exceptions.SyntaxError object>"
p13
sS'text'
p14
S'\'        form = "<form action= "method=\\\'POST\\\'><in...me\\\' id=\\\'nome\\\'/><input type=\\\'Submit\\\'></form><br>"\\n\''
p15
sS'__str__'
p16
S"<method-wrapper '__str__' of exceptions.SyntaxError object>"
p17
sS'__reduce__'
p18
S'<built-in method __reduce__ of exceptions.SyntaxError object>'
p19
sS'__dict__'
p20
S'{}'
p21
sS'__sizeof__'
p22
S'<built-in method __sizeof__ of exceptions.SyntaxError object>'
p23
sS'__init__'
p24
S"<method-wrapper '__init__' of exceptions.SyntaxError object>"
p25
sS'__setattr__'
p26
S"<method-wrapper '__setattr__' of exceptions.SyntaxError object>"
p27
sS'__reduce_ex__'
p28
S'<built-in method __reduce_ex__ of exceptions.SyntaxError object>'
p29
sS'__new__'
p30
S'<built-in method __new__ of type object>'
p31
sS'__format__'
p32
S'<built-in method __format__ of exceptions.SyntaxError object>'
p33
sS'__class__'
p34
S"<type 'exceptions.SyntaxError'>"
p35
sS'filename'
p36
S"'/var/www/web2py_curso/applications/projeto/controllers/default.py'"
p37
sS'lineno'
p38
S'10'
p39
sS'msg'
p40
S"'invalid syntax'"
p41
sS'__doc__'
p42
S"'Invalid syntax.'"
p43
sS'__getitem__'
p44
S"<method-wrapper '__getitem__' of exceptions.SyntaxError object>"
p45
sS'__setstate__'
p46
S'<built-in method __setstate__ of exceptions.SyntaxError object>'
p47
sS'__getattribute__'
p48
S"<method-wrapper '__getattribute__' of exceptions.SyntaxError object>"
p49
sS'print_file_and_line'
p50
S'None'
p51
sS'args'
p52
S'(\'invalid syntax\', (\'/var/www/web2py_curso/applications/projeto/controllers/default.py\', 10, 37, \'        form = "<form action= "method=\\\'POST\\\'><in...me\\\' id=\\\'nome\\\'/><input type=\\\'Submit\\\'></form><br>"\\n\'))'
p53
sS'__subclasshook__'
p54
S'<built-in method __subclasshook__ of type object>'
p55
sS'offset'
p56
S'37'
p57
sS'__unicode__'
p58
S'<built-in method __unicode__ of exceptions.SyntaxError object>'
p59
sS'__delattr__'
p60
S"<method-wrapper '__delattr__' of exceptions.SyntaxError object>"
p61
sS'__repr__'
p62
S"<method-wrapper '__repr__' of exceptions.SyntaxError object>"
p63
sS'__hash__'
p64
S"<method-wrapper '__hash__' of exceptions.SyntaxError object>"
p65
ssS'evalue'
p66
S'invalid syntax (default.py, line 10)'
p67
sS'request'
p68
ccopy_reg
_reconstructor
p69
(cgluon.html
BEAUTIFY
p70
c__builtin__
object
p71
NtRp72
(dp73
S'attributes'
p74
(dp75
sS'components'
p76
(lp77
g69
(cgluon.html
TABLE
p78
g71
NtRp79
(dp80
g74
(dp81
S'level'
p82
I5
ssS'parent'
p83
Nsg76
(lp84
g69
(cgluon.html
TR
p85
g71
NtRp86
(dp87
g74
(dp88
sg83
g79
sg76
(lp89
g69
(cgluon.html
TD
p90
g71
NtRp91
(dp92
g74
(dp93
S'_style'
p94
S'font-weight:bold;vertical-align:top'
p95
ssg83
g86
sg76
(lp96
S'ajax'
p97
asbag69
(g90
g71
NtRp98
(dp99
g74
(dp100
S'_valign'
p101
S'top'
p102
ssg83
g86
sg76
(lp103
S':'
asbag69
(g90
g71
NtRp104
(dp105
g74
(dp106
sg83
g86
sg76
(lp107
g69
(g70
g71
NtRp108
(dp109
g74
(dp110
g82
I5
ssg83
g104
sg76
(lp111
S'False'
p112
asbasbasbag69
(g85
g71
NtRp113
(dp114
g74
(dp115
sg83
g79
sg76
(lp116
g69
(g90
g71
NtRp117
(dp118
g74
(dp119
g94
g95
ssg83
g113
sg76
(lp120
S'application'
p121
asbag69
(g90
g71
NtRp122
(dp123
g74
(dp124
g101
g102
ssg83
g113
sg76
(lp125
S':'
asbag69
(g90
g71
NtRp126
(dp127
g74
(dp128
sg83
g113
sg76
(lp129
g69
(g70
g71
NtRp130
(dp131
g74
(dp132
g82
I5
ssg83
g126
sg76
(lp133
S'projeto'
p134
asbasbasbag69
(g85
g71
NtRp135
(dp136
g74
(dp137
sg83
g79
sg76
(lp138
g69
(g90
g71
NtRp139
(dp140
g74
(dp141
g94
g95
ssg83
g135
sg76
(lp142
g52
asbag69
(g90
g71
NtRp143
(dp144
g74
(dp145
g101
g102
ssg83
g135
sg76
(lp146
S':'
asbag69
(g90
g71
NtRp147
(dp148
g74
(dp149
sg83
g135
sg76
(lp150
g69
(g70
g71
NtRp151
(dp152
g74
(dp153
g82
I5
ssg83
g147
sg76
(lp154
g69
(g78
g71
NtRp155
(dp156
g74
(dp157
g82
I4
ssg83
Nsg76
(lp158
sbasbasbasbag69
(g85
g71
NtRp159
(dp160
g74
(dp161
sg83
g79
sg76
(lp162
g69
(g90
g71
NtRp163
(dp164
g74
(dp165
g94
g95
ssg83
g159
sg76
(lp166
S'body'
p167
asbag69
(g90
g71
NtRp168
(dp169
g74
(dp170
g101
g102
ssg83
g159
sg76
(lp171
S':'
asbag69
(g90
g71
NtRp172
(dp173
g74
(dp174
sg83
g159
sg76
(lp175
g69
(g70
g71
NtRp176
(dp177
g74
(dp178
g82
I5
ssg83
g172
sg76
(lp179
S'<cStringIO.StringO object at 0x7fde306d1f48>'
p180
asbasbasbag69
(g85
g71
NtRp181
(dp182
g74
(dp183
sg83
g79
sg76
(lp184
g69
(g90
g71
NtRp185
(dp186
g74
(dp187
g94
g95
ssg83
g181
sg76
(lp188
S'cid'
p189
asbag69
(g90
g71
NtRp190
(dp191
g74
(dp192
g101
g102
ssg83
g181
sg76
(lp193
S':'
asbag69
(g90
g71
NtRp194
(dp195
g74
(dp196
sg83
g181
sg76
(lp197
g69
(g70
g71
NtRp198
(dp199
g74
(dp200
g82
I5
ssg83
g194
sg76
(lp201
S'None'
p202
asbasbasbag69
(g85
g71
NtRp203
(dp204
g74
(dp205
sg83
g79
sg76
(lp206
g69
(g90
g71
NtRp207
(dp208
g74
(dp209
g94
g95
ssg83
g203
sg76
(lp210
S'client'
p211
asbag69
(g90
g71
NtRp212
(dp213
g74
(dp214
g101
g102
ssg83
g203
sg76
(lp215
S':'
asbag69
(g90
g71
NtRp216
(dp217
g74
(dp218
sg83
g203
sg76
(lp219
g69
(g70
g71
NtRp220
(dp221
g74
(dp222
g82
I5
ssg83
g216
sg76
(lp223
S'127.0.0.1'
p224
asbasbasbag69
(g85
g71
NtRp225
(dp226
g74
(dp227
sg83
g79
sg76
(lp228
g69
(g90
g71
NtRp229
(dp230
g74
(dp231
g94
g95
ssg83
g225
sg76
(lp232
S'controller'
p233
asbag69
(g90
g71
NtRp234
(dp235
g74
(dp236
g101
g102
ssg83
g225
sg76
(lp237
S':'
asbag69
(g90
g71
NtRp238
(dp239
g74
(dp240
sg83
g225
sg76
(lp241
g69
(g70
g71
NtRp242
(dp243
g74
(dp244
g82
I5
ssg83
g238
sg76
(lp245
S'default'
p246
asbasbasbag69
(g85
g71
NtRp247
(dp248
g74
(dp249
sg83
g79
sg76
(lp250
g69
(g90
g71
NtRp251
(dp252
g74
(dp253
g94
g95
ssg83
g247
sg76
(lp254
S'cookies'
p255
asbag69
(g90
g71
NtRp256
(dp257
g74
(dp258
g101
g102
ssg83
g247
sg76
(lp259
S':'
asbag69
(g90
g71
NtRp260
(dp261
g74
(dp262
sg83
g247
sg76
(lp263
g69
(g70
g71
NtRp264
(dp265
g74
(dp266
g82
I5
ssg83
g260
sg76
(lp267
g69
(g78
g71
NtRp268
(dp269
g74
(dp270
g82
I4
ssg83
Nsg76
(lp271
g69
(g85
g71
NtRp272
(dp273
g74
(dp274
sg83
g268
sg76
(lp275
g69
(g90
g71
NtRp276
(dp277
g74
(dp278
g94
g95
ssg83
g272
sg76
(lp279
S'session_id_admin'
p280
asbag69
(g90
g71
NtRp281
(dp282
g74
(dp283
g101
g102
ssg83
g272
sg76
(lp284
S':'
asbag69
(g90
g71
NtRp285
(dp286
g74
(dp287
sg83
g272
sg76
(lp288
g69
(g70
g71
NtRp289
(dp290
g74
(dp291
g82
I4
ssg83
g285
sg76
(lp292
S'127.0.0.1-6b19d69e-1405-460b-b17e-ad0b8deb3490'
p293
ag69
(g78
g71
NtRp294
(dp295
g74
(dp296
g82
I3
ssg83
Nsg76
(lp297
g69
(g85
g71
NtRp298
(dp299
g74
(dp300
sg83
g294
sg76
(lp301
g69
(g90
g71
NtRp302
(dp303
g74
(dp304
g94
g95
ssg83
g298
sg76
(lp305
S'comment'
p306
asbag69
(g90
g71
NtRp307
(dp308
g74
(dp309
g101
g102
ssg83
g298
sg76
(lp310
S':'
asbag69
(g90
g71
NtRp311
(dp312
g74
(dp313
sg83
g298
sg76
(lp314
g69
(g70
g71
NtRp315
(dp316
g74
(dp317
g82
I3
ssg83
g311
sg76
(lp318
S''
asbasbasbag69
(g85
g71
NtRp319
(dp320
g74
(dp321
sg83
g294
sg76
(lp322
g69
(g90
g71
NtRp323
(dp324
g74
(dp325
g94
g95
ssg83
g319
sg76
(lp326
S'domain'
p327
asbag69
(g90
g71
NtRp328
(dp329
g74
(dp330
g101
g102
ssg83
g319
sg76
(lp331
S':'
asbag69
(g90
g71
NtRp332
(dp333
g74
(dp334
sg83
g319
sg76
(lp335
g69
(g70
g71
NtRp336
(dp337
g74
(dp338
g82
I3
ssg83
g332
sg76
(lp339
S''
asbasbasbag69
(g85
g71
NtRp340
(dp341
g74
(dp342
sg83
g294
sg76
(lp343
g69
(g90
g71
NtRp344
(dp345
g74
(dp346
g94
g95
ssg83
g340
sg76
(lp347
S'expires'
p348
asbag69
(g90
g71
NtRp349
(dp350
g74
(dp351
g101
g102
ssg83
g340
sg76
(lp352
S':'
asbag69
(g90
g71
NtRp353
(dp354
g74
(dp355
sg83
g340
sg76
(lp356
g69
(g70
g71
NtRp357
(dp358
g74
(dp359
g82
I3
ssg83
g353
sg76
(lp360
S''
asbasbasbag69
(g85
g71
NtRp361
(dp362
g74
(dp363
sg83
g294
sg76
(lp364
g69
(g90
g71
NtRp365
(dp366
g74
(dp367
g94
g95
ssg83
g361
sg76
(lp368
S'httponly'
p369
asbag69
(g90
g71
NtRp370
(dp371
g74
(dp372
g101
g102
ssg83
g361
sg76
(lp373
S':'
asbag69
(g90
g71
NtRp374
(dp375
g74
(dp376
sg83
g361
sg76
(lp377
g69
(g70
g71
NtRp378
(dp379
g74
(dp380
g82
I3
ssg83
g374
sg76
(lp381
S''
asbasbasbag69
(g85
g71
NtRp382
(dp383
g74
(dp384
sg83
g294
sg76
(lp385
g69
(g90
g71
NtRp386
(dp387
g74
(dp388
g94
g95
ssg83
g382
sg76
(lp389
S'max-age'
p390
asbag69
(g90
g71
NtRp391
(dp392
g74
(dp393
g101
g102
ssg83
g382
sg76
(lp394
S':'
asbag69
(g90
g71
NtRp395
(dp396
g74
(dp397
sg83
g382
sg76
(lp398
g69
(g70
g71
NtRp399
(dp400
g74
(dp401
g82
I3
ssg83
g395
sg76
(lp402
S''
asbasbasbag69
(g85
g71
NtRp403
(dp404
g74
(dp405
sg83
g294
sg76
(lp406
g69
(g90
g71
NtRp407
(dp408
g74
(dp409
g94
g95
ssg83
g403
sg76
(lp410
S'path'
p411
asbag69
(g90
g71
NtRp412
(dp413
g74
(dp414
g101
g102
ssg83
g403
sg76
(lp415
S':'
asbag69
(g90
g71
NtRp416
(dp417
g74
(dp418
sg83
g403
sg76
(lp419
g69
(g70
g71
NtRp420
(dp421
g74
(dp422
g82
I3
ssg83
g416
sg76
(lp423
S''
asbasbasbag69
(g85
g71
NtRp424
(dp425
g74
(dp426
sg83
g294
sg76
(lp427
g69
(g90
g71
NtRp428
(dp429
g74
(dp430
g94
g95
ssg83
g424
sg76
(lp431
S'secure'
p432
asbag69
(g90
g71
NtRp433
(dp434
g74
(dp435
g101
g102
ssg83
g424
sg76
(lp436
S':'
asbag69
(g90
g71
NtRp437
(dp438
g74
(dp439
sg83
g424
sg76
(lp440
g69
(g70
g71
NtRp441
(dp442
g74
(dp443
g82
I3
ssg83
g437
sg76
(lp444
S''
asbasbasbag69
(g85
g71
NtRp445
(dp446
g74
(dp447
sg83
g294
sg76
(lp448
g69
(g90
g71
NtRp449
(dp450
g74
(dp451
g94
g95
ssg83
g445
sg76
(lp452
S'version'
p453
asbag69
(g90
g71
NtRp454
(dp455
g74
(dp456
g101
g102
ssg83
g445
sg76
(lp457
S':'
asbag69
(g90
g71
NtRp458
(dp459
g74
(dp460
sg83
g445
sg76
(lp461
g69
(g70
g71
NtRp462
(dp463
g74
(dp464
g82
I3
ssg83
g458
sg76
(lp465
S''
asbasbasbasbasbasbasbag69
(g85
g71
NtRp466
(dp467
g74
(dp468
sg83
g268
sg76
(lp469
g69
(g90
g71
NtRp470
(dp471
g74
(dp472
g94
g95
ssg83
g466
sg76
(lp473
S'session_id_home'
p474
asbag69
(g90
g71
NtRp475
(dp476
g74
(dp477
g101
g102
ssg83
g466
sg76
(lp478
S':'
asbag69
(g90
g71
NtRp479
(dp480
g74
(dp481
sg83
g466
sg76
(lp482
g69
(g70
g71
NtRp483
(dp484
g74
(dp485
g82
I4
ssg83
g479
sg76
(lp486
S'127.0.0.1-61c26c04-034b-4717-a3a3-84ec434f1b9b'
p487
ag69
(g78
g71
NtRp488
(dp489
g74
(dp490
g82
I3
ssg83
Nsg76
(lp491
g69
(g85
g71
NtRp492
(dp493
g74
(dp494
sg83
g488
sg76
(lp495
g69
(g90
g71
NtRp496
(dp497
g74
(dp498
g94
g95
ssg83
g492
sg76
(lp499
g306
asbag69
(g90
g71
NtRp500
(dp501
g74
(dp502
g101
g102
ssg83
g492
sg76
(lp503
S':'
asbag69
(g90
g71
NtRp504
(dp505
g74
(dp506
sg83
g492
sg76
(lp507
g69
(g70
g71
NtRp508
(dp509
g74
(dp510
g82
I3
ssg83
g504
sg76
(lp511
S''
asbasbasbag69
(g85
g71
NtRp512
(dp513
g74
(dp514
sg83
g488
sg76
(lp515
g69
(g90
g71
NtRp516
(dp517
g74
(dp518
g94
g95
ssg83
g512
sg76
(lp519
g327
asbag69
(g90
g71
NtRp520
(dp521
g74
(dp522
g101
g102
ssg83
g512
sg76
(lp523
S':'
asbag69
(g90
g71
NtRp524
(dp525
g74
(dp526
sg83
g512
sg76
(lp527
g69
(g70
g71
NtRp528
(dp529
g74
(dp530
g82
I3
ssg83
g524
sg76
(lp531
S''
asbasbasbag69
(g85
g71
NtRp532
(dp533
g74
(dp534
sg83
g488
sg76
(lp535
g69
(g90
g71
NtRp536
(dp537
g74
(dp538
g94
g95
ssg83
g532
sg76
(lp539
g348
asbag69
(g90
g71
NtRp540
(dp541
g74
(dp542
g101
g102
ssg83
g532
sg76
(lp543
S':'
asbag69
(g90
g71
NtRp544
(dp545
g74
(dp546
sg83
g532
sg76
(lp547
g69
(g70
g71
NtRp548
(dp549
g74
(dp550
g82
I3
ssg83
g544
sg76
(lp551
S''
asbasbasbag69
(g85
g71
NtRp552
(dp553
g74
(dp554
sg83
g488
sg76
(lp555
g69
(g90
g71
NtRp556
(dp557
g74
(dp558
g94
g95
ssg83
g552
sg76
(lp559
g369
asbag69
(g90
g71
NtRp560
(dp561
g74
(dp562
g101
g102
ssg83
g552
sg76
(lp563
S':'
asbag69
(g90
g71
NtRp564
(dp565
g74
(dp566
sg83
g552
sg76
(lp567
g69
(g70
g71
NtRp568
(dp569
g74
(dp570
g82
I3
ssg83
g564
sg76
(lp571
S''
asbasbasbag69
(g85
g71
NtRp572
(dp573
g74
(dp574
sg83
g488
sg76
(lp575
g69
(g90
g71
NtRp576
(dp577
g74
(dp578
g94
g95
ssg83
g572
sg76
(lp579
g390
asbag69
(g90
g71
NtRp580
(dp581
g74
(dp582
g101
g102
ssg83
g572
sg76
(lp583
S':'
asbag69
(g90
g71
NtRp584
(dp585
g74
(dp586
sg83
g572
sg76
(lp587
g69
(g70
g71
NtRp588
(dp589
g74
(dp590
g82
I3
ssg83
g584
sg76
(lp591
S''
asbasbasbag69
(g85
g71
NtRp592
(dp593
g74
(dp594
sg83
g488
sg76
(lp595
g69
(g90
g71
NtRp596
(dp597
g74
(dp598
g94
g95
ssg83
g592
sg76
(lp599
g411
asbag69
(g90
g71
NtRp600
(dp601
g74
(dp602
g101
g102
ssg83
g592
sg76
(lp603
S':'
asbag69
(g90
g71
NtRp604
(dp605
g74
(dp606
sg83
g592
sg76
(lp607
g69
(g70
g71
NtRp608
(dp609
g74
(dp610
g82
I3
ssg83
g604
sg76
(lp611
S''
asbasbasbag69
(g85
g71
NtRp612
(dp613
g74
(dp614
sg83
g488
sg76
(lp615
g69
(g90
g71
NtRp616
(dp617
g74
(dp618
g94
g95
ssg83
g612
sg76
(lp619
g432
asbag69
(g90
g71
NtRp620
(dp621
g74
(dp622
g101
g102
ssg83
g612
sg76
(lp623
S':'
asbag69
(g90
g71
NtRp624
(dp625
g74
(dp626
sg83
g612
sg76
(lp627
g69
(g70
g71
NtRp628
(dp629
g74
(dp630
g82
I3
ssg83
g624
sg76
(lp631
S''
asbasbasbag69
(g85
g71
NtRp632
(dp633
g74
(dp634
sg83
g488
sg76
(lp635
g69
(g90
g71
NtRp636
(dp637
g74
(dp638
g94
g95
ssg83
g632
sg76
(lp639
g453
asbag69
(g90
g71
NtRp640
(dp641
g74
(dp642
g101
g102
ssg83
g632
sg76
(lp643
S':'
asbag69
(g90
g71
NtRp644
(dp645
g74
(dp646
sg83
g632
sg76
(lp647
g69
(g70
g71
NtRp648
(dp649
g74
(dp650
g82
I3
ssg83
g644
sg76
(lp651
S''
asbasbasbasbasbasbasbag69
(g85
g71
NtRp652
(dp653
g74
(dp654
sg83
g268
sg76
(lp655
g69
(g90
g71
NtRp656
(dp657
g74
(dp658
g94
g95
ssg83
g652
sg76
(lp659
S'session_id_projeto'
p660
asbag69
(g90
g71
NtRp661
(dp662
g74
(dp663
g101
g102
ssg83
g652
sg76
(lp664
S':'
asbag69
(g90
g71
NtRp665
(dp666
g74
(dp667
sg83
g652
sg76
(lp668
g69
(g70
g71
NtRp669
(dp670
g74
(dp671
g82
I4
ssg83
g665
sg76
(lp672
S'127.0.0.1-ac2fedfb-a46a-42e9-8bef-23a136eddeb8'
p673
ag69
(g78
g71
NtRp674
(dp675
g74
(dp676
g82
I3
ssg83
Nsg76
(lp677
g69
(g85
g71
NtRp678
(dp679
g74
(dp680
sg83
g674
sg76
(lp681
g69
(g90
g71
NtRp682
(dp683
g74
(dp684
g94
g95
ssg83
g678
sg76
(lp685
g306
asbag69
(g90
g71
NtRp686
(dp687
g74
(dp688
g101
g102
ssg83
g678
sg76
(lp689
S':'
asbag69
(g90
g71
NtRp690
(dp691
g74
(dp692
sg83
g678
sg76
(lp693
g69
(g70
g71
NtRp694
(dp695
g74
(dp696
g82
I3
ssg83
g690
sg76
(lp697
S''
asbasbasbag69
(g85
g71
NtRp698
(dp699
g74
(dp700
sg83
g674
sg76
(lp701
g69
(g90
g71
NtRp702
(dp703
g74
(dp704
g94
g95
ssg83
g698
sg76
(lp705
g327
asbag69
(g90
g71
NtRp706
(dp707
g74
(dp708
g101
g102
ssg83
g698
sg76
(lp709
S':'
asbag69
(g90
g71
NtRp710
(dp711
g74
(dp712
sg83
g698
sg76
(lp713
g69
(g70
g71
NtRp714
(dp715
g74
(dp716
g82
I3
ssg83
g710
sg76
(lp717
S''
asbasbasbag69
(g85
g71
NtRp718
(dp719
g74
(dp720
sg83
g674
sg76
(lp721
g69
(g90
g71
NtRp722
(dp723
g74
(dp724
g94
g95
ssg83
g718
sg76
(lp725
g348
asbag69
(g90
g71
NtRp726
(dp727
g74
(dp728
g101
g102
ssg83
g718
sg76
(lp729
S':'
asbag69
(g90
g71
NtRp730
(dp731
g74
(dp732
sg83
g718
sg76
(lp733
g69
(g70
g71
NtRp734
(dp735
g74
(dp736
g82
I3
ssg83
g730
sg76
(lp737
S''
asbasbasbag69
(g85
g71
NtRp738
(dp739
g74
(dp740
sg83
g674
sg76
(lp741
g69
(g90
g71
NtRp742
(dp743
g74
(dp744
g94
g95
ssg83
g738
sg76
(lp745
g369
asbag69
(g90
g71
NtRp746
(dp747
g74
(dp748
g101
g102
ssg83
g738
sg76
(lp749
S':'
asbag69
(g90
g71
NtRp750
(dp751
g74
(dp752
sg83
g738
sg76
(lp753
g69
(g70
g71
NtRp754
(dp755
g74
(dp756
g82
I3
ssg83
g750
sg76
(lp757
S''
asbasbasbag69
(g85
g71
NtRp758
(dp759
g74
(dp760
sg83
g674
sg76
(lp761
g69
(g90
g71
NtRp762
(dp763
g74
(dp764
g94
g95
ssg83
g758
sg76
(lp765
g390
asbag69
(g90
g71
NtRp766
(dp767
g74
(dp768
g101
g102
ssg83
g758
sg76
(lp769
S':'
asbag69
(g90
g71
NtRp770
(dp771
g74
(dp772
sg83
g758
sg76
(lp773
g69
(g70
g71
NtRp774
(dp775
g74
(dp776
g82
I3
ssg83
g770
sg76
(lp777
S''
asbasbasbag69
(g85
g71
NtRp778
(dp779
g74
(dp780
sg83
g674
sg76
(lp781
g69
(g90
g71
NtRp782
(dp783
g74
(dp784
g94
g95
ssg83
g778
sg76
(lp785
g411
asbag69
(g90
g71
NtRp786
(dp787
g74
(dp788
g101
g102
ssg83
g778
sg76
(lp789
S':'
asbag69
(g90
g71
NtRp790
(dp791
g74
(dp792
sg83
g778
sg76
(lp793
g69
(g70
g71
NtRp794
(dp795
g74
(dp796
g82
I3
ssg83
g790
sg76
(lp797
S''
asbasbasbag69
(g85
g71
NtRp798
(dp799
g74
(dp800
sg83
g674
sg76
(lp801
g69
(g90
g71
NtRp802
(dp803
g74
(dp804
g94
g95
ssg83
g798
sg76
(lp805
g432
asbag69
(g90
g71
NtRp806
(dp807
g74
(dp808
g101
g102
ssg83
g798
sg76
(lp809
S':'
asbag69
(g90
g71
NtRp810
(dp811
g74
(dp812
sg83
g798
sg76
(lp813
g69
(g70
g71
NtRp814
(dp815
g74
(dp816
g82
I3
ssg83
g810
sg76
(lp817
S''
asbasbasbag69
(g85
g71
NtRp818
(dp819
g74
(dp820
sg83
g674
sg76
(lp821
g69
(g90
g71
NtRp822
(dp823
g74
(dp824
g94
g95
ssg83
g818
sg76
(lp825
g453
asbag69
(g90
g71
NtRp826
(dp827
g74
(dp828
g101
g102
ssg83
g818
sg76
(lp829
S':'
asbag69
(g90
g71
NtRp830
(dp831
g74
(dp832
sg83
g818
sg76
(lp833
g69
(g70
g71
NtRp834
(dp835
g74
(dp836
g82
I3
ssg83
g830
sg76
(lp837
S''
asbasbasbasbasbasbasbag69
(g85
g71
NtRp838
(dp839
g74
(dp840
sg83
g268
sg76
(lp841
g69
(g90
g71
NtRp842
(dp843
g74
(dp844
g94
g95
ssg83
g838
sg76
(lp845
S'session_id_welcome'
p846
asbag69
(g90
g71
NtRp847
(dp848
g74
(dp849
g101
g102
ssg83
g838
sg76
(lp850
S':'
asbag69
(g90
g71
NtRp851
(dp852
g74
(dp853
sg83
g838
sg76
(lp854
g69
(g70
g71
NtRp855
(dp856
g74
(dp857
g82
I4
ssg83
g851
sg76
(lp858
S'127.0.0.1-112b4c82-b064-485e-80d3-cb116c714609'
p859
ag69
(g78
g71
NtRp860
(dp861
g74
(dp862
g82
I3
ssg83
Nsg76
(lp863
g69
(g85
g71
NtRp864
(dp865
g74
(dp866
sg83
g860
sg76
(lp867
g69
(g90
g71
NtRp868
(dp869
g74
(dp870
g94
g95
ssg83
g864
sg76
(lp871
g306
asbag69
(g90
g71
NtRp872
(dp873
g74
(dp874
g101
g102
ssg83
g864
sg76
(lp875
S':'
asbag69
(g90
g71
NtRp876
(dp877
g74
(dp878
sg83
g864
sg76
(lp879
g69
(g70
g71
NtRp880
(dp881
g74
(dp882
g82
I3
ssg83
g876
sg76
(lp883
S''
asbasbasbag69
(g85
g71
NtRp884
(dp885
g74
(dp886
sg83
g860
sg76
(lp887
g69
(g90
g71
NtRp888
(dp889
g74
(dp890
g94
g95
ssg83
g884
sg76
(lp891
g327
asbag69
(g90
g71
NtRp892
(dp893
g74
(dp894
g101
g102
ssg83
g884
sg76
(lp895
S':'
asbag69
(g90
g71
NtRp896
(dp897
g74
(dp898
sg83
g884
sg76
(lp899
g69
(g70
g71
NtRp900
(dp901
g74
(dp902
g82
I3
ssg83
g896
sg76
(lp903
S''
asbasbasbag69
(g85
g71
NtRp904
(dp905
g74
(dp906
sg83
g860
sg76
(lp907
g69
(g90
g71
NtRp908
(dp909
g74
(dp910
g94
g95
ssg83
g904
sg76
(lp911
g348
asbag69
(g90
g71
NtRp912
(dp913
g74
(dp914
g101
g102
ssg83
g904
sg76
(lp915
S':'
asbag69
(g90
g71
NtRp916
(dp917
g74
(dp918
sg83
g904
sg76
(lp919
g69
(g70
g71
NtRp920
(dp921
g74
(dp922
g82
I3
ssg83
g916
sg76
(lp923
S''
asbasbasbag69
(g85
g71
NtRp924
(dp925
g74
(dp926
sg83
g860
sg76
(lp927
g69
(g90
g71
NtRp928
(dp929
g74
(dp930
g94
g95
ssg83
g924
sg76
(lp931
g369
asbag69
(g90
g71
NtRp932
(dp933
g74
(dp934
g101
g102
ssg83
g924
sg76
(lp935
S':'
asbag69
(g90
g71
NtRp936
(dp937
g74
(dp938
sg83
g924
sg76
(lp939
g69
(g70
g71
NtRp940
(dp941
g74
(dp942
g82
I3
ssg83
g936
sg76
(lp943
S''
asbasbasbag69
(g85
g71
NtRp944
(dp945
g74
(dp946
sg83
g860
sg76
(lp947
g69
(g90
g71
NtRp948
(dp949
g74
(dp950
g94
g95
ssg83
g944
sg76
(lp951
g390
asbag69
(g90
g71
NtRp952
(dp953
g74
(dp954
g101
g102
ssg83
g944
sg76
(lp955
S':'
asbag69
(g90
g71
NtRp956
(dp957
g74
(dp958
sg83
g944
sg76
(lp959
g69
(g70
g71
NtRp960
(dp961
g74
(dp962
g82
I3
ssg83
g956
sg76
(lp963
S''
asbasbasbag69
(g85
g71
NtRp964
(dp965
g74
(dp966
sg83
g860
sg76
(lp967
g69
(g90
g71
NtRp968
(dp969
g74
(dp970
g94
g95
ssg83
g964
sg76
(lp971
g411
asbag69
(g90
g71
NtRp972
(dp973
g74
(dp974
g101
g102
ssg83
g964
sg76
(lp975
S':'
asbag69
(g90
g71
NtRp976
(dp977
g74
(dp978
sg83
g964
sg76
(lp979
g69
(g70
g71
NtRp980
(dp981
g74
(dp982
g82
I3
ssg83
g976
sg76
(lp983
S''
asbasbasbag69
(g85
g71
NtRp984
(dp985
g74
(dp986
sg83
g860
sg76
(lp987
g69
(g90
g71
NtRp988
(dp989
g74
(dp990
g94
g95
ssg83
g984
sg76
(lp991
g432
asbag69
(g90
g71
NtRp992
(dp993
g74
(dp994
g101
g102
ssg83
g984
sg76
(lp995
S':'
asbag69
(g90
g71
NtRp996
(dp997
g74
(dp998
sg83
g984
sg76
(lp999
g69
(g70
g71
NtRp1000
(dp1001
g74
(dp1002
g82
I3
ssg83
g996
sg76
(lp1003
S''
asbasbasbag69
(g85
g71
NtRp1004
(dp1005
g74
(dp1006
sg83
g860
sg76
(lp1007
g69
(g90
g71
NtRp1008
(dp1009
g74
(dp1010
g94
g95
ssg83
g1004
sg76
(lp1011
g453
asbag69
(g90
g71
NtRp1012
(dp1013
g74
(dp1014
g101
g102
ssg83
g1004
sg76
(lp1015
S':'
asbag69
(g90
g71
NtRp1016
(dp1017
g74
(dp1018
sg83
g1004
sg76
(lp1019
g69
(g70
g71
NtRp1020
(dp1021
g74
(dp1022
g82
I3
ssg83
g1016
sg76
(lp1023
S''
asbasbasbasbasbasbasbasbasbasbasbag69
(g85
g71
NtRp1024
(dp1025
g74
(dp1026
sg83
g79
sg76
(lp1027
g69
(g90
g71
NtRp1028
(dp1029
g74
(dp1030
g94
g95
ssg83
g1024
sg76
(lp1031
S'env'
p1032
asbag69
(g90
g71
NtRp1033
(dp1034
g74
(dp1035
g101
g102
ssg83
g1024
sg76
(lp1036
S':'
asbag69
(g90
g71
NtRp1037
(dp1038
g74
(dp1039
sg83
g1024
sg76
(lp1040
g69
(g70
g71
NtRp1041
(dp1042
g74
(dp1043
g82
I5
ssg83
g1037
sg76
(lp1044
g69
(g78
g71
NtRp1045
(dp1046
g74
(dp1047
g82
I4
ssg83
Nsg76
(lp1048
g69
(g85
g71
NtRp1049
(dp1050
g74
(dp1051
sg83
g1045
sg76
(lp1052
g69
(g90
g71
NtRp1053
(dp1054
g74
(dp1055
g94
g95
ssg83
g1049
sg76
(lp1056
S'app_folders'
p1057
asbag69
(g90
g71
NtRp1058
(dp1059
g74
(dp1060
g101
g102
ssg83
g1049
sg76
(lp1061
S':'
asbag69
(g90
g71
NtRp1062
(dp1063
g74
(dp1064
sg83
g1049
sg76
(lp1065
g69
(g70
g71
NtRp1066
(dp1067
g74
(dp1068
g82
I4
ssg83
g1062
sg76
(lp1069
S"set(['/var/www/web2py_curso/applications/welcome/', '/var/www/web2py_curso/applications/admin/', '/var/www/web2py_curso/applications/projeto/'])"
p1070
asbasbasbag69
(g85
g71
NtRp1071
(dp1072
g74
(dp1073
sg83
g1045
sg76
(lp1074
g69
(g90
g71
NtRp1075
(dp1076
g74
(dp1077
g94
g95
ssg83
g1071
sg76
(lp1078
S'applications_parent'
p1079
asbag69
(g90
g71
NtRp1080
(dp1081
g74
(dp1082
g101
g102
ssg83
g1071
sg76
(lp1083
S':'
asbag69
(g90
g71
NtRp1084
(dp1085
g74
(dp1086
sg83
g1071
sg76
(lp1087
g69
(g70
g71
NtRp1088
(dp1089
g74
(dp1090
g82
I4
ssg83
g1084
sg76
(lp1091
S'/var/www/web2py_curso'
p1092
asbasbasbag69
(g85
g71
NtRp1093
(dp1094
g74
(dp1095
sg83
g1045
sg76
(lp1096
g69
(g90
g71
NtRp1097
(dp1098
g74
(dp1099
g94
g95
ssg83
g1093
sg76
(lp1100
S'cmd_args'
p1101
asbag69
(g90
g71
NtRp1102
(dp1103
g74
(dp1104
g101
g102
ssg83
g1093
sg76
(lp1105
S':'
asbag69
(g90
g71
NtRp1106
(dp1107
g74
(dp1108
sg83
g1093
sg76
(lp1109
g69
(g70
g71
NtRp1110
(dp1111
g74
(dp1112
g82
I4
ssg83
g1106
sg76
(lp1113
g69
(g78
g71
NtRp1114
(dp1115
g74
(dp1116
g82
I3
ssg83
Nsg76
(lp1117
sbasbasbasbag69
(g85
g71
NtRp1118
(dp1119
g74
(dp1120
sg83
g1045
sg76
(lp1121
g69
(g90
g71
NtRp1122
(dp1123
g74
(dp1124
g94
g95
ssg83
g1118
sg76
(lp1125
S'cmd_options'
p1126
asbag69
(g90
g71
NtRp1127
(dp1128
g74
(dp1129
g101
g102
ssg83
g1118
sg76
(lp1130
S':'
asbag69
(g90
g71
NtRp1131
(dp1132
g74
(dp1133
sg83
g1118
sg76
(lp1134
g69
(g70
g71
NtRp1135
(dp1136
g74
(dp1137
g82
I4
ssg83
g1131
sg76
(lp1138
S"<Values at 0x20c31b8: {'verbose': False, 'ip': '127.0.0.1', 'with_scheduler': False, 'ips': [], 'shutdown_timeout': 5, 'taskbar': False, 'port': 8000, 'maxthreads': None, 'softcron': False, 'server_name': 'fernado-desktop', 'bpython': False, 'nogui': False, 'pid_filename': 'httpserver.pid', 'extcron': False, 'runcron': False, 'run_system_tests': False, 'test': None, 'folder': '/var/www/web2py_curso', 'config': '', 'minthreads': None, 'winservice': '', 'shell': None, 'run': '', 'log_filename': 'httpserver.log', 'debuglevel': 30, 'args': [''], 'socket_timeout': 5, 'ssl_ca_certificate': None, 'scheduler': None, 'profiler_filename': None, 'ssl_private_key': '', 'scheduler_groups': None, 'password': '123456', 'request_queue_size': 5, 'ssl_certificate': '', 'cronjob': False, 'numthreads': None, 'quiet': False, 'interfaces': None, 'import_models': False, 'timeout': 10, 'plain': False, 'nobanner': False}>"
p1139
asbasbasbag69
(g85
g71
NtRp1140
(dp1141
g74
(dp1142
sg83
g1045
sg76
(lp1143
g69
(g90
g71
NtRp1144
(dp1145
g74
(dp1146
g94
g95
ssg83
g1140
sg76
(lp1147
S'db_sessions'
p1148
asbag69
(g90
g71
NtRp1149
(dp1150
g74
(dp1151
g101
g102
ssg83
g1140
sg76
(lp1152
S':'
asbag69
(g90
g71
NtRp1153
(dp1154
g74
(dp1155
sg83
g1140
sg76
(lp1156
g69
(g70
g71
NtRp1157
(dp1158
g74
(dp1159
g82
I4
ssg83
g1153
sg76
(lp1160
S'set([])'
p1161
asbasbasbag69
(g85
g71
NtRp1162
(dp1163
g74
(dp1164
sg83
g1045
sg76
(lp1165
g69
(g90
g71
NtRp1166
(dp1167
g74
(dp1168
g94
g95
ssg83
g1162
sg76
(lp1169
S'debugging'
p1170
asbag69
(g90
g71
NtRp1171
(dp1172
g74
(dp1173
g101
g102
ssg83
g1162
sg76
(lp1174
S':'
asbag69
(g90
g71
NtRp1175
(dp1176
g74
(dp1177
sg83
g1162
sg76
(lp1178
g69
(g70
g71
NtRp1179
(dp1180
g74
(dp1181
g82
I4
ssg83
g1175
sg76
(lp1182
g112
asbasbasbag69
(g85
g71
NtRp1183
(dp1184
g74
(dp1185
sg83
g1045
sg76
(lp1186
g69
(g90
g71
NtRp1187
(dp1188
g74
(dp1189
g94
g95
ssg83
g1183
sg76
(lp1190
S'gluon_parent'
p1191
asbag69
(g90
g71
NtRp1192
(dp1193
g74
(dp1194
g101
g102
ssg83
g1183
sg76
(lp1195
S':'
asbag69
(g90
g71
NtRp1196
(dp1197
g74
(dp1198
sg83
g1183
sg76
(lp1199
g69
(g70
g71
NtRp1200
(dp1201
g74
(dp1202
g82
I4
ssg83
g1196
sg76
(lp1203
S'/var/www/web2py_curso'
p1204
asbasbasbag69
(g85
g71
NtRp1205
(dp1206
g74
(dp1207
sg83
g1045
sg76
(lp1208
g69
(g90
g71
NtRp1209
(dp1210
g74
(dp1211
g94
g95
ssg83
g1205
sg76
(lp1212
S'http_accept'
p1213
asbag69
(g90
g71
NtRp1214
(dp1215
g74
(dp1216
g101
g102
ssg83
g1205
sg76
(lp1217
S':'
asbag69
(g90
g71
NtRp1218
(dp1219
g74
(dp1220
sg83
g1205
sg76
(lp1221
g69
(g70
g71
NtRp1222
(dp1223
g74
(dp1224
g82
I4
ssg83
g1218
sg76
(lp1225
S'text/html,application/xhtml+xml,application/xml;q=0.9,*/*;q=0.8'
p1226
asbasbasbag69
(g85
g71
NtRp1227
(dp1228
g74
(dp1229
sg83
g1045
sg76
(lp1230
g69
(g90
g71
NtRp1231
(dp1232
g74
(dp1233
g94
g95
ssg83
g1227
sg76
(lp1234
S'http_accept_charset'
p1235
asbag69
(g90
g71
NtRp1236
(dp1237
g74
(dp1238
g101
g102
ssg83
g1227
sg76
(lp1239
S':'
asbag69
(g90
g71
NtRp1240
(dp1241
g74
(dp1242
sg83
g1227
sg76
(lp1243
g69
(g70
g71
NtRp1244
(dp1245
g74
(dp1246
g82
I4
ssg83
g1240
sg76
(lp1247
S'ISO-8859-1,utf-8;q=0.7,*;q=0.3'
p1248
asbasbasbag69
(g85
g71
NtRp1249
(dp1250
g74
(dp1251
sg83
g1045
sg76
(lp1252
g69
(g90
g71
NtRp1253
(dp1254
g74
(dp1255
g94
g95
ssg83
g1249
sg76
(lp1256
S'http_accept_encoding'
p1257
asbag69
(g90
g71
NtRp1258
(dp1259
g74
(dp1260
g101
g102
ssg83
g1249
sg76
(lp1261
S':'
asbag69
(g90
g71
NtRp1262
(dp1263
g74
(dp1264
sg83
g1249
sg76
(lp1265
g69
(g70
g71
NtRp1266
(dp1267
g74
(dp1268
g82
I4
ssg83
g1262
sg76
(lp1269
S'gzip,deflate,sdch'
p1270
asbasbasbag69
(g85
g71
NtRp1271
(dp1272
g74
(dp1273
sg83
g1045
sg76
(lp1274
g69
(g90
g71
NtRp1275
(dp1276
g74
(dp1277
g94
g95
ssg83
g1271
sg76
(lp1278
S'http_accept_language'
p1279
asbag69
(g90
g71
NtRp1280
(dp1281
g74
(dp1282
g101
g102
ssg83
g1271
sg76
(lp1283
S':'
asbag69
(g90
g71
NtRp1284
(dp1285
g74
(dp1286
sg83
g1271
sg76
(lp1287
g69
(g70
g71
NtRp1288
(dp1289
g74
(dp1290
g82
I4
ssg83
g1284
sg76
(lp1291
S'pt-BR,pt;q=0.8,en-US;q=0.6,en;q=0.4'
p1292
asbasbasbag69
(g85
g71
NtRp1293
(dp1294
g74
(dp1295
sg83
g1045
sg76
(lp1296
g69
(g90
g71
NtRp1297
(dp1298
g74
(dp1299
g94
g95
ssg83
g1293
sg76
(lp1300
S'http_cache_control'
p1301
asbag69
(g90
g71
NtRp1302
(dp1303
g74
(dp1304
g101
g102
ssg83
g1293
sg76
(lp1305
S':'
asbag69
(g90
g71
NtRp1306
(dp1307
g74
(dp1308
sg83
g1293
sg76
(lp1309
g69
(g70
g71
NtRp1310
(dp1311
g74
(dp1312
g82
I4
ssg83
g1306
sg76
(lp1313
S'max-age=0'
p1314
asbasbasbag69
(g85
g71
NtRp1315
(dp1316
g74
(dp1317
sg83
g1045
sg76
(lp1318
g69
(g90
g71
NtRp1319
(dp1320
g74
(dp1321
g94
g95
ssg83
g1315
sg76
(lp1322
S'http_connection'
p1323
asbag69
(g90
g71
NtRp1324
(dp1325
g74
(dp1326
g101
g102
ssg83
g1315
sg76
(lp1327
S':'
asbag69
(g90
g71
NtRp1328
(dp1329
g74
(dp1330
sg83
g1315
sg76
(lp1331
g69
(g70
g71
NtRp1332
(dp1333
g74
(dp1334
g82
I4
ssg83
g1328
sg76
(lp1335
S'keep-alive'
p1336
asbasbasbag69
(g85
g71
NtRp1337
(dp1338
g74
(dp1339
sg83
g1045
sg76
(lp1340
g69
(g90
g71
NtRp1341
(dp1342
g74
(dp1343
g94
g95
ssg83
g1337
sg76
(lp1344
S'http_cookie'
p1345
asbag69
(g90
g71
NtRp1346
(dp1347
g74
(dp1348
g101
g102
ssg83
g1337
sg76
(lp1349
S':'
asbag69
(g90
g71
NtRp1350
(dp1351
g74
(dp1352
sg83
g1337
sg76
(lp1353
g69
(g70
g71
NtRp1354
(dp1355
g74
(dp1356
g82
I4
ssg83
g1350
sg76
(lp1357
S'session_id_home=127.0.0.1-61c26c04-034b-4717-a3a3-84ec434f1b9b; session_id_welcome=127.0.0.1-112b4c82-b064-485e-80d3-cb116c714609; session_id_admin=127.0.0.1-6b19d69e-1405-460b-b17e-ad0b8deb3490; session_id_projeto=127.0.0.1-ac2fedfb-a46a-42e9-8bef-23a136eddeb8'
p1358
asbasbasbag69
(g85
g71
NtRp1359
(dp1360
g74
(dp1361
sg83
g1045
sg76
(lp1362
g69
(g90
g71
NtRp1363
(dp1364
g74
(dp1365
g94
g95
ssg83
g1359
sg76
(lp1366
S'http_host'
p1367
asbag69
(g90
g71
NtRp1368
(dp1369
g74
(dp1370
g101
g102
ssg83
g1359
sg76
(lp1371
S':'
asbag69
(g90
g71
NtRp1372
(dp1373
g74
(dp1374
sg83
g1359
sg76
(lp1375
g69
(g70
g71
NtRp1376
(dp1377
g74
(dp1378
g82
I4
ssg83
g1372
sg76
(lp1379
S'127.0.0.1:8000'
p1380
asbasbasbag69
(g85
g71
NtRp1381
(dp1382
g74
(dp1383
sg83
g1045
sg76
(lp1384
g69
(g90
g71
NtRp1385
(dp1386
g74
(dp1387
g94
g95
ssg83
g1381
sg76
(lp1388
S'http_user_agent'
p1389
asbag69
(g90
g71
NtRp1390
(dp1391
g74
(dp1392
g101
g102
ssg83
g1381
sg76
(lp1393
S':'
asbag69
(g90
g71
NtRp1394
(dp1395
g74
(dp1396
sg83
g1381
sg76
(lp1397
g69
(g70
g71
NtRp1398
(dp1399
g74
(dp1400
g82
I4
ssg83
g1394
sg76
(lp1401
S'Mozilla/5.0 (X11; Linux x86_64) AppleWebKit/537.4 (KHTML, like Gecko) Ubuntu/12.10 Chromium/22.0.1229.94 Chrome/22.0.1229.94 Safari/537.4'
p1402
asbasbasbag69
(g85
g71
NtRp1403
(dp1404
g74
(dp1405
sg83
g1045
sg76
(lp1406
g69
(g90
g71
NtRp1407
(dp1408
g74
(dp1409
g94
g95
ssg83
g1403
sg76
(lp1410
S'is_jython'
p1411
asbag69
(g90
g71
NtRp1412
(dp1413
g74
(dp1414
g101
g102
ssg83
g1403
sg76
(lp1415
S':'
asbag69
(g90
g71
NtRp1416
(dp1417
g74
(dp1418
sg83
g1403
sg76
(lp1419
g69
(g70
g71
NtRp1420
(dp1421
g74
(dp1422
g82
I4
ssg83
g1416
sg76
(lp1423
g112
asbasbasbag69
(g85
g71
NtRp1424
(dp1425
g74
(dp1426
sg83
g1045
sg76
(lp1427
g69
(g90
g71
NtRp1428
(dp1429
g74
(dp1430
g94
g95
ssg83
g1424
sg76
(lp1431
S'is_pypy'
p1432
asbag69
(g90
g71
NtRp1433
(dp1434
g74
(dp1435
g101
g102
ssg83
g1424
sg76
(lp1436
S':'
asbag69
(g90
g71
NtRp1437
(dp1438
g74
(dp1439
sg83
g1424
sg76
(lp1440
g69
(g70
g71
NtRp1441
(dp1442
g74
(dp1443
g82
I4
ssg83
g1437
sg76
(lp1444
g112
asbasbasbag69
(g85
g71
NtRp1445
(dp1446
g74
(dp1447
sg83
g1045
sg76
(lp1448
g69
(g90
g71
NtRp1449
(dp1450
g74
(dp1451
g94
g95
ssg83
g1445
sg76
(lp1452
S'local_hosts'
p1453
asbag69
(g90
g71
NtRp1454
(dp1455
g74
(dp1456
g101
g102
ssg83
g1445
sg76
(lp1457
S':'
asbag69
(g90
g71
NtRp1458
(dp1459
g74
(dp1460
sg83
g1445
sg76
(lp1461
g69
(g70
g71
NtRp1462
(dp1463
g74
(dp1464
g82
I4
ssg83
g1458
sg76
(lp1465
g69
(g78
g71
NtRp1466
(dp1467
g74
(dp1468
g82
I3
ssg83
Nsg76
(lp1469
g69
(g85
g71
NtRp1470
(dp1471
g74
(dp1472
sg83
g1466
sg76
(lp1473
g69
(g90
g71
NtRp1474
(dp1475
g74
(dp1476
sg83
g1470
sg76
(lp1477
g69
(g70
g71
NtRp1478
(dp1479
g74
(dp1480
g82
I3
ssg83
g1474
sg76
(lp1481
S'127.0.1.1'
p1482
asbasbasbag69
(g85
g71
NtRp1483
(dp1484
g74
(dp1485
sg83
g1466
sg76
(lp1486
g69
(g90
g71
NtRp1487
(dp1488
g74
(dp1489
sg83
g1483
sg76
(lp1490
g69
(g70
g71
NtRp1491
(dp1492
g74
(dp1493
g82
I3
ssg83
g1487
sg76
(lp1494
S'::1'
p1495
asbasbasbag69
(g85
g71
NtRp1496
(dp1497
g74
(dp1498
sg83
g1466
sg76
(lp1499
g69
(g90
g71
NtRp1500
(dp1501
g74
(dp1502
sg83
g1496
sg76
(lp1503
g69
(g70
g71
NtRp1504
(dp1505
g74
(dp1506
g82
I3
ssg83
g1500
sg76
(lp1507
S'fernado-desktop'
p1508
asbasbasbag69
(g85
g71
NtRp1509
(dp1510
g74
(dp1511
sg83
g1466
sg76
(lp1512
g69
(g90
g71
NtRp1513
(dp1514
g74
(dp1515
sg83
g1509
sg76
(lp1516
g69
(g70
g71
NtRp1517
(dp1518
g74
(dp1519
g82
I3
ssg83
g1513
sg76
(lp1520
S'::ffff:127.0.0.1'
p1521
asbasbasbag69
(g85
g71
NtRp1522
(dp1523
g74
(dp1524
sg83
g1466
sg76
(lp1525
g69
(g90
g71
NtRp1526
(dp1527
g74
(dp1528
sg83
g1522
sg76
(lp1529
g69
(g70
g71
NtRp1530
(dp1531
g74
(dp1532
g82
I3
ssg83
g1526
sg76
(lp1533
S'127.0.0.1'
p1534
asbasbasbasbasbasbasbag69
(g85
g71
NtRp1535
(dp1536
g74
(dp1537
sg83
g1045
sg76
(lp1538
g69
(g90
g71
NtRp1539
(dp1540
g74
(dp1541
g94
g95
ssg83
g1535
sg76
(lp1542
S'path_info'
p1543
asbag69
(g90
g71
NtRp1544
(dp1545
g74
(dp1546
g101
g102
ssg83
g1535
sg76
(lp1547
S':'
asbag69
(g90
g71
NtRp1548
(dp1549
g74
(dp1550
sg83
g1535
sg76
(lp1551
g69
(g70
g71
NtRp1552
(dp1553
g74
(dp1554
g82
I4
ssg83
g1548
sg76
(lp1555
S'/projeto/default/'
p1556
asbasbasbag69
(g85
g71
NtRp1557
(dp1558
g74
(dp1559
sg83
g1045
sg76
(lp1560
g69
(g90
g71
NtRp1561
(dp1562
g74
(dp1563
g94
g95
ssg83
g1557
sg76
(lp1564
S'query_string'
p1565
asbag69
(g90
g71
NtRp1566
(dp1567
g74
(dp1568
g101
g102
ssg83
g1557
sg76
(lp1569
S':'
asbag69
(g90
g71
NtRp1570
(dp1571
g74
(dp1572
sg83
g1557
sg76
(lp1573
g69
(g70
g71
NtRp1574
(dp1575
g74
(dp1576
g82
I4
ssg83
g1570
sg76
(lp1577
S'nome=fer'
p1578
asbasbasbag69
(g85
g71
NtRp1579
(dp1580
g74
(dp1581
sg83
g1045
sg76
(lp1582
g69
(g90
g71
NtRp1583
(dp1584
g74
(dp1585
g94
g95
ssg83
g1579
sg76
(lp1586
S'remote_addr'
p1587
asbag69
(g90
g71
NtRp1588
(dp1589
g74
(dp1590
g101
g102
ssg83
g1579
sg76
(lp1591
S':'
asbag69
(g90
g71
NtRp1592
(dp1593
g74
(dp1594
sg83
g1579
sg76
(lp1595
g69
(g70
g71
NtRp1596
(dp1597
g74
(dp1598
g82
I4
ssg83
g1592
sg76
(lp1599
g224
asbasbasbag69
(g85
g71
NtRp1600
(dp1601
g74
(dp1602
sg83
g1045
sg76
(lp1603
g69
(g90
g71
NtRp1604
(dp1605
g74
(dp1606
g94
g95
ssg83
g1600
sg76
(lp1607
S'remote_port'
p1608
asbag69
(g90
g71
NtRp1609
(dp1610
g74
(dp1611
g101
g102
ssg83
g1600
sg76
(lp1612
S':'
asbag69
(g90
g71
NtRp1613
(dp1614
g74
(dp1615
sg83
g1600
sg76
(lp1616
g69
(g70
g71
NtRp1617
(dp1618
g74
(dp1619
g82
I4
ssg83
g1613
sg76
(lp1620
S'47004'
p1621
asbasbasbag69
(g85
g71
NtRp1622
(dp1623
g74
(dp1624
sg83
g1045
sg76
(lp1625
g69
(g90
g71
NtRp1626
(dp1627
g74
(dp1628
g94
g95
ssg83
g1622
sg76
(lp1629
S'request_method'
p1630
asbag69
(g90
g71
NtRp1631
(dp1632
g74
(dp1633
g101
g102
ssg83
g1622
sg76
(lp1634
S':'
asbag69
(g90
g71
NtRp1635
(dp1636
g74
(dp1637
sg83
g1622
sg76
(lp1638
g69
(g70
g71
NtRp1639
(dp1640
g74
(dp1641
g82
I4
ssg83
g1635
sg76
(lp1642
S'GET'
p1643
asbasbasbag69
(g85
g71
NtRp1644
(dp1645
g74
(dp1646
sg83
g1045
sg76
(lp1647
g69
(g90
g71
NtRp1648
(dp1649
g74
(dp1650
g94
g95
ssg83
g1644
sg76
(lp1651
S'request_uri'
p1652
asbag69
(g90
g71
NtRp1653
(dp1654
g74
(dp1655
g101
g102
ssg83
g1644
sg76
(lp1656
S':'
asbag69
(g90
g71
NtRp1657
(dp1658
g74
(dp1659
sg83
g1644
sg76
(lp1660
g69
(g70
g71
NtRp1661
(dp1662
g74
(dp1663
g82
I4
ssg83
g1657
sg76
(lp1664
S'/projeto/default/?nome=fer'
p1665
asbasbasbag69
(g85
g71
NtRp1666
(dp1667
g74
(dp1668
sg83
g1045
sg76
(lp1669
g69
(g90
g71
NtRp1670
(dp1671
g74
(dp1672
g94
g95
ssg83
g1666
sg76
(lp1673
S'script_name'
p1674
asbag69
(g90
g71
NtRp1675
(dp1676
g74
(dp1677
g101
g102
ssg83
g1666
sg76
(lp1678
S':'
asbag69
(g90
g71
NtRp1679
(dp1680
g74
(dp1681
sg83
g1666
sg76
(lp1682
g69
(g70
g71
NtRp1683
(dp1684
g74
(dp1685
g82
I4
ssg83
g1679
sg76
(lp1686
S''
asbasbasbag69
(g85
g71
NtRp1687
(dp1688
g74
(dp1689
sg83
g1045
sg76
(lp1690
g69
(g90
g71
NtRp1691
(dp1692
g74
(dp1693
g94
g95
ssg83
g1687
sg76
(lp1694
S'server_name'
p1695
asbag69
(g90
g71
NtRp1696
(dp1697
g74
(dp1698
g101
g102
ssg83
g1687
sg76
(lp1699
S':'
asbag69
(g90
g71
NtRp1700
(dp1701
g74
(dp1702
sg83
g1687
sg76
(lp1703
g69
(g70
g71
NtRp1704
(dp1705
g74
(dp1706
g82
I4
ssg83
g1700
sg76
(lp1707
S'fernado-desktop'
p1708
asbasbasbag69
(g85
g71
NtRp1709
(dp1710
g74
(dp1711
sg83
g1045
sg76
(lp1712
g69
(g90
g71
NtRp1713
(dp1714
g74
(dp1715
g94
g95
ssg83
g1709
sg76
(lp1716
S'server_port'
p1717
asbag69
(g90
g71
NtRp1718
(dp1719
g74
(dp1720
g101
g102
ssg83
g1709
sg76
(lp1721
S':'
asbag69
(g90
g71
NtRp1722
(dp1723
g74
(dp1724
sg83
g1709
sg76
(lp1725
g69
(g70
g71
NtRp1726
(dp1727
g74
(dp1728
g82
I4
ssg83
g1722
sg76
(lp1729
S'8000'
p1730
asbasbasbag69
(g85
g71
NtRp1731
(dp1732
g74
(dp1733
sg83
g1045
sg76
(lp1734
g69
(g90
g71
NtRp1735
(dp1736
g74
(dp1737
g94
g95
ssg83
g1731
sg76
(lp1738
S'server_protocol'
p1739
asbag69
(g90
g71
NtRp1740
(dp1741
g74
(dp1742
g101
g102
ssg83
g1731
sg76
(lp1743
S':'
asbag69
(g90
g71
NtRp1744
(dp1745
g74
(dp1746
sg83
g1731
sg76
(lp1747
g69
(g70
g71
NtRp1748
(dp1749
g74
(dp1750
g82
I4
ssg83
g1744
sg76
(lp1751
S'HTTP/1.1'
p1752
asbasbasbag69
(g85
g71
NtRp1753
(dp1754
g74
(dp1755
sg83
g1045
sg76
(lp1756
g69
(g90
g71
NtRp1757
(dp1758
g74
(dp1759
g94
g95
ssg83
g1753
sg76
(lp1760
S'server_software'
p1761
asbag69
(g90
g71
NtRp1762
(dp1763
g74
(dp1764
g101
g102
ssg83
g1753
sg76
(lp1765
S':'
asbag69
(g90
g71
NtRp1766
(dp1767
g74
(dp1768
sg83
g1753
sg76
(lp1769
g69
(g70
g71
NtRp1770
(dp1771
g74
(dp1772
g82
I4
ssg83
g1766
sg76
(lp1773
S'Rocket 1.2.6'
p1774
asbasbasbag69
(g85
g71
NtRp1775
(dp1776
g74
(dp1777
sg83
g1045
sg76
(lp1778
g69
(g90
g71
NtRp1779
(dp1780
g74
(dp1781
g94
g95
ssg83
g1775
sg76
(lp1782
S'web2py_path'
p1783
asbag69
(g90
g71
NtRp1784
(dp1785
g74
(dp1786
g101
g102
ssg83
g1775
sg76
(lp1787
S':'
asbag69
(g90
g71
NtRp1788
(dp1789
g74
(dp1790
sg83
g1775
sg76
(lp1791
g69
(g70
g71
NtRp1792
(dp1793
g74
(dp1794
g82
I4
ssg83
g1788
sg76
(lp1795
g1092
asbasbasbag69
(g85
g71
NtRp1796
(dp1797
g74
(dp1798
sg83
g1045
sg76
(lp1799
g69
(g90
g71
NtRp1800
(dp1801
g74
(dp1802
g94
g95
ssg83
g1796
sg76
(lp1803
S'web2py_version'
p1804
asbag69
(g90
g71
NtRp1805
(dp1806
g74
(dp1807
g101
g102
ssg83
g1796
sg76
(lp1808
S':'
asbag69
(g90
g71
NtRp1809
(dp1810
g74
(dp1811
sg83
g1796
sg76
(lp1812
g69
(g70
g71
NtRp1813
(dp1814
g74
(dp1815
g82
I4
ssg83
g1809
sg76
(lp1816
g69
(g78
g71
NtRp1817
(dp1818
g74
(dp1819
g82
I3
ssg83
Nsg76
(lp1820
g69
(g85
g71
NtRp1821
(dp1822
g74
(dp1823
sg83
g1817
sg76
(lp1824
g69
(g90
g71
NtRp1825
(dp1826
g74
(dp1827
sg83
g1821
sg76
(lp1828
g69
(g70
g71
NtRp1829
(dp1830
g74
(dp1831
g82
I3
ssg83
g1825
sg76
(lp1832
S'2'
asbasbasbag69
(g85
g71
NtRp1833
(dp1834
g74
(dp1835
sg83
g1817
sg76
(lp1836
g69
(g90
g71
NtRp1837
(dp1838
g74
(dp1839
sg83
g1833
sg76
(lp1840
g69
(g70
g71
NtRp1841
(dp1842
g74
(dp1843
g82
I3
ssg83
g1837
sg76
(lp1844
S'3'
asbasbasbag69
(g85
g71
NtRp1845
(dp1846
g74
(dp1847
sg83
g1817
sg76
(lp1848
g69
(g90
g71
NtRp1849
(dp1850
g74
(dp1851
sg83
g1845
sg76
(lp1852
g69
(g70
g71
NtRp1853
(dp1854
g74
(dp1855
g82
I3
ssg83
g1849
sg76
(lp1856
S'2'
asbasbasbag69
(g85
g71
NtRp1857
(dp1858
g74
(dp1859
sg83
g1817
sg76
(lp1860
g69
(g90
g71
NtRp1861
(dp1862
g74
(dp1863
sg83
g1857
sg76
(lp1864
g69
(g70
g71
NtRp1865
(dp1866
g74
(dp1867
g82
I3
ssg83
g1861
sg76
(lp1868
S'datetime.datetime(2012, 12, 17, 15, 3, 30)'
p1869
asbasbasbag69
(g85
g71
NtRp1870
(dp1871
g74
(dp1872
sg83
g1817
sg76
(lp1873
g69
(g90
g71
NtRp1874
(dp1875
g74
(dp1876
sg83
g1870
sg76
(lp1877
g69
(g70
g71
NtRp1878
(dp1879
g74
(dp1880
g82
I3
ssg83
g1874
sg76
(lp1881
S'stable'
p1882
asbasbasbasbasbasbasbag69
(g85
g71
NtRp1883
(dp1884
g74
(dp1885
sg83
g1045
sg76
(lp1886
g69
(g90
g71
NtRp1887
(dp1888
g74
(dp1889
g94
g95
ssg83
g1883
sg76
(lp1890
S'wsgi_errors'
p1891
asbag69
(g90
g71
NtRp1892
(dp1893
g74
(dp1894
g101
g102
ssg83
g1883
sg76
(lp1895
S':'
asbag69
(g90
g71
NtRp1896
(dp1897
g74
(dp1898
sg83
g1883
sg76
(lp1899
g69
(g70
g71
NtRp1900
(dp1901
g74
(dp1902
g82
I4
ssg83
g1896
sg76
(lp1903
S"<open file '<stderr>', mode 'w' at 0x7fde3c532270>"
p1904
asbasbasbag69
(g85
g71
NtRp1905
(dp1906
g74
(dp1907
sg83
g1045
sg76
(lp1908
g69
(g90
g71
NtRp1909
(dp1910
g74
(dp1911
g94
g95
ssg83
g1905
sg76
(lp1912
S'wsgi_file_wrapper'
p1913
asbag69
(g90
g71
NtRp1914
(dp1915
g74
(dp1916
g101
g102
ssg83
g1905
sg76
(lp1917
S':'
asbag69
(g90
g71
NtRp1918
(dp1919
g74
(dp1920
sg83
g1905
sg76
(lp1921
g69
(g70
g71
NtRp1922
(dp1923
g74
(dp1924
g82
I4
ssg83
g1918
sg76
(lp1925
S'<class wsgiref.util.FileWrapper at 0x2cd6c18>'
p1926
asbasbasbag69
(g85
g71
NtRp1927
(dp1928
g74
(dp1929
sg83
g1045
sg76
(lp1930
g69
(g90
g71
NtRp1931
(dp1932
g74
(dp1933
g94
g95
ssg83
g1927
sg76
(lp1934
S'wsgi_input'
p1935
asbag69
(g90
g71
NtRp1936
(dp1937
g74
(dp1938
g101
g102
ssg83
g1927
sg76
(lp1939
S':'
asbag69
(g90
g71
NtRp1940
(dp1941
g74
(dp1942
sg83
g1927
sg76
(lp1943
g69
(g70
g71
NtRp1944
(dp1945
g74
(dp1946
g82
I4
ssg83
g1940
sg76
(lp1947
S'<socket._fileobject object at 0x7fde308ef050>'
p1948
asbasbasbag69
(g85
g71
NtRp1949
(dp1950
g74
(dp1951
sg83
g1045
sg76
(lp1952
g69
(g90
g71
NtRp1953
(dp1954
g74
(dp1955
g94
g95
ssg83
g1949
sg76
(lp1956
S'wsgi_multiprocess'
p1957
asbag69
(g90
g71
NtRp1958
(dp1959
g74
(dp1960
g101
g102
ssg83
g1949
sg76
(lp1961
S':'
asbag69
(g90
g71
NtRp1962
(dp1963
g74
(dp1964
sg83
g1949
sg76
(lp1965
g69
(g70
g71
NtRp1966
(dp1967
g74
(dp1968
g82
I4
ssg83
g1962
sg76
(lp1969
g112
asbasbasbag69
(g85
g71
NtRp1970
(dp1971
g74
(dp1972
sg83
g1045
sg76
(lp1973
g69
(g90
g71
NtRp1974
(dp1975
g74
(dp1976
g94
g95
ssg83
g1970
sg76
(lp1977
S'wsgi_multithread'
p1978
asbag69
(g90
g71
NtRp1979
(dp1980
g74
(dp1981
g101
g102
ssg83
g1970
sg76
(lp1982
S':'
asbag69
(g90
g71
NtRp1983
(dp1984
g74
(dp1985
sg83
g1970
sg76
(lp1986
g69
(g70
g71
NtRp1987
(dp1988
g74
(dp1989
g82
I4
ssg83
g1983
sg76
(lp1990
S'True'
p1991
asbasbasbag69
(g85
g71
NtRp1992
(dp1993
g74
(dp1994
sg83
g1045
sg76
(lp1995
g69
(g90
g71
NtRp1996
(dp1997
g74
(dp1998
g94
g95
ssg83
g1992
sg76
(lp1999
S'wsgi_run_once'
p2000
asbag69
(g90
g71
NtRp2001
(dp2002
g74
(dp2003
g101
g102
ssg83
g1992
sg76
(lp2004
S':'
asbag69
(g90
g71
NtRp2005
(dp2006
g74
(dp2007
sg83
g1992
sg76
(lp2008
g69
(g70
g71
NtRp2009
(dp2010
g74
(dp2011
g82
I4
ssg83
g2005
sg76
(lp2012
g112
asbasbasbag69
(g85
g71
NtRp2013
(dp2014
g74
(dp2015
sg83
g1045
sg76
(lp2016
g69
(g90
g71
NtRp2017
(dp2018
g74
(dp2019
g94
g95
ssg83
g2013
sg76
(lp2020
S'wsgi_url_scheme'
p2021
asbag69
(g90
g71
NtRp2022
(dp2023
g74
(dp2024
g101
g102
ssg83
g2013
sg76
(lp2025
S':'
asbag69
(g90
g71
NtRp2026
(dp2027
g74
(dp2028
sg83
g2013
sg76
(lp2029
g69
(g70
g71
NtRp2030
(dp2031
g74
(dp2032
g82
I4
ssg83
g2026
sg76
(lp2033
S'http'
p2034
asbasbasbag69
(g85
g71
NtRp2035
(dp2036
g74
(dp2037
sg83
g1045
sg76
(lp2038
g69
(g90
g71
NtRp2039
(dp2040
g74
(dp2041
g94
g95
ssg83
g2035
sg76
(lp2042
S'wsgi_version'
p2043
asbag69
(g90
g71
NtRp2044
(dp2045
g74
(dp2046
g101
g102
ssg83
g2035
sg76
(lp2047
S':'
asbag69
(g90
g71
NtRp2048
(dp2049
g74
(dp2050
sg83
g2035
sg76
(lp2051
g69
(g70
g71
NtRp2052
(dp2053
g74
(dp2054
g82
I4
ssg83
g2048
sg76
(lp2055
g69
(g78
g71
NtRp2056
(dp2057
g74
(dp2058
g82
I3
ssg83
Nsg76
(lp2059
g69
(g85
g71
NtRp2060
(dp2061
g74
(dp2062
sg83
g2056
sg76
(lp2063
g69
(g90
g71
NtRp2064
(dp2065
g74
(dp2066
sg83
g2060
sg76
(lp2067
g69
(g70
g71
NtRp2068
(dp2069
g74
(dp2070
g82
I3
ssg83
g2064
sg76
(lp2071
S'1'
asbasbasbag69
(g85
g71
NtRp2072
(dp2073
g74
(dp2074
sg83
g2056
sg76
(lp2075
g69
(g90
g71
NtRp2076
(dp2077
g74
(dp2078
sg83
g2072
sg76
(lp2079
g69
(g70
g71
NtRp2080
(dp2081
g74
(dp2082
g82
I3
ssg83
g2076
sg76
(lp2083
S'0'
asbasbasbasbasbasbasbasbasbasbasbag69
(g85
g71
NtRp2084
(dp2085
g74
(dp2086
sg83
g79
sg76
(lp2087
g69
(g90
g71
NtRp2088
(dp2089
g74
(dp2090
g94
g95
ssg83
g2084
sg76
(lp2091
S'extension'
p2092
asbag69
(g90
g71
NtRp2093
(dp2094
g74
(dp2095
g101
g102
ssg83
g2084
sg76
(lp2096
S':'
asbag69
(g90
g71
NtRp2097
(dp2098
g74
(dp2099
sg83
g2084
sg76
(lp2100
g69
(g70
g71
NtRp2101
(dp2102
g74
(dp2103
g82
I5
ssg83
g2097
sg76
(lp2104
S'html'
p2105
asbasbasbag69
(g85
g71
NtRp2106
(dp2107
g74
(dp2108
sg83
g79
sg76
(lp2109
g69
(g90
g71
NtRp2110
(dp2111
g74
(dp2112
g94
g95
ssg83
g2106
sg76
(lp2113
S'folder'
p2114
asbag69
(g90
g71
NtRp2115
(dp2116
g74
(dp2117
g101
g102
ssg83
g2106
sg76
(lp2118
S':'
asbag69
(g90
g71
NtRp2119
(dp2120
g74
(dp2121
sg83
g2106
sg76
(lp2122
g69
(g70
g71
NtRp2123
(dp2124
g74
(dp2125
g82
I5
ssg83
g2119
sg76
(lp2126
S'/var/www/web2py_curso/applications/projeto/'
p2127
asbasbasbag69
(g85
g71
NtRp2128
(dp2129
g74
(dp2130
sg83
g79
sg76
(lp2131
g69
(g90
g71
NtRp2132
(dp2133
g74
(dp2134
g94
g95
ssg83
g2128
sg76
(lp2135
S'function'
p2136
asbag69
(g90
g71
NtRp2137
(dp2138
g74
(dp2139
g101
g102
ssg83
g2128
sg76
(lp2140
S':'
asbag69
(g90
g71
NtRp2141
(dp2142
g74
(dp2143
sg83
g2128
sg76
(lp2144
g69
(g70
g71
NtRp2145
(dp2146
g74
(dp2147
g82
I5
ssg83
g2141
sg76
(lp2148
S'index'
p2149
asbasbasbag69
(g85
g71
NtRp2150
(dp2151
g74
(dp2152
sg83
g79
sg76
(lp2153
g69
(g90
g71
NtRp2154
(dp2155
g74
(dp2156
g94
g95
ssg83
g2150
sg76
(lp2157
S'get_vars'
p2158
asbag69
(g90
g71
NtRp2159
(dp2160
g74
(dp2161
g101
g102
ssg83
g2150
sg76
(lp2162
S':'
asbag69
(g90
g71
NtRp2163
(dp2164
g74
(dp2165
sg83
g2150
sg76
(lp2166
g69
(g70
g71
NtRp2167
(dp2168
g74
(dp2169
g82
I5
ssg83
g2163
sg76
(lp2170
g69
(g78
g71
NtRp2171
(dp2172
g74
(dp2173
g82
I4
ssg83
Nsg76
(lp2174
g69
(g85
g71
NtRp2175
(dp2176
g74
(dp2177
sg83
g2171
sg76
(lp2178
g69
(g90
g71
NtRp2179
(dp2180
g74
(dp2181
g94
g95
ssg83
g2175
sg76
(lp2182
S'nome'
p2183
asbag69
(g90
g71
NtRp2184
(dp2185
g74
(dp2186
g101
g102
ssg83
g2175
sg76
(lp2187
S':'
asbag69
(g90
g71
NtRp2188
(dp2189
g74
(dp2190
sg83
g2175
sg76
(lp2191
g69
(g70
g71
NtRp2192
(dp2193
g74
(dp2194
g82
I4
ssg83
g2188
sg76
(lp2195
S'fer'
p2196
asbasbasbasbasbasbasbag69
(g85
g71
NtRp2197
(dp2198
g74
(dp2199
sg83
g79
sg76
(lp2200
g69
(g90
g71
NtRp2201
(dp2202
g74
(dp2203
g94
g95
ssg83
g2197
sg76
(lp2204
S'global_settings'
p2205
asbag69
(g90
g71
NtRp2206
(dp2207
g74
(dp2208
g101
g102
ssg83
g2197
sg76
(lp2209
S':'
asbag69
(g90
g71
NtRp2210
(dp2211
g74
(dp2212
sg83
g2197
sg76
(lp2213
g69
(g70
g71
NtRp2214
(dp2215
g74
(dp2216
g82
I5
ssg83
g2210
sg76
(lp2217
g69
(g78
g71
NtRp2218
(dp2219
g74
(dp2220
g82
I4
ssg83
Nsg76
(lp2221
g69
(g85
g71
NtRp2222
(dp2223
g74
(dp2224
sg83
g2218
sg76
(lp2225
g69
(g90
g71
NtRp2226
(dp2227
g74
(dp2228
g94
g95
ssg83
g2222
sg76
(lp2229
g1057
asbag69
(g90
g71
NtRp2230
(dp2231
g74
(dp2232
g101
g102
ssg83
g2222
sg76
(lp2233
S':'
asbag69
(g90
g71
NtRp2234
(dp2235
g74
(dp2236
sg83
g2222
sg76
(lp2237
g69
(g70
g71
NtRp2238
(dp2239
g74
(dp2240
g82
I4
ssg83
g2234
sg76
(lp2241
S"set(['/var/www/web2py_curso/applications/welcome/', '/var/www/web2py_curso/applications/admin/', '/var/www/web2py_curso/applications/projeto/'])"
p2242
asbasbasbag69
(g85
g71
NtRp2243
(dp2244
g74
(dp2245
sg83
g2218
sg76
(lp2246
g69
(g90
g71
NtRp2247
(dp2248
g74
(dp2249
g94
g95
ssg83
g2243
sg76
(lp2250
g1079
asbag69
(g90
g71
NtRp2251
(dp2252
g74
(dp2253
g101
g102
ssg83
g2243
sg76
(lp2254
S':'
asbag69
(g90
g71
NtRp2255
(dp2256
g74
(dp2257
sg83
g2243
sg76
(lp2258
g69
(g70
g71
NtRp2259
(dp2260
g74
(dp2261
g82
I4
ssg83
g2255
sg76
(lp2262
g1092
asbasbasbag69
(g85
g71
NtRp2263
(dp2264
g74
(dp2265
sg83
g2218
sg76
(lp2266
g69
(g90
g71
NtRp2267
(dp2268
g74
(dp2269
g94
g95
ssg83
g2263
sg76
(lp2270
g1101
asbag69
(g90
g71
NtRp2271
(dp2272
g74
(dp2273
g101
g102
ssg83
g2263
sg76
(lp2274
S':'
asbag69
(g90
g71
NtRp2275
(dp2276
g74
(dp2277
sg83
g2263
sg76
(lp2278
g69
(g70
g71
NtRp2279
(dp2280
g74
(dp2281
g82
I4
ssg83
g2275
sg76
(lp2282
g69
(g78
g71
NtRp2283
(dp2284
g74
(dp2285
g82
I3
ssg83
Nsg76
(lp2286
sbasbasbasbag69
(g85
g71
NtRp2287
(dp2288
g74
(dp2289
sg83
g2218
sg76
(lp2290
g69
(g90
g71
NtRp2291
(dp2292
g74
(dp2293
g94
g95
ssg83
g2287
sg76
(lp2294
g1126
asbag69
(g90
g71
NtRp2295
(dp2296
g74
(dp2297
g101
g102
ssg83
g2287
sg76
(lp2298
S':'
asbag69
(g90
g71
NtRp2299
(dp2300
g74
(dp2301
sg83
g2287
sg76
(lp2302
g69
(g70
g71
NtRp2303
(dp2304
g74
(dp2305
g82
I4
ssg83
g2299
sg76
(lp2306
S"<Values at 0x20c31b8: {'verbose': False, 'ip': '127.0.0.1', 'with_scheduler': False, 'ips': [], 'shutdown_timeout': 5, 'taskbar': False, 'port': 8000, 'maxthreads': None, 'softcron': False, 'server_name': 'fernado-desktop', 'bpython': False, 'nogui': False, 'pid_filename': 'httpserver.pid', 'extcron': False, 'runcron': False, 'run_system_tests': False, 'test': None, 'folder': '/var/www/web2py_curso', 'config': '', 'minthreads': None, 'winservice': '', 'shell': None, 'run': '', 'log_filename': 'httpserver.log', 'debuglevel': 30, 'args': [''], 'socket_timeout': 5, 'ssl_ca_certificate': None, 'scheduler': None, 'profiler_filename': None, 'ssl_private_key': '', 'scheduler_groups': None, 'password': '123456', 'request_queue_size': 5, 'ssl_certificate': '', 'cronjob': False, 'numthreads': None, 'quiet': False, 'interfaces': None, 'import_models': False, 'timeout': 10, 'plain': False, 'nobanner': False}>"
p2307
asbasbasbag69
(g85
g71
NtRp2308
(dp2309
g74
(dp2310
sg83
g2218
sg76
(lp2311
g69
(g90
g71
NtRp2312
(dp2313
g74
(dp2314
g94
g95
ssg83
g2308
sg76
(lp2315
g1148
asbag69
(g90
g71
NtRp2316
(dp2317
g74
(dp2318
g101
g102
ssg83
g2308
sg76
(lp2319
S':'
asbag69
(g90
g71
NtRp2320
(dp2321
g74
(dp2322
sg83
g2308
sg76
(lp2323
g69
(g70
g71
NtRp2324
(dp2325
g74
(dp2326
g82
I4
ssg83
g2320
sg76
(lp2327
S'set([])'
p2328
asbasbasbag69
(g85
g71
NtRp2329
(dp2330
g74
(dp2331
sg83
g2218
sg76
(lp2332
g69
(g90
g71
NtRp2333
(dp2334
g74
(dp2335
g94
g95
ssg83
g2329
sg76
(lp2336
g1170
asbag69
(g90
g71
NtRp2337
(dp2338
g74
(dp2339
g101
g102
ssg83
g2329
sg76
(lp2340
S':'
asbag69
(g90
g71
NtRp2341
(dp2342
g74
(dp2343
sg83
g2329
sg76
(lp2344
g69
(g70
g71
NtRp2345
(dp2346
g74
(dp2347
g82
I4
ssg83
g2341
sg76
(lp2348
g112
asbasbasbag69
(g85
g71
NtRp2349
(dp2350
g74
(dp2351
sg83
g2218
sg76
(lp2352
g69
(g90
g71
NtRp2353
(dp2354
g74
(dp2355
g94
g95
ssg83
g2349
sg76
(lp2356
g1191
asbag69
(g90
g71
NtRp2357
(dp2358
g74
(dp2359
g101
g102
ssg83
g2349
sg76
(lp2360
S':'
asbag69
(g90
g71
NtRp2361
(dp2362
g74
(dp2363
sg83
g2349
sg76
(lp2364
g69
(g70
g71
NtRp2365
(dp2366
g74
(dp2367
g82
I4
ssg83
g2361
sg76
(lp2368
g1204
asbasbasbag69
(g85
g71
NtRp2369
(dp2370
g74
(dp2371
sg83
g2218
sg76
(lp2372
g69
(g90
g71
NtRp2373
(dp2374
g74
(dp2375
g94
g95
ssg83
g2369
sg76
(lp2376
g1411
asbag69
(g90
g71
NtRp2377
(dp2378
g74
(dp2379
g101
g102
ssg83
g2369
sg76
(lp2380
S':'
asbag69
(g90
g71
NtRp2381
(dp2382
g74
(dp2383
sg83
g2369
sg76
(lp2384
g69
(g70
g71
NtRp2385
(dp2386
g74
(dp2387
g82
I4
ssg83
g2381
sg76
(lp2388
g112
asbasbasbag69
(g85
g71
NtRp2389
(dp2390
g74
(dp2391
sg83
g2218
sg76
(lp2392
g69
(g90
g71
NtRp2393
(dp2394
g74
(dp2395
g94
g95
ssg83
g2389
sg76
(lp2396
g1432
asbag69
(g90
g71
NtRp2397
(dp2398
g74
(dp2399
g101
g102
ssg83
g2389
sg76
(lp2400
S':'
asbag69
(g90
g71
NtRp2401
(dp2402
g74
(dp2403
sg83
g2389
sg76
(lp2404
g69
(g70
g71
NtRp2405
(dp2406
g74
(dp2407
g82
I4
ssg83
g2401
sg76
(lp2408
g112
asbasbasbag69
(g85
g71
NtRp2409
(dp2410
g74
(dp2411
sg83
g2218
sg76
(lp2412
g69
(g90
g71
NtRp2413
(dp2414
g74
(dp2415
g94
g95
ssg83
g2409
sg76
(lp2416
g1453
asbag69
(g90
g71
NtRp2417
(dp2418
g74
(dp2419
g101
g102
ssg83
g2409
sg76
(lp2420
S':'
asbag69
(g90
g71
NtRp2421
(dp2422
g74
(dp2423
sg83
g2409
sg76
(lp2424
g69
(g70
g71
NtRp2425
(dp2426
g74
(dp2427
g82
I4
ssg83
g2421
sg76
(lp2428
g69
(g78
g71
NtRp2429
(dp2430
g74
(dp2431
g82
I3
ssg83
Nsg76
(lp2432
g69
(g85
g71
NtRp2433
(dp2434
g74
(dp2435
sg83
g2429
sg76
(lp2436
g69
(g90
g71
NtRp2437
(dp2438
g74
(dp2439
sg83
g2433
sg76
(lp2440
g69
(g70
g71
NtRp2441
(dp2442
g74
(dp2443
g82
I3
ssg83
g2437
sg76
(lp2444
g1482
asbasbasbag69
(g85
g71
NtRp2445
(dp2446
g74
(dp2447
sg83
g2429
sg76
(lp2448
g69
(g90
g71
NtRp2449
(dp2450
g74
(dp2451
sg83
g2445
sg76
(lp2452
g69
(g70
g71
NtRp2453
(dp2454
g74
(dp2455
g82
I3
ssg83
g2449
sg76
(lp2456
g1495
asbasbasbag69
(g85
g71
NtRp2457
(dp2458
g74
(dp2459
sg83
g2429
sg76
(lp2460
g69
(g90
g71
NtRp2461
(dp2462
g74
(dp2463
sg83
g2457
sg76
(lp2464
g69
(g70
g71
NtRp2465
(dp2466
g74
(dp2467
g82
I3
ssg83
g2461
sg76
(lp2468
g1508
asbasbasbag69
(g85
g71
NtRp2469
(dp2470
g74
(dp2471
sg83
g2429
sg76
(lp2472
g69
(g90
g71
NtRp2473
(dp2474
g74
(dp2475
sg83
g2469
sg76
(lp2476
g69
(g70
g71
NtRp2477
(dp2478
g74
(dp2479
g82
I3
ssg83
g2473
sg76
(lp2480
g1521
asbasbasbag69
(g85
g71
NtRp2481
(dp2482
g74
(dp2483
sg83
g2429
sg76
(lp2484
g69
(g90
g71
NtRp2485
(dp2486
g74
(dp2487
sg83
g2481
sg76
(lp2488
g69
(g70
g71
NtRp2489
(dp2490
g74
(dp2491
g82
I3
ssg83
g2485
sg76
(lp2492
g1534
asbasbasbasbasbasbasbag69
(g85
g71
NtRp2493
(dp2494
g74
(dp2495
sg83
g2218
sg76
(lp2496
g69
(g90
g71
NtRp2497
(dp2498
g74
(dp2499
g94
g95
ssg83
g2493
sg76
(lp2500
g1804
asbag69
(g90
g71
NtRp2501
(dp2502
g74
(dp2503
g101
g102
ssg83
g2493
sg76
(lp2504
S':'
asbag69
(g90
g71
NtRp2505
(dp2506
g74
(dp2507
sg83
g2493
sg76
(lp2508
g69
(g70
g71
NtRp2509
(dp2510
g74
(dp2511
g82
I4
ssg83
g2505
sg76
(lp2512
g69
(g78
g71
NtRp2513
(dp2514
g74
(dp2515
g82
I3
ssg83
Nsg76
(lp2516
g69
(g85
g71
NtRp2517
(dp2518
g74
(dp2519
sg83
g2513
sg76
(lp2520
g69
(g90
g71
NtRp2521
(dp2522
g74
(dp2523
sg83
g2517
sg76
(lp2524
g69
(g70
g71
NtRp2525
(dp2526
g74
(dp2527
g82
I3
ssg83
g2521
sg76
(lp2528
S'2'
asbasbasbag69
(g85
g71
NtRp2529
(dp2530
g74
(dp2531
sg83
g2513
sg76
(lp2532
g69
(g90
g71
NtRp2533
(dp2534
g74
(dp2535
sg83
g2529
sg76
(lp2536
g69
(g70
g71
NtRp2537
(dp2538
g74
(dp2539
g82
I3
ssg83
g2533
sg76
(lp2540
S'3'
asbasbasbag69
(g85
g71
NtRp2541
(dp2542
g74
(dp2543
sg83
g2513
sg76
(lp2544
g69
(g90
g71
NtRp2545
(dp2546
g74
(dp2547
sg83
g2541
sg76
(lp2548
g69
(g70
g71
NtRp2549
(dp2550
g74
(dp2551
g82
I3
ssg83
g2545
sg76
(lp2552
S'2'
asbasbasbag69
(g85
g71
NtRp2553
(dp2554
g74
(dp2555
sg83
g2513
sg76
(lp2556
g69
(g90
g71
NtRp2557
(dp2558
g74
(dp2559
sg83
g2553
sg76
(lp2560
g69
(g70
g71
NtRp2561
(dp2562
g74
(dp2563
g82
I3
ssg83
g2557
sg76
(lp2564
S'datetime.datetime(2012, 12, 17, 15, 3, 30)'
p2565
asbasbasbag69
(g85
g71
NtRp2566
(dp2567
g74
(dp2568
sg83
g2513
sg76
(lp2569
g69
(g90
g71
NtRp2570
(dp2571
g74
(dp2572
sg83
g2566
sg76
(lp2573
g69
(g70
g71
NtRp2574
(dp2575
g74
(dp2576
g82
I3
ssg83
g2570
sg76
(lp2577
g1882
asbasbasbasbasbasbasbasbasbasbasbag69
(g85
g71
NtRp2578
(dp2579
g74
(dp2580
sg83
g79
sg76
(lp2581
g69
(g90
g71
NtRp2582
(dp2583
g74
(dp2584
g94
g95
ssg83
g2578
sg76
(lp2585
S'is_https'
p2586
asbag69
(g90
g71
NtRp2587
(dp2588
g74
(dp2589
g101
g102
ssg83
g2578
sg76
(lp2590
S':'
asbag69
(g90
g71
NtRp2591
(dp2592
g74
(dp2593
sg83
g2578
sg76
(lp2594
g69
(g70
g71
NtRp2595
(dp2596
g74
(dp2597
g82
I5
ssg83
g2591
sg76
(lp2598
g112
asbasbasbag69
(g85
g71
NtRp2599
(dp2600
g74
(dp2601
sg83
g79
sg76
(lp2602
g69
(g90
g71
NtRp2603
(dp2604
g74
(dp2605
g94
g95
ssg83
g2599
sg76
(lp2606
S'is_local'
p2607
asbag69
(g90
g71
NtRp2608
(dp2609
g74
(dp2610
g101
g102
ssg83
g2599
sg76
(lp2611
S':'
asbag69
(g90
g71
NtRp2612
(dp2613
g74
(dp2614
sg83
g2599
sg76
(lp2615
g69
(g70
g71
NtRp2616
(dp2617
g74
(dp2618
g82
I5
ssg83
g2612
sg76
(lp2619
g1991
asbasbasbag69
(g85
g71
NtRp2620
(dp2621
g74
(dp2622
sg83
g79
sg76
(lp2623
g69
(g90
g71
NtRp2624
(dp2625
g74
(dp2626
g94
g95
ssg83
g2620
sg76
(lp2627
S'is_restful'
p2628
asbag69
(g90
g71
NtRp2629
(dp2630
g74
(dp2631
g101
g102
ssg83
g2620
sg76
(lp2632
S':'
asbag69
(g90
g71
NtRp2633
(dp2634
g74
(dp2635
sg83
g2620
sg76
(lp2636
g69
(g70
g71
NtRp2637
(dp2638
g74
(dp2639
g82
I5
ssg83
g2633
sg76
(lp2640
g112
asbasbasbag69
(g85
g71
NtRp2641
(dp2642
g74
(dp2643
sg83
g79
sg76
(lp2644
g69
(g90
g71
NtRp2645
(dp2646
g74
(dp2647
g94
g95
ssg83
g2641
sg76
(lp2648
S'now'
p2649
asbag69
(g90
g71
NtRp2650
(dp2651
g74
(dp2652
g101
g102
ssg83
g2641
sg76
(lp2653
S':'
asbag69
(g90
g71
NtRp2654
(dp2655
g74
(dp2656
sg83
g2641
sg76
(lp2657
g69
(g70
g71
NtRp2658
(dp2659
g74
(dp2660
g82
I5
ssg83
g2654
sg76
(lp2661
S'datetime.datetime(2013, 1, 23, 10, 12, 47, 701586)'
p2662
asbasbasbag69
(g85
g71
NtRp2663
(dp2664
g74
(dp2665
sg83
g79
sg76
(lp2666
g69
(g90
g71
NtRp2667
(dp2668
g74
(dp2669
g94
g95
ssg83
g2663
sg76
(lp2670
S'post_vars'
p2671
asbag69
(g90
g71
NtRp2672
(dp2673
g74
(dp2674
g101
g102
ssg83
g2663
sg76
(lp2675
S':'
asbag69
(g90
g71
NtRp2676
(dp2677
g74
(dp2678
sg83
g2663
sg76
(lp2679
g69
(g70
g71
NtRp2680
(dp2681
g74
(dp2682
g82
I5
ssg83
g2676
sg76
(lp2683
g69
(g78
g71
NtRp2684
(dp2685
g74
(dp2686
g82
I4
ssg83
Nsg76
(lp2687
sbasbasbasbag69
(g85
g71
NtRp2688
(dp2689
g74
(dp2690
sg83
g79
sg76
(lp2691
g69
(g90
g71
NtRp2692
(dp2693
g74
(dp2694
g94
g95
ssg83
g2688
sg76
(lp2695
S'raw_args'
p2696
asbag69
(g90
g71
NtRp2697
(dp2698
g74
(dp2699
g101
g102
ssg83
g2688
sg76
(lp2700
S':'
asbag69
(g90
g71
NtRp2701
(dp2702
g74
(dp2703
sg83
g2688
sg76
(lp2704
g69
(g70
g71
NtRp2705
(dp2706
g74
(dp2707
g82
I5
ssg83
g2701
sg76
(lp2708
S''
asbasbasbag69
(g85
g71
NtRp2709
(dp2710
g74
(dp2711
sg83
g79
sg76
(lp2712
g69
(g90
g71
NtRp2713
(dp2714
g74
(dp2715
g94
g95
ssg83
g2709
sg76
(lp2716
S'raw_extension'
p2717
asbag69
(g90
g71
NtRp2718
(dp2719
g74
(dp2720
g101
g102
ssg83
g2709
sg76
(lp2721
S':'
asbag69
(g90
g71
NtRp2722
(dp2723
g74
(dp2724
sg83
g2709
sg76
(lp2725
g69
(g70
g71
NtRp2726
(dp2727
g74
(dp2728
g82
I5
ssg83
g2722
sg76
(lp2729
S'None'
p2730
asbasbasbag69
(g85
g71
NtRp2731
(dp2732
g74
(dp2733
sg83
g79
sg76
(lp2734
g69
(g90
g71
NtRp2735
(dp2736
g74
(dp2737
g94
g95
ssg83
g2731
sg76
(lp2738
S'url'
p2739
asbag69
(g90
g71
NtRp2740
(dp2741
g74
(dp2742
g101
g102
ssg83
g2731
sg76
(lp2743
S':'
asbag69
(g90
g71
NtRp2744
(dp2745
g74
(dp2746
sg83
g2731
sg76
(lp2747
g69
(g70
g71
NtRp2748
(dp2749
g74
(dp2750
g82
I5
ssg83
g2744
sg76
(lp2751
g1556
asbasbasbag69
(g85
g71
NtRp2752
(dp2753
g74
(dp2754
sg83
g79
sg76
(lp2755
g69
(g90
g71
NtRp2756
(dp2757
g74
(dp2758
g94
g95
ssg83
g2752
sg76
(lp2759
S'utcnow'
p2760
asbag69
(g90
g71
NtRp2761
(dp2762
g74
(dp2763
g101
g102
ssg83
g2752
sg76
(lp2764
S':'
asbag69
(g90
g71
NtRp2765
(dp2766
g74
(dp2767
sg83
g2752
sg76
(lp2768
g69
(g70
g71
NtRp2769
(dp2770
g74
(dp2771
g82
I5
ssg83
g2765
sg76
(lp2772
S'datetime.datetime(2013, 1, 23, 12, 12, 47, 701641)'
p2773
asbasbasbag69
(g85
g71
NtRp2774
(dp2775
g74
(dp2776
sg83
g79
sg76
(lp2777
g69
(g90
g71
NtRp2778
(dp2779
g74
(dp2780
g94
g95
ssg83
g2774
sg76
(lp2781
S'uuid'
p2782
asbag69
(g90
g71
NtRp2783
(dp2784
g74
(dp2785
g101
g102
ssg83
g2774
sg76
(lp2786
S':'
asbag69
(g90
g71
NtRp2787
(dp2788
g74
(dp2789
sg83
g2774
sg76
(lp2790
g69
(g70
g71
NtRp2791
(dp2792
g74
(dp2793
g82
I5
ssg83
g2787
sg76
(lp2794
S'projeto/127.0.0.1.2013-01-23.10-12-47.affe631f-dc43-4b87-92f2-4c81e908466e'
p2795
asbasbasbag69
(g85
g71
NtRp2796
(dp2797
g74
(dp2798
sg83
g79
sg76
(lp2799
g69
(g90
g71
NtRp2800
(dp2801
g74
(dp2802
g94
g95
ssg83
g2796
sg76
(lp2803
S'vars'
p2804
asbag69
(g90
g71
NtRp2805
(dp2806
g74
(dp2807
g101
g102
ssg83
g2796
sg76
(lp2808
S':'
asbag69
(g90
g71
NtRp2809
(dp2810
g74
(dp2811
sg83
g2796
sg76
(lp2812
g69
(g70
g71
NtRp2813
(dp2814
g74
(dp2815
g82
I5
ssg83
g2809
sg76
(lp2816
g69
(g78
g71
NtRp2817
(dp2818
g74
(dp2819
g82
I4
ssg83
Nsg76
(lp2820
g69
(g85
g71
NtRp2821
(dp2822
g74
(dp2823
sg83
g2817
sg76
(lp2824
g69
(g90
g71
NtRp2825
(dp2826
g74
(dp2827
g94
g95
ssg83
g2821
sg76
(lp2828
g2183
asbag69
(g90
g71
NtRp2829
(dp2830
g74
(dp2831
g101
g102
ssg83
g2821
sg76
(lp2832
S':'
asbag69
(g90
g71
NtRp2833
(dp2834
g74
(dp2835
sg83
g2821
sg76
(lp2836
g69
(g70
g71
NtRp2837
(dp2838
g74
(dp2839
g82
I4
ssg83
g2833
sg76
(lp2840
g2196
asbasbasbasbasbasbasbag69
(g85
g71
NtRp2841
(dp2842
g74
(dp2843
sg83
g79
sg76
(lp2844
g69
(g90
g71
NtRp2845
(dp2846
g74
(dp2847
g94
g95
ssg83
g2841
sg76
(lp2848
S'wsgi'
p2849
asbag69
(g90
g71
NtRp2850
(dp2851
g74
(dp2852
g101
g102
ssg83
g2841
sg76
(lp2853
S':'
asbag69
(g90
g71
NtRp2854
(dp2855
g74
(dp2856
sg83
g2841
sg76
(lp2857
g69
(g70
g71
NtRp2858
(dp2859
g74
(dp2860
g82
I5
ssg83
g2854
sg76
(lp2861
g69
(g78
g71
NtRp2862
(dp2863
g74
(dp2864
g82
I4
ssg83
Nsg76
(lp2865
g69
(g85
g71
NtRp2866
(dp2867
g74
(dp2868
sg83
g2862
sg76
(lp2869
g69
(g90
g71
NtRp2870
(dp2871
g74
(dp2872
g94
g95
ssg83
g2866
sg76
(lp2873
S'environ'
p2874
asbag69
(g90
g71
NtRp2875
(dp2876
g74
(dp2877
g101
g102
ssg83
g2866
sg76
(lp2878
S':'
asbag69
(g90
g71
NtRp2879
(dp2880
g74
(dp2881
sg83
g2866
sg76
(lp2882
g69
(g70
g71
NtRp2883
(dp2884
g74
(dp2885
g82
I4
ssg83
g2879
sg76
(lp2886
g69
(g78
g71
NtRp2887
(dp2888
g74
(dp2889
g82
I3
ssg83
Nsg76
(lp2890
g69
(g85
g71
NtRp2891
(dp2892
g74
(dp2893
sg83
g2887
sg76
(lp2894
g69
(g90
g71
NtRp2895
(dp2896
g74
(dp2897
g94
g95
ssg83
g2891
sg76
(lp2898
S'HTTP_ACCEPT'
p2899
asbag69
(g90
g71
NtRp2900
(dp2901
g74
(dp2902
g101
g102
ssg83
g2891
sg76
(lp2903
S':'
asbag69
(g90
g71
NtRp2904
(dp2905
g74
(dp2906
sg83
g2891
sg76
(lp2907
g69
(g70
g71
NtRp2908
(dp2909
g74
(dp2910
g82
I3
ssg83
g2904
sg76
(lp2911
g1226
asbasbasbag69
(g85
g71
NtRp2912
(dp2913
g74
(dp2914
sg83
g2887
sg76
(lp2915
g69
(g90
g71
NtRp2916
(dp2917
g74
(dp2918
g94
g95
ssg83
g2912
sg76
(lp2919
S'HTTP_ACCEPT_CHARSET'
p2920
asbag69
(g90
g71
NtRp2921
(dp2922
g74
(dp2923
g101
g102
ssg83
g2912
sg76
(lp2924
S':'
asbag69
(g90
g71
NtRp2925
(dp2926
g74
(dp2927
sg83
g2912
sg76
(lp2928
g69
(g70
g71
NtRp2929
(dp2930
g74
(dp2931
g82
I3
ssg83
g2925
sg76
(lp2932
g1248
asbasbasbag69
(g85
g71
NtRp2933
(dp2934
g74
(dp2935
sg83
g2887
sg76
(lp2936
g69
(g90
g71
NtRp2937
(dp2938
g74
(dp2939
g94
g95
ssg83
g2933
sg76
(lp2940
S'HTTP_ACCEPT_ENCODING'
p2941
asbag69
(g90
g71
NtRp2942
(dp2943
g74
(dp2944
g101
g102
ssg83
g2933
sg76
(lp2945
S':'
asbag69
(g90
g71
NtRp2946
(dp2947
g74
(dp2948
sg83
g2933
sg76
(lp2949
g69
(g70
g71
NtRp2950
(dp2951
g74
(dp2952
g82
I3
ssg83
g2946
sg76
(lp2953
g1270
asbasbasbag69
(g85
g71
NtRp2954
(dp2955
g74
(dp2956
sg83
g2887
sg76
(lp2957
g69
(g90
g71
NtRp2958
(dp2959
g74
(dp2960
g94
g95
ssg83
g2954
sg76
(lp2961
S'HTTP_ACCEPT_LANGUAGE'
p2962
asbag69
(g90
g71
NtRp2963
(dp2964
g74
(dp2965
g101
g102
ssg83
g2954
sg76
(lp2966
S':'
asbag69
(g90
g71
NtRp2967
(dp2968
g74
(dp2969
sg83
g2954
sg76
(lp2970
g69
(g70
g71
NtRp2971
(dp2972
g74
(dp2973
g82
I3
ssg83
g2967
sg76
(lp2974
g1292
asbasbasbag69
(g85
g71
NtRp2975
(dp2976
g74
(dp2977
sg83
g2887
sg76
(lp2978
g69
(g90
g71
NtRp2979
(dp2980
g74
(dp2981
g94
g95
ssg83
g2975
sg76
(lp2982
S'HTTP_CACHE_CONTROL'
p2983
asbag69
(g90
g71
NtRp2984
(dp2985
g74
(dp2986
g101
g102
ssg83
g2975
sg76
(lp2987
S':'
asbag69
(g90
g71
NtRp2988
(dp2989
g74
(dp2990
sg83
g2975
sg76
(lp2991
g69
(g70
g71
NtRp2992
(dp2993
g74
(dp2994
g82
I3
ssg83
g2988
sg76
(lp2995
g1314
asbasbasbag69
(g85
g71
NtRp2996
(dp2997
g74
(dp2998
sg83
g2887
sg76
(lp2999
g69
(g90
g71
NtRp3000
(dp3001
g74
(dp3002
g94
g95
ssg83
g2996
sg76
(lp3003
S'HTTP_CONNECTION'
p3004
asbag69
(g90
g71
NtRp3005
(dp3006
g74
(dp3007
g101
g102
ssg83
g2996
sg76
(lp3008
S':'
asbag69
(g90
g71
NtRp3009
(dp3010
g74
(dp3011
sg83
g2996
sg76
(lp3012
g69
(g70
g71
NtRp3013
(dp3014
g74
(dp3015
g82
I3
ssg83
g3009
sg76
(lp3016
g1336
asbasbasbag69
(g85
g71
NtRp3017
(dp3018
g74
(dp3019
sg83
g2887
sg76
(lp3020
g69
(g90
g71
NtRp3021
(dp3022
g74
(dp3023
g94
g95
ssg83
g3017
sg76
(lp3024
S'HTTP_COOKIE'
p3025
asbag69
(g90
g71
NtRp3026
(dp3027
g74
(dp3028
g101
g102
ssg83
g3017
sg76
(lp3029
S':'
asbag69
(g90
g71
NtRp3030
(dp3031
g74
(dp3032
sg83
g3017
sg76
(lp3033
g69
(g70
g71
NtRp3034
(dp3035
g74
(dp3036
g82
I3
ssg83
g3030
sg76
(lp3037
g1358
asbasbasbag69
(g85
g71
NtRp3038
(dp3039
g74
(dp3040
sg83
g2887
sg76
(lp3041
g69
(g90
g71
NtRp3042
(dp3043
g74
(dp3044
g94
g95
ssg83
g3038
sg76
(lp3045
S'HTTP_HOST'
p3046
asbag69
(g90
g71
NtRp3047
(dp3048
g74
(dp3049
g101
g102
ssg83
g3038
sg76
(lp3050
S':'
asbag69
(g90
g71
NtRp3051
(dp3052
g74
(dp3053
sg83
g3038
sg76
(lp3054
g69
(g70
g71
NtRp3055
(dp3056
g74
(dp3057
g82
I3
ssg83
g3051
sg76
(lp3058
g1380
asbasbasbag69
(g85
g71
NtRp3059
(dp3060
g74
(dp3061
sg83
g2887
sg76
(lp3062
g69
(g90
g71
NtRp3063
(dp3064
g74
(dp3065
g94
g95
ssg83
g3059
sg76
(lp3066
S'HTTP_USER_AGENT'
p3067
asbag69
(g90
g71
NtRp3068
(dp3069
g74
(dp3070
g101
g102
ssg83
g3059
sg76
(lp3071
S':'
asbag69
(g90
g71
NtRp3072
(dp3073
g74
(dp3074
sg83
g3059
sg76
(lp3075
g69
(g70
g71
NtRp3076
(dp3077
g74
(dp3078
g82
I3
ssg83
g3072
sg76
(lp3079
g1402
asbasbasbag69
(g85
g71
NtRp3080
(dp3081
g74
(dp3082
sg83
g2887
sg76
(lp3083
g69
(g90
g71
NtRp3084
(dp3085
g74
(dp3086
g94
g95
ssg83
g3080
sg76
(lp3087
S'PATH_INFO'
p3088
asbag69
(g90
g71
NtRp3089
(dp3090
g74
(dp3091
g101
g102
ssg83
g3080
sg76
(lp3092
S':'
asbag69
(g90
g71
NtRp3093
(dp3094
g74
(dp3095
sg83
g3080
sg76
(lp3096
g69
(g70
g71
NtRp3097
(dp3098
g74
(dp3099
g82
I3
ssg83
g3093
sg76
(lp3100
g1556
asbasbasbag69
(g85
g71
NtRp3101
(dp3102
g74
(dp3103
sg83
g2887
sg76
(lp3104
g69
(g90
g71
NtRp3105
(dp3106
g74
(dp3107
g94
g95
ssg83
g3101
sg76
(lp3108
S'QUERY_STRING'
p3109
asbag69
(g90
g71
NtRp3110
(dp3111
g74
(dp3112
g101
g102
ssg83
g3101
sg76
(lp3113
S':'
asbag69
(g90
g71
NtRp3114
(dp3115
g74
(dp3116
sg83
g3101
sg76
(lp3117
g69
(g70
g71
NtRp3118
(dp3119
g74
(dp3120
g82
I3
ssg83
g3114
sg76
(lp3121
g1578
asbasbasbag69
(g85
g71
NtRp3122
(dp3123
g74
(dp3124
sg83
g2887
sg76
(lp3125
g69
(g90
g71
NtRp3126
(dp3127
g74
(dp3128
g94
g95
ssg83
g3122
sg76
(lp3129
S'REMOTE_ADDR'
p3130
asbag69
(g90
g71
NtRp3131
(dp3132
g74
(dp3133
g101
g102
ssg83
g3122
sg76
(lp3134
S':'
asbag69
(g90
g71
NtRp3135
(dp3136
g74
(dp3137
sg83
g3122
sg76
(lp3138
g69
(g70
g71
NtRp3139
(dp3140
g74
(dp3141
g82
I3
ssg83
g3135
sg76
(lp3142
g224
asbasbasbag69
(g85
g71
NtRp3143
(dp3144
g74
(dp3145
sg83
g2887
sg76
(lp3146
g69
(g90
g71
NtRp3147
(dp3148
g74
(dp3149
g94
g95
ssg83
g3143
sg76
(lp3150
S'REMOTE_PORT'
p3151
asbag69
(g90
g71
NtRp3152
(dp3153
g74
(dp3154
g101
g102
ssg83
g3143
sg76
(lp3155
S':'
asbag69
(g90
g71
NtRp3156
(dp3157
g74
(dp3158
sg83
g3143
sg76
(lp3159
g69
(g70
g71
NtRp3160
(dp3161
g74
(dp3162
g82
I3
ssg83
g3156
sg76
(lp3163
g1621
asbasbasbag69
(g85
g71
NtRp3164
(dp3165
g74
(dp3166
sg83
g2887
sg76
(lp3167
g69
(g90
g71
NtRp3168
(dp3169
g74
(dp3170
g94
g95
ssg83
g3164
sg76
(lp3171
S'REQUEST_METHOD'
p3172
asbag69
(g90
g71
NtRp3173
(dp3174
g74
(dp3175
g101
g102
ssg83
g3164
sg76
(lp3176
S':'
asbag69
(g90
g71
NtRp3177
(dp3178
g74
(dp3179
sg83
g3164
sg76
(lp3180
g69
(g70
g71
NtRp3181
(dp3182
g74
(dp3183
g82
I3
ssg83
g3177
sg76
(lp3184
g1643
asbasbasbag69
(g85
g71
NtRp3185
(dp3186
g74
(dp3187
sg83
g2887
sg76
(lp3188
g69
(g90
g71
NtRp3189
(dp3190
g74
(dp3191
g94
g95
ssg83
g3185
sg76
(lp3192
S'REQUEST_URI'
p3193
asbag69
(g90
g71
NtRp3194
(dp3195
g74
(dp3196
g101
g102
ssg83
g3185
sg76
(lp3197
S':'
asbag69
(g90
g71
NtRp3198
(dp3199
g74
(dp3200
sg83
g3185
sg76
(lp3201
g69
(g70
g71
NtRp3202
(dp3203
g74
(dp3204
g82
I3
ssg83
g3198
sg76
(lp3205
g1665
asbasbasbag69
(g85
g71
NtRp3206
(dp3207
g74
(dp3208
sg83
g2887
sg76
(lp3209
g69
(g90
g71
NtRp3210
(dp3211
g74
(dp3212
g94
g95
ssg83
g3206
sg76
(lp3213
S'SCRIPT_NAME'
p3214
asbag69
(g90
g71
NtRp3215
(dp3216
g74
(dp3217
g101
g102
ssg83
g3206
sg76
(lp3218
S':'
asbag69
(g90
g71
NtRp3219
(dp3220
g74
(dp3221
sg83
g3206
sg76
(lp3222
g69
(g70
g71
NtRp3223
(dp3224
g74
(dp3225
g82
I3
ssg83
g3219
sg76
(lp3226
S''
asbasbasbag69
(g85
g71
NtRp3227
(dp3228
g74
(dp3229
sg83
g2887
sg76
(lp3230
g69
(g90
g71
NtRp3231
(dp3232
g74
(dp3233
g94
g95
ssg83
g3227
sg76
(lp3234
S'SERVER_NAME'
p3235
asbag69
(g90
g71
NtRp3236
(dp3237
g74
(dp3238
g101
g102
ssg83
g3227
sg76
(lp3239
S':'
asbag69
(g90
g71
NtRp3240
(dp3241
g74
(dp3242
sg83
g3227
sg76
(lp3243
g69
(g70
g71
NtRp3244
(dp3245
g74
(dp3246
g82
I3
ssg83
g3240
sg76
(lp3247
g1708
asbasbasbag69
(g85
g71
NtRp3248
(dp3249
g74
(dp3250
sg83
g2887
sg76
(lp3251
g69
(g90
g71
NtRp3252
(dp3253
g74
(dp3254
g94
g95
ssg83
g3248
sg76
(lp3255
S'SERVER_PORT'
p3256
asbag69
(g90
g71
NtRp3257
(dp3258
g74
(dp3259
g101
g102
ssg83
g3248
sg76
(lp3260
S':'
asbag69
(g90
g71
NtRp3261
(dp3262
g74
(dp3263
sg83
g3248
sg76
(lp3264
g69
(g70
g71
NtRp3265
(dp3266
g74
(dp3267
g82
I3
ssg83
g3261
sg76
(lp3268
g1730
asbasbasbag69
(g85
g71
NtRp3269
(dp3270
g74
(dp3271
sg83
g2887
sg76
(lp3272
g69
(g90
g71
NtRp3273
(dp3274
g74
(dp3275
g94
g95
ssg83
g3269
sg76
(lp3276
S'SERVER_PROTOCOL'
p3277
asbag69
(g90
g71
NtRp3278
(dp3279
g74
(dp3280
g101
g102
ssg83
g3269
sg76
(lp3281
S':'
asbag69
(g90
g71
NtRp3282
(dp3283
g74
(dp3284
sg83
g3269
sg76
(lp3285
g69
(g70
g71
NtRp3286
(dp3287
g74
(dp3288
g82
I3
ssg83
g3282
sg76
(lp3289
g1752
asbasbasbag69
(g85
g71
NtRp3290
(dp3291
g74
(dp3292
sg83
g2887
sg76
(lp3293
g69
(g90
g71
NtRp3294
(dp3295
g74
(dp3296
g94
g95
ssg83
g3290
sg76
(lp3297
S'SERVER_SOFTWARE'
p3298
asbag69
(g90
g71
NtRp3299
(dp3300
g74
(dp3301
g101
g102
ssg83
g3290
sg76
(lp3302
S':'
asbag69
(g90
g71
NtRp3303
(dp3304
g74
(dp3305
sg83
g3290
sg76
(lp3306
g69
(g70
g71
NtRp3307
(dp3308
g74
(dp3309
g82
I3
ssg83
g3303
sg76
(lp3310
g1774
asbasbasbag69
(g85
g71
NtRp3311
(dp3312
g74
(dp3313
sg83
g2887
sg76
(lp3314
g69
(g90
g71
NtRp3315
(dp3316
g74
(dp3317
g94
g95
ssg83
g3311
sg76
(lp3318
S'wsgi.errors'
p3319
asbag69
(g90
g71
NtRp3320
(dp3321
g74
(dp3322
g101
g102
ssg83
g3311
sg76
(lp3323
S':'
asbag69
(g90
g71
NtRp3324
(dp3325
g74
(dp3326
sg83
g3311
sg76
(lp3327
g69
(g70
g71
NtRp3328
(dp3329
g74
(dp3330
g82
I3
ssg83
g3324
sg76
(lp3331
S"<open file '<stderr>', mode 'w' at 0x7fde3c532270>"
p3332
asbasbasbag69
(g85
g71
NtRp3333
(dp3334
g74
(dp3335
sg83
g2887
sg76
(lp3336
g69
(g90
g71
NtRp3337
(dp3338
g74
(dp3339
g94
g95
ssg83
g3333
sg76
(lp3340
S'wsgi.file_wrapper'
p3341
asbag69
(g90
g71
NtRp3342
(dp3343
g74
(dp3344
g101
g102
ssg83
g3333
sg76
(lp3345
S':'
asbag69
(g90
g71
NtRp3346
(dp3347
g74
(dp3348
sg83
g3333
sg76
(lp3349
g69
(g70
g71
NtRp3350
(dp3351
g74
(dp3352
g82
I3
ssg83
g3346
sg76
(lp3353
S'<class wsgiref.util.FileWrapper at 0x2cd6c18>'
p3354
asbasbasbag69
(g85
g71
NtRp3355
(dp3356
g74
(dp3357
sg83
g2887
sg76
(lp3358
g69
(g90
g71
NtRp3359
(dp3360
g74
(dp3361
g94
g95
ssg83
g3355
sg76
(lp3362
S'wsgi.input'
p3363
asbag69
(g90
g71
NtRp3364
(dp3365
g74
(dp3366
g101
g102
ssg83
g3355
sg76
(lp3367
S':'
asbag69
(g90
g71
NtRp3368
(dp3369
g74
(dp3370
sg83
g3355
sg76
(lp3371
g69
(g70
g71
NtRp3372
(dp3373
g74
(dp3374
g82
I3
ssg83
g3368
sg76
(lp3375
S'<cStringIO.StringO object at 0x7fde306d1f48>'
p3376
asbasbasbag69
(g85
g71
NtRp3377
(dp3378
g74
(dp3379
sg83
g2887
sg76
(lp3380
g69
(g90
g71
NtRp3381
(dp3382
g74
(dp3383
g94
g95
ssg83
g3377
sg76
(lp3384
S'wsgi.multiprocess'
p3385
asbag69
(g90
g71
NtRp3386
(dp3387
g74
(dp3388
g101
g102
ssg83
g3377
sg76
(lp3389
S':'
asbag69
(g90
g71
NtRp3390
(dp3391
g74
(dp3392
sg83
g3377
sg76
(lp3393
g69
(g70
g71
NtRp3394
(dp3395
g74
(dp3396
g82
I3
ssg83
g3390
sg76
(lp3397
g112
asbasbasbag69
(g85
g71
NtRp3398
(dp3399
g74
(dp3400
sg83
g2887
sg76
(lp3401
g69
(g90
g71
NtRp3402
(dp3403
g74
(dp3404
g94
g95
ssg83
g3398
sg76
(lp3405
S'wsgi.multithread'
p3406
asbag69
(g90
g71
NtRp3407
(dp3408
g74
(dp3409
g101
g102
ssg83
g3398
sg76
(lp3410
S':'
asbag69
(g90
g71
NtRp3411
(dp3412
g74
(dp3413
sg83
g3398
sg76
(lp3414
g69
(g70
g71
NtRp3415
(dp3416
g74
(dp3417
g82
I3
ssg83
g3411
sg76
(lp3418
g1991
asbasbasbag69
(g85
g71
NtRp3419
(dp3420
g74
(dp3421
sg83
g2887
sg76
(lp3422
g69
(g90
g71
NtRp3423
(dp3424
g74
(dp3425
g94
g95
ssg83
g3419
sg76
(lp3426
S'wsgi.run_once'
p3427
asbag69
(g90
g71
NtRp3428
(dp3429
g74
(dp3430
g101
g102
ssg83
g3419
sg76
(lp3431
S':'
asbag69
(g90
g71
NtRp3432
(dp3433
g74
(dp3434
sg83
g3419
sg76
(lp3435
g69
(g70
g71
NtRp3436
(dp3437
g74
(dp3438
g82
I3
ssg83
g3432
sg76
(lp3439
g112
asbasbasbag69
(g85
g71
NtRp3440
(dp3441
g74
(dp3442
sg83
g2887
sg76
(lp3443
g69
(g90
g71
NtRp3444
(dp3445
g74
(dp3446
g94
g95
ssg83
g3440
sg76
(lp3447
S'wsgi.url_scheme'
p3448
asbag69
(g90
g71
NtRp3449
(dp3450
g74
(dp3451
g101
g102
ssg83
g3440
sg76
(lp3452
S':'
asbag69
(g90
g71
NtRp3453
(dp3454
g74
(dp3455
sg83
g3440
sg76
(lp3456
g69
(g70
g71
NtRp3457
(dp3458
g74
(dp3459
g82
I3
ssg83
g3453
sg76
(lp3460
g2034
asbasbasbag69
(g85
g71
NtRp3461
(dp3462
g74
(dp3463
sg83
g2887
sg76
(lp3464
g69
(g90
g71
NtRp3465
(dp3466
g74
(dp3467
g94
g95
ssg83
g3461
sg76
(lp3468
S'wsgi.version'
p3469
asbag69
(g90
g71
NtRp3470
(dp3471
g74
(dp3472
g101
g102
ssg83
g3461
sg76
(lp3473
S':'
asbag69
(g90
g71
NtRp3474
(dp3475
g74
(dp3476
sg83
g3461
sg76
(lp3477
g69
(g70
g71
NtRp3478
(dp3479
g74
(dp3480
g82
I3
ssg83
g3474
sg76
(lp3481
S'1'
asbasbasbasbasbasbasbasbasbasbasbasbasbsS'frames'
p3482
(lp3483
(dp3484
S'file'
p3485
S'/var/www/web2py_curso/gluon/restricted.py'
p3486
sS'dump'
p3487
(dp3488
S'code'
p3489
S'\'# coding: utf-8\\n\\ndef index():\\n\\tprint "Action ind...x + y\\n\\n \\n\\nresponse._vars=response._caller(index)\\n\''
p3490
sS'layer'
p3491
S"'/var/www/web2py_curso/applications/projeto/controllers/default.py'"
p3492
sS'global compile2'
p3493
S'<function compile2>'
p3494
sS'ccode'
p3495
S'undefined'
p3496
ssS'lnum'
p3497
I211
sS'lines'
p3498
(dp3499
I206
S"    environment['__name__'] = '__restricted__'"
p3500
sI207
S'    try:'
p3501
sI208
S'        if isinstance(code, types.CodeType):'
p3502
sI209
S'            ccode = code'
p3503
sI210
S'        else:'
p3504
sI211
S'            ccode = compile2(code, layer)'
p3505
sI212
S'        exec ccode in environment'
p3506
sI213
S'    except HTTP:'
p3507
sI214
S'        raise'
p3508
sI215
S'    except RestrictedError:'
p3509
ssS'call'
p3510
S'(code=\'# coding: utf-8\\n\\ndef index():\\n\\tprint "Action ind...x + y\\n\\n \\n\\nresponse._vars=response._caller(index)\\n\', environment={\'A\': <class \'gluon.html.A\'>, \'B\': <class \'gluon.html.B\'>, \'BEAUTIFY\': <class \'gluon.html.BEAUTIFY\'>, \'BODY\': <class \'gluon.html.BODY\'>, \'BR\': <class \'gluon.html.BR\'>, \'BUTTON\': <class \'gluon.html.BUTTON\'>, \'CAT\': <class \'gluon.html.CAT\'>, \'CENTER\': <class \'gluon.html.CENTER\'>, \'CLEANUP\': <class \'gluon.validators.CLEANUP\'>, \'CODE\': <class \'gluon.html.CODE\'>, ...}, layer=\'/var/www/web2py_curso/applications/projeto/controllers/default.py\')'
p3511
sS'func'
p3512
S'restricted'
p3513
sa(dp3514
g3485
S'/var/www/web2py_curso/gluon/restricted.py'
p3515
sg3487
(dp3516
S'builtincompile'
p3517
S'<built-in function compile>'
p3518
sS'code'
p3519
S'\'# coding: utf-8\\n\\ndef index():\\n\\tprint "Action ind...x + y\\n\\n \\n\\nresponse._vars=response._caller(index)\\n\''
p3520
sS'code.rstrip'
p3521
S'<built-in method rstrip of str object>'
p3522
sS').replace'
p3523
g3496
sS'layer'
p3524
S"'/var/www/web2py_curso/applications/projeto/controllers/default.py'"
p3525
ssg3497
I194
sg3498
(dp3526
I192
S"    The +'\\n' is necessary else compile fails when code ends in a comment."
p3527
sI193
S'    """'
p3528
sI194
S"    return compile(code.rstrip().replace('\\r\\n', '\\n') + '\\n', layer, 'exec')"
p3529
sI195
S''
sI196
S''
sI197
S"def restricted(code, environment=None, layer='Unknown'):"
p3530
sI198
S'    """'
p3531
sI189
S''
sI190
S'def compile2(code, layer):'
p3532
sI191
S'    """'
p3533
ssg3510
S'(code=\'# coding: utf-8\\n\\ndef index():\\n\\tprint "Action ind...x + y\\n\\n \\n\\nresponse._vars=response._caller(index)\\n\', layer=\'/var/www/web2py_curso/applications/projeto/controllers/default.py\')'
p3534
sg3512
S'compile2'
p3535
sasS'pyver'
p3536
S'Python 2.7.3: /usr/bin/python'
p3537
sS'session'
p3538
g69
(g70
g71
NtRp3539
(dp3540
g74
(dp3541
sg76
(lp3542
g69
(g78
g71
NtRp3543
(dp3544
g74
(dp3545
g82
I5
ssg83
Nsg76
(lp3546
sbasbsS'etype'
p3547
S"<type 'exceptions.SyntaxError'>"
p3548
sS'date'
p3549
S'Wed Jan 23 10:12:47 2013'
p3550
sS'response'
p3551
g69
(g70
g71
NtRp3552
(dp3553
g74
(dp3554
sg76
(lp3555
g69
(g78
g71
NtRp3556
(dp3557
g74
(dp3558
g82
I5
ssg83
Nsg76
(lp3559
g69
(g85
g71
NtRp3560
(dp3561
g74
(dp3562
sg83
g3556
sg76
(lp3563
g69
(g90
g71
NtRp3564
(dp3565
g74
(dp3566
g94
g95
ssg83
g3560
sg76
(lp3567
g167
asbag69
(g90
g71
NtRp3568
(dp3569
g74
(dp3570
g101
g102
ssg83
g3560
sg76
(lp3571
S':'
asbag69
(g90
g71
NtRp3572
(dp3573
g74
(dp3574
sg83
g3560
sg76
(lp3575
g69
(g70
g71
NtRp3576
(dp3577
g74
(dp3578
g82
I5
ssg83
g3572
sg76
(lp3579
S'<cStringIO.StringO object at 0x7fde308ec1f0>'
p3580
asbasbasbag69
(g85
g71
NtRp3581
(dp3582
g74
(dp3583
sg83
g3556
sg76
(lp3584
g69
(g90
g71
NtRp3585
(dp3586
g74
(dp3587
g94
g95
ssg83
g3581
sg76
(lp3588
g255
asbag69
(g90
g71
NtRp3589
(dp3590
g74
(dp3591
g101
g102
ssg83
g3581
sg76
(lp3592
S':'
asbag69
(g90
g71
NtRp3593
(dp3594
g74
(dp3595
sg83
g3581
sg76
(lp3596
g69
(g70
g71
NtRp3597
(dp3598
g74
(dp3599
g82
I5
ssg83
g3593
sg76
(lp3600
g69
(g78
g71
NtRp3601
(dp3602
g74
(dp3603
g82
I4
ssg83
Nsg76
(lp3604
g69
(g85
g71
NtRp3605
(dp3606
g74
(dp3607
sg83
g3601
sg76
(lp3608
g69
(g90
g71
NtRp3609
(dp3610
g74
(dp3611
g94
g95
ssg83
g3605
sg76
(lp3612
S'session_id_projeto'
p3613
asbag69
(g90
g71
NtRp3614
(dp3615
g74
(dp3616
g101
g102
ssg83
g3605
sg76
(lp3617
S':'
asbag69
(g90
g71
NtRp3618
(dp3619
g74
(dp3620
sg83
g3605
sg76
(lp3621
g69
(g70
g71
NtRp3622
(dp3623
g74
(dp3624
g82
I4
ssg83
g3618
sg76
(lp3625
g673
ag69
(g78
g71
NtRp3626
(dp3627
g74
(dp3628
g82
I3
ssg83
Nsg76
(lp3629
g69
(g85
g71
NtRp3630
(dp3631
g74
(dp3632
sg83
g3626
sg76
(lp3633
g69
(g90
g71
NtRp3634
(dp3635
g74
(dp3636
g94
g95
ssg83
g3630
sg76
(lp3637
g306
asbag69
(g90
g71
NtRp3638
(dp3639
g74
(dp3640
g101
g102
ssg83
g3630
sg76
(lp3641
S':'
asbag69
(g90
g71
NtRp3642
(dp3643
g74
(dp3644
sg83
g3630
sg76
(lp3645
g69
(g70
g71
NtRp3646
(dp3647
g74
(dp3648
g82
I3
ssg83
g3642
sg76
(lp3649
S''
asbasbasbag69
(g85
g71
NtRp3650
(dp3651
g74
(dp3652
sg83
g3626
sg76
(lp3653
g69
(g90
g71
NtRp3654
(dp3655
g74
(dp3656
g94
g95
ssg83
g3650
sg76
(lp3657
g327
asbag69
(g90
g71
NtRp3658
(dp3659
g74
(dp3660
g101
g102
ssg83
g3650
sg76
(lp3661
S':'
asbag69
(g90
g71
NtRp3662
(dp3663
g74
(dp3664
sg83
g3650
sg76
(lp3665
g69
(g70
g71
NtRp3666
(dp3667
g74
(dp3668
g82
I3
ssg83
g3662
sg76
(lp3669
S''
asbasbasbag69
(g85
g71
NtRp3670
(dp3671
g74
(dp3672
sg83
g3626
sg76
(lp3673
g69
(g90
g71
NtRp3674
(dp3675
g74
(dp3676
g94
g95
ssg83
g3670
sg76
(lp3677
g348
asbag69
(g90
g71
NtRp3678
(dp3679
g74
(dp3680
g101
g102
ssg83
g3670
sg76
(lp3681
S':'
asbag69
(g90
g71
NtRp3682
(dp3683
g74
(dp3684
sg83
g3670
sg76
(lp3685
g69
(g70
g71
NtRp3686
(dp3687
g74
(dp3688
g82
I3
ssg83
g3682
sg76
(lp3689
S''
asbasbasbag69
(g85
g71
NtRp3690
(dp3691
g74
(dp3692
sg83
g3626
sg76
(lp3693
g69
(g90
g71
NtRp3694
(dp3695
g74
(dp3696
g94
g95
ssg83
g3690
sg76
(lp3697
g369
asbag69
(g90
g71
NtRp3698
(dp3699
g74
(dp3700
g101
g102
ssg83
g3690
sg76
(lp3701
S':'
asbag69
(g90
g71
NtRp3702
(dp3703
g74
(dp3704
sg83
g3690
sg76
(lp3705
g69
(g70
g71
NtRp3706
(dp3707
g74
(dp3708
g82
I3
ssg83
g3702
sg76
(lp3709
S''
asbasbasbag69
(g85
g71
NtRp3710
(dp3711
g74
(dp3712
sg83
g3626
sg76
(lp3713
g69
(g90
g71
NtRp3714
(dp3715
g74
(dp3716
g94
g95
ssg83
g3710
sg76
(lp3717
g390
asbag69
(g90
g71
NtRp3718
(dp3719
g74
(dp3720
g101
g102
ssg83
g3710
sg76
(lp3721
S':'
asbag69
(g90
g71
NtRp3722
(dp3723
g74
(dp3724
sg83
g3710
sg76
(lp3725
g69
(g70
g71
NtRp3726
(dp3727
g74
(dp3728
g82
I3
ssg83
g3722
sg76
(lp3729
S''
asbasbasbag69
(g85
g71
NtRp3730
(dp3731
g74
(dp3732
sg83
g3626
sg76
(lp3733
g69
(g90
g71
NtRp3734
(dp3735
g74
(dp3736
g94
g95
ssg83
g3730
sg76
(lp3737
g411
asbag69
(g90
g71
NtRp3738
(dp3739
g74
(dp3740
g101
g102
ssg83
g3730
sg76
(lp3741
S':'
asbag69
(g90
g71
NtRp3742
(dp3743
g74
(dp3744
sg83
g3730
sg76
(lp3745
g69
(g70
g71
NtRp3746
(dp3747
g74
(dp3748
g82
I3
ssg83
g3742
sg76
(lp3749
S'/'
asbasbasbag69
(g85
g71
NtRp3750
(dp3751
g74
(dp3752
sg83
g3626
sg76
(lp3753
g69
(g90
g71
NtRp3754
(dp3755
g74
(dp3756
g94
g95
ssg83
g3750
sg76
(lp3757
g432
asbag69
(g90
g71
NtRp3758
(dp3759
g74
(dp3760
g101
g102
ssg83
g3750
sg76
(lp3761
S':'
asbag69
(g90
g71
NtRp3762
(dp3763
g74
(dp3764
sg83
g3750
sg76
(lp3765
g69
(g70
g71
NtRp3766
(dp3767
g74
(dp3768
g82
I3
ssg83
g3762
sg76
(lp3769
S''
asbasbasbag69
(g85
g71
NtRp3770
(dp3771
g74
(dp3772
sg83
g3626
sg76
(lp3773
g69
(g90
g71
NtRp3774
(dp3775
g74
(dp3776
g94
g95
ssg83
g3770
sg76
(lp3777
g453
asbag69
(g90
g71
NtRp3778
(dp3779
g74
(dp3780
g101
g102
ssg83
g3770
sg76
(lp3781
S':'
asbag69
(g90
g71
NtRp3782
(dp3783
g74
(dp3784
sg83
g3770
sg76
(lp3785
g69
(g70
g71
NtRp3786
(dp3787
g74
(dp3788
g82
I3
ssg83
g3782
sg76
(lp3789
S''
asbasbasbasbasbasbasbasbasbasbasbag69
(g85
g71
NtRp3790
(dp3791
g74
(dp3792
sg83
g3556
sg76
(lp3793
g69
(g90
g71
NtRp3794
(dp3795
g74
(dp3796
g94
g95
ssg83
g3790
sg76
(lp3797
S'delimiters'
p3798
asbag69
(g90
g71
NtRp3799
(dp3800
g74
(dp3801
g101
g102
ssg83
g3790
sg76
(lp3802
S':'
asbag69
(g90
g71
NtRp3803
(dp3804
g74
(dp3805
sg83
g3790
sg76
(lp3806
g69
(g70
g71
NtRp3807
(dp3808
g74
(dp3809
g82
I5
ssg83
g3803
sg76
(lp3810
g69
(g78
g71
NtRp3811
(dp3812
g74
(dp3813
g82
I4
ssg83
Nsg76
(lp3814
g69
(g85
g71
NtRp3815
(dp3816
g74
(dp3817
sg83
g3811
sg76
(lp3818
g69
(g90
g71
NtRp3819
(dp3820
g74
(dp3821
sg83
g3815
sg76
(lp3822
g69
(g70
g71
NtRp3823
(dp3824
g74
(dp3825
g82
I4
ssg83
g3819
sg76
(lp3826
S'{{'
p3827
asbasbasbag69
(g85
g71
NtRp3828
(dp3829
g74
(dp3830
sg83
g3811
sg76
(lp3831
g69
(g90
g71
NtRp3832
(dp3833
g74
(dp3834
sg83
g3828
sg76
(lp3835
g69
(g70
g71
NtRp3836
(dp3837
g74
(dp3838
g82
I4
ssg83
g3832
sg76
(lp3839
S'}}'
p3840
asbasbasbasbasbasbasbag69
(g85
g71
NtRp3841
(dp3842
g74
(dp3843
sg83
g3556
sg76
(lp3844
g69
(g90
g71
NtRp3845
(dp3846
g74
(dp3847
g94
g95
ssg83
g3841
sg76
(lp3848
S'files'
p3849
asbag69
(g90
g71
NtRp3850
(dp3851
g74
(dp3852
g101
g102
ssg83
g3841
sg76
(lp3853
S':'
asbag69
(g90
g71
NtRp3854
(dp3855
g74
(dp3856
sg83
g3841
sg76
(lp3857
g69
(g70
g71
NtRp3858
(dp3859
g74
(dp3860
g82
I5
ssg83
g3854
sg76
(lp3861
g69
(g78
g71
NtRp3862
(dp3863
g74
(dp3864
g82
I4
ssg83
Nsg76
(lp3865
sbasbasbasbag69
(g85
g71
NtRp3866
(dp3867
g74
(dp3868
sg83
g3556
sg76
(lp3869
g69
(g90
g71
NtRp3870
(dp3871
g74
(dp3872
g94
g95
ssg83
g3866
sg76
(lp3873
S'flash'
p3874
asbag69
(g90
g71
NtRp3875
(dp3876
g74
(dp3877
g101
g102
ssg83
g3866
sg76
(lp3878
S':'
asbag69
(g90
g71
NtRp3879
(dp3880
g74
(dp3881
sg83
g3866
sg76
(lp3882
g69
(g70
g71
NtRp3883
(dp3884
g74
(dp3885
g82
I5
ssg83
g3879
sg76
(lp3886
S''
asbasbasbag69
(g85
g71
NtRp3887
(dp3888
g74
(dp3889
sg83
g3556
sg76
(lp3890
g69
(g90
g71
NtRp3891
(dp3892
g74
(dp3893
g94
g95
ssg83
g3887
sg76
(lp3894
S'generic_patterns'
p3895
asbag69
(g90
g71
NtRp3896
(dp3897
g74
(dp3898
g101
g102
ssg83
g3887
sg76
(lp3899
S':'
asbag69
(g90
g71
NtRp3900
(dp3901
g74
(dp3902
sg83
g3887
sg76
(lp3903
g69
(g70
g71
NtRp3904
(dp3905
g74
(dp3906
g82
I5
ssg83
g3900
sg76
(lp3907
g69
(g78
g71
NtRp3908
(dp3909
g74
(dp3910
g82
I4
ssg83
Nsg76
(lp3911
sbasbasbasbag69
(g85
g71
NtRp3912
(dp3913
g74
(dp3914
sg83
g3556
sg76
(lp3915
g69
(g90
g71
NtRp3916
(dp3917
g74
(dp3918
g94
g95
ssg83
g3912
sg76
(lp3919
S'headers'
p3920
asbag69
(g90
g71
NtRp3921
(dp3922
g74
(dp3923
g101
g102
ssg83
g3912
sg76
(lp3924
S':'
asbag69
(g90
g71
NtRp3925
(dp3926
g74
(dp3927
sg83
g3912
sg76
(lp3928
g69
(g70
g71
NtRp3929
(dp3930
g74
(dp3931
g82
I5
ssg83
g3925
sg76
(lp3932
g69
(g78
g71
NtRp3933
(dp3934
g74
(dp3935
g82
I4
ssg83
Nsg76
(lp3936
g69
(g85
g71
NtRp3937
(dp3938
g74
(dp3939
sg83
g3933
sg76
(lp3940
g69
(g90
g71
NtRp3941
(dp3942
g74
(dp3943
g94
g95
ssg83
g3937
sg76
(lp3944
S'X-Powered-By'
p3945
asbag69
(g90
g71
NtRp3946
(dp3947
g74
(dp3948
g101
g102
ssg83
g3937
sg76
(lp3949
S':'
asbag69
(g90
g71
NtRp3950
(dp3951
g74
(dp3952
sg83
g3937
sg76
(lp3953
g69
(g70
g71
NtRp3954
(dp3955
g74
(dp3956
g82
I4
ssg83
g3950
sg76
(lp3957
S'web2py'
p3958
asbasbasbasbasbasbasbag69
(g85
g71
NtRp3959
(dp3960
g74
(dp3961
sg83
g3556
sg76
(lp3962
g69
(g90
g71
NtRp3963
(dp3964
g74
(dp3965
g94
g95
ssg83
g3959
sg76
(lp3966
S'menu'
p3967
asbag69
(g90
g71
NtRp3968
(dp3969
g74
(dp3970
g101
g102
ssg83
g3959
sg76
(lp3971
S':'
asbag69
(g90
g71
NtRp3972
(dp3973
g74
(dp3974
sg83
g3959
sg76
(lp3975
g69
(g70
g71
NtRp3976
(dp3977
g74
(dp3978
g82
I5
ssg83
g3972
sg76
(lp3979
g69
(g78
g71
NtRp3980
(dp3981
g74
(dp3982
g82
I4
ssg83
Nsg76
(lp3983
sbasbasbasbag69
(g85
g71
NtRp3984
(dp3985
g74
(dp3986
sg83
g3556
sg76
(lp3987
g69
(g90
g71
NtRp3988
(dp3989
g74
(dp3990
g94
g95
ssg83
g3984
sg76
(lp3991
S'meta'
p3992
asbag69
(g90
g71
NtRp3993
(dp3994
g74
(dp3995
g101
g102
ssg83
g3984
sg76
(lp3996
S':'
asbag69
(g90
g71
NtRp3997
(dp3998
g74
(dp3999
sg83
g3984
sg76
(lp4000
g69
(g70
g71
NtRp4001
(dp4002
g74
(dp4003
g82
I5
ssg83
g3997
sg76
(lp4004
g69
(g78
g71
NtRp4005
(dp4006
g74
(dp4007
g82
I4
ssg83
Nsg76
(lp4008
sbasbasbasbag69
(g85
g71
NtRp4009
(dp4010
g74
(dp4011
sg83
g3556
sg76
(lp4012
g69
(g90
g71
NtRp4013
(dp4014
g74
(dp4015
g94
g95
ssg83
g4009
sg76
(lp4016
S'models_to_run'
p4017
asbag69
(g90
g71
NtRp4018
(dp4019
g74
(dp4020
g101
g102
ssg83
g4009
sg76
(lp4021
S':'
asbag69
(g90
g71
NtRp4022
(dp4023
g74
(dp4024
sg83
g4009
sg76
(lp4025
g69
(g70
g71
NtRp4026
(dp4027
g74
(dp4028
g82
I5
ssg83
g4022
sg76
(lp4029
g69
(g78
g71
NtRp4030
(dp4031
g74
(dp4032
g82
I4
ssg83
Nsg76
(lp4033
g69
(g85
g71
NtRp4034
(dp4035
g74
(dp4036
sg83
g4030
sg76
(lp4037
g69
(g90
g71
NtRp4038
(dp4039
g74
(dp4040
sg83
g4034
sg76
(lp4041
g69
(g70
g71
NtRp4042
(dp4043
g74
(dp4044
g82
I4
ssg83
g4038
sg76
(lp4045
S'^\\w+\\.py$'
p4046
asbasbasbag69
(g85
g71
NtRp4047
(dp4048
g74
(dp4049
sg83
g4030
sg76
(lp4050
g69
(g90
g71
NtRp4051
(dp4052
g74
(dp4053
sg83
g4047
sg76
(lp4054
g69
(g70
g71
NtRp4055
(dp4056
g74
(dp4057
g82
I4
ssg83
g4051
sg76
(lp4058
S'^default/\\w+\\.py$'
p4059
asbasbasbag69
(g85
g71
NtRp4060
(dp4061
g74
(dp4062
sg83
g4030
sg76
(lp4063
g69
(g90
g71
NtRp4064
(dp4065
g74
(dp4066
sg83
g4060
sg76
(lp4067
g69
(g70
g71
NtRp4068
(dp4069
g74
(dp4070
g82
I4
ssg83
g4064
sg76
(lp4071
S'^default/index/\\w+\\.py$'
p4072
asbasbasbasbasbasbasbag69
(g85
g71
NtRp4073
(dp4074
g74
(dp4075
sg83
g3556
sg76
(lp4076
g69
(g90
g71
NtRp4077
(dp4078
g74
(dp4079
g94
g95
ssg83
g4073
sg76
(lp4080
S'postprocessing'
p4081
asbag69
(g90
g71
NtRp4082
(dp4083
g74
(dp4084
g101
g102
ssg83
g4073
sg76
(lp4085
S':'
asbag69
(g90
g71
NtRp4086
(dp4087
g74
(dp4088
sg83
g4073
sg76
(lp4089
g69
(g70
g71
NtRp4090
(dp4091
g74
(dp4092
g82
I5
ssg83
g4086
sg76
(lp4093
g69
(g78
g71
NtRp4094
(dp4095
g74
(dp4096
g82
I4
ssg83
Nsg76
(lp4097
sbasbasbasbag69
(g85
g71
NtRp4098
(dp4099
g74
(dp4100
sg83
g3556
sg76
(lp4101
g69
(g90
g71
NtRp4102
(dp4103
g74
(dp4104
g94
g95
ssg83
g4098
sg76
(lp4105
S'session_cookie_expires'
p4106
asbag69
(g90
g71
NtRp4107
(dp4108
g74
(dp4109
g101
g102
ssg83
g4098
sg76
(lp4110
S':'
asbag69
(g90
g71
NtRp4111
(dp4112
g74
(dp4113
sg83
g4098
sg76
(lp4114
g69
(g70
g71
NtRp4115
(dp4116
g74
(dp4117
g82
I5
ssg83
g4111
sg76
(lp4118
S'None'
p4119
asbasbasbag69
(g85
g71
NtRp4120
(dp4121
g74
(dp4122
sg83
g3556
sg76
(lp4123
g69
(g90
g71
NtRp4124
(dp4125
g74
(dp4126
g94
g95
ssg83
g4120
sg76
(lp4127
S'session_data_name'
p4128
asbag69
(g90
g71
NtRp4129
(dp4130
g74
(dp4131
g101
g102
ssg83
g4120
sg76
(lp4132
S':'
asbag69
(g90
g71
NtRp4133
(dp4134
g74
(dp4135
sg83
g4120
sg76
(lp4136
g69
(g70
g71
NtRp4137
(dp4138
g74
(dp4139
g82
I5
ssg83
g4133
sg76
(lp4140
S'session_data_projeto'
p4141
asbasbasbag69
(g85
g71
NtRp4142
(dp4143
g74
(dp4144
sg83
g3556
sg76
(lp4145
g69
(g90
g71
NtRp4146
(dp4147
g74
(dp4148
g94
g95
ssg83
g4142
sg76
(lp4149
S'session_file'
p4150
asbag69
(g90
g71
NtRp4151
(dp4152
g74
(dp4153
g101
g102
ssg83
g4142
sg76
(lp4154
S':'
asbag69
(g90
g71
NtRp4155
(dp4156
g74
(dp4157
sg83
g4142
sg76
(lp4158
g69
(g70
g71
NtRp4159
(dp4160
g74
(dp4161
g82
I5
ssg83
g4155
sg76
(lp4162
S'None'
p4163
asbasbasbag69
(g85
g71
NtRp4164
(dp4165
g74
(dp4166
sg83
g3556
sg76
(lp4167
g69
(g90
g71
NtRp4168
(dp4169
g74
(dp4170
g94
g95
ssg83
g4164
sg76
(lp4171
S'session_filename'
p4172
asbag69
(g90
g71
NtRp4173
(dp4174
g74
(dp4175
g101
g102
ssg83
g4164
sg76
(lp4176
S':'
asbag69
(g90
g71
NtRp4177
(dp4178
g74
(dp4179
sg83
g4164
sg76
(lp4180
g69
(g70
g71
NtRp4181
(dp4182
g74
(dp4183
g82
I5
ssg83
g4177
sg76
(lp4184
S'/var/www/web2py_curso/applications/projeto/sessions/127.0.0.1-ac2fedfb-a46a-42e9-8bef-23a136eddeb8'
p4185
asbasbasbag69
(g85
g71
NtRp4186
(dp4187
g74
(dp4188
sg83
g3556
sg76
(lp4189
g69
(g90
g71
NtRp4190
(dp4191
g74
(dp4192
g94
g95
ssg83
g4186
sg76
(lp4193
S'session_id'
p4194
asbag69
(g90
g71
NtRp4195
(dp4196
g74
(dp4197
g101
g102
ssg83
g4186
sg76
(lp4198
S':'
asbag69
(g90
g71
NtRp4199
(dp4200
g74
(dp4201
sg83
g4186
sg76
(lp4202
g69
(g70
g71
NtRp4203
(dp4204
g74
(dp4205
g82
I5
ssg83
g4199
sg76
(lp4206
g673
asbasbasbag69
(g85
g71
NtRp4207
(dp4208
g74
(dp4209
sg83
g3556
sg76
(lp4210
g69
(g90
g71
NtRp4211
(dp4212
g74
(dp4213
g94
g95
ssg83
g4207
sg76
(lp4214
S'session_id_name'
p4215
asbag69
(g90
g71
NtRp4216
(dp4217
g74
(dp4218
g101
g102
ssg83
g4207
sg76
(lp4219
S':'
asbag69
(g90
g71
NtRp4220
(dp4221
g74
(dp4222
sg83
g4207
sg76
(lp4223
g69
(g70
g71
NtRp4224
(dp4225
g74
(dp4226
g82
I5
ssg83
g4220
sg76
(lp4227
g3613
asbasbasbag69
(g85
g71
NtRp4228
(dp4229
g74
(dp4230
sg83
g3556
sg76
(lp4231
g69
(g90
g71
NtRp4232
(dp4233
g74
(dp4234
g94
g95
ssg83
g4228
sg76
(lp4235
S'session_new'
p4236
asbag69
(g90
g71
NtRp4237
(dp4238
g74
(dp4239
g101
g102
ssg83
g4228
sg76
(lp4240
S':'
asbag69
(g90
g71
NtRp4241
(dp4242
g74
(dp4243
sg83
g4228
sg76
(lp4244
g69
(g70
g71
NtRp4245
(dp4246
g74
(dp4247
g82
I5
ssg83
g4241
sg76
(lp4248
g112
asbasbasbag69
(g85
g71
NtRp4249
(dp4250
g74
(dp4251
sg83
g3556
sg76
(lp4252
g69
(g90
g71
NtRp4253
(dp4254
g74
(dp4255
g94
g95
ssg83
g4249
sg76
(lp4256
S'session_storage_type'
p4257
asbag69
(g90
g71
NtRp4258
(dp4259
g74
(dp4260
g101
g102
ssg83
g4249
sg76
(lp4261
S':'
asbag69
(g90
g71
NtRp4262
(dp4263
g74
(dp4264
sg83
g4249
sg76
(lp4265
g69
(g70
g71
NtRp4266
(dp4267
g74
(dp4268
g82
I5
ssg83
g4262
sg76
(lp4269
g3485
asbasbasbag69
(g85
g71
NtRp4270
(dp4271
g74
(dp4272
sg83
g3556
sg76
(lp4273
g69
(g90
g71
NtRp4274
(dp4275
g74
(dp4276
g94
g95
ssg83
g4270
sg76
(lp4277
S'status'
p4278
asbag69
(g90
g71
NtRp4279
(dp4280
g74
(dp4281
g101
g102
ssg83
g4270
sg76
(lp4282
S':'
asbag69
(g90
g71
NtRp4283
(dp4284
g74
(dp4285
sg83
g4270
sg76
(lp4286
g69
(g70
g71
NtRp4287
(dp4288
g74
(dp4289
g82
I5
ssg83
g4283
sg76
(lp4290
S'200'
p4291
asbasbasbag69
(g85
g71
NtRp4292
(dp4293
g74
(dp4294
sg83
g3556
sg76
(lp4295
g69
(g90
g71
NtRp4296
(dp4297
g74
(dp4298
g94
g95
ssg83
g4292
sg76
(lp4299
S'view'
p4300
asbag69
(g90
g71
NtRp4301
(dp4302
g74
(dp4303
g101
g102
ssg83
g4292
sg76
(lp4304
S':'
asbag69
(g90
g71
NtRp4305
(dp4306
g74
(dp4307
sg83
g4292
sg76
(lp4308
g69
(g70
g71
NtRp4309
(dp4310
g74
(dp4311
g82
I5
ssg83
g4305
sg76
(lp4312
S'default/index.html'
p4313
asbasbasbasbasbsS'locals'
p4314
(dp4315
g4
S"'/var/www/web2py_curso/applications/projeto/controllers/default.py'"
p4316
sg6
S'\'# coding: utf-8\\n\\ndef index():\\n\\tprint "Action ind...x + y\\n\\n \\n\\nresponse._vars=response._caller(index)\\n\''
p4317
sssS'traceback'
p4318
S'Traceback (most recent call last):\n  File "/var/www/web2py_curso/gluon/restricted.py", line 211, in restricted\n    ccode = compile2(code, layer)\n  File "/var/www/web2py_curso/gluon/restricted.py", line 194, in compile2\n    return compile(code.rstrip().replace(\'\\r\\n\', \'\\n\') + \'\\n\', layer, \'exec\')\n  File "/var/www/web2py_curso/applications/projeto/controllers/default.py", line 10\n    form = "<form action= "method=\'POST\'><input name=\'nome\' id=\'nome\'/><input type=\'Submit\'></form><br>"\n                                ^\nSyntaxError: invalid syntax\n'
p4319
s.