(dp1
S'output'
p2
S"<type 'exceptions.SyntaxError'> Non-ASCII character '\\xc3' in file applications/projeto/modules/custom_validators.py on line 10, but no encoding declared; see http://www.python.org/peps/pep-0263.html for details (custom_validators.py, line 10)"
p3
sS'layer'
p4
S'/var/www/web2py_curso/applications/projeto/models/validators.py'
p5
sS'code'
p6
S'from custom_validators import CONTEUDO_BLOQ\n\nPost.blog.requires = IS_IN_DB(db, \'blog.id\', "%(title)s")\nPost.title.requires = [IS_NOT_EMPTY(error_message=T("Esta vazio!")),\n\t\t\t\t\t   CONTEUDO_BLOQ(),\n                       IS_NOT_IN_DB(db, \'post.title\', error_message=T("title already exists"))]\nPost.category.requires = IS_IN_DB(db, \'category.id\', "%(name)s", multiple=True)\n#Post.category.widget = SQLFORM.widgets.checkboxes.widget\nPost.slug.compute = lambda registro: IS_SLUG()(registro.title)[1]\n\nPost.created_by.requires = (db, \'auth_user.id\', "%(first_name)s")\n'
p7
sS'snapshot'
p8
(dp9
S'exception'
p10
(dp11
S'__getslice__'
p12
S"<method-wrapper '__getslice__' of exceptions.SyntaxError object>"
p13
sS'text'
p14
S'None'
p15
sS'__str__'
p16
S"<method-wrapper '__str__' of exceptions.SyntaxError object>"
p17
sS'__reduce__'
p18
S'<built-in method __reduce__ of exceptions.SyntaxError object>'
p19
sS'__dict__'
p20
S'{}'
p21
sS'__sizeof__'
p22
S'<built-in method __sizeof__ of exceptions.SyntaxError object>'
p23
sS'__init__'
p24
S"<method-wrapper '__init__' of exceptions.SyntaxError object>"
p25
sS'__setattr__'
p26
S"<method-wrapper '__setattr__' of exceptions.SyntaxError object>"
p27
sS'__reduce_ex__'
p28
S'<built-in method __reduce_ex__ of exceptions.SyntaxError object>'
p29
sS'__new__'
p30
S'<built-in method __new__ of type object>'
p31
sS'__format__'
p32
S'<built-in method __format__ of exceptions.SyntaxError object>'
p33
sS'__class__'
p34
S"<type 'exceptions.SyntaxError'>"
p35
sS'filename'
p36
S"'applications/projeto/modules/custom_validators.py'"
p37
sS'lineno'
p38
S'10'
p39
sS'msg'
p40
S'r"Non-ASCII character \'\\xc3\' in file applications/...p://www.python.org/peps/pep-0263.html for details"'
p41
sS'__doc__'
p42
S"'Invalid syntax.'"
p43
sS'__getitem__'
p44
S"<method-wrapper '__getitem__' of exceptions.SyntaxError object>"
p45
sS'__setstate__'
p46
S'<built-in method __setstate__ of exceptions.SyntaxError object>'
p47
sS'__getattribute__'
p48
S"<method-wrapper '__getattribute__' of exceptions.SyntaxError object>"
p49
sS'print_file_and_line'
p50
S'None'
p51
sS'args'
p52
S'(r"Non-ASCII character \'\\xc3\' in file applications/...p://www.python.org/peps/pep-0263.html for details", (\'applications/projeto/modules/custom_validators.py\', 10, 0, None))'
p53
sS'__subclasshook__'
p54
S'<built-in method __subclasshook__ of type object>'
p55
sS'offset'
p56
S'0'
sS'__unicode__'
p57
S'<built-in method __unicode__ of exceptions.SyntaxError object>'
p58
sS'__delattr__'
p59
S"<method-wrapper '__delattr__' of exceptions.SyntaxError object>"
p60
sS'__repr__'
p61
S"<method-wrapper '__repr__' of exceptions.SyntaxError object>"
p62
sS'__hash__'
p63
S"<method-wrapper '__hash__' of exceptions.SyntaxError object>"
p64
ssS'evalue'
p65
S"Non-ASCII character '\\xc3' in file applications/projeto/modules/custom_validators.py on line 10, but no encoding declared; see http://www.python.org/peps/pep-0263.html for details (custom_validators.py, line 10)"
p66
sS'request'
p67
ccopy_reg
_reconstructor
p68
(cgluon.html
BEAUTIFY
p69
c__builtin__
object
p70
NtRp71
(dp72
S'attributes'
p73
(dp74
sS'components'
p75
(lp76
g68
(cgluon.html
TABLE
p77
g70
NtRp78
(dp79
g73
(dp80
S'level'
p81
I5
ssS'parent'
p82
Nsg75
(lp83
g68
(cgluon.html
TR
p84
g70
NtRp85
(dp86
g73
(dp87
sg82
g78
sg75
(lp88
g68
(cgluon.html
TD
p89
g70
NtRp90
(dp91
g73
(dp92
S'_style'
p93
S'font-weight:bold;vertical-align:top'
p94
ssg82
g85
sg75
(lp95
S'ajax'
p96
asbag68
(g89
g70
NtRp97
(dp98
g73
(dp99
S'_valign'
p100
S'top'
p101
ssg82
g85
sg75
(lp102
S':'
asbag68
(g89
g70
NtRp103
(dp104
g73
(dp105
sg82
g85
sg75
(lp106
g68
(g69
g70
NtRp107
(dp108
g73
(dp109
g81
I5
ssg82
g103
sg75
(lp110
S'False'
p111
asbasbasbag68
(g84
g70
NtRp112
(dp113
g73
(dp114
sg82
g78
sg75
(lp115
g68
(g89
g70
NtRp116
(dp117
g73
(dp118
g93
g94
ssg82
g112
sg75
(lp119
S'application'
p120
asbag68
(g89
g70
NtRp121
(dp122
g73
(dp123
g100
g101
ssg82
g112
sg75
(lp124
S':'
asbag68
(g89
g70
NtRp125
(dp126
g73
(dp127
sg82
g112
sg75
(lp128
g68
(g69
g70
NtRp129
(dp130
g73
(dp131
g81
I5
ssg82
g125
sg75
(lp132
S'projeto'
p133
asbasbasbag68
(g84
g70
NtRp134
(dp135
g73
(dp136
sg82
g78
sg75
(lp137
g68
(g89
g70
NtRp138
(dp139
g73
(dp140
g93
g94
ssg82
g134
sg75
(lp141
g52
asbag68
(g89
g70
NtRp142
(dp143
g73
(dp144
g100
g101
ssg82
g134
sg75
(lp145
S':'
asbag68
(g89
g70
NtRp146
(dp147
g73
(dp148
sg82
g134
sg75
(lp149
g68
(g69
g70
NtRp150
(dp151
g73
(dp152
g81
I5
ssg82
g146
sg75
(lp153
g68
(g77
g70
NtRp154
(dp155
g73
(dp156
g81
I4
ssg82
Nsg75
(lp157
sbasbasbasbag68
(g84
g70
NtRp158
(dp159
g73
(dp160
sg82
g78
sg75
(lp161
g68
(g89
g70
NtRp162
(dp163
g73
(dp164
g93
g94
ssg82
g158
sg75
(lp165
S'body'
p166
asbag68
(g89
g70
NtRp167
(dp168
g73
(dp169
g100
g101
ssg82
g158
sg75
(lp170
S':'
asbag68
(g89
g70
NtRp171
(dp172
g73
(dp173
sg82
g158
sg75
(lp174
g68
(g69
g70
NtRp175
(dp176
g73
(dp177
g81
I5
ssg82
g171
sg75
(lp178
S'<cStringIO.StringO object at 0x7ff380155ab0>'
p179
asbasbasbag68
(g84
g70
NtRp180
(dp181
g73
(dp182
sg82
g78
sg75
(lp183
g68
(g89
g70
NtRp184
(dp185
g73
(dp186
g93
g94
ssg82
g180
sg75
(lp187
S'cid'
p188
asbag68
(g89
g70
NtRp189
(dp190
g73
(dp191
g100
g101
ssg82
g180
sg75
(lp192
S':'
asbag68
(g89
g70
NtRp193
(dp194
g73
(dp195
sg82
g180
sg75
(lp196
g68
(g69
g70
NtRp197
(dp198
g73
(dp199
g81
I5
ssg82
g193
sg75
(lp200
S'None'
p201
asbasbasbag68
(g84
g70
NtRp202
(dp203
g73
(dp204
sg82
g78
sg75
(lp205
g68
(g89
g70
NtRp206
(dp207
g73
(dp208
g93
g94
ssg82
g202
sg75
(lp209
S'client'
p210
asbag68
(g89
g70
NtRp211
(dp212
g73
(dp213
g100
g101
ssg82
g202
sg75
(lp214
S':'
asbag68
(g89
g70
NtRp215
(dp216
g73
(dp217
sg82
g202
sg75
(lp218
g68
(g69
g70
NtRp219
(dp220
g73
(dp221
g81
I5
ssg82
g215
sg75
(lp222
S'127.0.0.1'
p223
asbasbasbag68
(g84
g70
NtRp224
(dp225
g73
(dp226
sg82
g78
sg75
(lp227
g68
(g89
g70
NtRp228
(dp229
g73
(dp230
g93
g94
ssg82
g224
sg75
(lp231
S'controller'
p232
asbag68
(g89
g70
NtRp233
(dp234
g73
(dp235
g100
g101
ssg82
g224
sg75
(lp236
S':'
asbag68
(g89
g70
NtRp237
(dp238
g73
(dp239
sg82
g224
sg75
(lp240
g68
(g69
g70
NtRp241
(dp242
g73
(dp243
g81
I5
ssg82
g237
sg75
(lp244
S'post'
p245
asbasbasbag68
(g84
g70
NtRp246
(dp247
g73
(dp248
sg82
g78
sg75
(lp249
g68
(g89
g70
NtRp250
(dp251
g73
(dp252
g93
g94
ssg82
g246
sg75
(lp253
S'cookies'
p254
asbag68
(g89
g70
NtRp255
(dp256
g73
(dp257
g100
g101
ssg82
g246
sg75
(lp258
S':'
asbag68
(g89
g70
NtRp259
(dp260
g73
(dp261
sg82
g246
sg75
(lp262
g68
(g69
g70
NtRp263
(dp264
g73
(dp265
g81
I5
ssg82
g259
sg75
(lp266
g68
(g77
g70
NtRp267
(dp268
g73
(dp269
g81
I4
ssg82
Nsg75
(lp270
g68
(g84
g70
NtRp271
(dp272
g73
(dp273
sg82
g267
sg75
(lp274
g68
(g89
g70
NtRp275
(dp276
g73
(dp277
g93
g94
ssg82
g271
sg75
(lp278
S'admin'
p279
asbag68
(g89
g70
NtRp280
(dp281
g73
(dp282
g100
g101
ssg82
g271
sg75
(lp283
S':'
asbag68
(g89
g70
NtRp284
(dp285
g73
(dp286
sg82
g271
sg75
(lp287
g68
(g69
g70
NtRp288
(dp289
g73
(dp290
g81
I4
ssg82
g284
sg75
(lp291
S'admin'
p292
ag68
(g77
g70
NtRp293
(dp294
g73
(dp295
g81
I3
ssg82
Nsg75
(lp296
g68
(g84
g70
NtRp297
(dp298
g73
(dp299
sg82
g293
sg75
(lp300
g68
(g89
g70
NtRp301
(dp302
g73
(dp303
g93
g94
ssg82
g297
sg75
(lp304
S'comment'
p305
asbag68
(g89
g70
NtRp306
(dp307
g73
(dp308
g100
g101
ssg82
g297
sg75
(lp309
S':'
asbag68
(g89
g70
NtRp310
(dp311
g73
(dp312
sg82
g297
sg75
(lp313
g68
(g69
g70
NtRp314
(dp315
g73
(dp316
g81
I3
ssg82
g310
sg75
(lp317
S''
asbasbasbag68
(g84
g70
NtRp318
(dp319
g73
(dp320
sg82
g293
sg75
(lp321
g68
(g89
g70
NtRp322
(dp323
g73
(dp324
g93
g94
ssg82
g318
sg75
(lp325
S'domain'
p326
asbag68
(g89
g70
NtRp327
(dp328
g73
(dp329
g100
g101
ssg82
g318
sg75
(lp330
S':'
asbag68
(g89
g70
NtRp331
(dp332
g73
(dp333
sg82
g318
sg75
(lp334
g68
(g69
g70
NtRp335
(dp336
g73
(dp337
g81
I3
ssg82
g331
sg75
(lp338
S''
asbasbasbag68
(g84
g70
NtRp339
(dp340
g73
(dp341
sg82
g293
sg75
(lp342
g68
(g89
g70
NtRp343
(dp344
g73
(dp345
g93
g94
ssg82
g339
sg75
(lp346
S'expires'
p347
asbag68
(g89
g70
NtRp348
(dp349
g73
(dp350
g100
g101
ssg82
g339
sg75
(lp351
S':'
asbag68
(g89
g70
NtRp352
(dp353
g73
(dp354
sg82
g339
sg75
(lp355
g68
(g69
g70
NtRp356
(dp357
g73
(dp358
g81
I3
ssg82
g352
sg75
(lp359
S''
asbasbasbag68
(g84
g70
NtRp360
(dp361
g73
(dp362
sg82
g293
sg75
(lp363
g68
(g89
g70
NtRp364
(dp365
g73
(dp366
g93
g94
ssg82
g360
sg75
(lp367
S'httponly'
p368
asbag68
(g89
g70
NtRp369
(dp370
g73
(dp371
g100
g101
ssg82
g360
sg75
(lp372
S':'
asbag68
(g89
g70
NtRp373
(dp374
g73
(dp375
sg82
g360
sg75
(lp376
g68
(g69
g70
NtRp377
(dp378
g73
(dp379
g81
I3
ssg82
g373
sg75
(lp380
S''
asbasbasbag68
(g84
g70
NtRp381
(dp382
g73
(dp383
sg82
g293
sg75
(lp384
g68
(g89
g70
NtRp385
(dp386
g73
(dp387
g93
g94
ssg82
g381
sg75
(lp388
S'max-age'
p389
asbag68
(g89
g70
NtRp390
(dp391
g73
(dp392
g100
g101
ssg82
g381
sg75
(lp393
S':'
asbag68
(g89
g70
NtRp394
(dp395
g73
(dp396
sg82
g381
sg75
(lp397
g68
(g69
g70
NtRp398
(dp399
g73
(dp400
g81
I3
ssg82
g394
sg75
(lp401
S''
asbasbasbag68
(g84
g70
NtRp402
(dp403
g73
(dp404
sg82
g293
sg75
(lp405
g68
(g89
g70
NtRp406
(dp407
g73
(dp408
g93
g94
ssg82
g402
sg75
(lp409
S'path'
p410
asbag68
(g89
g70
NtRp411
(dp412
g73
(dp413
g100
g101
ssg82
g402
sg75
(lp414
S':'
asbag68
(g89
g70
NtRp415
(dp416
g73
(dp417
sg82
g402
sg75
(lp418
g68
(g69
g70
NtRp419
(dp420
g73
(dp421
g81
I3
ssg82
g415
sg75
(lp422
S''
asbasbasbag68
(g84
g70
NtRp423
(dp424
g73
(dp425
sg82
g293
sg75
(lp426
g68
(g89
g70
NtRp427
(dp428
g73
(dp429
g93
g94
ssg82
g423
sg75
(lp430
S'secure'
p431
asbag68
(g89
g70
NtRp432
(dp433
g73
(dp434
g100
g101
ssg82
g423
sg75
(lp435
S':'
asbag68
(g89
g70
NtRp436
(dp437
g73
(dp438
sg82
g423
sg75
(lp439
g68
(g69
g70
NtRp440
(dp441
g73
(dp442
g81
I3
ssg82
g436
sg75
(lp443
S''
asbasbasbag68
(g84
g70
NtRp444
(dp445
g73
(dp446
sg82
g293
sg75
(lp447
g68
(g89
g70
NtRp448
(dp449
g73
(dp450
g93
g94
ssg82
g444
sg75
(lp451
S'version'
p452
asbag68
(g89
g70
NtRp453
(dp454
g73
(dp455
g100
g101
ssg82
g444
sg75
(lp456
S':'
asbag68
(g89
g70
NtRp457
(dp458
g73
(dp459
sg82
g444
sg75
(lp460
g68
(g69
g70
NtRp461
(dp462
g73
(dp463
g81
I3
ssg82
g457
sg75
(lp464
S''
asbasbasbasbasbasbasbag68
(g84
g70
NtRp465
(dp466
g73
(dp467
sg82
g267
sg75
(lp468
g68
(g89
g70
NtRp469
(dp470
g73
(dp471
g93
g94
ssg82
g465
sg75
(lp472
S'cookie'
p473
asbag68
(g89
g70
NtRp474
(dp475
g73
(dp476
g100
g101
ssg82
g465
sg75
(lp477
S':'
asbag68
(g89
g70
NtRp478
(dp479
g73
(dp480
sg82
g465
sg75
(lp481
g68
(g69
g70
NtRp482
(dp483
g73
(dp484
g81
I4
ssg82
g478
sg75
(lp485
S'1649423593'
p486
ag68
(g77
g70
NtRp487
(dp488
g73
(dp489
g81
I3
ssg82
Nsg75
(lp490
g68
(g84
g70
NtRp491
(dp492
g73
(dp493
sg82
g487
sg75
(lp494
g68
(g89
g70
NtRp495
(dp496
g73
(dp497
g93
g94
ssg82
g491
sg75
(lp498
g305
asbag68
(g89
g70
NtRp499
(dp500
g73
(dp501
g100
g101
ssg82
g491
sg75
(lp502
S':'
asbag68
(g89
g70
NtRp503
(dp504
g73
(dp505
sg82
g491
sg75
(lp506
g68
(g69
g70
NtRp507
(dp508
g73
(dp509
g81
I3
ssg82
g503
sg75
(lp510
S''
asbasbasbag68
(g84
g70
NtRp511
(dp512
g73
(dp513
sg82
g487
sg75
(lp514
g68
(g89
g70
NtRp515
(dp516
g73
(dp517
g93
g94
ssg82
g511
sg75
(lp518
g326
asbag68
(g89
g70
NtRp519
(dp520
g73
(dp521
g100
g101
ssg82
g511
sg75
(lp522
S':'
asbag68
(g89
g70
NtRp523
(dp524
g73
(dp525
sg82
g511
sg75
(lp526
g68
(g69
g70
NtRp527
(dp528
g73
(dp529
g81
I3
ssg82
g523
sg75
(lp530
S''
asbasbasbag68
(g84
g70
NtRp531
(dp532
g73
(dp533
sg82
g487
sg75
(lp534
g68
(g89
g70
NtRp535
(dp536
g73
(dp537
g93
g94
ssg82
g531
sg75
(lp538
g347
asbag68
(g89
g70
NtRp539
(dp540
g73
(dp541
g100
g101
ssg82
g531
sg75
(lp542
S':'
asbag68
(g89
g70
NtRp543
(dp544
g73
(dp545
sg82
g531
sg75
(lp546
g68
(g69
g70
NtRp547
(dp548
g73
(dp549
g81
I3
ssg82
g543
sg75
(lp550
S''
asbasbasbag68
(g84
g70
NtRp551
(dp552
g73
(dp553
sg82
g487
sg75
(lp554
g68
(g89
g70
NtRp555
(dp556
g73
(dp557
g93
g94
ssg82
g551
sg75
(lp558
g368
asbag68
(g89
g70
NtRp559
(dp560
g73
(dp561
g100
g101
ssg82
g551
sg75
(lp562
S':'
asbag68
(g89
g70
NtRp563
(dp564
g73
(dp565
sg82
g551
sg75
(lp566
g68
(g69
g70
NtRp567
(dp568
g73
(dp569
g81
I3
ssg82
g563
sg75
(lp570
S''
asbasbasbag68
(g84
g70
NtRp571
(dp572
g73
(dp573
sg82
g487
sg75
(lp574
g68
(g89
g70
NtRp575
(dp576
g73
(dp577
g93
g94
ssg82
g571
sg75
(lp578
g389
asbag68
(g89
g70
NtRp579
(dp580
g73
(dp581
g100
g101
ssg82
g571
sg75
(lp582
S':'
asbag68
(g89
g70
NtRp583
(dp584
g73
(dp585
sg82
g571
sg75
(lp586
g68
(g69
g70
NtRp587
(dp588
g73
(dp589
g81
I3
ssg82
g583
sg75
(lp590
S''
asbasbasbag68
(g84
g70
NtRp591
(dp592
g73
(dp593
sg82
g487
sg75
(lp594
g68
(g89
g70
NtRp595
(dp596
g73
(dp597
g93
g94
ssg82
g591
sg75
(lp598
g410
asbag68
(g89
g70
NtRp599
(dp600
g73
(dp601
g100
g101
ssg82
g591
sg75
(lp602
S':'
asbag68
(g89
g70
NtRp603
(dp604
g73
(dp605
sg82
g591
sg75
(lp606
g68
(g69
g70
NtRp607
(dp608
g73
(dp609
g81
I3
ssg82
g603
sg75
(lp610
S''
asbasbasbag68
(g84
g70
NtRp611
(dp612
g73
(dp613
sg82
g487
sg75
(lp614
g68
(g89
g70
NtRp615
(dp616
g73
(dp617
g93
g94
ssg82
g611
sg75
(lp618
g431
asbag68
(g89
g70
NtRp619
(dp620
g73
(dp621
g100
g101
ssg82
g611
sg75
(lp622
S':'
asbag68
(g89
g70
NtRp623
(dp624
g73
(dp625
sg82
g611
sg75
(lp626
g68
(g69
g70
NtRp627
(dp628
g73
(dp629
g81
I3
ssg82
g623
sg75
(lp630
S''
asbasbasbag68
(g84
g70
NtRp631
(dp632
g73
(dp633
sg82
g487
sg75
(lp634
g68
(g89
g70
NtRp635
(dp636
g73
(dp637
g93
g94
ssg82
g631
sg75
(lp638
g452
asbag68
(g89
g70
NtRp639
(dp640
g73
(dp641
g100
g101
ssg82
g631
sg75
(lp642
S':'
asbag68
(g89
g70
NtRp643
(dp644
g73
(dp645
sg82
g631
sg75
(lp646
g68
(g69
g70
NtRp647
(dp648
g73
(dp649
g81
I3
ssg82
g643
sg75
(lp650
S''
asbasbasbasbasbasbasbag68
(g84
g70
NtRp651
(dp652
g73
(dp653
sg82
g267
sg75
(lp654
g68
(g89
g70
NtRp655
(dp656
g73
(dp657
g93
g94
ssg82
g651
sg75
(lp658
S'hw_type'
p659
asbag68
(g89
g70
NtRp660
(dp661
g73
(dp662
g100
g101
ssg82
g651
sg75
(lp663
S':'
asbag68
(g89
g70
NtRp664
(dp665
g73
(dp666
sg82
g651
sg75
(lp667
g68
(g69
g70
NtRp668
(dp669
g73
(dp670
g81
I4
ssg82
g664
sg75
(lp671
S'MX60'
p672
ag68
(g77
g70
NtRp673
(dp674
g73
(dp675
g81
I3
ssg82
Nsg75
(lp676
g68
(g84
g70
NtRp677
(dp678
g73
(dp679
sg82
g673
sg75
(lp680
g68
(g89
g70
NtRp681
(dp682
g73
(dp683
g93
g94
ssg82
g677
sg75
(lp684
g305
asbag68
(g89
g70
NtRp685
(dp686
g73
(dp687
g100
g101
ssg82
g677
sg75
(lp688
S':'
asbag68
(g89
g70
NtRp689
(dp690
g73
(dp691
sg82
g677
sg75
(lp692
g68
(g69
g70
NtRp693
(dp694
g73
(dp695
g81
I3
ssg82
g689
sg75
(lp696
S''
asbasbasbag68
(g84
g70
NtRp697
(dp698
g73
(dp699
sg82
g673
sg75
(lp700
g68
(g89
g70
NtRp701
(dp702
g73
(dp703
g93
g94
ssg82
g697
sg75
(lp704
g326
asbag68
(g89
g70
NtRp705
(dp706
g73
(dp707
g100
g101
ssg82
g697
sg75
(lp708
S':'
asbag68
(g89
g70
NtRp709
(dp710
g73
(dp711
sg82
g697
sg75
(lp712
g68
(g69
g70
NtRp713
(dp714
g73
(dp715
g81
I3
ssg82
g709
sg75
(lp716
S''
asbasbasbag68
(g84
g70
NtRp717
(dp718
g73
(dp719
sg82
g673
sg75
(lp720
g68
(g89
g70
NtRp721
(dp722
g73
(dp723
g93
g94
ssg82
g717
sg75
(lp724
g347
asbag68
(g89
g70
NtRp725
(dp726
g73
(dp727
g100
g101
ssg82
g717
sg75
(lp728
S':'
asbag68
(g89
g70
NtRp729
(dp730
g73
(dp731
sg82
g717
sg75
(lp732
g68
(g69
g70
NtRp733
(dp734
g73
(dp735
g81
I3
ssg82
g729
sg75
(lp736
S''
asbasbasbag68
(g84
g70
NtRp737
(dp738
g73
(dp739
sg82
g673
sg75
(lp740
g68
(g89
g70
NtRp741
(dp742
g73
(dp743
g93
g94
ssg82
g737
sg75
(lp744
g368
asbag68
(g89
g70
NtRp745
(dp746
g73
(dp747
g100
g101
ssg82
g737
sg75
(lp748
S':'
asbag68
(g89
g70
NtRp749
(dp750
g73
(dp751
sg82
g737
sg75
(lp752
g68
(g69
g70
NtRp753
(dp754
g73
(dp755
g81
I3
ssg82
g749
sg75
(lp756
S''
asbasbasbag68
(g84
g70
NtRp757
(dp758
g73
(dp759
sg82
g673
sg75
(lp760
g68
(g89
g70
NtRp761
(dp762
g73
(dp763
g93
g94
ssg82
g757
sg75
(lp764
g389
asbag68
(g89
g70
NtRp765
(dp766
g73
(dp767
g100
g101
ssg82
g757
sg75
(lp768
S':'
asbag68
(g89
g70
NtRp769
(dp770
g73
(dp771
sg82
g757
sg75
(lp772
g68
(g69
g70
NtRp773
(dp774
g73
(dp775
g81
I3
ssg82
g769
sg75
(lp776
S''
asbasbasbag68
(g84
g70
NtRp777
(dp778
g73
(dp779
sg82
g673
sg75
(lp780
g68
(g89
g70
NtRp781
(dp782
g73
(dp783
g93
g94
ssg82
g777
sg75
(lp784
g410
asbag68
(g89
g70
NtRp785
(dp786
g73
(dp787
g100
g101
ssg82
g777
sg75
(lp788
S':'
asbag68
(g89
g70
NtRp789
(dp790
g73
(dp791
sg82
g777
sg75
(lp792
g68
(g69
g70
NtRp793
(dp794
g73
(dp795
g81
I3
ssg82
g789
sg75
(lp796
S''
asbasbasbag68
(g84
g70
NtRp797
(dp798
g73
(dp799
sg82
g673
sg75
(lp800
g68
(g89
g70
NtRp801
(dp802
g73
(dp803
g93
g94
ssg82
g797
sg75
(lp804
g431
asbag68
(g89
g70
NtRp805
(dp806
g73
(dp807
g100
g101
ssg82
g797
sg75
(lp808
S':'
asbag68
(g89
g70
NtRp809
(dp810
g73
(dp811
sg82
g797
sg75
(lp812
g68
(g69
g70
NtRp813
(dp814
g73
(dp815
g81
I3
ssg82
g809
sg75
(lp816
S''
asbasbasbag68
(g84
g70
NtRp817
(dp818
g73
(dp819
sg82
g673
sg75
(lp820
g68
(g89
g70
NtRp821
(dp822
g73
(dp823
g93
g94
ssg82
g817
sg75
(lp824
g452
asbag68
(g89
g70
NtRp825
(dp826
g73
(dp827
g100
g101
ssg82
g817
sg75
(lp828
S':'
asbag68
(g89
g70
NtRp829
(dp830
g73
(dp831
sg82
g817
sg75
(lp832
g68
(g69
g70
NtRp833
(dp834
g73
(dp835
g81
I3
ssg82
g829
sg75
(lp836
S''
asbasbasbasbasbasbasbag68
(g84
g70
NtRp837
(dp838
g73
(dp839
sg82
g267
sg75
(lp840
g68
(g89
g70
NtRp841
(dp842
g73
(dp843
g93
g94
ssg82
g837
sg75
(lp844
S'hw_version'
p845
asbag68
(g89
g70
NtRp846
(dp847
g73
(dp848
g100
g101
ssg82
g837
sg75
(lp849
S':'
asbag68
(g89
g70
NtRp850
(dp851
g73
(dp852
sg82
g837
sg75
(lp853
g68
(g69
g70
NtRp854
(dp855
g73
(dp856
g81
I4
ssg82
g850
sg75
(lp857
S'Rev%201.9.82.316'
p858
ag68
(g77
g70
NtRp859
(dp860
g73
(dp861
g81
I3
ssg82
Nsg75
(lp862
g68
(g84
g70
NtRp863
(dp864
g73
(dp865
sg82
g859
sg75
(lp866
g68
(g89
g70
NtRp867
(dp868
g73
(dp869
g93
g94
ssg82
g863
sg75
(lp870
g305
asbag68
(g89
g70
NtRp871
(dp872
g73
(dp873
g100
g101
ssg82
g863
sg75
(lp874
S':'
asbag68
(g89
g70
NtRp875
(dp876
g73
(dp877
sg82
g863
sg75
(lp878
g68
(g69
g70
NtRp879
(dp880
g73
(dp881
g81
I3
ssg82
g875
sg75
(lp882
S''
asbasbasbag68
(g84
g70
NtRp883
(dp884
g73
(dp885
sg82
g859
sg75
(lp886
g68
(g89
g70
NtRp887
(dp888
g73
(dp889
g93
g94
ssg82
g883
sg75
(lp890
g326
asbag68
(g89
g70
NtRp891
(dp892
g73
(dp893
g100
g101
ssg82
g883
sg75
(lp894
S':'
asbag68
(g89
g70
NtRp895
(dp896
g73
(dp897
sg82
g883
sg75
(lp898
g68
(g69
g70
NtRp899
(dp900
g73
(dp901
g81
I3
ssg82
g895
sg75
(lp902
S''
asbasbasbag68
(g84
g70
NtRp903
(dp904
g73
(dp905
sg82
g859
sg75
(lp906
g68
(g89
g70
NtRp907
(dp908
g73
(dp909
g93
g94
ssg82
g903
sg75
(lp910
g347
asbag68
(g89
g70
NtRp911
(dp912
g73
(dp913
g100
g101
ssg82
g903
sg75
(lp914
S':'
asbag68
(g89
g70
NtRp915
(dp916
g73
(dp917
sg82
g903
sg75
(lp918
g68
(g69
g70
NtRp919
(dp920
g73
(dp921
g81
I3
ssg82
g915
sg75
(lp922
S''
asbasbasbag68
(g84
g70
NtRp923
(dp924
g73
(dp925
sg82
g859
sg75
(lp926
g68
(g89
g70
NtRp927
(dp928
g73
(dp929
g93
g94
ssg82
g923
sg75
(lp930
g368
asbag68
(g89
g70
NtRp931
(dp932
g73
(dp933
g100
g101
ssg82
g923
sg75
(lp934
S':'
asbag68
(g89
g70
NtRp935
(dp936
g73
(dp937
sg82
g923
sg75
(lp938
g68
(g69
g70
NtRp939
(dp940
g73
(dp941
g81
I3
ssg82
g935
sg75
(lp942
S''
asbasbasbag68
(g84
g70
NtRp943
(dp944
g73
(dp945
sg82
g859
sg75
(lp946
g68
(g89
g70
NtRp947
(dp948
g73
(dp949
g93
g94
ssg82
g943
sg75
(lp950
g389
asbag68
(g89
g70
NtRp951
(dp952
g73
(dp953
g100
g101
ssg82
g943
sg75
(lp954
S':'
asbag68
(g89
g70
NtRp955
(dp956
g73
(dp957
sg82
g943
sg75
(lp958
g68
(g69
g70
NtRp959
(dp960
g73
(dp961
g81
I3
ssg82
g955
sg75
(lp962
S''
asbasbasbag68
(g84
g70
NtRp963
(dp964
g73
(dp965
sg82
g859
sg75
(lp966
g68
(g89
g70
NtRp967
(dp968
g73
(dp969
g93
g94
ssg82
g963
sg75
(lp970
g410
asbag68
(g89
g70
NtRp971
(dp972
g73
(dp973
g100
g101
ssg82
g963
sg75
(lp974
S':'
asbag68
(g89
g70
NtRp975
(dp976
g73
(dp977
sg82
g963
sg75
(lp978
g68
(g69
g70
NtRp979
(dp980
g73
(dp981
g81
I3
ssg82
g975
sg75
(lp982
S''
asbasbasbag68
(g84
g70
NtRp983
(dp984
g73
(dp985
sg82
g859
sg75
(lp986
g68
(g89
g70
NtRp987
(dp988
g73
(dp989
g93
g94
ssg82
g983
sg75
(lp990
g431
asbag68
(g89
g70
NtRp991
(dp992
g73
(dp993
g100
g101
ssg82
g983
sg75
(lp994
S':'
asbag68
(g89
g70
NtRp995
(dp996
g73
(dp997
sg82
g983
sg75
(lp998
g68
(g69
g70
NtRp999
(dp1000
g73
(dp1001
g81
I3
ssg82
g995
sg75
(lp1002
S''
asbasbasbag68
(g84
g70
NtRp1003
(dp1004
g73
(dp1005
sg82
g859
sg75
(lp1006
g68
(g89
g70
NtRp1007
(dp1008
g73
(dp1009
g93
g94
ssg82
g1003
sg75
(lp1010
g452
asbag68
(g89
g70
NtRp1011
(dp1012
g73
(dp1013
g100
g101
ssg82
g1003
sg75
(lp1014
S':'
asbag68
(g89
g70
NtRp1015
(dp1016
g73
(dp1017
sg82
g1003
sg75
(lp1018
g68
(g69
g70
NtRp1019
(dp1020
g73
(dp1021
g81
I3
ssg82
g1015
sg75
(lp1022
S''
asbasbasbasbasbasbasbag68
(g84
g70
NtRp1023
(dp1024
g73
(dp1025
sg82
g267
sg75
(lp1026
g68
(g89
g70
NtRp1027
(dp1028
g73
(dp1029
g93
g94
ssg82
g1023
sg75
(lp1030
S'language'
p1031
asbag68
(g89
g70
NtRp1032
(dp1033
g73
(dp1034
g100
g101
ssg82
g1023
sg75
(lp1035
S':'
asbag68
(g89
g70
NtRp1036
(dp1037
g73
(dp1038
sg82
g1023
sg75
(lp1039
g68
(g69
g70
NtRp1040
(dp1041
g73
(dp1042
g81
I4
ssg82
g1036
sg75
(lp1043
S'1'
ag68
(g77
g70
NtRp1044
(dp1045
g73
(dp1046
g81
I3
ssg82
Nsg75
(lp1047
g68
(g84
g70
NtRp1048
(dp1049
g73
(dp1050
sg82
g1044
sg75
(lp1051
g68
(g89
g70
NtRp1052
(dp1053
g73
(dp1054
g93
g94
ssg82
g1048
sg75
(lp1055
g305
asbag68
(g89
g70
NtRp1056
(dp1057
g73
(dp1058
g100
g101
ssg82
g1048
sg75
(lp1059
S':'
asbag68
(g89
g70
NtRp1060
(dp1061
g73
(dp1062
sg82
g1048
sg75
(lp1063
g68
(g69
g70
NtRp1064
(dp1065
g73
(dp1066
g81
I3
ssg82
g1060
sg75
(lp1067
S''
asbasbasbag68
(g84
g70
NtRp1068
(dp1069
g73
(dp1070
sg82
g1044
sg75
(lp1071
g68
(g89
g70
NtRp1072
(dp1073
g73
(dp1074
g93
g94
ssg82
g1068
sg75
(lp1075
g326
asbag68
(g89
g70
NtRp1076
(dp1077
g73
(dp1078
g100
g101
ssg82
g1068
sg75
(lp1079
S':'
asbag68
(g89
g70
NtRp1080
(dp1081
g73
(dp1082
sg82
g1068
sg75
(lp1083
g68
(g69
g70
NtRp1084
(dp1085
g73
(dp1086
g81
I3
ssg82
g1080
sg75
(lp1087
S''
asbasbasbag68
(g84
g70
NtRp1088
(dp1089
g73
(dp1090
sg82
g1044
sg75
(lp1091
g68
(g89
g70
NtRp1092
(dp1093
g73
(dp1094
g93
g94
ssg82
g1088
sg75
(lp1095
g347
asbag68
(g89
g70
NtRp1096
(dp1097
g73
(dp1098
g100
g101
ssg82
g1088
sg75
(lp1099
S':'
asbag68
(g89
g70
NtRp1100
(dp1101
g73
(dp1102
sg82
g1088
sg75
(lp1103
g68
(g69
g70
NtRp1104
(dp1105
g73
(dp1106
g81
I3
ssg82
g1100
sg75
(lp1107
S''
asbasbasbag68
(g84
g70
NtRp1108
(dp1109
g73
(dp1110
sg82
g1044
sg75
(lp1111
g68
(g89
g70
NtRp1112
(dp1113
g73
(dp1114
g93
g94
ssg82
g1108
sg75
(lp1115
g368
asbag68
(g89
g70
NtRp1116
(dp1117
g73
(dp1118
g100
g101
ssg82
g1108
sg75
(lp1119
S':'
asbag68
(g89
g70
NtRp1120
(dp1121
g73
(dp1122
sg82
g1108
sg75
(lp1123
g68
(g69
g70
NtRp1124
(dp1125
g73
(dp1126
g81
I3
ssg82
g1120
sg75
(lp1127
S''
asbasbasbag68
(g84
g70
NtRp1128
(dp1129
g73
(dp1130
sg82
g1044
sg75
(lp1131
g68
(g89
g70
NtRp1132
(dp1133
g73
(dp1134
g93
g94
ssg82
g1128
sg75
(lp1135
g389
asbag68
(g89
g70
NtRp1136
(dp1137
g73
(dp1138
g100
g101
ssg82
g1128
sg75
(lp1139
S':'
asbag68
(g89
g70
NtRp1140
(dp1141
g73
(dp1142
sg82
g1128
sg75
(lp1143
g68
(g69
g70
NtRp1144
(dp1145
g73
(dp1146
g81
I3
ssg82
g1140
sg75
(lp1147
S''
asbasbasbag68
(g84
g70
NtRp1148
(dp1149
g73
(dp1150
sg82
g1044
sg75
(lp1151
g68
(g89
g70
NtRp1152
(dp1153
g73
(dp1154
g93
g94
ssg82
g1148
sg75
(lp1155
g410
asbag68
(g89
g70
NtRp1156
(dp1157
g73
(dp1158
g100
g101
ssg82
g1148
sg75
(lp1159
S':'
asbag68
(g89
g70
NtRp1160
(dp1161
g73
(dp1162
sg82
g1148
sg75
(lp1163
g68
(g69
g70
NtRp1164
(dp1165
g73
(dp1166
g81
I3
ssg82
g1160
sg75
(lp1167
S''
asbasbasbag68
(g84
g70
NtRp1168
(dp1169
g73
(dp1170
sg82
g1044
sg75
(lp1171
g68
(g89
g70
NtRp1172
(dp1173
g73
(dp1174
g93
g94
ssg82
g1168
sg75
(lp1175
g431
asbag68
(g89
g70
NtRp1176
(dp1177
g73
(dp1178
g100
g101
ssg82
g1168
sg75
(lp1179
S':'
asbag68
(g89
g70
NtRp1180
(dp1181
g73
(dp1182
sg82
g1168
sg75
(lp1183
g68
(g69
g70
NtRp1184
(dp1185
g73
(dp1186
g81
I3
ssg82
g1180
sg75
(lp1187
S''
asbasbasbag68
(g84
g70
NtRp1188
(dp1189
g73
(dp1190
sg82
g1044
sg75
(lp1191
g68
(g89
g70
NtRp1192
(dp1193
g73
(dp1194
g93
g94
ssg82
g1188
sg75
(lp1195
g452
asbag68
(g89
g70
NtRp1196
(dp1197
g73
(dp1198
g100
g101
ssg82
g1188
sg75
(lp1199
S':'
asbag68
(g89
g70
NtRp1200
(dp1201
g73
(dp1202
sg82
g1188
sg75
(lp1203
g68
(g69
g70
NtRp1204
(dp1205
g73
(dp1206
g81
I3
ssg82
g1200
sg75
(lp1207
S''
asbasbasbasbasbasbasbag68
(g84
g70
NtRp1208
(dp1209
g73
(dp1210
sg82
g267
sg75
(lp1211
g68
(g89
g70
NtRp1212
(dp1213
g73
(dp1214
g93
g94
ssg82
g1208
sg75
(lp1215
S'model'
p1216
asbag68
(g89
g70
NtRp1217
(dp1218
g73
(dp1219
g100
g101
ssg82
g1208
sg75
(lp1220
S':'
asbag68
(g89
g70
NtRp1221
(dp1222
g73
(dp1223
sg82
g1208
sg75
(lp1224
g68
(g69
g70
NtRp1225
(dp1226
g73
(dp1227
g81
I4
ssg82
g1221
sg75
(lp1228
S'MX'
p1229
ag68
(g77
g70
NtRp1230
(dp1231
g73
(dp1232
g81
I3
ssg82
Nsg75
(lp1233
g68
(g84
g70
NtRp1234
(dp1235
g73
(dp1236
sg82
g1230
sg75
(lp1237
g68
(g89
g70
NtRp1238
(dp1239
g73
(dp1240
g93
g94
ssg82
g1234
sg75
(lp1241
g305
asbag68
(g89
g70
NtRp1242
(dp1243
g73
(dp1244
g100
g101
ssg82
g1234
sg75
(lp1245
S':'
asbag68
(g89
g70
NtRp1246
(dp1247
g73
(dp1248
sg82
g1234
sg75
(lp1249
g68
(g69
g70
NtRp1250
(dp1251
g73
(dp1252
g81
I3
ssg82
g1246
sg75
(lp1253
S''
asbasbasbag68
(g84
g70
NtRp1254
(dp1255
g73
(dp1256
sg82
g1230
sg75
(lp1257
g68
(g89
g70
NtRp1258
(dp1259
g73
(dp1260
g93
g94
ssg82
g1254
sg75
(lp1261
g326
asbag68
(g89
g70
NtRp1262
(dp1263
g73
(dp1264
g100
g101
ssg82
g1254
sg75
(lp1265
S':'
asbag68
(g89
g70
NtRp1266
(dp1267
g73
(dp1268
sg82
g1254
sg75
(lp1269
g68
(g69
g70
NtRp1270
(dp1271
g73
(dp1272
g81
I3
ssg82
g1266
sg75
(lp1273
S''
asbasbasbag68
(g84
g70
NtRp1274
(dp1275
g73
(dp1276
sg82
g1230
sg75
(lp1277
g68
(g89
g70
NtRp1278
(dp1279
g73
(dp1280
g93
g94
ssg82
g1274
sg75
(lp1281
g347
asbag68
(g89
g70
NtRp1282
(dp1283
g73
(dp1284
g100
g101
ssg82
g1274
sg75
(lp1285
S':'
asbag68
(g89
g70
NtRp1286
(dp1287
g73
(dp1288
sg82
g1274
sg75
(lp1289
g68
(g69
g70
NtRp1290
(dp1291
g73
(dp1292
g81
I3
ssg82
g1286
sg75
(lp1293
S''
asbasbasbag68
(g84
g70
NtRp1294
(dp1295
g73
(dp1296
sg82
g1230
sg75
(lp1297
g68
(g89
g70
NtRp1298
(dp1299
g73
(dp1300
g93
g94
ssg82
g1294
sg75
(lp1301
g368
asbag68
(g89
g70
NtRp1302
(dp1303
g73
(dp1304
g100
g101
ssg82
g1294
sg75
(lp1305
S':'
asbag68
(g89
g70
NtRp1306
(dp1307
g73
(dp1308
sg82
g1294
sg75
(lp1309
g68
(g69
g70
NtRp1310
(dp1311
g73
(dp1312
g81
I3
ssg82
g1306
sg75
(lp1313
S''
asbasbasbag68
(g84
g70
NtRp1314
(dp1315
g73
(dp1316
sg82
g1230
sg75
(lp1317
g68
(g89
g70
NtRp1318
(dp1319
g73
(dp1320
g93
g94
ssg82
g1314
sg75
(lp1321
g389
asbag68
(g89
g70
NtRp1322
(dp1323
g73
(dp1324
g100
g101
ssg82
g1314
sg75
(lp1325
S':'
asbag68
(g89
g70
NtRp1326
(dp1327
g73
(dp1328
sg82
g1314
sg75
(lp1329
g68
(g69
g70
NtRp1330
(dp1331
g73
(dp1332
g81
I3
ssg82
g1326
sg75
(lp1333
S''
asbasbasbag68
(g84
g70
NtRp1334
(dp1335
g73
(dp1336
sg82
g1230
sg75
(lp1337
g68
(g89
g70
NtRp1338
(dp1339
g73
(dp1340
g93
g94
ssg82
g1334
sg75
(lp1341
g410
asbag68
(g89
g70
NtRp1342
(dp1343
g73
(dp1344
g100
g101
ssg82
g1334
sg75
(lp1345
S':'
asbag68
(g89
g70
NtRp1346
(dp1347
g73
(dp1348
sg82
g1334
sg75
(lp1349
g68
(g69
g70
NtRp1350
(dp1351
g73
(dp1352
g81
I3
ssg82
g1346
sg75
(lp1353
S''
asbasbasbag68
(g84
g70
NtRp1354
(dp1355
g73
(dp1356
sg82
g1230
sg75
(lp1357
g68
(g89
g70
NtRp1358
(dp1359
g73
(dp1360
g93
g94
ssg82
g1354
sg75
(lp1361
g431
asbag68
(g89
g70
NtRp1362
(dp1363
g73
(dp1364
g100
g101
ssg82
g1354
sg75
(lp1365
S':'
asbag68
(g89
g70
NtRp1366
(dp1367
g73
(dp1368
sg82
g1354
sg75
(lp1369
g68
(g69
g70
NtRp1370
(dp1371
g73
(dp1372
g81
I3
ssg82
g1366
sg75
(lp1373
S''
asbasbasbag68
(g84
g70
NtRp1374
(dp1375
g73
(dp1376
sg82
g1230
sg75
(lp1377
g68
(g89
g70
NtRp1378
(dp1379
g73
(dp1380
g93
g94
ssg82
g1374
sg75
(lp1381
g452
asbag68
(g89
g70
NtRp1382
(dp1383
g73
(dp1384
g100
g101
ssg82
g1374
sg75
(lp1385
S':'
asbag68
(g89
g70
NtRp1386
(dp1387
g73
(dp1388
sg82
g1374
sg75
(lp1389
g68
(g69
g70
NtRp1390
(dp1391
g73
(dp1392
g81
I3
ssg82
g1386
sg75
(lp1393
S''
asbasbasbasbasbasbasbag68
(g84
g70
NtRp1394
(dp1395
g73
(dp1396
sg82
g267
sg75
(lp1397
g68
(g89
g70
NtRp1398
(dp1399
g73
(dp1400
g93
g94
ssg82
g1394
sg75
(lp1401
S'nr'
p1402
asbag68
(g89
g70
NtRp1403
(dp1404
g73
(dp1405
g100
g101
ssg82
g1394
sg75
(lp1406
S':'
asbag68
(g89
g70
NtRp1407
(dp1408
g73
(dp1409
sg82
g1394
sg75
(lp1410
g68
(g69
g70
NtRp1411
(dp1412
g73
(dp1413
g81
I4
ssg82
g1407
sg75
(lp1414
S'1'
ag68
(g77
g70
NtRp1415
(dp1416
g73
(dp1417
g81
I3
ssg82
Nsg75
(lp1418
g68
(g84
g70
NtRp1419
(dp1420
g73
(dp1421
sg82
g1415
sg75
(lp1422
g68
(g89
g70
NtRp1423
(dp1424
g73
(dp1425
g93
g94
ssg82
g1419
sg75
(lp1426
g305
asbag68
(g89
g70
NtRp1427
(dp1428
g73
(dp1429
g100
g101
ssg82
g1419
sg75
(lp1430
S':'
asbag68
(g89
g70
NtRp1431
(dp1432
g73
(dp1433
sg82
g1419
sg75
(lp1434
g68
(g69
g70
NtRp1435
(dp1436
g73
(dp1437
g81
I3
ssg82
g1431
sg75
(lp1438
S''
asbasbasbag68
(g84
g70
NtRp1439
(dp1440
g73
(dp1441
sg82
g1415
sg75
(lp1442
g68
(g89
g70
NtRp1443
(dp1444
g73
(dp1445
g93
g94
ssg82
g1439
sg75
(lp1446
g326
asbag68
(g89
g70
NtRp1447
(dp1448
g73
(dp1449
g100
g101
ssg82
g1439
sg75
(lp1450
S':'
asbag68
(g89
g70
NtRp1451
(dp1452
g73
(dp1453
sg82
g1439
sg75
(lp1454
g68
(g69
g70
NtRp1455
(dp1456
g73
(dp1457
g81
I3
ssg82
g1451
sg75
(lp1458
S''
asbasbasbag68
(g84
g70
NtRp1459
(dp1460
g73
(dp1461
sg82
g1415
sg75
(lp1462
g68
(g89
g70
NtRp1463
(dp1464
g73
(dp1465
g93
g94
ssg82
g1459
sg75
(lp1466
g347
asbag68
(g89
g70
NtRp1467
(dp1468
g73
(dp1469
g100
g101
ssg82
g1459
sg75
(lp1470
S':'
asbag68
(g89
g70
NtRp1471
(dp1472
g73
(dp1473
sg82
g1459
sg75
(lp1474
g68
(g69
g70
NtRp1475
(dp1476
g73
(dp1477
g81
I3
ssg82
g1471
sg75
(lp1478
S''
asbasbasbag68
(g84
g70
NtRp1479
(dp1480
g73
(dp1481
sg82
g1415
sg75
(lp1482
g68
(g89
g70
NtRp1483
(dp1484
g73
(dp1485
g93
g94
ssg82
g1479
sg75
(lp1486
g368
asbag68
(g89
g70
NtRp1487
(dp1488
g73
(dp1489
g100
g101
ssg82
g1479
sg75
(lp1490
S':'
asbag68
(g89
g70
NtRp1491
(dp1492
g73
(dp1493
sg82
g1479
sg75
(lp1494
g68
(g69
g70
NtRp1495
(dp1496
g73
(dp1497
g81
I3
ssg82
g1491
sg75
(lp1498
S''
asbasbasbag68
(g84
g70
NtRp1499
(dp1500
g73
(dp1501
sg82
g1415
sg75
(lp1502
g68
(g89
g70
NtRp1503
(dp1504
g73
(dp1505
g93
g94
ssg82
g1499
sg75
(lp1506
g389
asbag68
(g89
g70
NtRp1507
(dp1508
g73
(dp1509
g100
g101
ssg82
g1499
sg75
(lp1510
S':'
asbag68
(g89
g70
NtRp1511
(dp1512
g73
(dp1513
sg82
g1499
sg75
(lp1514
g68
(g69
g70
NtRp1515
(dp1516
g73
(dp1517
g81
I3
ssg82
g1511
sg75
(lp1518
S''
asbasbasbag68
(g84
g70
NtRp1519
(dp1520
g73
(dp1521
sg82
g1415
sg75
(lp1522
g68
(g89
g70
NtRp1523
(dp1524
g73
(dp1525
g93
g94
ssg82
g1519
sg75
(lp1526
g410
asbag68
(g89
g70
NtRp1527
(dp1528
g73
(dp1529
g100
g101
ssg82
g1519
sg75
(lp1530
S':'
asbag68
(g89
g70
NtRp1531
(dp1532
g73
(dp1533
sg82
g1519
sg75
(lp1534
g68
(g69
g70
NtRp1535
(dp1536
g73
(dp1537
g81
I3
ssg82
g1531
sg75
(lp1538
S''
asbasbasbag68
(g84
g70
NtRp1539
(dp1540
g73
(dp1541
sg82
g1415
sg75
(lp1542
g68
(g89
g70
NtRp1543
(dp1544
g73
(dp1545
g93
g94
ssg82
g1539
sg75
(lp1546
g431
asbag68
(g89
g70
NtRp1547
(dp1548
g73
(dp1549
g100
g101
ssg82
g1539
sg75
(lp1550
S':'
asbag68
(g89
g70
NtRp1551
(dp1552
g73
(dp1553
sg82
g1539
sg75
(lp1554
g68
(g69
g70
NtRp1555
(dp1556
g73
(dp1557
g81
I3
ssg82
g1551
sg75
(lp1558
S''
asbasbasbag68
(g84
g70
NtRp1559
(dp1560
g73
(dp1561
sg82
g1415
sg75
(lp1562
g68
(g89
g70
NtRp1563
(dp1564
g73
(dp1565
g93
g94
ssg82
g1559
sg75
(lp1566
g452
asbag68
(g89
g70
NtRp1567
(dp1568
g73
(dp1569
g100
g101
ssg82
g1559
sg75
(lp1570
S':'
asbag68
(g89
g70
NtRp1571
(dp1572
g73
(dp1573
sg82
g1559
sg75
(lp1574
g68
(g69
g70
NtRp1575
(dp1576
g73
(dp1577
g81
I3
ssg82
g1571
sg75
(lp1578
S''
asbasbasbasbasbasbasbag68
(g84
g70
NtRp1579
(dp1580
g73
(dp1581
sg82
g267
sg75
(lp1582
g68
(g89
g70
NtRp1583
(dp1584
g73
(dp1585
g93
g94
ssg82
g1579
sg75
(lp1586
S'session_id_projeto'
p1587
asbag68
(g89
g70
NtRp1588
(dp1589
g73
(dp1590
g100
g101
ssg82
g1579
sg75
(lp1591
S':'
asbag68
(g89
g70
NtRp1592
(dp1593
g73
(dp1594
sg82
g1579
sg75
(lp1595
g68
(g69
g70
NtRp1596
(dp1597
g73
(dp1598
g81
I4
ssg82
g1592
sg75
(lp1599
S'127.0.0.1-a8d6ff4e-868b-4aa2-bd9e-521d75a87c41'
p1600
ag68
(g77
g70
NtRp1601
(dp1602
g73
(dp1603
g81
I3
ssg82
Nsg75
(lp1604
g68
(g84
g70
NtRp1605
(dp1606
g73
(dp1607
sg82
g1601
sg75
(lp1608
g68
(g89
g70
NtRp1609
(dp1610
g73
(dp1611
g93
g94
ssg82
g1605
sg75
(lp1612
g305
asbag68
(g89
g70
NtRp1613
(dp1614
g73
(dp1615
g100
g101
ssg82
g1605
sg75
(lp1616
S':'
asbag68
(g89
g70
NtRp1617
(dp1618
g73
(dp1619
sg82
g1605
sg75
(lp1620
g68
(g69
g70
NtRp1621
(dp1622
g73
(dp1623
g81
I3
ssg82
g1617
sg75
(lp1624
S''
asbasbasbag68
(g84
g70
NtRp1625
(dp1626
g73
(dp1627
sg82
g1601
sg75
(lp1628
g68
(g89
g70
NtRp1629
(dp1630
g73
(dp1631
g93
g94
ssg82
g1625
sg75
(lp1632
g326
asbag68
(g89
g70
NtRp1633
(dp1634
g73
(dp1635
g100
g101
ssg82
g1625
sg75
(lp1636
S':'
asbag68
(g89
g70
NtRp1637
(dp1638
g73
(dp1639
sg82
g1625
sg75
(lp1640
g68
(g69
g70
NtRp1641
(dp1642
g73
(dp1643
g81
I3
ssg82
g1637
sg75
(lp1644
S''
asbasbasbag68
(g84
g70
NtRp1645
(dp1646
g73
(dp1647
sg82
g1601
sg75
(lp1648
g68
(g89
g70
NtRp1649
(dp1650
g73
(dp1651
g93
g94
ssg82
g1645
sg75
(lp1652
g347
asbag68
(g89
g70
NtRp1653
(dp1654
g73
(dp1655
g100
g101
ssg82
g1645
sg75
(lp1656
S':'
asbag68
(g89
g70
NtRp1657
(dp1658
g73
(dp1659
sg82
g1645
sg75
(lp1660
g68
(g69
g70
NtRp1661
(dp1662
g73
(dp1663
g81
I3
ssg82
g1657
sg75
(lp1664
S''
asbasbasbag68
(g84
g70
NtRp1665
(dp1666
g73
(dp1667
sg82
g1601
sg75
(lp1668
g68
(g89
g70
NtRp1669
(dp1670
g73
(dp1671
g93
g94
ssg82
g1665
sg75
(lp1672
g368
asbag68
(g89
g70
NtRp1673
(dp1674
g73
(dp1675
g100
g101
ssg82
g1665
sg75
(lp1676
S':'
asbag68
(g89
g70
NtRp1677
(dp1678
g73
(dp1679
sg82
g1665
sg75
(lp1680
g68
(g69
g70
NtRp1681
(dp1682
g73
(dp1683
g81
I3
ssg82
g1677
sg75
(lp1684
S''
asbasbasbag68
(g84
g70
NtRp1685
(dp1686
g73
(dp1687
sg82
g1601
sg75
(lp1688
g68
(g89
g70
NtRp1689
(dp1690
g73
(dp1691
g93
g94
ssg82
g1685
sg75
(lp1692
g389
asbag68
(g89
g70
NtRp1693
(dp1694
g73
(dp1695
g100
g101
ssg82
g1685
sg75
(lp1696
S':'
asbag68
(g89
g70
NtRp1697
(dp1698
g73
(dp1699
sg82
g1685
sg75
(lp1700
g68
(g69
g70
NtRp1701
(dp1702
g73
(dp1703
g81
I3
ssg82
g1697
sg75
(lp1704
S''
asbasbasbag68
(g84
g70
NtRp1705
(dp1706
g73
(dp1707
sg82
g1601
sg75
(lp1708
g68
(g89
g70
NtRp1709
(dp1710
g73
(dp1711
g93
g94
ssg82
g1705
sg75
(lp1712
g410
asbag68
(g89
g70
NtRp1713
(dp1714
g73
(dp1715
g100
g101
ssg82
g1705
sg75
(lp1716
S':'
asbag68
(g89
g70
NtRp1717
(dp1718
g73
(dp1719
sg82
g1705
sg75
(lp1720
g68
(g69
g70
NtRp1721
(dp1722
g73
(dp1723
g81
I3
ssg82
g1717
sg75
(lp1724
S''
asbasbasbag68
(g84
g70
NtRp1725
(dp1726
g73
(dp1727
sg82
g1601
sg75
(lp1728
g68
(g89
g70
NtRp1729
(dp1730
g73
(dp1731
g93
g94
ssg82
g1725
sg75
(lp1732
g431
asbag68
(g89
g70
NtRp1733
(dp1734
g73
(dp1735
g100
g101
ssg82
g1725
sg75
(lp1736
S':'
asbag68
(g89
g70
NtRp1737
(dp1738
g73
(dp1739
sg82
g1725
sg75
(lp1740
g68
(g69
g70
NtRp1741
(dp1742
g73
(dp1743
g81
I3
ssg82
g1737
sg75
(lp1744
S''
asbasbasbag68
(g84
g70
NtRp1745
(dp1746
g73
(dp1747
sg82
g1601
sg75
(lp1748
g68
(g89
g70
NtRp1749
(dp1750
g73
(dp1751
g93
g94
ssg82
g1745
sg75
(lp1752
g452
asbag68
(g89
g70
NtRp1753
(dp1754
g73
(dp1755
g100
g101
ssg82
g1745
sg75
(lp1756
S':'
asbag68
(g89
g70
NtRp1757
(dp1758
g73
(dp1759
sg82
g1745
sg75
(lp1760
g68
(g69
g70
NtRp1761
(dp1762
g73
(dp1763
g81
I3
ssg82
g1757
sg75
(lp1764
S''
asbasbasbasbasbasbasbag68
(g84
g70
NtRp1765
(dp1766
g73
(dp1767
sg82
g267
sg75
(lp1768
g68
(g89
g70
NtRp1769
(dp1770
g73
(dp1771
g93
g94
ssg82
g1765
sg75
(lp1772
S'types'
p1773
asbag68
(g89
g70
NtRp1774
(dp1775
g73
(dp1776
g100
g101
ssg82
g1765
sg75
(lp1777
S':'
asbag68
(g89
g70
NtRp1778
(dp1779
g73
(dp1780
sg82
g1765
sg75
(lp1781
g68
(g69
g70
NtRp1782
(dp1783
g73
(dp1784
g81
I4
ssg82
g1778
sg75
(lp1785
S'Rev%201.0.1%20MX60-32S%20%20Kernel%201.0.11%20%28F%29'
p1786
ag68
(g77
g70
NtRp1787
(dp1788
g73
(dp1789
g81
I3
ssg82
Nsg75
(lp1790
g68
(g84
g70
NtRp1791
(dp1792
g73
(dp1793
sg82
g1787
sg75
(lp1794
g68
(g89
g70
NtRp1795
(dp1796
g73
(dp1797
g93
g94
ssg82
g1791
sg75
(lp1798
g305
asbag68
(g89
g70
NtRp1799
(dp1800
g73
(dp1801
g100
g101
ssg82
g1791
sg75
(lp1802
S':'
asbag68
(g89
g70
NtRp1803
(dp1804
g73
(dp1805
sg82
g1791
sg75
(lp1806
g68
(g69
g70
NtRp1807
(dp1808
g73
(dp1809
g81
I3
ssg82
g1803
sg75
(lp1810
S''
asbasbasbag68
(g84
g70
NtRp1811
(dp1812
g73
(dp1813
sg82
g1787
sg75
(lp1814
g68
(g89
g70
NtRp1815
(dp1816
g73
(dp1817
g93
g94
ssg82
g1811
sg75
(lp1818
g326
asbag68
(g89
g70
NtRp1819
(dp1820
g73
(dp1821
g100
g101
ssg82
g1811
sg75
(lp1822
S':'
asbag68
(g89
g70
NtRp1823
(dp1824
g73
(dp1825
sg82
g1811
sg75
(lp1826
g68
(g69
g70
NtRp1827
(dp1828
g73
(dp1829
g81
I3
ssg82
g1823
sg75
(lp1830
S''
asbasbasbag68
(g84
g70
NtRp1831
(dp1832
g73
(dp1833
sg82
g1787
sg75
(lp1834
g68
(g89
g70
NtRp1835
(dp1836
g73
(dp1837
g93
g94
ssg82
g1831
sg75
(lp1838
g347
asbag68
(g89
g70
NtRp1839
(dp1840
g73
(dp1841
g100
g101
ssg82
g1831
sg75
(lp1842
S':'
asbag68
(g89
g70
NtRp1843
(dp1844
g73
(dp1845
sg82
g1831
sg75
(lp1846
g68
(g69
g70
NtRp1847
(dp1848
g73
(dp1849
g81
I3
ssg82
g1843
sg75
(lp1850
S''
asbasbasbag68
(g84
g70
NtRp1851
(dp1852
g73
(dp1853
sg82
g1787
sg75
(lp1854
g68
(g89
g70
NtRp1855
(dp1856
g73
(dp1857
g93
g94
ssg82
g1851
sg75
(lp1858
g368
asbag68
(g89
g70
NtRp1859
(dp1860
g73
(dp1861
g100
g101
ssg82
g1851
sg75
(lp1862
S':'
asbag68
(g89
g70
NtRp1863
(dp1864
g73
(dp1865
sg82
g1851
sg75
(lp1866
g68
(g69
g70
NtRp1867
(dp1868
g73
(dp1869
g81
I3
ssg82
g1863
sg75
(lp1870
S''
asbasbasbag68
(g84
g70
NtRp1871
(dp1872
g73
(dp1873
sg82
g1787
sg75
(lp1874
g68
(g89
g70
NtRp1875
(dp1876
g73
(dp1877
g93
g94
ssg82
g1871
sg75
(lp1878
g389
asbag68
(g89
g70
NtRp1879
(dp1880
g73
(dp1881
g100
g101
ssg82
g1871
sg75
(lp1882
S':'
asbag68
(g89
g70
NtRp1883
(dp1884
g73
(dp1885
sg82
g1871
sg75
(lp1886
g68
(g69
g70
NtRp1887
(dp1888
g73
(dp1889
g81
I3
ssg82
g1883
sg75
(lp1890
S''
asbasbasbag68
(g84
g70
NtRp1891
(dp1892
g73
(dp1893
sg82
g1787
sg75
(lp1894
g68
(g89
g70
NtRp1895
(dp1896
g73
(dp1897
g93
g94
ssg82
g1891
sg75
(lp1898
g410
asbag68
(g89
g70
NtRp1899
(dp1900
g73
(dp1901
g100
g101
ssg82
g1891
sg75
(lp1902
S':'
asbag68
(g89
g70
NtRp1903
(dp1904
g73
(dp1905
sg82
g1891
sg75
(lp1906
g68
(g69
g70
NtRp1907
(dp1908
g73
(dp1909
g81
I3
ssg82
g1903
sg75
(lp1910
S''
asbasbasbag68
(g84
g70
NtRp1911
(dp1912
g73
(dp1913
sg82
g1787
sg75
(lp1914
g68
(g89
g70
NtRp1915
(dp1916
g73
(dp1917
g93
g94
ssg82
g1911
sg75
(lp1918
g431
asbag68
(g89
g70
NtRp1919
(dp1920
g73
(dp1921
g100
g101
ssg82
g1911
sg75
(lp1922
S':'
asbag68
(g89
g70
NtRp1923
(dp1924
g73
(dp1925
sg82
g1911
sg75
(lp1926
g68
(g69
g70
NtRp1927
(dp1928
g73
(dp1929
g81
I3
ssg82
g1923
sg75
(lp1930
S''
asbasbasbag68
(g84
g70
NtRp1931
(dp1932
g73
(dp1933
sg82
g1787
sg75
(lp1934
g68
(g89
g70
NtRp1935
(dp1936
g73
(dp1937
g93
g94
ssg82
g1931
sg75
(lp1938
g452
asbag68
(g89
g70
NtRp1939
(dp1940
g73
(dp1941
g100
g101
ssg82
g1931
sg75
(lp1942
S':'
asbag68
(g89
g70
NtRp1943
(dp1944
g73
(dp1945
sg82
g1931
sg75
(lp1946
g68
(g69
g70
NtRp1947
(dp1948
g73
(dp1949
g81
I3
ssg82
g1943
sg75
(lp1950
S''
asbasbasbasbasbasbasbasbasbasbasbag68
(g84
g70
NtRp1951
(dp1952
g73
(dp1953
sg82
g78
sg75
(lp1954
g68
(g89
g70
NtRp1955
(dp1956
g73
(dp1957
g93
g94
ssg82
g1951
sg75
(lp1958
S'env'
p1959
asbag68
(g89
g70
NtRp1960
(dp1961
g73
(dp1962
g100
g101
ssg82
g1951
sg75
(lp1963
S':'
asbag68
(g89
g70
NtRp1964
(dp1965
g73
(dp1966
sg82
g1951
sg75
(lp1967
g68
(g69
g70
NtRp1968
(dp1969
g73
(dp1970
g81
I5
ssg82
g1964
sg75
(lp1971
g68
(g77
g70
NtRp1972
(dp1973
g73
(dp1974
g81
I4
ssg82
Nsg75
(lp1975
g68
(g84
g70
NtRp1976
(dp1977
g73
(dp1978
sg82
g1972
sg75
(lp1979
g68
(g89
g70
NtRp1980
(dp1981
g73
(dp1982
g93
g94
ssg82
g1976
sg75
(lp1983
S'app_folders'
p1984
asbag68
(g89
g70
NtRp1985
(dp1986
g73
(dp1987
g100
g101
ssg82
g1976
sg75
(lp1988
S':'
asbag68
(g89
g70
NtRp1989
(dp1990
g73
(dp1991
sg82
g1976
sg75
(lp1992
g68
(g69
g70
NtRp1993
(dp1994
g73
(dp1995
g81
I4
ssg82
g1989
sg75
(lp1996
S"set(['/var/www/web2py_curso/applications/projeto/'])"
p1997
asbasbasbag68
(g84
g70
NtRp1998
(dp1999
g73
(dp2000
sg82
g1972
sg75
(lp2001
g68
(g89
g70
NtRp2002
(dp2003
g73
(dp2004
g93
g94
ssg82
g1998
sg75
(lp2005
S'applications_parent'
p2006
asbag68
(g89
g70
NtRp2007
(dp2008
g73
(dp2009
g100
g101
ssg82
g1998
sg75
(lp2010
S':'
asbag68
(g89
g70
NtRp2011
(dp2012
g73
(dp2013
sg82
g1998
sg75
(lp2014
g68
(g69
g70
NtRp2015
(dp2016
g73
(dp2017
g81
I4
ssg82
g2011
sg75
(lp2018
S'/var/www/web2py_curso'
p2019
asbasbasbag68
(g84
g70
NtRp2020
(dp2021
g73
(dp2022
sg82
g1972
sg75
(lp2023
g68
(g89
g70
NtRp2024
(dp2025
g73
(dp2026
g93
g94
ssg82
g2020
sg75
(lp2027
S'cmd_args'
p2028
asbag68
(g89
g70
NtRp2029
(dp2030
g73
(dp2031
g100
g101
ssg82
g2020
sg75
(lp2032
S':'
asbag68
(g89
g70
NtRp2033
(dp2034
g73
(dp2035
sg82
g2020
sg75
(lp2036
g68
(g69
g70
NtRp2037
(dp2038
g73
(dp2039
g81
I4
ssg82
g2033
sg75
(lp2040
g68
(g77
g70
NtRp2041
(dp2042
g73
(dp2043
g81
I3
ssg82
Nsg75
(lp2044
sbasbasbasbag68
(g84
g70
NtRp2045
(dp2046
g73
(dp2047
sg82
g1972
sg75
(lp2048
g68
(g89
g70
NtRp2049
(dp2050
g73
(dp2051
g93
g94
ssg82
g2045
sg75
(lp2052
S'cmd_options'
p2053
asbag68
(g89
g70
NtRp2054
(dp2055
g73
(dp2056
g100
g101
ssg82
g2045
sg75
(lp2057
S':'
asbag68
(g89
g70
NtRp2058
(dp2059
g73
(dp2060
sg82
g2045
sg75
(lp2061
g68
(g69
g70
NtRp2062
(dp2063
g73
(dp2064
g81
I4
ssg82
g2058
sg75
(lp2065
S"<Values at 0x2920488: {'verbose': False, 'ip': '127.0.0.1', 'with_scheduler': False, 'ips': [], 'shutdown_timeout': 5, 'taskbar': False, 'port': 8000, 'maxthreads': None, 'softcron': False, 'server_name': 'fernado-desktop', 'bpython': False, 'nogui': False, 'pid_filename': 'httpserver.pid', 'extcron': False, 'runcron': False, 'run_system_tests': False, 'test': None, 'folder': '/var/www/web2py_curso', 'config': '', 'minthreads': None, 'winservice': '', 'shell': None, 'run': '', 'log_filename': 'httpserver.log', 'debuglevel': 30, 'args': [''], 'socket_timeout': 5, 'ssl_ca_certificate': None, 'scheduler': None, 'profiler_filename': None, 'ssl_private_key': '', 'scheduler_groups': None, 'password': '123456', 'request_queue_size': 5, 'ssl_certificate': '', 'cronjob': False, 'numthreads': None, 'quiet': False, 'interfaces': None, 'import_models': False, 'timeout': 10, 'plain': False, 'nobanner': False}>"
p2066
asbasbasbag68
(g84
g70
NtRp2067
(dp2068
g73
(dp2069
sg82
g1972
sg75
(lp2070
g68
(g89
g70
NtRp2071
(dp2072
g73
(dp2073
g93
g94
ssg82
g2067
sg75
(lp2074
S'db_sessions'
p2075
asbag68
(g89
g70
NtRp2076
(dp2077
g73
(dp2078
g100
g101
ssg82
g2067
sg75
(lp2079
S':'
asbag68
(g89
g70
NtRp2080
(dp2081
g73
(dp2082
sg82
g2067
sg75
(lp2083
g68
(g69
g70
NtRp2084
(dp2085
g73
(dp2086
g81
I4
ssg82
g2080
sg75
(lp2087
S'set([])'
p2088
asbasbasbag68
(g84
g70
NtRp2089
(dp2090
g73
(dp2091
sg82
g1972
sg75
(lp2092
g68
(g89
g70
NtRp2093
(dp2094
g73
(dp2095
g93
g94
ssg82
g2089
sg75
(lp2096
S'debugging'
p2097
asbag68
(g89
g70
NtRp2098
(dp2099
g73
(dp2100
g100
g101
ssg82
g2089
sg75
(lp2101
S':'
asbag68
(g89
g70
NtRp2102
(dp2103
g73
(dp2104
sg82
g2089
sg75
(lp2105
g68
(g69
g70
NtRp2106
(dp2107
g73
(dp2108
g81
I4
ssg82
g2102
sg75
(lp2109
g111
asbasbasbag68
(g84
g70
NtRp2110
(dp2111
g73
(dp2112
sg82
g1972
sg75
(lp2113
g68
(g89
g70
NtRp2114
(dp2115
g73
(dp2116
g93
g94
ssg82
g2110
sg75
(lp2117
S'gluon_parent'
p2118
asbag68
(g89
g70
NtRp2119
(dp2120
g73
(dp2121
g100
g101
ssg82
g2110
sg75
(lp2122
S':'
asbag68
(g89
g70
NtRp2123
(dp2124
g73
(dp2125
sg82
g2110
sg75
(lp2126
g68
(g69
g70
NtRp2127
(dp2128
g73
(dp2129
g81
I4
ssg82
g2123
sg75
(lp2130
S'/var/www/web2py_curso'
p2131
asbasbasbag68
(g84
g70
NtRp2132
(dp2133
g73
(dp2134
sg82
g1972
sg75
(lp2135
g68
(g89
g70
NtRp2136
(dp2137
g73
(dp2138
g93
g94
ssg82
g2132
sg75
(lp2139
S'http_accept'
p2140
asbag68
(g89
g70
NtRp2141
(dp2142
g73
(dp2143
g100
g101
ssg82
g2132
sg75
(lp2144
S':'
asbag68
(g89
g70
NtRp2145
(dp2146
g73
(dp2147
sg82
g2132
sg75
(lp2148
g68
(g69
g70
NtRp2149
(dp2150
g73
(dp2151
g81
I4
ssg82
g2145
sg75
(lp2152
S'text/html,application/xhtml+xml,application/xml;q=0.9,*/*;q=0.8'
p2153
asbasbasbag68
(g84
g70
NtRp2154
(dp2155
g73
(dp2156
sg82
g1972
sg75
(lp2157
g68
(g89
g70
NtRp2158
(dp2159
g73
(dp2160
g93
g94
ssg82
g2154
sg75
(lp2161
S'http_accept_charset'
p2162
asbag68
(g89
g70
NtRp2163
(dp2164
g73
(dp2165
g100
g101
ssg82
g2154
sg75
(lp2166
S':'
asbag68
(g89
g70
NtRp2167
(dp2168
g73
(dp2169
sg82
g2154
sg75
(lp2170
g68
(g69
g70
NtRp2171
(dp2172
g73
(dp2173
g81
I4
ssg82
g2167
sg75
(lp2174
S'ISO-8859-1,utf-8;q=0.7,*;q=0.3'
p2175
asbasbasbag68
(g84
g70
NtRp2176
(dp2177
g73
(dp2178
sg82
g1972
sg75
(lp2179
g68
(g89
g70
NtRp2180
(dp2181
g73
(dp2182
g93
g94
ssg82
g2176
sg75
(lp2183
S'http_accept_encoding'
p2184
asbag68
(g89
g70
NtRp2185
(dp2186
g73
(dp2187
g100
g101
ssg82
g2176
sg75
(lp2188
S':'
asbag68
(g89
g70
NtRp2189
(dp2190
g73
(dp2191
sg82
g2176
sg75
(lp2192
g68
(g69
g70
NtRp2193
(dp2194
g73
(dp2195
g81
I4
ssg82
g2189
sg75
(lp2196
S'gzip,deflate,sdch'
p2197
asbasbasbag68
(g84
g70
NtRp2198
(dp2199
g73
(dp2200
sg82
g1972
sg75
(lp2201
g68
(g89
g70
NtRp2202
(dp2203
g73
(dp2204
g93
g94
ssg82
g2198
sg75
(lp2205
S'http_accept_language'
p2206
asbag68
(g89
g70
NtRp2207
(dp2208
g73
(dp2209
g100
g101
ssg82
g2198
sg75
(lp2210
S':'
asbag68
(g89
g70
NtRp2211
(dp2212
g73
(dp2213
sg82
g2198
sg75
(lp2214
g68
(g69
g70
NtRp2215
(dp2216
g73
(dp2217
g81
I4
ssg82
g2211
sg75
(lp2218
S'pt-BR,pt;q=0.8,en-US;q=0.6,en;q=0.4'
p2219
asbasbasbag68
(g84
g70
NtRp2220
(dp2221
g73
(dp2222
sg82
g1972
sg75
(lp2223
g68
(g89
g70
NtRp2224
(dp2225
g73
(dp2226
g93
g94
ssg82
g2220
sg75
(lp2227
S'http_connection'
p2228
asbag68
(g89
g70
NtRp2229
(dp2230
g73
(dp2231
g100
g101
ssg82
g2220
sg75
(lp2232
S':'
asbag68
(g89
g70
NtRp2233
(dp2234
g73
(dp2235
sg82
g2220
sg75
(lp2236
g68
(g69
g70
NtRp2237
(dp2238
g73
(dp2239
g81
I4
ssg82
g2233
sg75
(lp2240
S'keep-alive'
p2241
asbasbasbag68
(g84
g70
NtRp2242
(dp2243
g73
(dp2244
sg82
g1972
sg75
(lp2245
g68
(g89
g70
NtRp2246
(dp2247
g73
(dp2248
g93
g94
ssg82
g2242
sg75
(lp2249
S'http_cookie'
p2250
asbag68
(g89
g70
NtRp2251
(dp2252
g73
(dp2253
g100
g101
ssg82
g2242
sg75
(lp2254
S':'
asbag68
(g89
g70
NtRp2255
(dp2256
g73
(dp2257
sg82
g2242
sg75
(lp2258
g68
(g69
g70
NtRp2259
(dp2260
g73
(dp2261
g81
I4
ssg82
g2255
sg75
(lp2262
S'hw_type=MX60; hw_version=Rev%201.9.82.316; types=Rev%201.0.1%20MX60-32S%20%20Kernel%201.0.11%20%28F%29; admin=admin; cookie=1649423593; model=MX; nr=1; language=1; session_id_projeto=127.0.0.1-a8d6ff4e-868b-4aa2-bd9e-521d75a87c41'
p2263
asbasbasbag68
(g84
g70
NtRp2264
(dp2265
g73
(dp2266
sg82
g1972
sg75
(lp2267
g68
(g89
g70
NtRp2268
(dp2269
g73
(dp2270
g93
g94
ssg82
g2264
sg75
(lp2271
S'http_host'
p2272
asbag68
(g89
g70
NtRp2273
(dp2274
g73
(dp2275
g100
g101
ssg82
g2264
sg75
(lp2276
S':'
asbag68
(g89
g70
NtRp2277
(dp2278
g73
(dp2279
sg82
g2264
sg75
(lp2280
g68
(g69
g70
NtRp2281
(dp2282
g73
(dp2283
g81
I4
ssg82
g2277
sg75
(lp2284
S'127.0.0.1:8000'
p2285
asbasbasbag68
(g84
g70
NtRp2286
(dp2287
g73
(dp2288
sg82
g1972
sg75
(lp2289
g68
(g89
g70
NtRp2290
(dp2291
g73
(dp2292
g93
g94
ssg82
g2286
sg75
(lp2293
S'http_user_agent'
p2294
asbag68
(g89
g70
NtRp2295
(dp2296
g73
(dp2297
g100
g101
ssg82
g2286
sg75
(lp2298
S':'
asbag68
(g89
g70
NtRp2299
(dp2300
g73
(dp2301
sg82
g2286
sg75
(lp2302
g68
(g69
g70
NtRp2303
(dp2304
g73
(dp2305
g81
I4
ssg82
g2299
sg75
(lp2306
S'Mozilla/5.0 (X11; Linux x86_64) AppleWebKit/537.4 (KHTML, like Gecko) Ubuntu/12.10 Chromium/22.0.1229.94 Chrome/22.0.1229.94 Safari/537.4'
p2307
asbasbasbag68
(g84
g70
NtRp2308
(dp2309
g73
(dp2310
sg82
g1972
sg75
(lp2311
g68
(g89
g70
NtRp2312
(dp2313
g73
(dp2314
g93
g94
ssg82
g2308
sg75
(lp2315
S'is_jython'
p2316
asbag68
(g89
g70
NtRp2317
(dp2318
g73
(dp2319
g100
g101
ssg82
g2308
sg75
(lp2320
S':'
asbag68
(g89
g70
NtRp2321
(dp2322
g73
(dp2323
sg82
g2308
sg75
(lp2324
g68
(g69
g70
NtRp2325
(dp2326
g73
(dp2327
g81
I4
ssg82
g2321
sg75
(lp2328
g111
asbasbasbag68
(g84
g70
NtRp2329
(dp2330
g73
(dp2331
sg82
g1972
sg75
(lp2332
g68
(g89
g70
NtRp2333
(dp2334
g73
(dp2335
g93
g94
ssg82
g2329
sg75
(lp2336
S'is_pypy'
p2337
asbag68
(g89
g70
NtRp2338
(dp2339
g73
(dp2340
g100
g101
ssg82
g2329
sg75
(lp2341
S':'
asbag68
(g89
g70
NtRp2342
(dp2343
g73
(dp2344
sg82
g2329
sg75
(lp2345
g68
(g69
g70
NtRp2346
(dp2347
g73
(dp2348
g81
I4
ssg82
g2342
sg75
(lp2349
g111
asbasbasbag68
(g84
g70
NtRp2350
(dp2351
g73
(dp2352
sg82
g1972
sg75
(lp2353
g68
(g89
g70
NtRp2354
(dp2355
g73
(dp2356
g93
g94
ssg82
g2350
sg75
(lp2357
S'local_hosts'
p2358
asbag68
(g89
g70
NtRp2359
(dp2360
g73
(dp2361
g100
g101
ssg82
g2350
sg75
(lp2362
S':'
asbag68
(g89
g70
NtRp2363
(dp2364
g73
(dp2365
sg82
g2350
sg75
(lp2366
g68
(g69
g70
NtRp2367
(dp2368
g73
(dp2369
g81
I4
ssg82
g2363
sg75
(lp2370
g68
(g77
g70
NtRp2371
(dp2372
g73
(dp2373
g81
I3
ssg82
Nsg75
(lp2374
g68
(g84
g70
NtRp2375
(dp2376
g73
(dp2377
sg82
g2371
sg75
(lp2378
g68
(g89
g70
NtRp2379
(dp2380
g73
(dp2381
sg82
g2375
sg75
(lp2382
g68
(g69
g70
NtRp2383
(dp2384
g73
(dp2385
g81
I3
ssg82
g2379
sg75
(lp2386
S'127.0.1.1'
p2387
asbasbasbag68
(g84
g70
NtRp2388
(dp2389
g73
(dp2390
sg82
g2371
sg75
(lp2391
g68
(g89
g70
NtRp2392
(dp2393
g73
(dp2394
sg82
g2388
sg75
(lp2395
g68
(g69
g70
NtRp2396
(dp2397
g73
(dp2398
g81
I3
ssg82
g2392
sg75
(lp2399
S'::1'
p2400
asbasbasbag68
(g84
g70
NtRp2401
(dp2402
g73
(dp2403
sg82
g2371
sg75
(lp2404
g68
(g89
g70
NtRp2405
(dp2406
g73
(dp2407
sg82
g2401
sg75
(lp2408
g68
(g69
g70
NtRp2409
(dp2410
g73
(dp2411
g81
I3
ssg82
g2405
sg75
(lp2412
S'fernado-desktop'
p2413
asbasbasbag68
(g84
g70
NtRp2414
(dp2415
g73
(dp2416
sg82
g2371
sg75
(lp2417
g68
(g89
g70
NtRp2418
(dp2419
g73
(dp2420
sg82
g2414
sg75
(lp2421
g68
(g69
g70
NtRp2422
(dp2423
g73
(dp2424
g81
I3
ssg82
g2418
sg75
(lp2425
S'::ffff:127.0.0.1'
p2426
asbasbasbag68
(g84
g70
NtRp2427
(dp2428
g73
(dp2429
sg82
g2371
sg75
(lp2430
g68
(g89
g70
NtRp2431
(dp2432
g73
(dp2433
sg82
g2427
sg75
(lp2434
g68
(g69
g70
NtRp2435
(dp2436
g73
(dp2437
g81
I3
ssg82
g2431
sg75
(lp2438
S'127.0.0.1'
p2439
asbasbasbasbasbasbasbag68
(g84
g70
NtRp2440
(dp2441
g73
(dp2442
sg82
g1972
sg75
(lp2443
g68
(g89
g70
NtRp2444
(dp2445
g73
(dp2446
g93
g94
ssg82
g2440
sg75
(lp2447
S'path_info'
p2448
asbag68
(g89
g70
NtRp2449
(dp2450
g73
(dp2451
g100
g101
ssg82
g2440
sg75
(lp2452
S':'
asbag68
(g89
g70
NtRp2453
(dp2454
g73
(dp2455
sg82
g2440
sg75
(lp2456
g68
(g69
g70
NtRp2457
(dp2458
g73
(dp2459
g81
I4
ssg82
g2453
sg75
(lp2460
S'/post/add'
p2461
asbasbasbag68
(g84
g70
NtRp2462
(dp2463
g73
(dp2464
sg82
g1972
sg75
(lp2465
g68
(g89
g70
NtRp2466
(dp2467
g73
(dp2468
g93
g94
ssg82
g2462
sg75
(lp2469
S'query_string'
p2470
asbag68
(g89
g70
NtRp2471
(dp2472
g73
(dp2473
g100
g101
ssg82
g2462
sg75
(lp2474
S':'
asbag68
(g89
g70
NtRp2475
(dp2476
g73
(dp2477
sg82
g2462
sg75
(lp2478
g68
(g69
g70
NtRp2479
(dp2480
g73
(dp2481
g81
I4
ssg82
g2475
sg75
(lp2482
S''
asbasbasbag68
(g84
g70
NtRp2483
(dp2484
g73
(dp2485
sg82
g1972
sg75
(lp2486
g68
(g89
g70
NtRp2487
(dp2488
g73
(dp2489
g93
g94
ssg82
g2483
sg75
(lp2490
S'remote_addr'
p2491
asbag68
(g89
g70
NtRp2492
(dp2493
g73
(dp2494
g100
g101
ssg82
g2483
sg75
(lp2495
S':'
asbag68
(g89
g70
NtRp2496
(dp2497
g73
(dp2498
sg82
g2483
sg75
(lp2499
g68
(g69
g70
NtRp2500
(dp2501
g73
(dp2502
g81
I4
ssg82
g2496
sg75
(lp2503
g223
asbasbasbag68
(g84
g70
NtRp2504
(dp2505
g73
(dp2506
sg82
g1972
sg75
(lp2507
g68
(g89
g70
NtRp2508
(dp2509
g73
(dp2510
g93
g94
ssg82
g2504
sg75
(lp2511
S'remote_port'
p2512
asbag68
(g89
g70
NtRp2513
(dp2514
g73
(dp2515
g100
g101
ssg82
g2504
sg75
(lp2516
S':'
asbag68
(g89
g70
NtRp2517
(dp2518
g73
(dp2519
sg82
g2504
sg75
(lp2520
g68
(g69
g70
NtRp2521
(dp2522
g73
(dp2523
g81
I4
ssg82
g2517
sg75
(lp2524
S'35669'
p2525
asbasbasbag68
(g84
g70
NtRp2526
(dp2527
g73
(dp2528
sg82
g1972
sg75
(lp2529
g68
(g89
g70
NtRp2530
(dp2531
g73
(dp2532
g93
g94
ssg82
g2526
sg75
(lp2533
S'request_method'
p2534
asbag68
(g89
g70
NtRp2535
(dp2536
g73
(dp2537
g100
g101
ssg82
g2526
sg75
(lp2538
S':'
asbag68
(g89
g70
NtRp2539
(dp2540
g73
(dp2541
sg82
g2526
sg75
(lp2542
g68
(g69
g70
NtRp2543
(dp2544
g73
(dp2545
g81
I4
ssg82
g2539
sg75
(lp2546
S'GET'
p2547
asbasbasbag68
(g84
g70
NtRp2548
(dp2549
g73
(dp2550
sg82
g1972
sg75
(lp2551
g68
(g89
g70
NtRp2552
(dp2553
g73
(dp2554
g93
g94
ssg82
g2548
sg75
(lp2555
S'request_uri'
p2556
asbag68
(g89
g70
NtRp2557
(dp2558
g73
(dp2559
g100
g101
ssg82
g2548
sg75
(lp2560
S':'
asbag68
(g89
g70
NtRp2561
(dp2562
g73
(dp2563
sg82
g2548
sg75
(lp2564
g68
(g69
g70
NtRp2565
(dp2566
g73
(dp2567
g81
I4
ssg82
g2561
sg75
(lp2568
S'/projeto/post/add'
p2569
asbasbasbag68
(g84
g70
NtRp2570
(dp2571
g73
(dp2572
sg82
g1972
sg75
(lp2573
g68
(g89
g70
NtRp2574
(dp2575
g73
(dp2576
g93
g94
ssg82
g2570
sg75
(lp2577
S'script_name'
p2578
asbag68
(g89
g70
NtRp2579
(dp2580
g73
(dp2581
g100
g101
ssg82
g2570
sg75
(lp2582
S':'
asbag68
(g89
g70
NtRp2583
(dp2584
g73
(dp2585
sg82
g2570
sg75
(lp2586
g68
(g69
g70
NtRp2587
(dp2588
g73
(dp2589
g81
I4
ssg82
g2583
sg75
(lp2590
S''
asbasbasbag68
(g84
g70
NtRp2591
(dp2592
g73
(dp2593
sg82
g1972
sg75
(lp2594
g68
(g89
g70
NtRp2595
(dp2596
g73
(dp2597
g93
g94
ssg82
g2591
sg75
(lp2598
S'server_name'
p2599
asbag68
(g89
g70
NtRp2600
(dp2601
g73
(dp2602
g100
g101
ssg82
g2591
sg75
(lp2603
S':'
asbag68
(g89
g70
NtRp2604
(dp2605
g73
(dp2606
sg82
g2591
sg75
(lp2607
g68
(g69
g70
NtRp2608
(dp2609
g73
(dp2610
g81
I4
ssg82
g2604
sg75
(lp2611
S'fernado-desktop'
p2612
asbasbasbag68
(g84
g70
NtRp2613
(dp2614
g73
(dp2615
sg82
g1972
sg75
(lp2616
g68
(g89
g70
NtRp2617
(dp2618
g73
(dp2619
g93
g94
ssg82
g2613
sg75
(lp2620
S'server_port'
p2621
asbag68
(g89
g70
NtRp2622
(dp2623
g73
(dp2624
g100
g101
ssg82
g2613
sg75
(lp2625
S':'
asbag68
(g89
g70
NtRp2626
(dp2627
g73
(dp2628
sg82
g2613
sg75
(lp2629
g68
(g69
g70
NtRp2630
(dp2631
g73
(dp2632
g81
I4
ssg82
g2626
sg75
(lp2633
S'8000'
p2634
asbasbasbag68
(g84
g70
NtRp2635
(dp2636
g73
(dp2637
sg82
g1972
sg75
(lp2638
g68
(g89
g70
NtRp2639
(dp2640
g73
(dp2641
g93
g94
ssg82
g2635
sg75
(lp2642
S'server_protocol'
p2643
asbag68
(g89
g70
NtRp2644
(dp2645
g73
(dp2646
g100
g101
ssg82
g2635
sg75
(lp2647
S':'
asbag68
(g89
g70
NtRp2648
(dp2649
g73
(dp2650
sg82
g2635
sg75
(lp2651
g68
(g69
g70
NtRp2652
(dp2653
g73
(dp2654
g81
I4
ssg82
g2648
sg75
(lp2655
S'HTTP/1.1'
p2656
asbasbasbag68
(g84
g70
NtRp2657
(dp2658
g73
(dp2659
sg82
g1972
sg75
(lp2660
g68
(g89
g70
NtRp2661
(dp2662
g73
(dp2663
g93
g94
ssg82
g2657
sg75
(lp2664
S'server_software'
p2665
asbag68
(g89
g70
NtRp2666
(dp2667
g73
(dp2668
g100
g101
ssg82
g2657
sg75
(lp2669
S':'
asbag68
(g89
g70
NtRp2670
(dp2671
g73
(dp2672
sg82
g2657
sg75
(lp2673
g68
(g69
g70
NtRp2674
(dp2675
g73
(dp2676
g81
I4
ssg82
g2670
sg75
(lp2677
S'Rocket 1.2.6'
p2678
asbasbasbag68
(g84
g70
NtRp2679
(dp2680
g73
(dp2681
sg82
g1972
sg75
(lp2682
g68
(g89
g70
NtRp2683
(dp2684
g73
(dp2685
g93
g94
ssg82
g2679
sg75
(lp2686
S'web2py_original_uri'
p2687
asbag68
(g89
g70
NtRp2688
(dp2689
g73
(dp2690
g100
g101
ssg82
g2679
sg75
(lp2691
S':'
asbag68
(g89
g70
NtRp2692
(dp2693
g73
(dp2694
sg82
g2679
sg75
(lp2695
g68
(g69
g70
NtRp2696
(dp2697
g73
(dp2698
g81
I4
ssg82
g2692
sg75
(lp2699
g2461
asbasbasbag68
(g84
g70
NtRp2700
(dp2701
g73
(dp2702
sg82
g1972
sg75
(lp2703
g68
(g89
g70
NtRp2704
(dp2705
g73
(dp2706
g93
g94
ssg82
g2700
sg75
(lp2707
S'web2py_path'
p2708
asbag68
(g89
g70
NtRp2709
(dp2710
g73
(dp2711
g100
g101
ssg82
g2700
sg75
(lp2712
S':'
asbag68
(g89
g70
NtRp2713
(dp2714
g73
(dp2715
sg82
g2700
sg75
(lp2716
g68
(g69
g70
NtRp2717
(dp2718
g73
(dp2719
g81
I4
ssg82
g2713
sg75
(lp2720
g2019
asbasbasbag68
(g84
g70
NtRp2721
(dp2722
g73
(dp2723
sg82
g1972
sg75
(lp2724
g68
(g89
g70
NtRp2725
(dp2726
g73
(dp2727
g93
g94
ssg82
g2721
sg75
(lp2728
S'web2py_version'
p2729
asbag68
(g89
g70
NtRp2730
(dp2731
g73
(dp2732
g100
g101
ssg82
g2721
sg75
(lp2733
S':'
asbag68
(g89
g70
NtRp2734
(dp2735
g73
(dp2736
sg82
g2721
sg75
(lp2737
g68
(g69
g70
NtRp2738
(dp2739
g73
(dp2740
g81
I4
ssg82
g2734
sg75
(lp2741
g68
(g77
g70
NtRp2742
(dp2743
g73
(dp2744
g81
I3
ssg82
Nsg75
(lp2745
g68
(g84
g70
NtRp2746
(dp2747
g73
(dp2748
sg82
g2742
sg75
(lp2749
g68
(g89
g70
NtRp2750
(dp2751
g73
(dp2752
sg82
g2746
sg75
(lp2753
g68
(g69
g70
NtRp2754
(dp2755
g73
(dp2756
g81
I3
ssg82
g2750
sg75
(lp2757
S'2'
asbasbasbag68
(g84
g70
NtRp2758
(dp2759
g73
(dp2760
sg82
g2742
sg75
(lp2761
g68
(g89
g70
NtRp2762
(dp2763
g73
(dp2764
sg82
g2758
sg75
(lp2765
g68
(g69
g70
NtRp2766
(dp2767
g73
(dp2768
g81
I3
ssg82
g2762
sg75
(lp2769
S'3'
asbasbasbag68
(g84
g70
NtRp2770
(dp2771
g73
(dp2772
sg82
g2742
sg75
(lp2773
g68
(g89
g70
NtRp2774
(dp2775
g73
(dp2776
sg82
g2770
sg75
(lp2777
g68
(g69
g70
NtRp2778
(dp2779
g73
(dp2780
g81
I3
ssg82
g2774
sg75
(lp2781
S'2'
asbasbasbag68
(g84
g70
NtRp2782
(dp2783
g73
(dp2784
sg82
g2742
sg75
(lp2785
g68
(g89
g70
NtRp2786
(dp2787
g73
(dp2788
sg82
g2782
sg75
(lp2789
g68
(g69
g70
NtRp2790
(dp2791
g73
(dp2792
g81
I3
ssg82
g2786
sg75
(lp2793
S'datetime.datetime(2012, 12, 17, 15, 3, 30)'
p2794
asbasbasbag68
(g84
g70
NtRp2795
(dp2796
g73
(dp2797
sg82
g2742
sg75
(lp2798
g68
(g89
g70
NtRp2799
(dp2800
g73
(dp2801
sg82
g2795
sg75
(lp2802
g68
(g69
g70
NtRp2803
(dp2804
g73
(dp2805
g81
I3
ssg82
g2799
sg75
(lp2806
S'stable'
p2807
asbasbasbasbasbasbasbag68
(g84
g70
NtRp2808
(dp2809
g73
(dp2810
sg82
g1972
sg75
(lp2811
g68
(g89
g70
NtRp2812
(dp2813
g73
(dp2814
g93
g94
ssg82
g2808
sg75
(lp2815
S'wsgi_errors'
p2816
asbag68
(g89
g70
NtRp2817
(dp2818
g73
(dp2819
g100
g101
ssg82
g2808
sg75
(lp2820
S':'
asbag68
(g89
g70
NtRp2821
(dp2822
g73
(dp2823
sg82
g2808
sg75
(lp2824
g68
(g69
g70
NtRp2825
(dp2826
g73
(dp2827
g81
I4
ssg82
g2821
sg75
(lp2828
S"<open file '<stderr>', mode 'w' at 0x7ff38e4fb270>"
p2829
asbasbasbag68
(g84
g70
NtRp2830
(dp2831
g73
(dp2832
sg82
g1972
sg75
(lp2833
g68
(g89
g70
NtRp2834
(dp2835
g73
(dp2836
g93
g94
ssg82
g2830
sg75
(lp2837
S'wsgi_file_wrapper'
p2838
asbag68
(g89
g70
NtRp2839
(dp2840
g73
(dp2841
g100
g101
ssg82
g2830
sg75
(lp2842
S':'
asbag68
(g89
g70
NtRp2843
(dp2844
g73
(dp2845
sg82
g2830
sg75
(lp2846
g68
(g69
g70
NtRp2847
(dp2848
g73
(dp2849
g81
I4
ssg82
g2843
sg75
(lp2850
S'<class wsgiref.util.FileWrapper at 0x2875a10>'
p2851
asbasbasbag68
(g84
g70
NtRp2852
(dp2853
g73
(dp2854
sg82
g1972
sg75
(lp2855
g68
(g89
g70
NtRp2856
(dp2857
g73
(dp2858
g93
g94
ssg82
g2852
sg75
(lp2859
S'wsgi_input'
p2860
asbag68
(g89
g70
NtRp2861
(dp2862
g73
(dp2863
g100
g101
ssg82
g2852
sg75
(lp2864
S':'
asbag68
(g89
g70
NtRp2865
(dp2866
g73
(dp2867
sg82
g2852
sg75
(lp2868
g68
(g69
g70
NtRp2869
(dp2870
g73
(dp2871
g81
I4
ssg82
g2865
sg75
(lp2872
S'<socket._fileobject object at 0x7ff380156a50>'
p2873
asbasbasbag68
(g84
g70
NtRp2874
(dp2875
g73
(dp2876
sg82
g1972
sg75
(lp2877
g68
(g89
g70
NtRp2878
(dp2879
g73
(dp2880
g93
g94
ssg82
g2874
sg75
(lp2881
S'wsgi_multiprocess'
p2882
asbag68
(g89
g70
NtRp2883
(dp2884
g73
(dp2885
g100
g101
ssg82
g2874
sg75
(lp2886
S':'
asbag68
(g89
g70
NtRp2887
(dp2888
g73
(dp2889
sg82
g2874
sg75
(lp2890
g68
(g69
g70
NtRp2891
(dp2892
g73
(dp2893
g81
I4
ssg82
g2887
sg75
(lp2894
g111
asbasbasbag68
(g84
g70
NtRp2895
(dp2896
g73
(dp2897
sg82
g1972
sg75
(lp2898
g68
(g89
g70
NtRp2899
(dp2900
g73
(dp2901
g93
g94
ssg82
g2895
sg75
(lp2902
S'wsgi_multithread'
p2903
asbag68
(g89
g70
NtRp2904
(dp2905
g73
(dp2906
g100
g101
ssg82
g2895
sg75
(lp2907
S':'
asbag68
(g89
g70
NtRp2908
(dp2909
g73
(dp2910
sg82
g2895
sg75
(lp2911
g68
(g69
g70
NtRp2912
(dp2913
g73
(dp2914
g81
I4
ssg82
g2908
sg75
(lp2915
S'True'
p2916
asbasbasbag68
(g84
g70
NtRp2917
(dp2918
g73
(dp2919
sg82
g1972
sg75
(lp2920
g68
(g89
g70
NtRp2921
(dp2922
g73
(dp2923
g93
g94
ssg82
g2917
sg75
(lp2924
S'wsgi_run_once'
p2925
asbag68
(g89
g70
NtRp2926
(dp2927
g73
(dp2928
g100
g101
ssg82
g2917
sg75
(lp2929
S':'
asbag68
(g89
g70
NtRp2930
(dp2931
g73
(dp2932
sg82
g2917
sg75
(lp2933
g68
(g69
g70
NtRp2934
(dp2935
g73
(dp2936
g81
I4
ssg82
g2930
sg75
(lp2937
g111
asbasbasbag68
(g84
g70
NtRp2938
(dp2939
g73
(dp2940
sg82
g1972
sg75
(lp2941
g68
(g89
g70
NtRp2942
(dp2943
g73
(dp2944
g93
g94
ssg82
g2938
sg75
(lp2945
S'wsgi_url_scheme'
p2946
asbag68
(g89
g70
NtRp2947
(dp2948
g73
(dp2949
g100
g101
ssg82
g2938
sg75
(lp2950
S':'
asbag68
(g89
g70
NtRp2951
(dp2952
g73
(dp2953
sg82
g2938
sg75
(lp2954
g68
(g69
g70
NtRp2955
(dp2956
g73
(dp2957
g81
I4
ssg82
g2951
sg75
(lp2958
S'http'
p2959
asbasbasbag68
(g84
g70
NtRp2960
(dp2961
g73
(dp2962
sg82
g1972
sg75
(lp2963
g68
(g89
g70
NtRp2964
(dp2965
g73
(dp2966
g93
g94
ssg82
g2960
sg75
(lp2967
S'wsgi_version'
p2968
asbag68
(g89
g70
NtRp2969
(dp2970
g73
(dp2971
g100
g101
ssg82
g2960
sg75
(lp2972
S':'
asbag68
(g89
g70
NtRp2973
(dp2974
g73
(dp2975
sg82
g2960
sg75
(lp2976
g68
(g69
g70
NtRp2977
(dp2978
g73
(dp2979
g81
I4
ssg82
g2973
sg75
(lp2980
g68
(g77
g70
NtRp2981
(dp2982
g73
(dp2983
g81
I3
ssg82
Nsg75
(lp2984
g68
(g84
g70
NtRp2985
(dp2986
g73
(dp2987
sg82
g2981
sg75
(lp2988
g68
(g89
g70
NtRp2989
(dp2990
g73
(dp2991
sg82
g2985
sg75
(lp2992
g68
(g69
g70
NtRp2993
(dp2994
g73
(dp2995
g81
I3
ssg82
g2989
sg75
(lp2996
S'1'
asbasbasbag68
(g84
g70
NtRp2997
(dp2998
g73
(dp2999
sg82
g2981
sg75
(lp3000
g68
(g89
g70
NtRp3001
(dp3002
g73
(dp3003
sg82
g2997
sg75
(lp3004
g68
(g69
g70
NtRp3005
(dp3006
g73
(dp3007
g81
I3
ssg82
g3001
sg75
(lp3008
S'0'
asbasbasbasbasbasbasbasbasbasbasbag68
(g84
g70
NtRp3009
(dp3010
g73
(dp3011
sg82
g78
sg75
(lp3012
g68
(g89
g70
NtRp3013
(dp3014
g73
(dp3015
g93
g94
ssg82
g3009
sg75
(lp3016
S'extension'
p3017
asbag68
(g89
g70
NtRp3018
(dp3019
g73
(dp3020
g100
g101
ssg82
g3009
sg75
(lp3021
S':'
asbag68
(g89
g70
NtRp3022
(dp3023
g73
(dp3024
sg82
g3009
sg75
(lp3025
g68
(g69
g70
NtRp3026
(dp3027
g73
(dp3028
g81
I5
ssg82
g3022
sg75
(lp3029
S'html'
p3030
asbasbasbag68
(g84
g70
NtRp3031
(dp3032
g73
(dp3033
sg82
g78
sg75
(lp3034
g68
(g89
g70
NtRp3035
(dp3036
g73
(dp3037
g93
g94
ssg82
g3031
sg75
(lp3038
S'folder'
p3039
asbag68
(g89
g70
NtRp3040
(dp3041
g73
(dp3042
g100
g101
ssg82
g3031
sg75
(lp3043
S':'
asbag68
(g89
g70
NtRp3044
(dp3045
g73
(dp3046
sg82
g3031
sg75
(lp3047
g68
(g69
g70
NtRp3048
(dp3049
g73
(dp3050
g81
I5
ssg82
g3044
sg75
(lp3051
S'/var/www/web2py_curso/applications/projeto/'
p3052
asbasbasbag68
(g84
g70
NtRp3053
(dp3054
g73
(dp3055
sg82
g78
sg75
(lp3056
g68
(g89
g70
NtRp3057
(dp3058
g73
(dp3059
g93
g94
ssg82
g3053
sg75
(lp3060
S'function'
p3061
asbag68
(g89
g70
NtRp3062
(dp3063
g73
(dp3064
g100
g101
ssg82
g3053
sg75
(lp3065
S':'
asbag68
(g89
g70
NtRp3066
(dp3067
g73
(dp3068
sg82
g3053
sg75
(lp3069
g68
(g69
g70
NtRp3070
(dp3071
g73
(dp3072
g81
I5
ssg82
g3066
sg75
(lp3073
S'add'
p3074
asbasbasbag68
(g84
g70
NtRp3075
(dp3076
g73
(dp3077
sg82
g78
sg75
(lp3078
g68
(g89
g70
NtRp3079
(dp3080
g73
(dp3081
g93
g94
ssg82
g3075
sg75
(lp3082
S'get_vars'
p3083
asbag68
(g89
g70
NtRp3084
(dp3085
g73
(dp3086
g100
g101
ssg82
g3075
sg75
(lp3087
S':'
asbag68
(g89
g70
NtRp3088
(dp3089
g73
(dp3090
sg82
g3075
sg75
(lp3091
g68
(g69
g70
NtRp3092
(dp3093
g73
(dp3094
g81
I5
ssg82
g3088
sg75
(lp3095
g68
(g77
g70
NtRp3096
(dp3097
g73
(dp3098
g81
I4
ssg82
Nsg75
(lp3099
sbasbasbasbag68
(g84
g70
NtRp3100
(dp3101
g73
(dp3102
sg82
g78
sg75
(lp3103
g68
(g89
g70
NtRp3104
(dp3105
g73
(dp3106
g93
g94
ssg82
g3100
sg75
(lp3107
S'global_settings'
p3108
asbag68
(g89
g70
NtRp3109
(dp3110
g73
(dp3111
g100
g101
ssg82
g3100
sg75
(lp3112
S':'
asbag68
(g89
g70
NtRp3113
(dp3114
g73
(dp3115
sg82
g3100
sg75
(lp3116
g68
(g69
g70
NtRp3117
(dp3118
g73
(dp3119
g81
I5
ssg82
g3113
sg75
(lp3120
g68
(g77
g70
NtRp3121
(dp3122
g73
(dp3123
g81
I4
ssg82
Nsg75
(lp3124
g68
(g84
g70
NtRp3125
(dp3126
g73
(dp3127
sg82
g3121
sg75
(lp3128
g68
(g89
g70
NtRp3129
(dp3130
g73
(dp3131
g93
g94
ssg82
g3125
sg75
(lp3132
g1984
asbag68
(g89
g70
NtRp3133
(dp3134
g73
(dp3135
g100
g101
ssg82
g3125
sg75
(lp3136
S':'
asbag68
(g89
g70
NtRp3137
(dp3138
g73
(dp3139
sg82
g3125
sg75
(lp3140
g68
(g69
g70
NtRp3141
(dp3142
g73
(dp3143
g81
I4
ssg82
g3137
sg75
(lp3144
S"set(['/var/www/web2py_curso/applications/projeto/'])"
p3145
asbasbasbag68
(g84
g70
NtRp3146
(dp3147
g73
(dp3148
sg82
g3121
sg75
(lp3149
g68
(g89
g70
NtRp3150
(dp3151
g73
(dp3152
g93
g94
ssg82
g3146
sg75
(lp3153
g2006
asbag68
(g89
g70
NtRp3154
(dp3155
g73
(dp3156
g100
g101
ssg82
g3146
sg75
(lp3157
S':'
asbag68
(g89
g70
NtRp3158
(dp3159
g73
(dp3160
sg82
g3146
sg75
(lp3161
g68
(g69
g70
NtRp3162
(dp3163
g73
(dp3164
g81
I4
ssg82
g3158
sg75
(lp3165
g2019
asbasbasbag68
(g84
g70
NtRp3166
(dp3167
g73
(dp3168
sg82
g3121
sg75
(lp3169
g68
(g89
g70
NtRp3170
(dp3171
g73
(dp3172
g93
g94
ssg82
g3166
sg75
(lp3173
g2028
asbag68
(g89
g70
NtRp3174
(dp3175
g73
(dp3176
g100
g101
ssg82
g3166
sg75
(lp3177
S':'
asbag68
(g89
g70
NtRp3178
(dp3179
g73
(dp3180
sg82
g3166
sg75
(lp3181
g68
(g69
g70
NtRp3182
(dp3183
g73
(dp3184
g81
I4
ssg82
g3178
sg75
(lp3185
g68
(g77
g70
NtRp3186
(dp3187
g73
(dp3188
g81
I3
ssg82
Nsg75
(lp3189
sbasbasbasbag68
(g84
g70
NtRp3190
(dp3191
g73
(dp3192
sg82
g3121
sg75
(lp3193
g68
(g89
g70
NtRp3194
(dp3195
g73
(dp3196
g93
g94
ssg82
g3190
sg75
(lp3197
g2053
asbag68
(g89
g70
NtRp3198
(dp3199
g73
(dp3200
g100
g101
ssg82
g3190
sg75
(lp3201
S':'
asbag68
(g89
g70
NtRp3202
(dp3203
g73
(dp3204
sg82
g3190
sg75
(lp3205
g68
(g69
g70
NtRp3206
(dp3207
g73
(dp3208
g81
I4
ssg82
g3202
sg75
(lp3209
S"<Values at 0x2920488: {'verbose': False, 'ip': '127.0.0.1', 'with_scheduler': False, 'ips': [], 'shutdown_timeout': 5, 'taskbar': False, 'port': 8000, 'maxthreads': None, 'softcron': False, 'server_name': 'fernado-desktop', 'bpython': False, 'nogui': False, 'pid_filename': 'httpserver.pid', 'extcron': False, 'runcron': False, 'run_system_tests': False, 'test': None, 'folder': '/var/www/web2py_curso', 'config': '', 'minthreads': None, 'winservice': '', 'shell': None, 'run': '', 'log_filename': 'httpserver.log', 'debuglevel': 30, 'args': [''], 'socket_timeout': 5, 'ssl_ca_certificate': None, 'scheduler': None, 'profiler_filename': None, 'ssl_private_key': '', 'scheduler_groups': None, 'password': '123456', 'request_queue_size': 5, 'ssl_certificate': '', 'cronjob': False, 'numthreads': None, 'quiet': False, 'interfaces': None, 'import_models': False, 'timeout': 10, 'plain': False, 'nobanner': False}>"
p3210
asbasbasbag68
(g84
g70
NtRp3211
(dp3212
g73
(dp3213
sg82
g3121
sg75
(lp3214
g68
(g89
g70
NtRp3215
(dp3216
g73
(dp3217
g93
g94
ssg82
g3211
sg75
(lp3218
g2075
asbag68
(g89
g70
NtRp3219
(dp3220
g73
(dp3221
g100
g101
ssg82
g3211
sg75
(lp3222
S':'
asbag68
(g89
g70
NtRp3223
(dp3224
g73
(dp3225
sg82
g3211
sg75
(lp3226
g68
(g69
g70
NtRp3227
(dp3228
g73
(dp3229
g81
I4
ssg82
g3223
sg75
(lp3230
S'set([])'
p3231
asbasbasbag68
(g84
g70
NtRp3232
(dp3233
g73
(dp3234
sg82
g3121
sg75
(lp3235
g68
(g89
g70
NtRp3236
(dp3237
g73
(dp3238
g93
g94
ssg82
g3232
sg75
(lp3239
g2097
asbag68
(g89
g70
NtRp3240
(dp3241
g73
(dp3242
g100
g101
ssg82
g3232
sg75
(lp3243
S':'
asbag68
(g89
g70
NtRp3244
(dp3245
g73
(dp3246
sg82
g3232
sg75
(lp3247
g68
(g69
g70
NtRp3248
(dp3249
g73
(dp3250
g81
I4
ssg82
g3244
sg75
(lp3251
g111
asbasbasbag68
(g84
g70
NtRp3252
(dp3253
g73
(dp3254
sg82
g3121
sg75
(lp3255
g68
(g89
g70
NtRp3256
(dp3257
g73
(dp3258
g93
g94
ssg82
g3252
sg75
(lp3259
g2118
asbag68
(g89
g70
NtRp3260
(dp3261
g73
(dp3262
g100
g101
ssg82
g3252
sg75
(lp3263
S':'
asbag68
(g89
g70
NtRp3264
(dp3265
g73
(dp3266
sg82
g3252
sg75
(lp3267
g68
(g69
g70
NtRp3268
(dp3269
g73
(dp3270
g81
I4
ssg82
g3264
sg75
(lp3271
g2131
asbasbasbag68
(g84
g70
NtRp3272
(dp3273
g73
(dp3274
sg82
g3121
sg75
(lp3275
g68
(g89
g70
NtRp3276
(dp3277
g73
(dp3278
g93
g94
ssg82
g3272
sg75
(lp3279
g2316
asbag68
(g89
g70
NtRp3280
(dp3281
g73
(dp3282
g100
g101
ssg82
g3272
sg75
(lp3283
S':'
asbag68
(g89
g70
NtRp3284
(dp3285
g73
(dp3286
sg82
g3272
sg75
(lp3287
g68
(g69
g70
NtRp3288
(dp3289
g73
(dp3290
g81
I4
ssg82
g3284
sg75
(lp3291
g111
asbasbasbag68
(g84
g70
NtRp3292
(dp3293
g73
(dp3294
sg82
g3121
sg75
(lp3295
g68
(g89
g70
NtRp3296
(dp3297
g73
(dp3298
g93
g94
ssg82
g3292
sg75
(lp3299
g2337
asbag68
(g89
g70
NtRp3300
(dp3301
g73
(dp3302
g100
g101
ssg82
g3292
sg75
(lp3303
S':'
asbag68
(g89
g70
NtRp3304
(dp3305
g73
(dp3306
sg82
g3292
sg75
(lp3307
g68
(g69
g70
NtRp3308
(dp3309
g73
(dp3310
g81
I4
ssg82
g3304
sg75
(lp3311
g111
asbasbasbag68
(g84
g70
NtRp3312
(dp3313
g73
(dp3314
sg82
g3121
sg75
(lp3315
g68
(g89
g70
NtRp3316
(dp3317
g73
(dp3318
g93
g94
ssg82
g3312
sg75
(lp3319
g2358
asbag68
(g89
g70
NtRp3320
(dp3321
g73
(dp3322
g100
g101
ssg82
g3312
sg75
(lp3323
S':'
asbag68
(g89
g70
NtRp3324
(dp3325
g73
(dp3326
sg82
g3312
sg75
(lp3327
g68
(g69
g70
NtRp3328
(dp3329
g73
(dp3330
g81
I4
ssg82
g3324
sg75
(lp3331
g68
(g77
g70
NtRp3332
(dp3333
g73
(dp3334
g81
I3
ssg82
Nsg75
(lp3335
g68
(g84
g70
NtRp3336
(dp3337
g73
(dp3338
sg82
g3332
sg75
(lp3339
g68
(g89
g70
NtRp3340
(dp3341
g73
(dp3342
sg82
g3336
sg75
(lp3343
g68
(g69
g70
NtRp3344
(dp3345
g73
(dp3346
g81
I3
ssg82
g3340
sg75
(lp3347
g2387
asbasbasbag68
(g84
g70
NtRp3348
(dp3349
g73
(dp3350
sg82
g3332
sg75
(lp3351
g68
(g89
g70
NtRp3352
(dp3353
g73
(dp3354
sg82
g3348
sg75
(lp3355
g68
(g69
g70
NtRp3356
(dp3357
g73
(dp3358
g81
I3
ssg82
g3352
sg75
(lp3359
g2400
asbasbasbag68
(g84
g70
NtRp3360
(dp3361
g73
(dp3362
sg82
g3332
sg75
(lp3363
g68
(g89
g70
NtRp3364
(dp3365
g73
(dp3366
sg82
g3360
sg75
(lp3367
g68
(g69
g70
NtRp3368
(dp3369
g73
(dp3370
g81
I3
ssg82
g3364
sg75
(lp3371
g2413
asbasbasbag68
(g84
g70
NtRp3372
(dp3373
g73
(dp3374
sg82
g3332
sg75
(lp3375
g68
(g89
g70
NtRp3376
(dp3377
g73
(dp3378
sg82
g3372
sg75
(lp3379
g68
(g69
g70
NtRp3380
(dp3381
g73
(dp3382
g81
I3
ssg82
g3376
sg75
(lp3383
g2426
asbasbasbag68
(g84
g70
NtRp3384
(dp3385
g73
(dp3386
sg82
g3332
sg75
(lp3387
g68
(g89
g70
NtRp3388
(dp3389
g73
(dp3390
sg82
g3384
sg75
(lp3391
g68
(g69
g70
NtRp3392
(dp3393
g73
(dp3394
g81
I3
ssg82
g3388
sg75
(lp3395
g2439
asbasbasbasbasbasbasbag68
(g84
g70
NtRp3396
(dp3397
g73
(dp3398
sg82
g3121
sg75
(lp3399
g68
(g89
g70
NtRp3400
(dp3401
g73
(dp3402
g93
g94
ssg82
g3396
sg75
(lp3403
g2729
asbag68
(g89
g70
NtRp3404
(dp3405
g73
(dp3406
g100
g101
ssg82
g3396
sg75
(lp3407
S':'
asbag68
(g89
g70
NtRp3408
(dp3409
g73
(dp3410
sg82
g3396
sg75
(lp3411
g68
(g69
g70
NtRp3412
(dp3413
g73
(dp3414
g81
I4
ssg82
g3408
sg75
(lp3415
g68
(g77
g70
NtRp3416
(dp3417
g73
(dp3418
g81
I3
ssg82
Nsg75
(lp3419
g68
(g84
g70
NtRp3420
(dp3421
g73
(dp3422
sg82
g3416
sg75
(lp3423
g68
(g89
g70
NtRp3424
(dp3425
g73
(dp3426
sg82
g3420
sg75
(lp3427
g68
(g69
g70
NtRp3428
(dp3429
g73
(dp3430
g81
I3
ssg82
g3424
sg75
(lp3431
S'2'
asbasbasbag68
(g84
g70
NtRp3432
(dp3433
g73
(dp3434
sg82
g3416
sg75
(lp3435
g68
(g89
g70
NtRp3436
(dp3437
g73
(dp3438
sg82
g3432
sg75
(lp3439
g68
(g69
g70
NtRp3440
(dp3441
g73
(dp3442
g81
I3
ssg82
g3436
sg75
(lp3443
S'3'
asbasbasbag68
(g84
g70
NtRp3444
(dp3445
g73
(dp3446
sg82
g3416
sg75
(lp3447
g68
(g89
g70
NtRp3448
(dp3449
g73
(dp3450
sg82
g3444
sg75
(lp3451
g68
(g69
g70
NtRp3452
(dp3453
g73
(dp3454
g81
I3
ssg82
g3448
sg75
(lp3455
S'2'
asbasbasbag68
(g84
g70
NtRp3456
(dp3457
g73
(dp3458
sg82
g3416
sg75
(lp3459
g68
(g89
g70
NtRp3460
(dp3461
g73
(dp3462
sg82
g3456
sg75
(lp3463
g68
(g69
g70
NtRp3464
(dp3465
g73
(dp3466
g81
I3
ssg82
g3460
sg75
(lp3467
S'datetime.datetime(2012, 12, 17, 15, 3, 30)'
p3468
asbasbasbag68
(g84
g70
NtRp3469
(dp3470
g73
(dp3471
sg82
g3416
sg75
(lp3472
g68
(g89
g70
NtRp3473
(dp3474
g73
(dp3475
sg82
g3469
sg75
(lp3476
g68
(g69
g70
NtRp3477
(dp3478
g73
(dp3479
g81
I3
ssg82
g3473
sg75
(lp3480
g2807
asbasbasbasbasbasbasbasbasbasbasbag68
(g84
g70
NtRp3481
(dp3482
g73
(dp3483
sg82
g78
sg75
(lp3484
g68
(g89
g70
NtRp3485
(dp3486
g73
(dp3487
g93
g94
ssg82
g3481
sg75
(lp3488
S'is_https'
p3489
asbag68
(g89
g70
NtRp3490
(dp3491
g73
(dp3492
g100
g101
ssg82
g3481
sg75
(lp3493
S':'
asbag68
(g89
g70
NtRp3494
(dp3495
g73
(dp3496
sg82
g3481
sg75
(lp3497
g68
(g69
g70
NtRp3498
(dp3499
g73
(dp3500
g81
I5
ssg82
g3494
sg75
(lp3501
g111
asbasbasbag68
(g84
g70
NtRp3502
(dp3503
g73
(dp3504
sg82
g78
sg75
(lp3505
g68
(g89
g70
NtRp3506
(dp3507
g73
(dp3508
g93
g94
ssg82
g3502
sg75
(lp3509
S'is_local'
p3510
asbag68
(g89
g70
NtRp3511
(dp3512
g73
(dp3513
g100
g101
ssg82
g3502
sg75
(lp3514
S':'
asbag68
(g89
g70
NtRp3515
(dp3516
g73
(dp3517
sg82
g3502
sg75
(lp3518
g68
(g69
g70
NtRp3519
(dp3520
g73
(dp3521
g81
I5
ssg82
g3515
sg75
(lp3522
g2916
asbasbasbag68
(g84
g70
NtRp3523
(dp3524
g73
(dp3525
sg82
g78
sg75
(lp3526
g68
(g89
g70
NtRp3527
(dp3528
g73
(dp3529
g93
g94
ssg82
g3523
sg75
(lp3530
S'is_restful'
p3531
asbag68
(g89
g70
NtRp3532
(dp3533
g73
(dp3534
g100
g101
ssg82
g3523
sg75
(lp3535
S':'
asbag68
(g89
g70
NtRp3536
(dp3537
g73
(dp3538
sg82
g3523
sg75
(lp3539
g68
(g69
g70
NtRp3540
(dp3541
g73
(dp3542
g81
I5
ssg82
g3536
sg75
(lp3543
g111
asbasbasbag68
(g84
g70
NtRp3544
(dp3545
g73
(dp3546
sg82
g78
sg75
(lp3547
g68
(g89
g70
NtRp3548
(dp3549
g73
(dp3550
g93
g94
ssg82
g3544
sg75
(lp3551
S'now'
p3552
asbag68
(g89
g70
NtRp3553
(dp3554
g73
(dp3555
g100
g101
ssg82
g3544
sg75
(lp3556
S':'
asbag68
(g89
g70
NtRp3557
(dp3558
g73
(dp3559
sg82
g3544
sg75
(lp3560
g68
(g69
g70
NtRp3561
(dp3562
g73
(dp3563
g81
I5
ssg82
g3557
sg75
(lp3564
S'datetime.datetime(2013, 2, 5, 10, 11, 8, 588040)'
p3565
asbasbasbag68
(g84
g70
NtRp3566
(dp3567
g73
(dp3568
sg82
g78
sg75
(lp3569
g68
(g89
g70
NtRp3570
(dp3571
g73
(dp3572
g93
g94
ssg82
g3566
sg75
(lp3573
S'post_vars'
p3574
asbag68
(g89
g70
NtRp3575
(dp3576
g73
(dp3577
g100
g101
ssg82
g3566
sg75
(lp3578
S':'
asbag68
(g89
g70
NtRp3579
(dp3580
g73
(dp3581
sg82
g3566
sg75
(lp3582
g68
(g69
g70
NtRp3583
(dp3584
g73
(dp3585
g81
I5
ssg82
g3579
sg75
(lp3586
g68
(g77
g70
NtRp3587
(dp3588
g73
(dp3589
g81
I4
ssg82
Nsg75
(lp3590
sbasbasbasbag68
(g84
g70
NtRp3591
(dp3592
g73
(dp3593
sg82
g78
sg75
(lp3594
g68
(g89
g70
NtRp3595
(dp3596
g73
(dp3597
g93
g94
ssg82
g3591
sg75
(lp3598
S'url'
p3599
asbag68
(g89
g70
NtRp3600
(dp3601
g73
(dp3602
g100
g101
ssg82
g3591
sg75
(lp3603
S':'
asbag68
(g89
g70
NtRp3604
(dp3605
g73
(dp3606
sg82
g3591
sg75
(lp3607
g68
(g69
g70
NtRp3608
(dp3609
g73
(dp3610
g81
I5
ssg82
g3604
sg75
(lp3611
g2461
asbasbasbag68
(g84
g70
NtRp3612
(dp3613
g73
(dp3614
sg82
g78
sg75
(lp3615
g68
(g89
g70
NtRp3616
(dp3617
g73
(dp3618
g93
g94
ssg82
g3612
sg75
(lp3619
S'utcnow'
p3620
asbag68
(g89
g70
NtRp3621
(dp3622
g73
(dp3623
g100
g101
ssg82
g3612
sg75
(lp3624
S':'
asbag68
(g89
g70
NtRp3625
(dp3626
g73
(dp3627
sg82
g3612
sg75
(lp3628
g68
(g69
g70
NtRp3629
(dp3630
g73
(dp3631
g81
I5
ssg82
g3625
sg75
(lp3632
S'datetime.datetime(2013, 2, 5, 12, 11, 8, 588086)'
p3633
asbasbasbag68
(g84
g70
NtRp3634
(dp3635
g73
(dp3636
sg82
g78
sg75
(lp3637
g68
(g89
g70
NtRp3638
(dp3639
g73
(dp3640
g93
g94
ssg82
g3634
sg75
(lp3641
S'uuid'
p3642
asbag68
(g89
g70
NtRp3643
(dp3644
g73
(dp3645
g100
g101
ssg82
g3634
sg75
(lp3646
S':'
asbag68
(g89
g70
NtRp3647
(dp3648
g73
(dp3649
sg82
g3634
sg75
(lp3650
g68
(g69
g70
NtRp3651
(dp3652
g73
(dp3653
g81
I5
ssg82
g3647
sg75
(lp3654
S'projeto/127.0.0.1.2013-02-05.10-11-08.87cad1d9-ac96-4671-9c4e-8f3dd9d5ab6a'
p3655
asbasbasbag68
(g84
g70
NtRp3656
(dp3657
g73
(dp3658
sg82
g78
sg75
(lp3659
g68
(g89
g70
NtRp3660
(dp3661
g73
(dp3662
g93
g94
ssg82
g3656
sg75
(lp3663
S'vars'
p3664
asbag68
(g89
g70
NtRp3665
(dp3666
g73
(dp3667
g100
g101
ssg82
g3656
sg75
(lp3668
S':'
asbag68
(g89
g70
NtRp3669
(dp3670
g73
(dp3671
sg82
g3656
sg75
(lp3672
g68
(g69
g70
NtRp3673
(dp3674
g73
(dp3675
g81
I5
ssg82
g3669
sg75
(lp3676
g68
(g77
g70
NtRp3677
(dp3678
g73
(dp3679
g81
I4
ssg82
Nsg75
(lp3680
sbasbasbasbag68
(g84
g70
NtRp3681
(dp3682
g73
(dp3683
sg82
g78
sg75
(lp3684
g68
(g89
g70
NtRp3685
(dp3686
g73
(dp3687
g93
g94
ssg82
g3681
sg75
(lp3688
S'wsgi'
p3689
asbag68
(g89
g70
NtRp3690
(dp3691
g73
(dp3692
g100
g101
ssg82
g3681
sg75
(lp3693
S':'
asbag68
(g89
g70
NtRp3694
(dp3695
g73
(dp3696
sg82
g3681
sg75
(lp3697
g68
(g69
g70
NtRp3698
(dp3699
g73
(dp3700
g81
I5
ssg82
g3694
sg75
(lp3701
g68
(g77
g70
NtRp3702
(dp3703
g73
(dp3704
g81
I4
ssg82
Nsg75
(lp3705
g68
(g84
g70
NtRp3706
(dp3707
g73
(dp3708
sg82
g3702
sg75
(lp3709
g68
(g89
g70
NtRp3710
(dp3711
g73
(dp3712
g93
g94
ssg82
g3706
sg75
(lp3713
S'environ'
p3714
asbag68
(g89
g70
NtRp3715
(dp3716
g73
(dp3717
g100
g101
ssg82
g3706
sg75
(lp3718
S':'
asbag68
(g89
g70
NtRp3719
(dp3720
g73
(dp3721
sg82
g3706
sg75
(lp3722
g68
(g69
g70
NtRp3723
(dp3724
g73
(dp3725
g81
I4
ssg82
g3719
sg75
(lp3726
g68
(g77
g70
NtRp3727
(dp3728
g73
(dp3729
g81
I3
ssg82
Nsg75
(lp3730
g68
(g84
g70
NtRp3731
(dp3732
g73
(dp3733
sg82
g3727
sg75
(lp3734
g68
(g89
g70
NtRp3735
(dp3736
g73
(dp3737
g93
g94
ssg82
g3731
sg75
(lp3738
S'HTTP_ACCEPT'
p3739
asbag68
(g89
g70
NtRp3740
(dp3741
g73
(dp3742
g100
g101
ssg82
g3731
sg75
(lp3743
S':'
asbag68
(g89
g70
NtRp3744
(dp3745
g73
(dp3746
sg82
g3731
sg75
(lp3747
g68
(g69
g70
NtRp3748
(dp3749
g73
(dp3750
g81
I3
ssg82
g3744
sg75
(lp3751
g2153
asbasbasbag68
(g84
g70
NtRp3752
(dp3753
g73
(dp3754
sg82
g3727
sg75
(lp3755
g68
(g89
g70
NtRp3756
(dp3757
g73
(dp3758
g93
g94
ssg82
g3752
sg75
(lp3759
S'HTTP_ACCEPT_CHARSET'
p3760
asbag68
(g89
g70
NtRp3761
(dp3762
g73
(dp3763
g100
g101
ssg82
g3752
sg75
(lp3764
S':'
asbag68
(g89
g70
NtRp3765
(dp3766
g73
(dp3767
sg82
g3752
sg75
(lp3768
g68
(g69
g70
NtRp3769
(dp3770
g73
(dp3771
g81
I3
ssg82
g3765
sg75
(lp3772
g2175
asbasbasbag68
(g84
g70
NtRp3773
(dp3774
g73
(dp3775
sg82
g3727
sg75
(lp3776
g68
(g89
g70
NtRp3777
(dp3778
g73
(dp3779
g93
g94
ssg82
g3773
sg75
(lp3780
S'HTTP_ACCEPT_ENCODING'
p3781
asbag68
(g89
g70
NtRp3782
(dp3783
g73
(dp3784
g100
g101
ssg82
g3773
sg75
(lp3785
S':'
asbag68
(g89
g70
NtRp3786
(dp3787
g73
(dp3788
sg82
g3773
sg75
(lp3789
g68
(g69
g70
NtRp3790
(dp3791
g73
(dp3792
g81
I3
ssg82
g3786
sg75
(lp3793
g2197
asbasbasbag68
(g84
g70
NtRp3794
(dp3795
g73
(dp3796
sg82
g3727
sg75
(lp3797
g68
(g89
g70
NtRp3798
(dp3799
g73
(dp3800
g93
g94
ssg82
g3794
sg75
(lp3801
S'HTTP_ACCEPT_LANGUAGE'
p3802
asbag68
(g89
g70
NtRp3803
(dp3804
g73
(dp3805
g100
g101
ssg82
g3794
sg75
(lp3806
S':'
asbag68
(g89
g70
NtRp3807
(dp3808
g73
(dp3809
sg82
g3794
sg75
(lp3810
g68
(g69
g70
NtRp3811
(dp3812
g73
(dp3813
g81
I3
ssg82
g3807
sg75
(lp3814
g2219
asbasbasbag68
(g84
g70
NtRp3815
(dp3816
g73
(dp3817
sg82
g3727
sg75
(lp3818
g68
(g89
g70
NtRp3819
(dp3820
g73
(dp3821
g93
g94
ssg82
g3815
sg75
(lp3822
S'HTTP_CONNECTION'
p3823
asbag68
(g89
g70
NtRp3824
(dp3825
g73
(dp3826
g100
g101
ssg82
g3815
sg75
(lp3827
S':'
asbag68
(g89
g70
NtRp3828
(dp3829
g73
(dp3830
sg82
g3815
sg75
(lp3831
g68
(g69
g70
NtRp3832
(dp3833
g73
(dp3834
g81
I3
ssg82
g3828
sg75
(lp3835
g2241
asbasbasbag68
(g84
g70
NtRp3836
(dp3837
g73
(dp3838
sg82
g3727
sg75
(lp3839
g68
(g89
g70
NtRp3840
(dp3841
g73
(dp3842
g93
g94
ssg82
g3836
sg75
(lp3843
S'HTTP_COOKIE'
p3844
asbag68
(g89
g70
NtRp3845
(dp3846
g73
(dp3847
g100
g101
ssg82
g3836
sg75
(lp3848
S':'
asbag68
(g89
g70
NtRp3849
(dp3850
g73
(dp3851
sg82
g3836
sg75
(lp3852
g68
(g69
g70
NtRp3853
(dp3854
g73
(dp3855
g81
I3
ssg82
g3849
sg75
(lp3856
g2263
asbasbasbag68
(g84
g70
NtRp3857
(dp3858
g73
(dp3859
sg82
g3727
sg75
(lp3860
g68
(g89
g70
NtRp3861
(dp3862
g73
(dp3863
g93
g94
ssg82
g3857
sg75
(lp3864
S'HTTP_HOST'
p3865
asbag68
(g89
g70
NtRp3866
(dp3867
g73
(dp3868
g100
g101
ssg82
g3857
sg75
(lp3869
S':'
asbag68
(g89
g70
NtRp3870
(dp3871
g73
(dp3872
sg82
g3857
sg75
(lp3873
g68
(g69
g70
NtRp3874
(dp3875
g73
(dp3876
g81
I3
ssg82
g3870
sg75
(lp3877
g2285
asbasbasbag68
(g84
g70
NtRp3878
(dp3879
g73
(dp3880
sg82
g3727
sg75
(lp3881
g68
(g89
g70
NtRp3882
(dp3883
g73
(dp3884
g93
g94
ssg82
g3878
sg75
(lp3885
S'HTTP_USER_AGENT'
p3886
asbag68
(g89
g70
NtRp3887
(dp3888
g73
(dp3889
g100
g101
ssg82
g3878
sg75
(lp3890
S':'
asbag68
(g89
g70
NtRp3891
(dp3892
g73
(dp3893
sg82
g3878
sg75
(lp3894
g68
(g69
g70
NtRp3895
(dp3896
g73
(dp3897
g81
I3
ssg82
g3891
sg75
(lp3898
g2307
asbasbasbag68
(g84
g70
NtRp3899
(dp3900
g73
(dp3901
sg82
g3727
sg75
(lp3902
g68
(g89
g70
NtRp3903
(dp3904
g73
(dp3905
g93
g94
ssg82
g3899
sg75
(lp3906
S'PATH_INFO'
p3907
asbag68
(g89
g70
NtRp3908
(dp3909
g73
(dp3910
g100
g101
ssg82
g3899
sg75
(lp3911
S':'
asbag68
(g89
g70
NtRp3912
(dp3913
g73
(dp3914
sg82
g3899
sg75
(lp3915
g68
(g69
g70
NtRp3916
(dp3917
g73
(dp3918
g81
I3
ssg82
g3912
sg75
(lp3919
g2461
asbasbasbag68
(g84
g70
NtRp3920
(dp3921
g73
(dp3922
sg82
g3727
sg75
(lp3923
g68
(g89
g70
NtRp3924
(dp3925
g73
(dp3926
g93
g94
ssg82
g3920
sg75
(lp3927
S'QUERY_STRING'
p3928
asbag68
(g89
g70
NtRp3929
(dp3930
g73
(dp3931
g100
g101
ssg82
g3920
sg75
(lp3932
S':'
asbag68
(g89
g70
NtRp3933
(dp3934
g73
(dp3935
sg82
g3920
sg75
(lp3936
g68
(g69
g70
NtRp3937
(dp3938
g73
(dp3939
g81
I3
ssg82
g3933
sg75
(lp3940
S''
asbasbasbag68
(g84
g70
NtRp3941
(dp3942
g73
(dp3943
sg82
g3727
sg75
(lp3944
g68
(g89
g70
NtRp3945
(dp3946
g73
(dp3947
g93
g94
ssg82
g3941
sg75
(lp3948
S'REMOTE_ADDR'
p3949
asbag68
(g89
g70
NtRp3950
(dp3951
g73
(dp3952
g100
g101
ssg82
g3941
sg75
(lp3953
S':'
asbag68
(g89
g70
NtRp3954
(dp3955
g73
(dp3956
sg82
g3941
sg75
(lp3957
g68
(g69
g70
NtRp3958
(dp3959
g73
(dp3960
g81
I3
ssg82
g3954
sg75
(lp3961
g223
asbasbasbag68
(g84
g70
NtRp3962
(dp3963
g73
(dp3964
sg82
g3727
sg75
(lp3965
g68
(g89
g70
NtRp3966
(dp3967
g73
(dp3968
g93
g94
ssg82
g3962
sg75
(lp3969
S'REMOTE_PORT'
p3970
asbag68
(g89
g70
NtRp3971
(dp3972
g73
(dp3973
g100
g101
ssg82
g3962
sg75
(lp3974
S':'
asbag68
(g89
g70
NtRp3975
(dp3976
g73
(dp3977
sg82
g3962
sg75
(lp3978
g68
(g69
g70
NtRp3979
(dp3980
g73
(dp3981
g81
I3
ssg82
g3975
sg75
(lp3982
g2525
asbasbasbag68
(g84
g70
NtRp3983
(dp3984
g73
(dp3985
sg82
g3727
sg75
(lp3986
g68
(g89
g70
NtRp3987
(dp3988
g73
(dp3989
g93
g94
ssg82
g3983
sg75
(lp3990
S'REQUEST_METHOD'
p3991
asbag68
(g89
g70
NtRp3992
(dp3993
g73
(dp3994
g100
g101
ssg82
g3983
sg75
(lp3995
S':'
asbag68
(g89
g70
NtRp3996
(dp3997
g73
(dp3998
sg82
g3983
sg75
(lp3999
g68
(g69
g70
NtRp4000
(dp4001
g73
(dp4002
g81
I3
ssg82
g3996
sg75
(lp4003
g2547
asbasbasbag68
(g84
g70
NtRp4004
(dp4005
g73
(dp4006
sg82
g3727
sg75
(lp4007
g68
(g89
g70
NtRp4008
(dp4009
g73
(dp4010
g93
g94
ssg82
g4004
sg75
(lp4011
S'REQUEST_URI'
p4012
asbag68
(g89
g70
NtRp4013
(dp4014
g73
(dp4015
g100
g101
ssg82
g4004
sg75
(lp4016
S':'
asbag68
(g89
g70
NtRp4017
(dp4018
g73
(dp4019
sg82
g4004
sg75
(lp4020
g68
(g69
g70
NtRp4021
(dp4022
g73
(dp4023
g81
I3
ssg82
g4017
sg75
(lp4024
g2569
asbasbasbag68
(g84
g70
NtRp4025
(dp4026
g73
(dp4027
sg82
g3727
sg75
(lp4028
g68
(g89
g70
NtRp4029
(dp4030
g73
(dp4031
g93
g94
ssg82
g4025
sg75
(lp4032
S'SCRIPT_NAME'
p4033
asbag68
(g89
g70
NtRp4034
(dp4035
g73
(dp4036
g100
g101
ssg82
g4025
sg75
(lp4037
S':'
asbag68
(g89
g70
NtRp4038
(dp4039
g73
(dp4040
sg82
g4025
sg75
(lp4041
g68
(g69
g70
NtRp4042
(dp4043
g73
(dp4044
g81
I3
ssg82
g4038
sg75
(lp4045
S''
asbasbasbag68
(g84
g70
NtRp4046
(dp4047
g73
(dp4048
sg82
g3727
sg75
(lp4049
g68
(g89
g70
NtRp4050
(dp4051
g73
(dp4052
g93
g94
ssg82
g4046
sg75
(lp4053
S'SERVER_NAME'
p4054
asbag68
(g89
g70
NtRp4055
(dp4056
g73
(dp4057
g100
g101
ssg82
g4046
sg75
(lp4058
S':'
asbag68
(g89
g70
NtRp4059
(dp4060
g73
(dp4061
sg82
g4046
sg75
(lp4062
g68
(g69
g70
NtRp4063
(dp4064
g73
(dp4065
g81
I3
ssg82
g4059
sg75
(lp4066
g2612
asbasbasbag68
(g84
g70
NtRp4067
(dp4068
g73
(dp4069
sg82
g3727
sg75
(lp4070
g68
(g89
g70
NtRp4071
(dp4072
g73
(dp4073
g93
g94
ssg82
g4067
sg75
(lp4074
S'SERVER_PORT'
p4075
asbag68
(g89
g70
NtRp4076
(dp4077
g73
(dp4078
g100
g101
ssg82
g4067
sg75
(lp4079
S':'
asbag68
(g89
g70
NtRp4080
(dp4081
g73
(dp4082
sg82
g4067
sg75
(lp4083
g68
(g69
g70
NtRp4084
(dp4085
g73
(dp4086
g81
I3
ssg82
g4080
sg75
(lp4087
g2634
asbasbasbag68
(g84
g70
NtRp4088
(dp4089
g73
(dp4090
sg82
g3727
sg75
(lp4091
g68
(g89
g70
NtRp4092
(dp4093
g73
(dp4094
g93
g94
ssg82
g4088
sg75
(lp4095
S'SERVER_PROTOCOL'
p4096
asbag68
(g89
g70
NtRp4097
(dp4098
g73
(dp4099
g100
g101
ssg82
g4088
sg75
(lp4100
S':'
asbag68
(g89
g70
NtRp4101
(dp4102
g73
(dp4103
sg82
g4088
sg75
(lp4104
g68
(g69
g70
NtRp4105
(dp4106
g73
(dp4107
g81
I3
ssg82
g4101
sg75
(lp4108
g2656
asbasbasbag68
(g84
g70
NtRp4109
(dp4110
g73
(dp4111
sg82
g3727
sg75
(lp4112
g68
(g89
g70
NtRp4113
(dp4114
g73
(dp4115
g93
g94
ssg82
g4109
sg75
(lp4116
S'SERVER_SOFTWARE'
p4117
asbag68
(g89
g70
NtRp4118
(dp4119
g73
(dp4120
g100
g101
ssg82
g4109
sg75
(lp4121
S':'
asbag68
(g89
g70
NtRp4122
(dp4123
g73
(dp4124
sg82
g4109
sg75
(lp4125
g68
(g69
g70
NtRp4126
(dp4127
g73
(dp4128
g81
I3
ssg82
g4122
sg75
(lp4129
g2678
asbasbasbag68
(g84
g70
NtRp4130
(dp4131
g73
(dp4132
sg82
g3727
sg75
(lp4133
g68
(g89
g70
NtRp4134
(dp4135
g73
(dp4136
g93
g94
ssg82
g4130
sg75
(lp4137
S'WEB2PY_ORIGINAL_URI'
p4138
asbag68
(g89
g70
NtRp4139
(dp4140
g73
(dp4141
g100
g101
ssg82
g4130
sg75
(lp4142
S':'
asbag68
(g89
g70
NtRp4143
(dp4144
g73
(dp4145
sg82
g4130
sg75
(lp4146
g68
(g69
g70
NtRp4147
(dp4148
g73
(dp4149
g81
I3
ssg82
g4143
sg75
(lp4150
g2461
asbasbasbag68
(g84
g70
NtRp4151
(dp4152
g73
(dp4153
sg82
g3727
sg75
(lp4154
g68
(g89
g70
NtRp4155
(dp4156
g73
(dp4157
g93
g94
ssg82
g4151
sg75
(lp4158
S'wsgi.errors'
p4159
asbag68
(g89
g70
NtRp4160
(dp4161
g73
(dp4162
g100
g101
ssg82
g4151
sg75
(lp4163
S':'
asbag68
(g89
g70
NtRp4164
(dp4165
g73
(dp4166
sg82
g4151
sg75
(lp4167
g68
(g69
g70
NtRp4168
(dp4169
g73
(dp4170
g81
I3
ssg82
g4164
sg75
(lp4171
S"<open file '<stderr>', mode 'w' at 0x7ff38e4fb270>"
p4172
asbasbasbag68
(g84
g70
NtRp4173
(dp4174
g73
(dp4175
sg82
g3727
sg75
(lp4176
g68
(g89
g70
NtRp4177
(dp4178
g73
(dp4179
g93
g94
ssg82
g4173
sg75
(lp4180
S'wsgi.file_wrapper'
p4181
asbag68
(g89
g70
NtRp4182
(dp4183
g73
(dp4184
g100
g101
ssg82
g4173
sg75
(lp4185
S':'
asbag68
(g89
g70
NtRp4186
(dp4187
g73
(dp4188
sg82
g4173
sg75
(lp4189
g68
(g69
g70
NtRp4190
(dp4191
g73
(dp4192
g81
I3
ssg82
g4186
sg75
(lp4193
S'<class wsgiref.util.FileWrapper at 0x2875a10>'
p4194
asbasbasbag68
(g84
g70
NtRp4195
(dp4196
g73
(dp4197
sg82
g3727
sg75
(lp4198
g68
(g89
g70
NtRp4199
(dp4200
g73
(dp4201
g93
g94
ssg82
g4195
sg75
(lp4202
S'wsgi.input'
p4203
asbag68
(g89
g70
NtRp4204
(dp4205
g73
(dp4206
g100
g101
ssg82
g4195
sg75
(lp4207
S':'
asbag68
(g89
g70
NtRp4208
(dp4209
g73
(dp4210
sg82
g4195
sg75
(lp4211
g68
(g69
g70
NtRp4212
(dp4213
g73
(dp4214
g81
I3
ssg82
g4208
sg75
(lp4215
S'<cStringIO.StringO object at 0x7ff380155ab0>'
p4216
asbasbasbag68
(g84
g70
NtRp4217
(dp4218
g73
(dp4219
sg82
g3727
sg75
(lp4220
g68
(g89
g70
NtRp4221
(dp4222
g73
(dp4223
g93
g94
ssg82
g4217
sg75
(lp4224
S'wsgi.multiprocess'
p4225
asbag68
(g89
g70
NtRp4226
(dp4227
g73
(dp4228
g100
g101
ssg82
g4217
sg75
(lp4229
S':'
asbag68
(g89
g70
NtRp4230
(dp4231
g73
(dp4232
sg82
g4217
sg75
(lp4233
g68
(g69
g70
NtRp4234
(dp4235
g73
(dp4236
g81
I3
ssg82
g4230
sg75
(lp4237
g111
asbasbasbag68
(g84
g70
NtRp4238
(dp4239
g73
(dp4240
sg82
g3727
sg75
(lp4241
g68
(g89
g70
NtRp4242
(dp4243
g73
(dp4244
g93
g94
ssg82
g4238
sg75
(lp4245
S'wsgi.multithread'
p4246
asbag68
(g89
g70
NtRp4247
(dp4248
g73
(dp4249
g100
g101
ssg82
g4238
sg75
(lp4250
S':'
asbag68
(g89
g70
NtRp4251
(dp4252
g73
(dp4253
sg82
g4238
sg75
(lp4254
g68
(g69
g70
NtRp4255
(dp4256
g73
(dp4257
g81
I3
ssg82
g4251
sg75
(lp4258
g2916
asbasbasbag68
(g84
g70
NtRp4259
(dp4260
g73
(dp4261
sg82
g3727
sg75
(lp4262
g68
(g89
g70
NtRp4263
(dp4264
g73
(dp4265
g93
g94
ssg82
g4259
sg75
(lp4266
S'wsgi.run_once'
p4267
asbag68
(g89
g70
NtRp4268
(dp4269
g73
(dp4270
g100
g101
ssg82
g4259
sg75
(lp4271
S':'
asbag68
(g89
g70
NtRp4272
(dp4273
g73
(dp4274
sg82
g4259
sg75
(lp4275
g68
(g69
g70
NtRp4276
(dp4277
g73
(dp4278
g81
I3
ssg82
g4272
sg75
(lp4279
g111
asbasbasbag68
(g84
g70
NtRp4280
(dp4281
g73
(dp4282
sg82
g3727
sg75
(lp4283
g68
(g89
g70
NtRp4284
(dp4285
g73
(dp4286
g93
g94
ssg82
g4280
sg75
(lp4287
S'wsgi.url_scheme'
p4288
asbag68
(g89
g70
NtRp4289
(dp4290
g73
(dp4291
g100
g101
ssg82
g4280
sg75
(lp4292
S':'
asbag68
(g89
g70
NtRp4293
(dp4294
g73
(dp4295
sg82
g4280
sg75
(lp4296
g68
(g69
g70
NtRp4297
(dp4298
g73
(dp4299
g81
I3
ssg82
g4293
sg75
(lp4300
g2959
asbasbasbag68
(g84
g70
NtRp4301
(dp4302
g73
(dp4303
sg82
g3727
sg75
(lp4304
g68
(g89
g70
NtRp4305
(dp4306
g73
(dp4307
g93
g94
ssg82
g4301
sg75
(lp4308
S'wsgi.version'
p4309
asbag68
(g89
g70
NtRp4310
(dp4311
g73
(dp4312
g100
g101
ssg82
g4301
sg75
(lp4313
S':'
asbag68
(g89
g70
NtRp4314
(dp4315
g73
(dp4316
sg82
g4301
sg75
(lp4317
g68
(g69
g70
NtRp4318
(dp4319
g73
(dp4320
g81
I3
ssg82
g4314
sg75
(lp4321
S'1'
asbasbasbasbasbasbasbasbasbasbasbasbasbsS'frames'
p4322
(lp4323
(dp4324
S'file'
p4325
S'/var/www/web2py_curso/gluon/restricted.py'
p4326
sS'dump'
p4327
(dp4328
S'environment'
p4329
S"{'A': <class 'gluon.html.A'>, 'Auth': <class 'gluon.tools.Auth'>, 'B': <class 'gluon.html.B'>, 'BEAUTIFY': <class 'gluon.html.BEAUTIFY'>, 'BODY': <class 'gluon.html.BODY'>, 'BR': <class 'gluon.html.BR'>, 'BUTTON': <class 'gluon.html.BUTTON'>, 'Blog': <Table blog (id,title,description)>, 'CAT': <class 'gluon.html.CAT'>, 'CENTER': <class 'gluon.html.CENTER'>, ...}"
p4330
sS'ccode'
p4331
S'<code object <module> at 0x7ff380156e30, file "/...plications/projeto/models/validators.py", line 1>'
p4332
ssS'lnum'
p4333
I212
sS'lines'
p4334
(dp4335
I207
S'    try:'
p4336
sI208
S'        if isinstance(code, types.CodeType):'
p4337
sI209
S'            ccode = code'
p4338
sI210
S'        else:'
p4339
sI211
S'            ccode = compile2(code, layer)'
p4340
sI212
S'        exec ccode in environment'
p4341
sI213
S'    except HTTP:'
p4342
sI214
S'        raise'
p4343
sI215
S'    except RestrictedError:'
p4344
sI216
S'        # do not encapsulate (obfuscate) the original RestrictedError'
p4345
ssS'call'
p4346
S'(code=\'from custom_validators import CONTEUDO_BLOQ\\n\\nPos...equires = (db, \\\'auth_user.id\\\', "%(first_name)s")\\n\', environment={\'A\': <class \'gluon.html.A\'>, \'Auth\': <class \'gluon.tools.Auth\'>, \'B\': <class \'gluon.html.B\'>, \'BEAUTIFY\': <class \'gluon.html.BEAUTIFY\'>, \'BODY\': <class \'gluon.html.BODY\'>, \'BR\': <class \'gluon.html.BR\'>, \'BUTTON\': <class \'gluon.html.BUTTON\'>, \'Blog\': <Table blog (id,title,description)>, \'CAT\': <class \'gluon.html.CAT\'>, \'CENTER\': <class \'gluon.html.CENTER\'>, ...}, layer=\'/var/www/web2py_curso/applications/projeto/models/validators.py\')'
p4347
sS'func'
p4348
S'restricted'
p4349
sa(dp4350
g4325
S'/var/www/web2py_curso/applications/projeto/models/validators.py'
p4351
sg4327
(dp4352
S'custom_validators'
p4353
S'undefined'
p4354
sS'CONTEUDO_BLOQ'
p4355
g4354
ssg4333
I1
sg4334
(dp4356
I2
S''
sI3
S'Post.blog.requires = IS_IN_DB(db, \'blog.id\', "%(title)s")'
p4357
sI4
S'Post.title.requires = [IS_NOT_EMPTY(error_message=T("Esta vazio!")),'
p4358
sI5
S'\t\t\t\t\t   CONTEUDO_BLOQ(),'
p4359
sI6
S'                       IS_NOT_IN_DB(db, \'post.title\', error_message=T("title already exists"))]'
p4360
sI7
S'Post.category.requires = IS_IN_DB(db, \'category.id\', "%(name)s", multiple=True)'
p4361
sI8
S'#Post.category.widget = SQLFORM.widgets.checkboxes.widget'
p4362
sI9
S'Post.slug.compute = lambda registro: IS_SLUG()(registro.title)[1]'
p4363
sI10
S''
sI11
S'Post.created_by.requires = (db, \'auth_user.id\', "%(first_name)s")'
p4364
ssg4346
S'()'
p4365
sg4348
S'<module>'
p4366
sa(dp4367
g4325
S'/var/www/web2py_curso/gluon/custom_import.py'
p4368
sg4327
(dp4369
S'e2'
p4370
S'SyntaxError("Non-ASCII character \'\\\\xc3\' in file...jeto/modules/custom_validators.py\', 10, 0, None))'
p4371
ssg4333
I91
sg4334
(dp4372
I86
S'            try:'
p4373
sI87
S'                return NATIVE_IMPORTER(name, globals, locals, fromlist, level)'
p4374
sI88
S'            except ImportError, e3:'
p4375
sI89
S'                raise ImportError, e1, import_tb  # there an import error in the module'
p4376
sI90
S'        except Exception, e2:'
p4377
sI91
S'            raise e2  # there is an error in the module'
p4378
sI92
S'        finally:'
p4379
sI93
S'            if import_tb:'
p4380
sI94
S'                import_tb = None'
p4381
sI95
S''
ssg4346
S"(name='custom_validators', globals={'A': <class 'gluon.html.A'>, 'Auth': <class 'gluon.tools.Auth'>, 'B': <class 'gluon.html.B'>, 'BEAUTIFY': <class 'gluon.html.BEAUTIFY'>, 'BODY': <class 'gluon.html.BODY'>, 'BR': <class 'gluon.html.BR'>, 'BUTTON': <class 'gluon.html.BUTTON'>, 'Blog': <Table blog (id,title,description)>, 'CAT': <class 'gluon.html.CAT'>, 'CENTER': <class 'gluon.html.CENTER'>, ...}, locals={'A': <class 'gluon.html.A'>, 'Auth': <class 'gluon.tools.Auth'>, 'B': <class 'gluon.html.B'>, 'BEAUTIFY': <class 'gluon.html.BEAUTIFY'>, 'BODY': <class 'gluon.html.BODY'>, 'BR': <class 'gluon.html.BR'>, 'BUTTON': <class 'gluon.html.BUTTON'>, 'Blog': <Table blog (id,title,description)>, 'CAT': <class 'gluon.html.CAT'>, 'CENTER': <class 'gluon.html.CENTER'>, ...}, fromlist=('CONTEUDO_BLOQ',), level=-1)"
p4382
sg4348
S'custom_importer'
p4383
sasS'pyver'
p4384
S'Python 2.7.3: /usr/bin/python'
p4385
sS'session'
p4386
g68
(g69
g70
NtRp4387
(dp4388
g73
(dp4389
sg75
(lp4390
g68
(g77
g70
NtRp4391
(dp4392
g73
(dp4393
g81
I5
ssg82
Nsg75
(lp4394
sbasbsS'etype'
p4395
S"<type 'exceptions.SyntaxError'>"
p4396
sS'date'
p4397
S'Tue Feb  5 10:11:08 2013'
p4398
sS'response'
p4399
g68
(g69
g70
NtRp4400
(dp4401
g73
(dp4402
sg75
(lp4403
g68
(g77
g70
NtRp4404
(dp4405
g73
(dp4406
g81
I5
ssg82
Nsg75
(lp4407
g68
(g84
g70
NtRp4408
(dp4409
g73
(dp4410
sg82
g4404
sg75
(lp4411
g68
(g89
g70
NtRp4412
(dp4413
g73
(dp4414
g93
g94
ssg82
g4408
sg75
(lp4415
g166
asbag68
(g89
g70
NtRp4416
(dp4417
g73
(dp4418
g100
g101
ssg82
g4408
sg75
(lp4419
S':'
asbag68
(g89
g70
NtRp4420
(dp4421
g73
(dp4422
sg82
g4408
sg75
(lp4423
g68
(g69
g70
NtRp4424
(dp4425
g73
(dp4426
g81
I5
ssg82
g4420
sg75
(lp4427
S'<cStringIO.StringO object at 0x7ff380155d88>'
p4428
asbasbasbag68
(g84
g70
NtRp4429
(dp4430
g73
(dp4431
sg82
g4404
sg75
(lp4432
g68
(g89
g70
NtRp4433
(dp4434
g73
(dp4435
g93
g94
ssg82
g4429
sg75
(lp4436
g254
asbag68
(g89
g70
NtRp4437
(dp4438
g73
(dp4439
g100
g101
ssg82
g4429
sg75
(lp4440
S':'
asbag68
(g89
g70
NtRp4441
(dp4442
g73
(dp4443
sg82
g4429
sg75
(lp4444
g68
(g69
g70
NtRp4445
(dp4446
g73
(dp4447
g81
I5
ssg82
g4441
sg75
(lp4448
g68
(g77
g70
NtRp4449
(dp4450
g73
(dp4451
g81
I4
ssg82
Nsg75
(lp4452
g68
(g84
g70
NtRp4453
(dp4454
g73
(dp4455
sg82
g4449
sg75
(lp4456
g68
(g89
g70
NtRp4457
(dp4458
g73
(dp4459
g93
g94
ssg82
g4453
sg75
(lp4460
S'session_id_projeto'
p4461
asbag68
(g89
g70
NtRp4462
(dp4463
g73
(dp4464
g100
g101
ssg82
g4453
sg75
(lp4465
S':'
asbag68
(g89
g70
NtRp4466
(dp4467
g73
(dp4468
sg82
g4453
sg75
(lp4469
g68
(g69
g70
NtRp4470
(dp4471
g73
(dp4472
g81
I4
ssg82
g4466
sg75
(lp4473
g1600
ag68
(g77
g70
NtRp4474
(dp4475
g73
(dp4476
g81
I3
ssg82
Nsg75
(lp4477
g68
(g84
g70
NtRp4478
(dp4479
g73
(dp4480
sg82
g4474
sg75
(lp4481
g68
(g89
g70
NtRp4482
(dp4483
g73
(dp4484
g93
g94
ssg82
g4478
sg75
(lp4485
g305
asbag68
(g89
g70
NtRp4486
(dp4487
g73
(dp4488
g100
g101
ssg82
g4478
sg75
(lp4489
S':'
asbag68
(g89
g70
NtRp4490
(dp4491
g73
(dp4492
sg82
g4478
sg75
(lp4493
g68
(g69
g70
NtRp4494
(dp4495
g73
(dp4496
g81
I3
ssg82
g4490
sg75
(lp4497
S''
asbasbasbag68
(g84
g70
NtRp4498
(dp4499
g73
(dp4500
sg82
g4474
sg75
(lp4501
g68
(g89
g70
NtRp4502
(dp4503
g73
(dp4504
g93
g94
ssg82
g4498
sg75
(lp4505
g326
asbag68
(g89
g70
NtRp4506
(dp4507
g73
(dp4508
g100
g101
ssg82
g4498
sg75
(lp4509
S':'
asbag68
(g89
g70
NtRp4510
(dp4511
g73
(dp4512
sg82
g4498
sg75
(lp4513
g68
(g69
g70
NtRp4514
(dp4515
g73
(dp4516
g81
I3
ssg82
g4510
sg75
(lp4517
S''
asbasbasbag68
(g84
g70
NtRp4518
(dp4519
g73
(dp4520
sg82
g4474
sg75
(lp4521
g68
(g89
g70
NtRp4522
(dp4523
g73
(dp4524
g93
g94
ssg82
g4518
sg75
(lp4525
g347
asbag68
(g89
g70
NtRp4526
(dp4527
g73
(dp4528
g100
g101
ssg82
g4518
sg75
(lp4529
S':'
asbag68
(g89
g70
NtRp4530
(dp4531
g73
(dp4532
sg82
g4518
sg75
(lp4533
g68
(g69
g70
NtRp4534
(dp4535
g73
(dp4536
g81
I3
ssg82
g4530
sg75
(lp4537
S''
asbasbasbag68
(g84
g70
NtRp4538
(dp4539
g73
(dp4540
sg82
g4474
sg75
(lp4541
g68
(g89
g70
NtRp4542
(dp4543
g73
(dp4544
g93
g94
ssg82
g4538
sg75
(lp4545
g368
asbag68
(g89
g70
NtRp4546
(dp4547
g73
(dp4548
g100
g101
ssg82
g4538
sg75
(lp4549
S':'
asbag68
(g89
g70
NtRp4550
(dp4551
g73
(dp4552
sg82
g4538
sg75
(lp4553
g68
(g69
g70
NtRp4554
(dp4555
g73
(dp4556
g81
I3
ssg82
g4550
sg75
(lp4557
S''
asbasbasbag68
(g84
g70
NtRp4558
(dp4559
g73
(dp4560
sg82
g4474
sg75
(lp4561
g68
(g89
g70
NtRp4562
(dp4563
g73
(dp4564
g93
g94
ssg82
g4558
sg75
(lp4565
g389
asbag68
(g89
g70
NtRp4566
(dp4567
g73
(dp4568
g100
g101
ssg82
g4558
sg75
(lp4569
S':'
asbag68
(g89
g70
NtRp4570
(dp4571
g73
(dp4572
sg82
g4558
sg75
(lp4573
g68
(g69
g70
NtRp4574
(dp4575
g73
(dp4576
g81
I3
ssg82
g4570
sg75
(lp4577
S''
asbasbasbag68
(g84
g70
NtRp4578
(dp4579
g73
(dp4580
sg82
g4474
sg75
(lp4581
g68
(g89
g70
NtRp4582
(dp4583
g73
(dp4584
g93
g94
ssg82
g4578
sg75
(lp4585
g410
asbag68
(g89
g70
NtRp4586
(dp4587
g73
(dp4588
g100
g101
ssg82
g4578
sg75
(lp4589
S':'
asbag68
(g89
g70
NtRp4590
(dp4591
g73
(dp4592
sg82
g4578
sg75
(lp4593
g68
(g69
g70
NtRp4594
(dp4595
g73
(dp4596
g81
I3
ssg82
g4590
sg75
(lp4597
S'/'
asbasbasbag68
(g84
g70
NtRp4598
(dp4599
g73
(dp4600
sg82
g4474
sg75
(lp4601
g68
(g89
g70
NtRp4602
(dp4603
g73
(dp4604
g93
g94
ssg82
g4598
sg75
(lp4605
g431
asbag68
(g89
g70
NtRp4606
(dp4607
g73
(dp4608
g100
g101
ssg82
g4598
sg75
(lp4609
S':'
asbag68
(g89
g70
NtRp4610
(dp4611
g73
(dp4612
sg82
g4598
sg75
(lp4613
g68
(g69
g70
NtRp4614
(dp4615
g73
(dp4616
g81
I3
ssg82
g4610
sg75
(lp4617
S''
asbasbasbag68
(g84
g70
NtRp4618
(dp4619
g73
(dp4620
sg82
g4474
sg75
(lp4621
g68
(g89
g70
NtRp4622
(dp4623
g73
(dp4624
g93
g94
ssg82
g4618
sg75
(lp4625
g452
asbag68
(g89
g70
NtRp4626
(dp4627
g73
(dp4628
g100
g101
ssg82
g4618
sg75
(lp4629
S':'
asbag68
(g89
g70
NtRp4630
(dp4631
g73
(dp4632
sg82
g4618
sg75
(lp4633
g68
(g69
g70
NtRp4634
(dp4635
g73
(dp4636
g81
I3
ssg82
g4630
sg75
(lp4637
S''
asbasbasbasbasbasbasbasbasbasbasbag68
(g84
g70
NtRp4638
(dp4639
g73
(dp4640
sg82
g4404
sg75
(lp4641
g68
(g89
g70
NtRp4642
(dp4643
g73
(dp4644
g93
g94
ssg82
g4638
sg75
(lp4645
S'delimiters'
p4646
asbag68
(g89
g70
NtRp4647
(dp4648
g73
(dp4649
g100
g101
ssg82
g4638
sg75
(lp4650
S':'
asbag68
(g89
g70
NtRp4651
(dp4652
g73
(dp4653
sg82
g4638
sg75
(lp4654
g68
(g69
g70
NtRp4655
(dp4656
g73
(dp4657
g81
I5
ssg82
g4651
sg75
(lp4658
g68
(g77
g70
NtRp4659
(dp4660
g73
(dp4661
g81
I4
ssg82
Nsg75
(lp4662
g68
(g84
g70
NtRp4663
(dp4664
g73
(dp4665
sg82
g4659
sg75
(lp4666
g68
(g89
g70
NtRp4667
(dp4668
g73
(dp4669
sg82
g4663
sg75
(lp4670
g68
(g69
g70
NtRp4671
(dp4672
g73
(dp4673
g81
I4
ssg82
g4667
sg75
(lp4674
S'{{'
p4675
asbasbasbag68
(g84
g70
NtRp4676
(dp4677
g73
(dp4678
sg82
g4659
sg75
(lp4679
g68
(g89
g70
NtRp4680
(dp4681
g73
(dp4682
sg82
g4676
sg75
(lp4683
g68
(g69
g70
NtRp4684
(dp4685
g73
(dp4686
g81
I4
ssg82
g4680
sg75
(lp4687
S'}}'
p4688
asbasbasbasbasbasbasbag68
(g84
g70
NtRp4689
(dp4690
g73
(dp4691
sg82
g4404
sg75
(lp4692
g68
(g89
g70
NtRp4693
(dp4694
g73
(dp4695
g93
g94
ssg82
g4689
sg75
(lp4696
S'files'
p4697
asbag68
(g89
g70
NtRp4698
(dp4699
g73
(dp4700
g100
g101
ssg82
g4689
sg75
(lp4701
S':'
asbag68
(g89
g70
NtRp4702
(dp4703
g73
(dp4704
sg82
g4689
sg75
(lp4705
g68
(g69
g70
NtRp4706
(dp4707
g73
(dp4708
g81
I5
ssg82
g4702
sg75
(lp4709
g68
(g77
g70
NtRp4710
(dp4711
g73
(dp4712
g81
I4
ssg82
Nsg75
(lp4713
sbasbasbasbag68
(g84
g70
NtRp4714
(dp4715
g73
(dp4716
sg82
g4404
sg75
(lp4717
g68
(g89
g70
NtRp4718
(dp4719
g73
(dp4720
g93
g94
ssg82
g4714
sg75
(lp4721
S'flash'
p4722
asbag68
(g89
g70
NtRp4723
(dp4724
g73
(dp4725
g100
g101
ssg82
g4714
sg75
(lp4726
S':'
asbag68
(g89
g70
NtRp4727
(dp4728
g73
(dp4729
sg82
g4714
sg75
(lp4730
g68
(g69
g70
NtRp4731
(dp4732
g73
(dp4733
g81
I5
ssg82
g4727
sg75
(lp4734
S''
asbasbasbag68
(g84
g70
NtRp4735
(dp4736
g73
(dp4737
sg82
g4404
sg75
(lp4738
g68
(g89
g70
NtRp4739
(dp4740
g73
(dp4741
g93
g94
ssg82
g4735
sg75
(lp4742
S'generic_patterns'
p4743
asbag68
(g89
g70
NtRp4744
(dp4745
g73
(dp4746
g100
g101
ssg82
g4735
sg75
(lp4747
S':'
asbag68
(g89
g70
NtRp4748
(dp4749
g73
(dp4750
sg82
g4735
sg75
(lp4751
g68
(g69
g70
NtRp4752
(dp4753
g73
(dp4754
g81
I5
ssg82
g4748
sg75
(lp4755
g68
(g77
g70
NtRp4756
(dp4757
g73
(dp4758
g81
I4
ssg82
Nsg75
(lp4759
g68
(g84
g70
NtRp4760
(dp4761
g73
(dp4762
sg82
g4756
sg75
(lp4763
g68
(g89
g70
NtRp4764
(dp4765
g73
(dp4766
sg82
g4760
sg75
(lp4767
g68
(g69
g70
NtRp4768
(dp4769
g73
(dp4770
g81
I4
ssg82
g4764
sg75
(lp4771
S'*'
asbasbasbasbasbasbasbag68
(g84
g70
NtRp4772
(dp4773
g73
(dp4774
sg82
g4404
sg75
(lp4775
g68
(g89
g70
NtRp4776
(dp4777
g73
(dp4778
g93
g94
ssg82
g4772
sg75
(lp4779
S'headers'
p4780
asbag68
(g89
g70
NtRp4781
(dp4782
g73
(dp4783
g100
g101
ssg82
g4772
sg75
(lp4784
S':'
asbag68
(g89
g70
NtRp4785
(dp4786
g73
(dp4787
sg82
g4772
sg75
(lp4788
g68
(g69
g70
NtRp4789
(dp4790
g73
(dp4791
g81
I5
ssg82
g4785
sg75
(lp4792
g68
(g77
g70
NtRp4793
(dp4794
g73
(dp4795
g81
I4
ssg82
Nsg75
(lp4796
g68
(g84
g70
NtRp4797
(dp4798
g73
(dp4799
sg82
g4793
sg75
(lp4800
g68
(g89
g70
NtRp4801
(dp4802
g73
(dp4803
g93
g94
ssg82
g4797
sg75
(lp4804
S'X-Powered-By'
p4805
asbag68
(g89
g70
NtRp4806
(dp4807
g73
(dp4808
g100
g101
ssg82
g4797
sg75
(lp4809
S':'
asbag68
(g89
g70
NtRp4810
(dp4811
g73
(dp4812
sg82
g4797
sg75
(lp4813
g68
(g69
g70
NtRp4814
(dp4815
g73
(dp4816
g81
I4
ssg82
g4810
sg75
(lp4817
S'web2py'
p4818
asbasbasbasbasbasbasbag68
(g84
g70
NtRp4819
(dp4820
g73
(dp4821
sg82
g4404
sg75
(lp4822
g68
(g89
g70
NtRp4823
(dp4824
g73
(dp4825
g93
g94
ssg82
g4819
sg75
(lp4826
S'menu'
p4827
asbag68
(g89
g70
NtRp4828
(dp4829
g73
(dp4830
g100
g101
ssg82
g4819
sg75
(lp4831
S':'
asbag68
(g89
g70
NtRp4832
(dp4833
g73
(dp4834
sg82
g4819
sg75
(lp4835
g68
(g69
g70
NtRp4836
(dp4837
g73
(dp4838
g81
I5
ssg82
g4832
sg75
(lp4839
g68
(g77
g70
NtRp4840
(dp4841
g73
(dp4842
g81
I4
ssg82
Nsg75
(lp4843
sbasbasbasbag68
(g84
g70
NtRp4844
(dp4845
g73
(dp4846
sg82
g4404
sg75
(lp4847
g68
(g89
g70
NtRp4848
(dp4849
g73
(dp4850
g93
g94
ssg82
g4844
sg75
(lp4851
S'meta'
p4852
asbag68
(g89
g70
NtRp4853
(dp4854
g73
(dp4855
g100
g101
ssg82
g4844
sg75
(lp4856
S':'
asbag68
(g89
g70
NtRp4857
(dp4858
g73
(dp4859
sg82
g4844
sg75
(lp4860
g68
(g69
g70
NtRp4861
(dp4862
g73
(dp4863
g81
I5
ssg82
g4857
sg75
(lp4864
g68
(g77
g70
NtRp4865
(dp4866
g73
(dp4867
g81
I4
ssg82
Nsg75
(lp4868
g68
(g84
g70
NtRp4869
(dp4870
g73
(dp4871
sg82
g4865
sg75
(lp4872
g68
(g89
g70
NtRp4873
(dp4874
g73
(dp4875
g93
g94
ssg82
g4869
sg75
(lp4876
S'description'
p4877
asbag68
(g89
g70
NtRp4878
(dp4879
g73
(dp4880
g100
g101
ssg82
g4869
sg75
(lp4881
S':'
asbag68
(g89
g70
NtRp4882
(dp4883
g73
(dp4884
sg82
g4869
sg75
(lp4885
g68
(g69
g70
NtRp4886
(dp4887
g73
(dp4888
g81
I4
ssg82
g4882
sg75
(lp4889
S'blog do shedon'
p4890
asbasbasbag68
(g84
g70
NtRp4891
(dp4892
g73
(dp4893
sg82
g4865
sg75
(lp4894
g68
(g89
g70
NtRp4895
(dp4896
g73
(dp4897
g93
g94
ssg82
g4891
sg75
(lp4898
S'keywords'
p4899
asbag68
(g89
g70
NtRp4900
(dp4901
g73
(dp4902
g100
g101
ssg82
g4891
sg75
(lp4903
S':'
asbag68
(g89
g70
NtRp4904
(dp4905
g73
(dp4906
sg82
g4891
sg75
(lp4907
g68
(g69
g70
NtRp4908
(dp4909
g73
(dp4910
g81
I4
ssg82
g4904
sg75
(lp4911
S'chave, outra, e utra'
p4912
asbasbasbasbasbasbasbag68
(g84
g70
NtRp4913
(dp4914
g73
(dp4915
sg82
g4404
sg75
(lp4916
g68
(g89
g70
NtRp4917
(dp4918
g73
(dp4919
g93
g94
ssg82
g4913
sg75
(lp4920
S'models_to_run'
p4921
asbag68
(g89
g70
NtRp4922
(dp4923
g73
(dp4924
g100
g101
ssg82
g4913
sg75
(lp4925
S':'
asbag68
(g89
g70
NtRp4926
(dp4927
g73
(dp4928
sg82
g4913
sg75
(lp4929
g68
(g69
g70
NtRp4930
(dp4931
g73
(dp4932
g81
I5
ssg82
g4926
sg75
(lp4933
g68
(g77
g70
NtRp4934
(dp4935
g73
(dp4936
g81
I4
ssg82
Nsg75
(lp4937
g68
(g84
g70
NtRp4938
(dp4939
g73
(dp4940
sg82
g4934
sg75
(lp4941
g68
(g89
g70
NtRp4942
(dp4943
g73
(dp4944
sg82
g4938
sg75
(lp4945
g68
(g69
g70
NtRp4946
(dp4947
g73
(dp4948
g81
I4
ssg82
g4942
sg75
(lp4949
S'^\\w+\\.py$'
p4950
asbasbasbag68
(g84
g70
NtRp4951
(dp4952
g73
(dp4953
sg82
g4934
sg75
(lp4954
g68
(g89
g70
NtRp4955
(dp4956
g73
(dp4957
sg82
g4951
sg75
(lp4958
g68
(g69
g70
NtRp4959
(dp4960
g73
(dp4961
g81
I4
ssg82
g4955
sg75
(lp4962
S'^post/\\w+\\.py$'
p4963
asbasbasbag68
(g84
g70
NtRp4964
(dp4965
g73
(dp4966
sg82
g4934
sg75
(lp4967
g68
(g89
g70
NtRp4968
(dp4969
g73
(dp4970
sg82
g4964
sg75
(lp4971
g68
(g69
g70
NtRp4972
(dp4973
g73
(dp4974
g81
I4
ssg82
g4968
sg75
(lp4975
S'^post/add/\\w+\\.py$'
p4976
asbasbasbasbasbasbasbag68
(g84
g70
NtRp4977
(dp4978
g73
(dp4979
sg82
g4404
sg75
(lp4980
g68
(g89
g70
NtRp4981
(dp4982
g73
(dp4983
g93
g94
ssg82
g4977
sg75
(lp4984
S'postprocessing'
p4985
asbag68
(g89
g70
NtRp4986
(dp4987
g73
(dp4988
g100
g101
ssg82
g4977
sg75
(lp4989
S':'
asbag68
(g89
g70
NtRp4990
(dp4991
g73
(dp4992
sg82
g4977
sg75
(lp4993
g68
(g69
g70
NtRp4994
(dp4995
g73
(dp4996
g81
I5
ssg82
g4990
sg75
(lp4997
g68
(g77
g70
NtRp4998
(dp4999
g73
(dp5000
g81
I4
ssg82
Nsg75
(lp5001
sbasbasbasbag68
(g84
g70
NtRp5002
(dp5003
g73
(dp5004
sg82
g4404
sg75
(lp5005
g68
(g89
g70
NtRp5006
(dp5007
g73
(dp5008
g93
g94
ssg82
g5002
sg75
(lp5009
S'session_cookie_expires'
p5010
asbag68
(g89
g70
NtRp5011
(dp5012
g73
(dp5013
g100
g101
ssg82
g5002
sg75
(lp5014
S':'
asbag68
(g89
g70
NtRp5015
(dp5016
g73
(dp5017
sg82
g5002
sg75
(lp5018
g68
(g69
g70
NtRp5019
(dp5020
g73
(dp5021
g81
I5
ssg82
g5015
sg75
(lp5022
S'None'
p5023
asbasbasbag68
(g84
g70
NtRp5024
(dp5025
g73
(dp5026
sg82
g4404
sg75
(lp5027
g68
(g89
g70
NtRp5028
(dp5029
g73
(dp5030
g93
g94
ssg82
g5024
sg75
(lp5031
S'session_data_name'
p5032
asbag68
(g89
g70
NtRp5033
(dp5034
g73
(dp5035
g100
g101
ssg82
g5024
sg75
(lp5036
S':'
asbag68
(g89
g70
NtRp5037
(dp5038
g73
(dp5039
sg82
g5024
sg75
(lp5040
g68
(g69
g70
NtRp5041
(dp5042
g73
(dp5043
g81
I5
ssg82
g5037
sg75
(lp5044
S'session_data_projeto'
p5045
asbasbasbag68
(g84
g70
NtRp5046
(dp5047
g73
(dp5048
sg82
g4404
sg75
(lp5049
g68
(g89
g70
NtRp5050
(dp5051
g73
(dp5052
g93
g94
ssg82
g5046
sg75
(lp5053
S'session_file'
p5054
asbag68
(g89
g70
NtRp5055
(dp5056
g73
(dp5057
g100
g101
ssg82
g5046
sg75
(lp5058
S':'
asbag68
(g89
g70
NtRp5059
(dp5060
g73
(dp5061
sg82
g5046
sg75
(lp5062
g68
(g69
g70
NtRp5063
(dp5064
g73
(dp5065
g81
I5
ssg82
g5059
sg75
(lp5066
S'None'
p5067
asbasbasbag68
(g84
g70
NtRp5068
(dp5069
g73
(dp5070
sg82
g4404
sg75
(lp5071
g68
(g89
g70
NtRp5072
(dp5073
g73
(dp5074
g93
g94
ssg82
g5068
sg75
(lp5075
S'session_filename'
p5076
asbag68
(g89
g70
NtRp5077
(dp5078
g73
(dp5079
g100
g101
ssg82
g5068
sg75
(lp5080
S':'
asbag68
(g89
g70
NtRp5081
(dp5082
g73
(dp5083
sg82
g5068
sg75
(lp5084
g68
(g69
g70
NtRp5085
(dp5086
g73
(dp5087
g81
I5
ssg82
g5081
sg75
(lp5088
S'/var/www/web2py_curso/applications/projeto/sessions/127.0.0.1-a8d6ff4e-868b-4aa2-bd9e-521d75a87c41'
p5089
asbasbasbag68
(g84
g70
NtRp5090
(dp5091
g73
(dp5092
sg82
g4404
sg75
(lp5093
g68
(g89
g70
NtRp5094
(dp5095
g73
(dp5096
g93
g94
ssg82
g5090
sg75
(lp5097
S'session_id'
p5098
asbag68
(g89
g70
NtRp5099
(dp5100
g73
(dp5101
g100
g101
ssg82
g5090
sg75
(lp5102
S':'
asbag68
(g89
g70
NtRp5103
(dp5104
g73
(dp5105
sg82
g5090
sg75
(lp5106
g68
(g69
g70
NtRp5107
(dp5108
g73
(dp5109
g81
I5
ssg82
g5103
sg75
(lp5110
g1600
asbasbasbag68
(g84
g70
NtRp5111
(dp5112
g73
(dp5113
sg82
g4404
sg75
(lp5114
g68
(g89
g70
NtRp5115
(dp5116
g73
(dp5117
g93
g94
ssg82
g5111
sg75
(lp5118
S'session_id_name'
p5119
asbag68
(g89
g70
NtRp5120
(dp5121
g73
(dp5122
g100
g101
ssg82
g5111
sg75
(lp5123
S':'
asbag68
(g89
g70
NtRp5124
(dp5125
g73
(dp5126
sg82
g5111
sg75
(lp5127
g68
(g69
g70
NtRp5128
(dp5129
g73
(dp5130
g81
I5
ssg82
g5124
sg75
(lp5131
g4461
asbasbasbag68
(g84
g70
NtRp5132
(dp5133
g73
(dp5134
sg82
g4404
sg75
(lp5135
g68
(g89
g70
NtRp5136
(dp5137
g73
(dp5138
g93
g94
ssg82
g5132
sg75
(lp5139
S'session_new'
p5140
asbag68
(g89
g70
NtRp5141
(dp5142
g73
(dp5143
g100
g101
ssg82
g5132
sg75
(lp5144
S':'
asbag68
(g89
g70
NtRp5145
(dp5146
g73
(dp5147
sg82
g5132
sg75
(lp5148
g68
(g69
g70
NtRp5149
(dp5150
g73
(dp5151
g81
I5
ssg82
g5145
sg75
(lp5152
g111
asbasbasbag68
(g84
g70
NtRp5153
(dp5154
g73
(dp5155
sg82
g4404
sg75
(lp5156
g68
(g89
g70
NtRp5157
(dp5158
g73
(dp5159
g93
g94
ssg82
g5153
sg75
(lp5160
S'session_storage_type'
p5161
asbag68
(g89
g70
NtRp5162
(dp5163
g73
(dp5164
g100
g101
ssg82
g5153
sg75
(lp5165
S':'
asbag68
(g89
g70
NtRp5166
(dp5167
g73
(dp5168
sg82
g5153
sg75
(lp5169
g68
(g69
g70
NtRp5170
(dp5171
g73
(dp5172
g81
I5
ssg82
g5166
sg75
(lp5173
g4325
asbasbasbag68
(g84
g70
NtRp5174
(dp5175
g73
(dp5176
sg82
g4404
sg75
(lp5177
g68
(g89
g70
NtRp5178
(dp5179
g73
(dp5180
g93
g94
ssg82
g5174
sg75
(lp5181
S'status'
p5182
asbag68
(g89
g70
NtRp5183
(dp5184
g73
(dp5185
g100
g101
ssg82
g5174
sg75
(lp5186
S':'
asbag68
(g89
g70
NtRp5187
(dp5188
g73
(dp5189
sg82
g5174
sg75
(lp5190
g68
(g69
g70
NtRp5191
(dp5192
g73
(dp5193
g81
I5
ssg82
g5187
sg75
(lp5194
S'200'
p5195
asbasbasbag68
(g84
g70
NtRp5196
(dp5197
g73
(dp5198
sg82
g4404
sg75
(lp5199
g68
(g89
g70
NtRp5200
(dp5201
g73
(dp5202
g93
g94
ssg82
g5196
sg75
(lp5203
S'subtitle'
p5204
asbag68
(g89
g70
NtRp5205
(dp5206
g73
(dp5207
g100
g101
ssg82
g5196
sg75
(lp5208
S':'
asbag68
(g89
g70
NtRp5209
(dp5210
g73
(dp5211
sg82
g5196
sg75
(lp5212
g68
(g69
g70
NtRp5213
(dp5214
g73
(dp5215
g81
I5
ssg82
g5209
sg75
(lp5216
S'O blog do sheldon'
p5217
asbasbasbag68
(g84
g70
NtRp5218
(dp5219
g73
(dp5220
sg82
g4404
sg75
(lp5221
g68
(g89
g70
NtRp5222
(dp5223
g73
(dp5224
g93
g94
ssg82
g5218
sg75
(lp5225
S'title'
p5226
asbag68
(g89
g70
NtRp5227
(dp5228
g73
(dp5229
g100
g101
ssg82
g5218
sg75
(lp5230
S':'
asbag68
(g89
g70
NtRp5231
(dp5232
g73
(dp5233
sg82
g5218
sg75
(lp5234
g68
(g69
g70
NtRp5235
(dp5236
g73
(dp5237
g81
I5
ssg82
g5231
sg75
(lp5238
S'Meu site magnifico'
p5239
asbasbasbag68
(g84
g70
NtRp5240
(dp5241
g73
(dp5242
sg82
g4404
sg75
(lp5243
g68
(g89
g70
NtRp5244
(dp5245
g73
(dp5246
g93
g94
ssg82
g5240
sg75
(lp5247
S'view'
p5248
asbag68
(g89
g70
NtRp5249
(dp5250
g73
(dp5251
g100
g101
ssg82
g5240
sg75
(lp5252
S':'
asbag68
(g89
g70
NtRp5253
(dp5254
g73
(dp5255
sg82
g5240
sg75
(lp5256
g68
(g69
g70
NtRp5257
(dp5258
g73
(dp5259
g81
I5
ssg82
g5253
sg75
(lp5260
S'post/add.html'
p5261
asbasbasbasbasbsS'locals'
p5262
(dp5263
S'fromlist'
p5264
S"('CONTEUDO_BLOQ',)"
p5265
sS'modules_prefix'
p5266
S"'applications.projeto.modules'"
p5267
sS'name'
p5268
S"'custom_validators'"
p5269
sg81
S'-1'
p5270
sS'items'
p5271
S"['', 'var', 'www', 'web2py_curso', 'applications', 'projeto']"
p5272
sS'base_importer'
p5273
S'<built-in function __import__>'
p5274
sS'globals'
p5275
S"{'A': <class 'gluon.html.A'>, 'Auth': <class 'gluon.tools.Auth'>, 'B': <class 'gluon.html.B'>, 'BEAUTIFY': <class 'gluon.html.BEAUTIFY'>, 'BODY': <class 'gluon.html.BODY'>, 'BR': <class 'gluon.html.BR'>, 'BUTTON': <class 'gluon.html.BUTTON'>, 'Blog': <Table blog (id,title,description)>, 'CAT': <class 'gluon.html.CAT'>, 'CENTER': <class 'gluon.html.CENTER'>, ...}"
p5276
sS'pname'
p5277
S"'applications.projeto.modules.custom_validators'"
p5278
sS'import_tb'
p5279
S'None'
p5280
sg5262
S"{'A': <class 'gluon.html.A'>, 'Auth': <class 'gluon.tools.Auth'>, 'B': <class 'gluon.html.B'>, 'BEAUTIFY': <class 'gluon.html.BEAUTIFY'>, 'BODY': <class 'gluon.html.BODY'>, 'BR': <class 'gluon.html.BR'>, 'BUTTON': <class 'gluon.html.BUTTON'>, 'Blog': <Table blog (id,title,description)>, 'CAT': <class 'gluon.html.CAT'>, 'CENTER': <class 'gluon.html.CENTER'>, ...}"
p5281
sS'e2'
p5282
S'SyntaxError("Non-ASCII character \'\\\\xc3\' in file...jeto/modules/custom_validators.py\', 10, 0, None))'
p5283
sssS'traceback'
p5284
S'Traceback (most recent call last):\n  File "/var/www/web2py_curso/gluon/restricted.py", line 212, in restricted\n    exec ccode in environment\n  File "/var/www/web2py_curso/applications/projeto/models/validators.py", line 1, in <module>\n    from custom_validators import CONTEUDO_BLOQ\n  File "/var/www/web2py_curso/gluon/custom_import.py", line 91, in custom_importer\n    raise e2  # there is an error in the module\n  File "applications/projeto/modules/custom_validators.py", line 10\nSyntaxError: Non-ASCII character \'\\xc3\' in file applications/projeto/modules/custom_validators.py on line 10, but no encoding declared; see http://www.python.org/peps/pep-0263.html for details\n'
p5285
s.