(dp1
S'output'
p2
S''
sS'layer'
p3
S'Framework'
p4
sS'code'
p5
S''
sS'snapshot'
p6
(dp7
S'exception'
p8
(dp9
S'__hash__'
p10
S"<method-wrapper '__hash__' of exceptions.NameError object>"
p11
sS'__setattr__'
p12
S"<method-wrapper '__setattr__' of exceptions.NameError object>"
p13
sS'__reduce_ex__'
p14
S'<built-in method __reduce_ex__ of exceptions.NameError object>'
p15
sS'__getslice__'
p16
S"<method-wrapper '__getslice__' of exceptions.NameError object>"
p17
sS'__getitem__'
p18
S"<method-wrapper '__getitem__' of exceptions.NameError object>"
p19
sS'__setstate__'
p20
S'<built-in method __setstate__ of exceptions.NameError object>'
p21
sS'args'
p22
S'("name \'layout\' is not defined",)'
p23
sS'__reduce__'
p24
S'<built-in method __reduce__ of exceptions.NameError object>'
p25
sS'__str__'
p26
S"<method-wrapper '__str__' of exceptions.NameError object>"
p27
sS'__format__'
p28
S'<built-in method __format__ of exceptions.NameError object>'
p29
sS'__getattribute__'
p30
S"<method-wrapper '__getattribute__' of exceptions.NameError object>"
p31
sS'__class__'
p32
S"<type 'exceptions.NameError'>"
p33
sS'__unicode__'
p34
S'<built-in method __unicode__ of exceptions.NameError object>'
p35
sS'__delattr__'
p36
S"<method-wrapper '__delattr__' of exceptions.NameError object>"
p37
sS'__subclasshook__'
p38
S'<built-in method __subclasshook__ of type object>'
p39
sS'__repr__'
p40
S"<method-wrapper '__repr__' of exceptions.NameError object>"
p41
sS'__dict__'
p42
S'{}'
p43
sS'__sizeof__'
p44
S'<built-in method __sizeof__ of exceptions.NameError object>'
p45
sS'__doc__'
p46
S"'Name not found globally.'"
p47
sS'__init__'
p48
S"<method-wrapper '__init__' of exceptions.NameError object>"
p49
sS'__new__'
p50
S'<built-in method __new__ of type object>'
p51
ssS'evalue'
p52
S"name 'layout' is not defined"
p53
sS'request'
p54
ccopy_reg
_reconstructor
p55
(cgluon.html
BEAUTIFY
p56
c__builtin__
object
p57
NtRp58
(dp59
S'attributes'
p60
(dp61
sS'components'
p62
(lp63
g55
(cgluon.html
TABLE
p64
g57
NtRp65
(dp66
g60
(dp67
S'level'
p68
I5
ssS'parent'
p69
Nsg62
(lp70
g55
(cgluon.html
TR
p71
g57
NtRp72
(dp73
g60
(dp74
sg69
g65
sg62
(lp75
g55
(cgluon.html
TD
p76
g57
NtRp77
(dp78
g60
(dp79
S'_style'
p80
S'font-weight:bold;vertical-align:top'
p81
ssg69
g72
sg62
(lp82
S'ajax'
p83
asbag55
(g76
g57
NtRp84
(dp85
g60
(dp86
S'_valign'
p87
S'top'
p88
ssg69
g72
sg62
(lp89
S':'
asbag55
(g76
g57
NtRp90
(dp91
g60
(dp92
sg69
g72
sg62
(lp93
g55
(g56
g57
NtRp94
(dp95
g60
(dp96
g68
I5
ssg69
g90
sg62
(lp97
S'False'
p98
asbasbasbag55
(g71
g57
NtRp99
(dp100
g60
(dp101
sg69
g65
sg62
(lp102
g55
(g76
g57
NtRp103
(dp104
g60
(dp105
g80
g81
ssg69
g99
sg62
(lp106
S'application'
p107
asbag55
(g76
g57
NtRp108
(dp109
g60
(dp110
g87
g88
ssg69
g99
sg62
(lp111
S':'
asbag55
(g76
g57
NtRp112
(dp113
g60
(dp114
sg69
g99
sg62
(lp115
g55
(g56
g57
NtRp116
(dp117
g60
(dp118
g68
I5
ssg69
g112
sg62
(lp119
S'projeto'
p120
asbasbasbag55
(g71
g57
NtRp121
(dp122
g60
(dp123
sg69
g65
sg62
(lp124
g55
(g76
g57
NtRp125
(dp126
g60
(dp127
g80
g81
ssg69
g121
sg62
(lp128
g22
asbag55
(g76
g57
NtRp129
(dp130
g60
(dp131
g87
g88
ssg69
g121
sg62
(lp132
S':'
asbag55
(g76
g57
NtRp133
(dp134
g60
(dp135
sg69
g121
sg62
(lp136
g55
(g56
g57
NtRp137
(dp138
g60
(dp139
g68
I5
ssg69
g133
sg62
(lp140
g55
(g64
g57
NtRp141
(dp142
g60
(dp143
g68
I4
ssg69
Nsg62
(lp144
sbasbasbasbag55
(g71
g57
NtRp145
(dp146
g60
(dp147
sg69
g65
sg62
(lp148
g55
(g76
g57
NtRp149
(dp150
g60
(dp151
g80
g81
ssg69
g145
sg62
(lp152
S'body'
p153
asbag55
(g76
g57
NtRp154
(dp155
g60
(dp156
g87
g88
ssg69
g145
sg62
(lp157
S':'
asbag55
(g76
g57
NtRp158
(dp159
g60
(dp160
sg69
g145
sg62
(lp161
g55
(g56
g57
NtRp162
(dp163
g60
(dp164
g68
I5
ssg69
g158
sg62
(lp165
S'<cStringIO.StringO object at 0x7fc9e45a5180>'
p166
asbasbasbag55
(g71
g57
NtRp167
(dp168
g60
(dp169
sg69
g65
sg62
(lp170
g55
(g76
g57
NtRp171
(dp172
g60
(dp173
g80
g81
ssg69
g167
sg62
(lp174
S'cid'
p175
asbag55
(g76
g57
NtRp176
(dp177
g60
(dp178
g87
g88
ssg69
g167
sg62
(lp179
S':'
asbag55
(g76
g57
NtRp180
(dp181
g60
(dp182
sg69
g167
sg62
(lp183
g55
(g56
g57
NtRp184
(dp185
g60
(dp186
g68
I5
ssg69
g180
sg62
(lp187
S'None'
p188
asbasbasbag55
(g71
g57
NtRp189
(dp190
g60
(dp191
sg69
g65
sg62
(lp192
g55
(g76
g57
NtRp193
(dp194
g60
(dp195
g80
g81
ssg69
g189
sg62
(lp196
S'client'
p197
asbag55
(g76
g57
NtRp198
(dp199
g60
(dp200
g87
g88
ssg69
g189
sg62
(lp201
S':'
asbag55
(g76
g57
NtRp202
(dp203
g60
(dp204
sg69
g189
sg62
(lp205
g55
(g56
g57
NtRp206
(dp207
g60
(dp208
g68
I5
ssg69
g202
sg62
(lp209
S'127.0.0.1'
p210
asbasbasbag55
(g71
g57
NtRp211
(dp212
g60
(dp213
sg69
g65
sg62
(lp214
g55
(g76
g57
NtRp215
(dp216
g60
(dp217
g80
g81
ssg69
g211
sg62
(lp218
S'controller'
p219
asbag55
(g76
g57
NtRp220
(dp221
g60
(dp222
g87
g88
ssg69
g211
sg62
(lp223
S':'
asbag55
(g76
g57
NtRp224
(dp225
g60
(dp226
sg69
g211
sg62
(lp227
g55
(g56
g57
NtRp228
(dp229
g60
(dp230
g68
I5
ssg69
g224
sg62
(lp231
S'post'
p232
asbasbasbag55
(g71
g57
NtRp233
(dp234
g60
(dp235
sg69
g65
sg62
(lp236
g55
(g76
g57
NtRp237
(dp238
g60
(dp239
g80
g81
ssg69
g233
sg62
(lp240
S'cookies'
p241
asbag55
(g76
g57
NtRp242
(dp243
g60
(dp244
g87
g88
ssg69
g233
sg62
(lp245
S':'
asbag55
(g76
g57
NtRp246
(dp247
g60
(dp248
sg69
g233
sg62
(lp249
g55
(g56
g57
NtRp250
(dp251
g60
(dp252
g68
I5
ssg69
g246
sg62
(lp253
g55
(g64
g57
NtRp254
(dp255
g60
(dp256
g68
I4
ssg69
Nsg62
(lp257
g55
(g71
g57
NtRp258
(dp259
g60
(dp260
sg69
g254
sg62
(lp261
g55
(g76
g57
NtRp262
(dp263
g60
(dp264
g80
g81
ssg69
g258
sg62
(lp265
S'admin'
p266
asbag55
(g76
g57
NtRp267
(dp268
g60
(dp269
g87
g88
ssg69
g258
sg62
(lp270
S':'
asbag55
(g76
g57
NtRp271
(dp272
g60
(dp273
sg69
g258
sg62
(lp274
g55
(g56
g57
NtRp275
(dp276
g60
(dp277
g68
I4
ssg69
g271
sg62
(lp278
S'admin'
p279
ag55
(g64
g57
NtRp280
(dp281
g60
(dp282
g68
I3
ssg69
Nsg62
(lp283
g55
(g71
g57
NtRp284
(dp285
g60
(dp286
sg69
g280
sg62
(lp287
g55
(g76
g57
NtRp288
(dp289
g60
(dp290
g80
g81
ssg69
g284
sg62
(lp291
S'comment'
p292
asbag55
(g76
g57
NtRp293
(dp294
g60
(dp295
g87
g88
ssg69
g284
sg62
(lp296
S':'
asbag55
(g76
g57
NtRp297
(dp298
g60
(dp299
sg69
g284
sg62
(lp300
g55
(g56
g57
NtRp301
(dp302
g60
(dp303
g68
I3
ssg69
g297
sg62
(lp304
S''
asbasbasbag55
(g71
g57
NtRp305
(dp306
g60
(dp307
sg69
g280
sg62
(lp308
g55
(g76
g57
NtRp309
(dp310
g60
(dp311
g80
g81
ssg69
g305
sg62
(lp312
S'domain'
p313
asbag55
(g76
g57
NtRp314
(dp315
g60
(dp316
g87
g88
ssg69
g305
sg62
(lp317
S':'
asbag55
(g76
g57
NtRp318
(dp319
g60
(dp320
sg69
g305
sg62
(lp321
g55
(g56
g57
NtRp322
(dp323
g60
(dp324
g68
I3
ssg69
g318
sg62
(lp325
S''
asbasbasbag55
(g71
g57
NtRp326
(dp327
g60
(dp328
sg69
g280
sg62
(lp329
g55
(g76
g57
NtRp330
(dp331
g60
(dp332
g80
g81
ssg69
g326
sg62
(lp333
S'expires'
p334
asbag55
(g76
g57
NtRp335
(dp336
g60
(dp337
g87
g88
ssg69
g326
sg62
(lp338
S':'
asbag55
(g76
g57
NtRp339
(dp340
g60
(dp341
sg69
g326
sg62
(lp342
g55
(g56
g57
NtRp343
(dp344
g60
(dp345
g68
I3
ssg69
g339
sg62
(lp346
S''
asbasbasbag55
(g71
g57
NtRp347
(dp348
g60
(dp349
sg69
g280
sg62
(lp350
g55
(g76
g57
NtRp351
(dp352
g60
(dp353
g80
g81
ssg69
g347
sg62
(lp354
S'httponly'
p355
asbag55
(g76
g57
NtRp356
(dp357
g60
(dp358
g87
g88
ssg69
g347
sg62
(lp359
S':'
asbag55
(g76
g57
NtRp360
(dp361
g60
(dp362
sg69
g347
sg62
(lp363
g55
(g56
g57
NtRp364
(dp365
g60
(dp366
g68
I3
ssg69
g360
sg62
(lp367
S''
asbasbasbag55
(g71
g57
NtRp368
(dp369
g60
(dp370
sg69
g280
sg62
(lp371
g55
(g76
g57
NtRp372
(dp373
g60
(dp374
g80
g81
ssg69
g368
sg62
(lp375
S'max-age'
p376
asbag55
(g76
g57
NtRp377
(dp378
g60
(dp379
g87
g88
ssg69
g368
sg62
(lp380
S':'
asbag55
(g76
g57
NtRp381
(dp382
g60
(dp383
sg69
g368
sg62
(lp384
g55
(g56
g57
NtRp385
(dp386
g60
(dp387
g68
I3
ssg69
g381
sg62
(lp388
S''
asbasbasbag55
(g71
g57
NtRp389
(dp390
g60
(dp391
sg69
g280
sg62
(lp392
g55
(g76
g57
NtRp393
(dp394
g60
(dp395
g80
g81
ssg69
g389
sg62
(lp396
S'path'
p397
asbag55
(g76
g57
NtRp398
(dp399
g60
(dp400
g87
g88
ssg69
g389
sg62
(lp401
S':'
asbag55
(g76
g57
NtRp402
(dp403
g60
(dp404
sg69
g389
sg62
(lp405
g55
(g56
g57
NtRp406
(dp407
g60
(dp408
g68
I3
ssg69
g402
sg62
(lp409
S''
asbasbasbag55
(g71
g57
NtRp410
(dp411
g60
(dp412
sg69
g280
sg62
(lp413
g55
(g76
g57
NtRp414
(dp415
g60
(dp416
g80
g81
ssg69
g410
sg62
(lp417
S'secure'
p418
asbag55
(g76
g57
NtRp419
(dp420
g60
(dp421
g87
g88
ssg69
g410
sg62
(lp422
S':'
asbag55
(g76
g57
NtRp423
(dp424
g60
(dp425
sg69
g410
sg62
(lp426
g55
(g56
g57
NtRp427
(dp428
g60
(dp429
g68
I3
ssg69
g423
sg62
(lp430
S''
asbasbasbag55
(g71
g57
NtRp431
(dp432
g60
(dp433
sg69
g280
sg62
(lp434
g55
(g76
g57
NtRp435
(dp436
g60
(dp437
g80
g81
ssg69
g431
sg62
(lp438
S'version'
p439
asbag55
(g76
g57
NtRp440
(dp441
g60
(dp442
g87
g88
ssg69
g431
sg62
(lp443
S':'
asbag55
(g76
g57
NtRp444
(dp445
g60
(dp446
sg69
g431
sg62
(lp447
g55
(g56
g57
NtRp448
(dp449
g60
(dp450
g68
I3
ssg69
g444
sg62
(lp451
S''
asbasbasbasbasbasbasbag55
(g71
g57
NtRp452
(dp453
g60
(dp454
sg69
g254
sg62
(lp455
g55
(g76
g57
NtRp456
(dp457
g60
(dp458
g80
g81
ssg69
g452
sg62
(lp459
S'cookie'
p460
asbag55
(g76
g57
NtRp461
(dp462
g60
(dp463
g87
g88
ssg69
g452
sg62
(lp464
S':'
asbag55
(g76
g57
NtRp465
(dp466
g60
(dp467
sg69
g452
sg62
(lp468
g55
(g56
g57
NtRp469
(dp470
g60
(dp471
g68
I4
ssg69
g465
sg62
(lp472
S'1649423593'
p473
ag55
(g64
g57
NtRp474
(dp475
g60
(dp476
g68
I3
ssg69
Nsg62
(lp477
g55
(g71
g57
NtRp478
(dp479
g60
(dp480
sg69
g474
sg62
(lp481
g55
(g76
g57
NtRp482
(dp483
g60
(dp484
g80
g81
ssg69
g478
sg62
(lp485
g292
asbag55
(g76
g57
NtRp486
(dp487
g60
(dp488
g87
g88
ssg69
g478
sg62
(lp489
S':'
asbag55
(g76
g57
NtRp490
(dp491
g60
(dp492
sg69
g478
sg62
(lp493
g55
(g56
g57
NtRp494
(dp495
g60
(dp496
g68
I3
ssg69
g490
sg62
(lp497
S''
asbasbasbag55
(g71
g57
NtRp498
(dp499
g60
(dp500
sg69
g474
sg62
(lp501
g55
(g76
g57
NtRp502
(dp503
g60
(dp504
g80
g81
ssg69
g498
sg62
(lp505
g313
asbag55
(g76
g57
NtRp506
(dp507
g60
(dp508
g87
g88
ssg69
g498
sg62
(lp509
S':'
asbag55
(g76
g57
NtRp510
(dp511
g60
(dp512
sg69
g498
sg62
(lp513
g55
(g56
g57
NtRp514
(dp515
g60
(dp516
g68
I3
ssg69
g510
sg62
(lp517
S''
asbasbasbag55
(g71
g57
NtRp518
(dp519
g60
(dp520
sg69
g474
sg62
(lp521
g55
(g76
g57
NtRp522
(dp523
g60
(dp524
g80
g81
ssg69
g518
sg62
(lp525
g334
asbag55
(g76
g57
NtRp526
(dp527
g60
(dp528
g87
g88
ssg69
g518
sg62
(lp529
S':'
asbag55
(g76
g57
NtRp530
(dp531
g60
(dp532
sg69
g518
sg62
(lp533
g55
(g56
g57
NtRp534
(dp535
g60
(dp536
g68
I3
ssg69
g530
sg62
(lp537
S''
asbasbasbag55
(g71
g57
NtRp538
(dp539
g60
(dp540
sg69
g474
sg62
(lp541
g55
(g76
g57
NtRp542
(dp543
g60
(dp544
g80
g81
ssg69
g538
sg62
(lp545
g355
asbag55
(g76
g57
NtRp546
(dp547
g60
(dp548
g87
g88
ssg69
g538
sg62
(lp549
S':'
asbag55
(g76
g57
NtRp550
(dp551
g60
(dp552
sg69
g538
sg62
(lp553
g55
(g56
g57
NtRp554
(dp555
g60
(dp556
g68
I3
ssg69
g550
sg62
(lp557
S''
asbasbasbag55
(g71
g57
NtRp558
(dp559
g60
(dp560
sg69
g474
sg62
(lp561
g55
(g76
g57
NtRp562
(dp563
g60
(dp564
g80
g81
ssg69
g558
sg62
(lp565
g376
asbag55
(g76
g57
NtRp566
(dp567
g60
(dp568
g87
g88
ssg69
g558
sg62
(lp569
S':'
asbag55
(g76
g57
NtRp570
(dp571
g60
(dp572
sg69
g558
sg62
(lp573
g55
(g56
g57
NtRp574
(dp575
g60
(dp576
g68
I3
ssg69
g570
sg62
(lp577
S''
asbasbasbag55
(g71
g57
NtRp578
(dp579
g60
(dp580
sg69
g474
sg62
(lp581
g55
(g76
g57
NtRp582
(dp583
g60
(dp584
g80
g81
ssg69
g578
sg62
(lp585
g397
asbag55
(g76
g57
NtRp586
(dp587
g60
(dp588
g87
g88
ssg69
g578
sg62
(lp589
S':'
asbag55
(g76
g57
NtRp590
(dp591
g60
(dp592
sg69
g578
sg62
(lp593
g55
(g56
g57
NtRp594
(dp595
g60
(dp596
g68
I3
ssg69
g590
sg62
(lp597
S''
asbasbasbag55
(g71
g57
NtRp598
(dp599
g60
(dp600
sg69
g474
sg62
(lp601
g55
(g76
g57
NtRp602
(dp603
g60
(dp604
g80
g81
ssg69
g598
sg62
(lp605
g418
asbag55
(g76
g57
NtRp606
(dp607
g60
(dp608
g87
g88
ssg69
g598
sg62
(lp609
S':'
asbag55
(g76
g57
NtRp610
(dp611
g60
(dp612
sg69
g598
sg62
(lp613
g55
(g56
g57
NtRp614
(dp615
g60
(dp616
g68
I3
ssg69
g610
sg62
(lp617
S''
asbasbasbag55
(g71
g57
NtRp618
(dp619
g60
(dp620
sg69
g474
sg62
(lp621
g55
(g76
g57
NtRp622
(dp623
g60
(dp624
g80
g81
ssg69
g618
sg62
(lp625
g439
asbag55
(g76
g57
NtRp626
(dp627
g60
(dp628
g87
g88
ssg69
g618
sg62
(lp629
S':'
asbag55
(g76
g57
NtRp630
(dp631
g60
(dp632
sg69
g618
sg62
(lp633
g55
(g56
g57
NtRp634
(dp635
g60
(dp636
g68
I3
ssg69
g630
sg62
(lp637
S''
asbasbasbasbasbasbasbag55
(g71
g57
NtRp638
(dp639
g60
(dp640
sg69
g254
sg62
(lp641
g55
(g76
g57
NtRp642
(dp643
g60
(dp644
g80
g81
ssg69
g638
sg62
(lp645
S'hw_type'
p646
asbag55
(g76
g57
NtRp647
(dp648
g60
(dp649
g87
g88
ssg69
g638
sg62
(lp650
S':'
asbag55
(g76
g57
NtRp651
(dp652
g60
(dp653
sg69
g638
sg62
(lp654
g55
(g56
g57
NtRp655
(dp656
g60
(dp657
g68
I4
ssg69
g651
sg62
(lp658
S'MX60'
p659
ag55
(g64
g57
NtRp660
(dp661
g60
(dp662
g68
I3
ssg69
Nsg62
(lp663
g55
(g71
g57
NtRp664
(dp665
g60
(dp666
sg69
g660
sg62
(lp667
g55
(g76
g57
NtRp668
(dp669
g60
(dp670
g80
g81
ssg69
g664
sg62
(lp671
g292
asbag55
(g76
g57
NtRp672
(dp673
g60
(dp674
g87
g88
ssg69
g664
sg62
(lp675
S':'
asbag55
(g76
g57
NtRp676
(dp677
g60
(dp678
sg69
g664
sg62
(lp679
g55
(g56
g57
NtRp680
(dp681
g60
(dp682
g68
I3
ssg69
g676
sg62
(lp683
S''
asbasbasbag55
(g71
g57
NtRp684
(dp685
g60
(dp686
sg69
g660
sg62
(lp687
g55
(g76
g57
NtRp688
(dp689
g60
(dp690
g80
g81
ssg69
g684
sg62
(lp691
g313
asbag55
(g76
g57
NtRp692
(dp693
g60
(dp694
g87
g88
ssg69
g684
sg62
(lp695
S':'
asbag55
(g76
g57
NtRp696
(dp697
g60
(dp698
sg69
g684
sg62
(lp699
g55
(g56
g57
NtRp700
(dp701
g60
(dp702
g68
I3
ssg69
g696
sg62
(lp703
S''
asbasbasbag55
(g71
g57
NtRp704
(dp705
g60
(dp706
sg69
g660
sg62
(lp707
g55
(g76
g57
NtRp708
(dp709
g60
(dp710
g80
g81
ssg69
g704
sg62
(lp711
g334
asbag55
(g76
g57
NtRp712
(dp713
g60
(dp714
g87
g88
ssg69
g704
sg62
(lp715
S':'
asbag55
(g76
g57
NtRp716
(dp717
g60
(dp718
sg69
g704
sg62
(lp719
g55
(g56
g57
NtRp720
(dp721
g60
(dp722
g68
I3
ssg69
g716
sg62
(lp723
S''
asbasbasbag55
(g71
g57
NtRp724
(dp725
g60
(dp726
sg69
g660
sg62
(lp727
g55
(g76
g57
NtRp728
(dp729
g60
(dp730
g80
g81
ssg69
g724
sg62
(lp731
g355
asbag55
(g76
g57
NtRp732
(dp733
g60
(dp734
g87
g88
ssg69
g724
sg62
(lp735
S':'
asbag55
(g76
g57
NtRp736
(dp737
g60
(dp738
sg69
g724
sg62
(lp739
g55
(g56
g57
NtRp740
(dp741
g60
(dp742
g68
I3
ssg69
g736
sg62
(lp743
S''
asbasbasbag55
(g71
g57
NtRp744
(dp745
g60
(dp746
sg69
g660
sg62
(lp747
g55
(g76
g57
NtRp748
(dp749
g60
(dp750
g80
g81
ssg69
g744
sg62
(lp751
g376
asbag55
(g76
g57
NtRp752
(dp753
g60
(dp754
g87
g88
ssg69
g744
sg62
(lp755
S':'
asbag55
(g76
g57
NtRp756
(dp757
g60
(dp758
sg69
g744
sg62
(lp759
g55
(g56
g57
NtRp760
(dp761
g60
(dp762
g68
I3
ssg69
g756
sg62
(lp763
S''
asbasbasbag55
(g71
g57
NtRp764
(dp765
g60
(dp766
sg69
g660
sg62
(lp767
g55
(g76
g57
NtRp768
(dp769
g60
(dp770
g80
g81
ssg69
g764
sg62
(lp771
g397
asbag55
(g76
g57
NtRp772
(dp773
g60
(dp774
g87
g88
ssg69
g764
sg62
(lp775
S':'
asbag55
(g76
g57
NtRp776
(dp777
g60
(dp778
sg69
g764
sg62
(lp779
g55
(g56
g57
NtRp780
(dp781
g60
(dp782
g68
I3
ssg69
g776
sg62
(lp783
S''
asbasbasbag55
(g71
g57
NtRp784
(dp785
g60
(dp786
sg69
g660
sg62
(lp787
g55
(g76
g57
NtRp788
(dp789
g60
(dp790
g80
g81
ssg69
g784
sg62
(lp791
g418
asbag55
(g76
g57
NtRp792
(dp793
g60
(dp794
g87
g88
ssg69
g784
sg62
(lp795
S':'
asbag55
(g76
g57
NtRp796
(dp797
g60
(dp798
sg69
g784
sg62
(lp799
g55
(g56
g57
NtRp800
(dp801
g60
(dp802
g68
I3
ssg69
g796
sg62
(lp803
S''
asbasbasbag55
(g71
g57
NtRp804
(dp805
g60
(dp806
sg69
g660
sg62
(lp807
g55
(g76
g57
NtRp808
(dp809
g60
(dp810
g80
g81
ssg69
g804
sg62
(lp811
g439
asbag55
(g76
g57
NtRp812
(dp813
g60
(dp814
g87
g88
ssg69
g804
sg62
(lp815
S':'
asbag55
(g76
g57
NtRp816
(dp817
g60
(dp818
sg69
g804
sg62
(lp819
g55
(g56
g57
NtRp820
(dp821
g60
(dp822
g68
I3
ssg69
g816
sg62
(lp823
S''
asbasbasbasbasbasbasbag55
(g71
g57
NtRp824
(dp825
g60
(dp826
sg69
g254
sg62
(lp827
g55
(g76
g57
NtRp828
(dp829
g60
(dp830
g80
g81
ssg69
g824
sg62
(lp831
S'hw_version'
p832
asbag55
(g76
g57
NtRp833
(dp834
g60
(dp835
g87
g88
ssg69
g824
sg62
(lp836
S':'
asbag55
(g76
g57
NtRp837
(dp838
g60
(dp839
sg69
g824
sg62
(lp840
g55
(g56
g57
NtRp841
(dp842
g60
(dp843
g68
I4
ssg69
g837
sg62
(lp844
S'Rev%201.9.82.316'
p845
ag55
(g64
g57
NtRp846
(dp847
g60
(dp848
g68
I3
ssg69
Nsg62
(lp849
g55
(g71
g57
NtRp850
(dp851
g60
(dp852
sg69
g846
sg62
(lp853
g55
(g76
g57
NtRp854
(dp855
g60
(dp856
g80
g81
ssg69
g850
sg62
(lp857
g292
asbag55
(g76
g57
NtRp858
(dp859
g60
(dp860
g87
g88
ssg69
g850
sg62
(lp861
S':'
asbag55
(g76
g57
NtRp862
(dp863
g60
(dp864
sg69
g850
sg62
(lp865
g55
(g56
g57
NtRp866
(dp867
g60
(dp868
g68
I3
ssg69
g862
sg62
(lp869
S''
asbasbasbag55
(g71
g57
NtRp870
(dp871
g60
(dp872
sg69
g846
sg62
(lp873
g55
(g76
g57
NtRp874
(dp875
g60
(dp876
g80
g81
ssg69
g870
sg62
(lp877
g313
asbag55
(g76
g57
NtRp878
(dp879
g60
(dp880
g87
g88
ssg69
g870
sg62
(lp881
S':'
asbag55
(g76
g57
NtRp882
(dp883
g60
(dp884
sg69
g870
sg62
(lp885
g55
(g56
g57
NtRp886
(dp887
g60
(dp888
g68
I3
ssg69
g882
sg62
(lp889
S''
asbasbasbag55
(g71
g57
NtRp890
(dp891
g60
(dp892
sg69
g846
sg62
(lp893
g55
(g76
g57
NtRp894
(dp895
g60
(dp896
g80
g81
ssg69
g890
sg62
(lp897
g334
asbag55
(g76
g57
NtRp898
(dp899
g60
(dp900
g87
g88
ssg69
g890
sg62
(lp901
S':'
asbag55
(g76
g57
NtRp902
(dp903
g60
(dp904
sg69
g890
sg62
(lp905
g55
(g56
g57
NtRp906
(dp907
g60
(dp908
g68
I3
ssg69
g902
sg62
(lp909
S''
asbasbasbag55
(g71
g57
NtRp910
(dp911
g60
(dp912
sg69
g846
sg62
(lp913
g55
(g76
g57
NtRp914
(dp915
g60
(dp916
g80
g81
ssg69
g910
sg62
(lp917
g355
asbag55
(g76
g57
NtRp918
(dp919
g60
(dp920
g87
g88
ssg69
g910
sg62
(lp921
S':'
asbag55
(g76
g57
NtRp922
(dp923
g60
(dp924
sg69
g910
sg62
(lp925
g55
(g56
g57
NtRp926
(dp927
g60
(dp928
g68
I3
ssg69
g922
sg62
(lp929
S''
asbasbasbag55
(g71
g57
NtRp930
(dp931
g60
(dp932
sg69
g846
sg62
(lp933
g55
(g76
g57
NtRp934
(dp935
g60
(dp936
g80
g81
ssg69
g930
sg62
(lp937
g376
asbag55
(g76
g57
NtRp938
(dp939
g60
(dp940
g87
g88
ssg69
g930
sg62
(lp941
S':'
asbag55
(g76
g57
NtRp942
(dp943
g60
(dp944
sg69
g930
sg62
(lp945
g55
(g56
g57
NtRp946
(dp947
g60
(dp948
g68
I3
ssg69
g942
sg62
(lp949
S''
asbasbasbag55
(g71
g57
NtRp950
(dp951
g60
(dp952
sg69
g846
sg62
(lp953
g55
(g76
g57
NtRp954
(dp955
g60
(dp956
g80
g81
ssg69
g950
sg62
(lp957
g397
asbag55
(g76
g57
NtRp958
(dp959
g60
(dp960
g87
g88
ssg69
g950
sg62
(lp961
S':'
asbag55
(g76
g57
NtRp962
(dp963
g60
(dp964
sg69
g950
sg62
(lp965
g55
(g56
g57
NtRp966
(dp967
g60
(dp968
g68
I3
ssg69
g962
sg62
(lp969
S''
asbasbasbag55
(g71
g57
NtRp970
(dp971
g60
(dp972
sg69
g846
sg62
(lp973
g55
(g76
g57
NtRp974
(dp975
g60
(dp976
g80
g81
ssg69
g970
sg62
(lp977
g418
asbag55
(g76
g57
NtRp978
(dp979
g60
(dp980
g87
g88
ssg69
g970
sg62
(lp981
S':'
asbag55
(g76
g57
NtRp982
(dp983
g60
(dp984
sg69
g970
sg62
(lp985
g55
(g56
g57
NtRp986
(dp987
g60
(dp988
g68
I3
ssg69
g982
sg62
(lp989
S''
asbasbasbag55
(g71
g57
NtRp990
(dp991
g60
(dp992
sg69
g846
sg62
(lp993
g55
(g76
g57
NtRp994
(dp995
g60
(dp996
g80
g81
ssg69
g990
sg62
(lp997
g439
asbag55
(g76
g57
NtRp998
(dp999
g60
(dp1000
g87
g88
ssg69
g990
sg62
(lp1001
S':'
asbag55
(g76
g57
NtRp1002
(dp1003
g60
(dp1004
sg69
g990
sg62
(lp1005
g55
(g56
g57
NtRp1006
(dp1007
g60
(dp1008
g68
I3
ssg69
g1002
sg62
(lp1009
S''
asbasbasbasbasbasbasbag55
(g71
g57
NtRp1010
(dp1011
g60
(dp1012
sg69
g254
sg62
(lp1013
g55
(g76
g57
NtRp1014
(dp1015
g60
(dp1016
g80
g81
ssg69
g1010
sg62
(lp1017
S'language'
p1018
asbag55
(g76
g57
NtRp1019
(dp1020
g60
(dp1021
g87
g88
ssg69
g1010
sg62
(lp1022
S':'
asbag55
(g76
g57
NtRp1023
(dp1024
g60
(dp1025
sg69
g1010
sg62
(lp1026
g55
(g56
g57
NtRp1027
(dp1028
g60
(dp1029
g68
I4
ssg69
g1023
sg62
(lp1030
S'1'
ag55
(g64
g57
NtRp1031
(dp1032
g60
(dp1033
g68
I3
ssg69
Nsg62
(lp1034
g55
(g71
g57
NtRp1035
(dp1036
g60
(dp1037
sg69
g1031
sg62
(lp1038
g55
(g76
g57
NtRp1039
(dp1040
g60
(dp1041
g80
g81
ssg69
g1035
sg62
(lp1042
g292
asbag55
(g76
g57
NtRp1043
(dp1044
g60
(dp1045
g87
g88
ssg69
g1035
sg62
(lp1046
S':'
asbag55
(g76
g57
NtRp1047
(dp1048
g60
(dp1049
sg69
g1035
sg62
(lp1050
g55
(g56
g57
NtRp1051
(dp1052
g60
(dp1053
g68
I3
ssg69
g1047
sg62
(lp1054
S''
asbasbasbag55
(g71
g57
NtRp1055
(dp1056
g60
(dp1057
sg69
g1031
sg62
(lp1058
g55
(g76
g57
NtRp1059
(dp1060
g60
(dp1061
g80
g81
ssg69
g1055
sg62
(lp1062
g313
asbag55
(g76
g57
NtRp1063
(dp1064
g60
(dp1065
g87
g88
ssg69
g1055
sg62
(lp1066
S':'
asbag55
(g76
g57
NtRp1067
(dp1068
g60
(dp1069
sg69
g1055
sg62
(lp1070
g55
(g56
g57
NtRp1071
(dp1072
g60
(dp1073
g68
I3
ssg69
g1067
sg62
(lp1074
S''
asbasbasbag55
(g71
g57
NtRp1075
(dp1076
g60
(dp1077
sg69
g1031
sg62
(lp1078
g55
(g76
g57
NtRp1079
(dp1080
g60
(dp1081
g80
g81
ssg69
g1075
sg62
(lp1082
g334
asbag55
(g76
g57
NtRp1083
(dp1084
g60
(dp1085
g87
g88
ssg69
g1075
sg62
(lp1086
S':'
asbag55
(g76
g57
NtRp1087
(dp1088
g60
(dp1089
sg69
g1075
sg62
(lp1090
g55
(g56
g57
NtRp1091
(dp1092
g60
(dp1093
g68
I3
ssg69
g1087
sg62
(lp1094
S''
asbasbasbag55
(g71
g57
NtRp1095
(dp1096
g60
(dp1097
sg69
g1031
sg62
(lp1098
g55
(g76
g57
NtRp1099
(dp1100
g60
(dp1101
g80
g81
ssg69
g1095
sg62
(lp1102
g355
asbag55
(g76
g57
NtRp1103
(dp1104
g60
(dp1105
g87
g88
ssg69
g1095
sg62
(lp1106
S':'
asbag55
(g76
g57
NtRp1107
(dp1108
g60
(dp1109
sg69
g1095
sg62
(lp1110
g55
(g56
g57
NtRp1111
(dp1112
g60
(dp1113
g68
I3
ssg69
g1107
sg62
(lp1114
S''
asbasbasbag55
(g71
g57
NtRp1115
(dp1116
g60
(dp1117
sg69
g1031
sg62
(lp1118
g55
(g76
g57
NtRp1119
(dp1120
g60
(dp1121
g80
g81
ssg69
g1115
sg62
(lp1122
g376
asbag55
(g76
g57
NtRp1123
(dp1124
g60
(dp1125
g87
g88
ssg69
g1115
sg62
(lp1126
S':'
asbag55
(g76
g57
NtRp1127
(dp1128
g60
(dp1129
sg69
g1115
sg62
(lp1130
g55
(g56
g57
NtRp1131
(dp1132
g60
(dp1133
g68
I3
ssg69
g1127
sg62
(lp1134
S''
asbasbasbag55
(g71
g57
NtRp1135
(dp1136
g60
(dp1137
sg69
g1031
sg62
(lp1138
g55
(g76
g57
NtRp1139
(dp1140
g60
(dp1141
g80
g81
ssg69
g1135
sg62
(lp1142
g397
asbag55
(g76
g57
NtRp1143
(dp1144
g60
(dp1145
g87
g88
ssg69
g1135
sg62
(lp1146
S':'
asbag55
(g76
g57
NtRp1147
(dp1148
g60
(dp1149
sg69
g1135
sg62
(lp1150
g55
(g56
g57
NtRp1151
(dp1152
g60
(dp1153
g68
I3
ssg69
g1147
sg62
(lp1154
S''
asbasbasbag55
(g71
g57
NtRp1155
(dp1156
g60
(dp1157
sg69
g1031
sg62
(lp1158
g55
(g76
g57
NtRp1159
(dp1160
g60
(dp1161
g80
g81
ssg69
g1155
sg62
(lp1162
g418
asbag55
(g76
g57
NtRp1163
(dp1164
g60
(dp1165
g87
g88
ssg69
g1155
sg62
(lp1166
S':'
asbag55
(g76
g57
NtRp1167
(dp1168
g60
(dp1169
sg69
g1155
sg62
(lp1170
g55
(g56
g57
NtRp1171
(dp1172
g60
(dp1173
g68
I3
ssg69
g1167
sg62
(lp1174
S''
asbasbasbag55
(g71
g57
NtRp1175
(dp1176
g60
(dp1177
sg69
g1031
sg62
(lp1178
g55
(g76
g57
NtRp1179
(dp1180
g60
(dp1181
g80
g81
ssg69
g1175
sg62
(lp1182
g439
asbag55
(g76
g57
NtRp1183
(dp1184
g60
(dp1185
g87
g88
ssg69
g1175
sg62
(lp1186
S':'
asbag55
(g76
g57
NtRp1187
(dp1188
g60
(dp1189
sg69
g1175
sg62
(lp1190
g55
(g56
g57
NtRp1191
(dp1192
g60
(dp1193
g68
I3
ssg69
g1187
sg62
(lp1194
S''
asbasbasbasbasbasbasbag55
(g71
g57
NtRp1195
(dp1196
g60
(dp1197
sg69
g254
sg62
(lp1198
g55
(g76
g57
NtRp1199
(dp1200
g60
(dp1201
g80
g81
ssg69
g1195
sg62
(lp1202
S'model'
p1203
asbag55
(g76
g57
NtRp1204
(dp1205
g60
(dp1206
g87
g88
ssg69
g1195
sg62
(lp1207
S':'
asbag55
(g76
g57
NtRp1208
(dp1209
g60
(dp1210
sg69
g1195
sg62
(lp1211
g55
(g56
g57
NtRp1212
(dp1213
g60
(dp1214
g68
I4
ssg69
g1208
sg62
(lp1215
S'MX'
p1216
ag55
(g64
g57
NtRp1217
(dp1218
g60
(dp1219
g68
I3
ssg69
Nsg62
(lp1220
g55
(g71
g57
NtRp1221
(dp1222
g60
(dp1223
sg69
g1217
sg62
(lp1224
g55
(g76
g57
NtRp1225
(dp1226
g60
(dp1227
g80
g81
ssg69
g1221
sg62
(lp1228
g292
asbag55
(g76
g57
NtRp1229
(dp1230
g60
(dp1231
g87
g88
ssg69
g1221
sg62
(lp1232
S':'
asbag55
(g76
g57
NtRp1233
(dp1234
g60
(dp1235
sg69
g1221
sg62
(lp1236
g55
(g56
g57
NtRp1237
(dp1238
g60
(dp1239
g68
I3
ssg69
g1233
sg62
(lp1240
S''
asbasbasbag55
(g71
g57
NtRp1241
(dp1242
g60
(dp1243
sg69
g1217
sg62
(lp1244
g55
(g76
g57
NtRp1245
(dp1246
g60
(dp1247
g80
g81
ssg69
g1241
sg62
(lp1248
g313
asbag55
(g76
g57
NtRp1249
(dp1250
g60
(dp1251
g87
g88
ssg69
g1241
sg62
(lp1252
S':'
asbag55
(g76
g57
NtRp1253
(dp1254
g60
(dp1255
sg69
g1241
sg62
(lp1256
g55
(g56
g57
NtRp1257
(dp1258
g60
(dp1259
g68
I3
ssg69
g1253
sg62
(lp1260
S''
asbasbasbag55
(g71
g57
NtRp1261
(dp1262
g60
(dp1263
sg69
g1217
sg62
(lp1264
g55
(g76
g57
NtRp1265
(dp1266
g60
(dp1267
g80
g81
ssg69
g1261
sg62
(lp1268
g334
asbag55
(g76
g57
NtRp1269
(dp1270
g60
(dp1271
g87
g88
ssg69
g1261
sg62
(lp1272
S':'
asbag55
(g76
g57
NtRp1273
(dp1274
g60
(dp1275
sg69
g1261
sg62
(lp1276
g55
(g56
g57
NtRp1277
(dp1278
g60
(dp1279
g68
I3
ssg69
g1273
sg62
(lp1280
S''
asbasbasbag55
(g71
g57
NtRp1281
(dp1282
g60
(dp1283
sg69
g1217
sg62
(lp1284
g55
(g76
g57
NtRp1285
(dp1286
g60
(dp1287
g80
g81
ssg69
g1281
sg62
(lp1288
g355
asbag55
(g76
g57
NtRp1289
(dp1290
g60
(dp1291
g87
g88
ssg69
g1281
sg62
(lp1292
S':'
asbag55
(g76
g57
NtRp1293
(dp1294
g60
(dp1295
sg69
g1281
sg62
(lp1296
g55
(g56
g57
NtRp1297
(dp1298
g60
(dp1299
g68
I3
ssg69
g1293
sg62
(lp1300
S''
asbasbasbag55
(g71
g57
NtRp1301
(dp1302
g60
(dp1303
sg69
g1217
sg62
(lp1304
g55
(g76
g57
NtRp1305
(dp1306
g60
(dp1307
g80
g81
ssg69
g1301
sg62
(lp1308
g376
asbag55
(g76
g57
NtRp1309
(dp1310
g60
(dp1311
g87
g88
ssg69
g1301
sg62
(lp1312
S':'
asbag55
(g76
g57
NtRp1313
(dp1314
g60
(dp1315
sg69
g1301
sg62
(lp1316
g55
(g56
g57
NtRp1317
(dp1318
g60
(dp1319
g68
I3
ssg69
g1313
sg62
(lp1320
S''
asbasbasbag55
(g71
g57
NtRp1321
(dp1322
g60
(dp1323
sg69
g1217
sg62
(lp1324
g55
(g76
g57
NtRp1325
(dp1326
g60
(dp1327
g80
g81
ssg69
g1321
sg62
(lp1328
g397
asbag55
(g76
g57
NtRp1329
(dp1330
g60
(dp1331
g87
g88
ssg69
g1321
sg62
(lp1332
S':'
asbag55
(g76
g57
NtRp1333
(dp1334
g60
(dp1335
sg69
g1321
sg62
(lp1336
g55
(g56
g57
NtRp1337
(dp1338
g60
(dp1339
g68
I3
ssg69
g1333
sg62
(lp1340
S''
asbasbasbag55
(g71
g57
NtRp1341
(dp1342
g60
(dp1343
sg69
g1217
sg62
(lp1344
g55
(g76
g57
NtRp1345
(dp1346
g60
(dp1347
g80
g81
ssg69
g1341
sg62
(lp1348
g418
asbag55
(g76
g57
NtRp1349
(dp1350
g60
(dp1351
g87
g88
ssg69
g1341
sg62
(lp1352
S':'
asbag55
(g76
g57
NtRp1353
(dp1354
g60
(dp1355
sg69
g1341
sg62
(lp1356
g55
(g56
g57
NtRp1357
(dp1358
g60
(dp1359
g68
I3
ssg69
g1353
sg62
(lp1360
S''
asbasbasbag55
(g71
g57
NtRp1361
(dp1362
g60
(dp1363
sg69
g1217
sg62
(lp1364
g55
(g76
g57
NtRp1365
(dp1366
g60
(dp1367
g80
g81
ssg69
g1361
sg62
(lp1368
g439
asbag55
(g76
g57
NtRp1369
(dp1370
g60
(dp1371
g87
g88
ssg69
g1361
sg62
(lp1372
S':'
asbag55
(g76
g57
NtRp1373
(dp1374
g60
(dp1375
sg69
g1361
sg62
(lp1376
g55
(g56
g57
NtRp1377
(dp1378
g60
(dp1379
g68
I3
ssg69
g1373
sg62
(lp1380
S''
asbasbasbasbasbasbasbag55
(g71
g57
NtRp1381
(dp1382
g60
(dp1383
sg69
g254
sg62
(lp1384
g55
(g76
g57
NtRp1385
(dp1386
g60
(dp1387
g80
g81
ssg69
g1381
sg62
(lp1388
S'nr'
p1389
asbag55
(g76
g57
NtRp1390
(dp1391
g60
(dp1392
g87
g88
ssg69
g1381
sg62
(lp1393
S':'
asbag55
(g76
g57
NtRp1394
(dp1395
g60
(dp1396
sg69
g1381
sg62
(lp1397
g55
(g56
g57
NtRp1398
(dp1399
g60
(dp1400
g68
I4
ssg69
g1394
sg62
(lp1401
S'1'
ag55
(g64
g57
NtRp1402
(dp1403
g60
(dp1404
g68
I3
ssg69
Nsg62
(lp1405
g55
(g71
g57
NtRp1406
(dp1407
g60
(dp1408
sg69
g1402
sg62
(lp1409
g55
(g76
g57
NtRp1410
(dp1411
g60
(dp1412
g80
g81
ssg69
g1406
sg62
(lp1413
g292
asbag55
(g76
g57
NtRp1414
(dp1415
g60
(dp1416
g87
g88
ssg69
g1406
sg62
(lp1417
S':'
asbag55
(g76
g57
NtRp1418
(dp1419
g60
(dp1420
sg69
g1406
sg62
(lp1421
g55
(g56
g57
NtRp1422
(dp1423
g60
(dp1424
g68
I3
ssg69
g1418
sg62
(lp1425
S''
asbasbasbag55
(g71
g57
NtRp1426
(dp1427
g60
(dp1428
sg69
g1402
sg62
(lp1429
g55
(g76
g57
NtRp1430
(dp1431
g60
(dp1432
g80
g81
ssg69
g1426
sg62
(lp1433
g313
asbag55
(g76
g57
NtRp1434
(dp1435
g60
(dp1436
g87
g88
ssg69
g1426
sg62
(lp1437
S':'
asbag55
(g76
g57
NtRp1438
(dp1439
g60
(dp1440
sg69
g1426
sg62
(lp1441
g55
(g56
g57
NtRp1442
(dp1443
g60
(dp1444
g68
I3
ssg69
g1438
sg62
(lp1445
S''
asbasbasbag55
(g71
g57
NtRp1446
(dp1447
g60
(dp1448
sg69
g1402
sg62
(lp1449
g55
(g76
g57
NtRp1450
(dp1451
g60
(dp1452
g80
g81
ssg69
g1446
sg62
(lp1453
g334
asbag55
(g76
g57
NtRp1454
(dp1455
g60
(dp1456
g87
g88
ssg69
g1446
sg62
(lp1457
S':'
asbag55
(g76
g57
NtRp1458
(dp1459
g60
(dp1460
sg69
g1446
sg62
(lp1461
g55
(g56
g57
NtRp1462
(dp1463
g60
(dp1464
g68
I3
ssg69
g1458
sg62
(lp1465
S''
asbasbasbag55
(g71
g57
NtRp1466
(dp1467
g60
(dp1468
sg69
g1402
sg62
(lp1469
g55
(g76
g57
NtRp1470
(dp1471
g60
(dp1472
g80
g81
ssg69
g1466
sg62
(lp1473
g355
asbag55
(g76
g57
NtRp1474
(dp1475
g60
(dp1476
g87
g88
ssg69
g1466
sg62
(lp1477
S':'
asbag55
(g76
g57
NtRp1478
(dp1479
g60
(dp1480
sg69
g1466
sg62
(lp1481
g55
(g56
g57
NtRp1482
(dp1483
g60
(dp1484
g68
I3
ssg69
g1478
sg62
(lp1485
S''
asbasbasbag55
(g71
g57
NtRp1486
(dp1487
g60
(dp1488
sg69
g1402
sg62
(lp1489
g55
(g76
g57
NtRp1490
(dp1491
g60
(dp1492
g80
g81
ssg69
g1486
sg62
(lp1493
g376
asbag55
(g76
g57
NtRp1494
(dp1495
g60
(dp1496
g87
g88
ssg69
g1486
sg62
(lp1497
S':'
asbag55
(g76
g57
NtRp1498
(dp1499
g60
(dp1500
sg69
g1486
sg62
(lp1501
g55
(g56
g57
NtRp1502
(dp1503
g60
(dp1504
g68
I3
ssg69
g1498
sg62
(lp1505
S''
asbasbasbag55
(g71
g57
NtRp1506
(dp1507
g60
(dp1508
sg69
g1402
sg62
(lp1509
g55
(g76
g57
NtRp1510
(dp1511
g60
(dp1512
g80
g81
ssg69
g1506
sg62
(lp1513
g397
asbag55
(g76
g57
NtRp1514
(dp1515
g60
(dp1516
g87
g88
ssg69
g1506
sg62
(lp1517
S':'
asbag55
(g76
g57
NtRp1518
(dp1519
g60
(dp1520
sg69
g1506
sg62
(lp1521
g55
(g56
g57
NtRp1522
(dp1523
g60
(dp1524
g68
I3
ssg69
g1518
sg62
(lp1525
S''
asbasbasbag55
(g71
g57
NtRp1526
(dp1527
g60
(dp1528
sg69
g1402
sg62
(lp1529
g55
(g76
g57
NtRp1530
(dp1531
g60
(dp1532
g80
g81
ssg69
g1526
sg62
(lp1533
g418
asbag55
(g76
g57
NtRp1534
(dp1535
g60
(dp1536
g87
g88
ssg69
g1526
sg62
(lp1537
S':'
asbag55
(g76
g57
NtRp1538
(dp1539
g60
(dp1540
sg69
g1526
sg62
(lp1541
g55
(g56
g57
NtRp1542
(dp1543
g60
(dp1544
g68
I3
ssg69
g1538
sg62
(lp1545
S''
asbasbasbag55
(g71
g57
NtRp1546
(dp1547
g60
(dp1548
sg69
g1402
sg62
(lp1549
g55
(g76
g57
NtRp1550
(dp1551
g60
(dp1552
g80
g81
ssg69
g1546
sg62
(lp1553
g439
asbag55
(g76
g57
NtRp1554
(dp1555
g60
(dp1556
g87
g88
ssg69
g1546
sg62
(lp1557
S':'
asbag55
(g76
g57
NtRp1558
(dp1559
g60
(dp1560
sg69
g1546
sg62
(lp1561
g55
(g56
g57
NtRp1562
(dp1563
g60
(dp1564
g68
I3
ssg69
g1558
sg62
(lp1565
S''
asbasbasbasbasbasbasbag55
(g71
g57
NtRp1566
(dp1567
g60
(dp1568
sg69
g254
sg62
(lp1569
g55
(g76
g57
NtRp1570
(dp1571
g60
(dp1572
g80
g81
ssg69
g1566
sg62
(lp1573
S'session_id_admin'
p1574
asbag55
(g76
g57
NtRp1575
(dp1576
g60
(dp1577
g87
g88
ssg69
g1566
sg62
(lp1578
S':'
asbag55
(g76
g57
NtRp1579
(dp1580
g60
(dp1581
sg69
g1566
sg62
(lp1582
g55
(g56
g57
NtRp1583
(dp1584
g60
(dp1585
g68
I4
ssg69
g1579
sg62
(lp1586
S'127.0.0.1-d10ee534-f8d1-400f-aa2b-66e05550ca0a'
p1587
ag55
(g64
g57
NtRp1588
(dp1589
g60
(dp1590
g68
I3
ssg69
Nsg62
(lp1591
g55
(g71
g57
NtRp1592
(dp1593
g60
(dp1594
sg69
g1588
sg62
(lp1595
g55
(g76
g57
NtRp1596
(dp1597
g60
(dp1598
g80
g81
ssg69
g1592
sg62
(lp1599
g292
asbag55
(g76
g57
NtRp1600
(dp1601
g60
(dp1602
g87
g88
ssg69
g1592
sg62
(lp1603
S':'
asbag55
(g76
g57
NtRp1604
(dp1605
g60
(dp1606
sg69
g1592
sg62
(lp1607
g55
(g56
g57
NtRp1608
(dp1609
g60
(dp1610
g68
I3
ssg69
g1604
sg62
(lp1611
S''
asbasbasbag55
(g71
g57
NtRp1612
(dp1613
g60
(dp1614
sg69
g1588
sg62
(lp1615
g55
(g76
g57
NtRp1616
(dp1617
g60
(dp1618
g80
g81
ssg69
g1612
sg62
(lp1619
g313
asbag55
(g76
g57
NtRp1620
(dp1621
g60
(dp1622
g87
g88
ssg69
g1612
sg62
(lp1623
S':'
asbag55
(g76
g57
NtRp1624
(dp1625
g60
(dp1626
sg69
g1612
sg62
(lp1627
g55
(g56
g57
NtRp1628
(dp1629
g60
(dp1630
g68
I3
ssg69
g1624
sg62
(lp1631
S''
asbasbasbag55
(g71
g57
NtRp1632
(dp1633
g60
(dp1634
sg69
g1588
sg62
(lp1635
g55
(g76
g57
NtRp1636
(dp1637
g60
(dp1638
g80
g81
ssg69
g1632
sg62
(lp1639
g334
asbag55
(g76
g57
NtRp1640
(dp1641
g60
(dp1642
g87
g88
ssg69
g1632
sg62
(lp1643
S':'
asbag55
(g76
g57
NtRp1644
(dp1645
g60
(dp1646
sg69
g1632
sg62
(lp1647
g55
(g56
g57
NtRp1648
(dp1649
g60
(dp1650
g68
I3
ssg69
g1644
sg62
(lp1651
S''
asbasbasbag55
(g71
g57
NtRp1652
(dp1653
g60
(dp1654
sg69
g1588
sg62
(lp1655
g55
(g76
g57
NtRp1656
(dp1657
g60
(dp1658
g80
g81
ssg69
g1652
sg62
(lp1659
g355
asbag55
(g76
g57
NtRp1660
(dp1661
g60
(dp1662
g87
g88
ssg69
g1652
sg62
(lp1663
S':'
asbag55
(g76
g57
NtRp1664
(dp1665
g60
(dp1666
sg69
g1652
sg62
(lp1667
g55
(g56
g57
NtRp1668
(dp1669
g60
(dp1670
g68
I3
ssg69
g1664
sg62
(lp1671
S''
asbasbasbag55
(g71
g57
NtRp1672
(dp1673
g60
(dp1674
sg69
g1588
sg62
(lp1675
g55
(g76
g57
NtRp1676
(dp1677
g60
(dp1678
g80
g81
ssg69
g1672
sg62
(lp1679
g376
asbag55
(g76
g57
NtRp1680
(dp1681
g60
(dp1682
g87
g88
ssg69
g1672
sg62
(lp1683
S':'
asbag55
(g76
g57
NtRp1684
(dp1685
g60
(dp1686
sg69
g1672
sg62
(lp1687
g55
(g56
g57
NtRp1688
(dp1689
g60
(dp1690
g68
I3
ssg69
g1684
sg62
(lp1691
S''
asbasbasbag55
(g71
g57
NtRp1692
(dp1693
g60
(dp1694
sg69
g1588
sg62
(lp1695
g55
(g76
g57
NtRp1696
(dp1697
g60
(dp1698
g80
g81
ssg69
g1692
sg62
(lp1699
g397
asbag55
(g76
g57
NtRp1700
(dp1701
g60
(dp1702
g87
g88
ssg69
g1692
sg62
(lp1703
S':'
asbag55
(g76
g57
NtRp1704
(dp1705
g60
(dp1706
sg69
g1692
sg62
(lp1707
g55
(g56
g57
NtRp1708
(dp1709
g60
(dp1710
g68
I3
ssg69
g1704
sg62
(lp1711
S''
asbasbasbag55
(g71
g57
NtRp1712
(dp1713
g60
(dp1714
sg69
g1588
sg62
(lp1715
g55
(g76
g57
NtRp1716
(dp1717
g60
(dp1718
g80
g81
ssg69
g1712
sg62
(lp1719
g418
asbag55
(g76
g57
NtRp1720
(dp1721
g60
(dp1722
g87
g88
ssg69
g1712
sg62
(lp1723
S':'
asbag55
(g76
g57
NtRp1724
(dp1725
g60
(dp1726
sg69
g1712
sg62
(lp1727
g55
(g56
g57
NtRp1728
(dp1729
g60
(dp1730
g68
I3
ssg69
g1724
sg62
(lp1731
S''
asbasbasbag55
(g71
g57
NtRp1732
(dp1733
g60
(dp1734
sg69
g1588
sg62
(lp1735
g55
(g76
g57
NtRp1736
(dp1737
g60
(dp1738
g80
g81
ssg69
g1732
sg62
(lp1739
g439
asbag55
(g76
g57
NtRp1740
(dp1741
g60
(dp1742
g87
g88
ssg69
g1732
sg62
(lp1743
S':'
asbag55
(g76
g57
NtRp1744
(dp1745
g60
(dp1746
sg69
g1732
sg62
(lp1747
g55
(g56
g57
NtRp1748
(dp1749
g60
(dp1750
g68
I3
ssg69
g1744
sg62
(lp1751
S''
asbasbasbasbasbasbasbag55
(g71
g57
NtRp1752
(dp1753
g60
(dp1754
sg69
g254
sg62
(lp1755
g55
(g76
g57
NtRp1756
(dp1757
g60
(dp1758
g80
g81
ssg69
g1752
sg62
(lp1759
S'session_id_projeto'
p1760
asbag55
(g76
g57
NtRp1761
(dp1762
g60
(dp1763
g87
g88
ssg69
g1752
sg62
(lp1764
S':'
asbag55
(g76
g57
NtRp1765
(dp1766
g60
(dp1767
sg69
g1752
sg62
(lp1768
g55
(g56
g57
NtRp1769
(dp1770
g60
(dp1771
g68
I4
ssg69
g1765
sg62
(lp1772
S'127.0.0.1-a8d6ff4e-868b-4aa2-bd9e-521d75a87c41'
p1773
ag55
(g64
g57
NtRp1774
(dp1775
g60
(dp1776
g68
I3
ssg69
Nsg62
(lp1777
g55
(g71
g57
NtRp1778
(dp1779
g60
(dp1780
sg69
g1774
sg62
(lp1781
g55
(g76
g57
NtRp1782
(dp1783
g60
(dp1784
g80
g81
ssg69
g1778
sg62
(lp1785
g292
asbag55
(g76
g57
NtRp1786
(dp1787
g60
(dp1788
g87
g88
ssg69
g1778
sg62
(lp1789
S':'
asbag55
(g76
g57
NtRp1790
(dp1791
g60
(dp1792
sg69
g1778
sg62
(lp1793
g55
(g56
g57
NtRp1794
(dp1795
g60
(dp1796
g68
I3
ssg69
g1790
sg62
(lp1797
S''
asbasbasbag55
(g71
g57
NtRp1798
(dp1799
g60
(dp1800
sg69
g1774
sg62
(lp1801
g55
(g76
g57
NtRp1802
(dp1803
g60
(dp1804
g80
g81
ssg69
g1798
sg62
(lp1805
g313
asbag55
(g76
g57
NtRp1806
(dp1807
g60
(dp1808
g87
g88
ssg69
g1798
sg62
(lp1809
S':'
asbag55
(g76
g57
NtRp1810
(dp1811
g60
(dp1812
sg69
g1798
sg62
(lp1813
g55
(g56
g57
NtRp1814
(dp1815
g60
(dp1816
g68
I3
ssg69
g1810
sg62
(lp1817
S''
asbasbasbag55
(g71
g57
NtRp1818
(dp1819
g60
(dp1820
sg69
g1774
sg62
(lp1821
g55
(g76
g57
NtRp1822
(dp1823
g60
(dp1824
g80
g81
ssg69
g1818
sg62
(lp1825
g334
asbag55
(g76
g57
NtRp1826
(dp1827
g60
(dp1828
g87
g88
ssg69
g1818
sg62
(lp1829
S':'
asbag55
(g76
g57
NtRp1830
(dp1831
g60
(dp1832
sg69
g1818
sg62
(lp1833
g55
(g56
g57
NtRp1834
(dp1835
g60
(dp1836
g68
I3
ssg69
g1830
sg62
(lp1837
S''
asbasbasbag55
(g71
g57
NtRp1838
(dp1839
g60
(dp1840
sg69
g1774
sg62
(lp1841
g55
(g76
g57
NtRp1842
(dp1843
g60
(dp1844
g80
g81
ssg69
g1838
sg62
(lp1845
g355
asbag55
(g76
g57
NtRp1846
(dp1847
g60
(dp1848
g87
g88
ssg69
g1838
sg62
(lp1849
S':'
asbag55
(g76
g57
NtRp1850
(dp1851
g60
(dp1852
sg69
g1838
sg62
(lp1853
g55
(g56
g57
NtRp1854
(dp1855
g60
(dp1856
g68
I3
ssg69
g1850
sg62
(lp1857
S''
asbasbasbag55
(g71
g57
NtRp1858
(dp1859
g60
(dp1860
sg69
g1774
sg62
(lp1861
g55
(g76
g57
NtRp1862
(dp1863
g60
(dp1864
g80
g81
ssg69
g1858
sg62
(lp1865
g376
asbag55
(g76
g57
NtRp1866
(dp1867
g60
(dp1868
g87
g88
ssg69
g1858
sg62
(lp1869
S':'
asbag55
(g76
g57
NtRp1870
(dp1871
g60
(dp1872
sg69
g1858
sg62
(lp1873
g55
(g56
g57
NtRp1874
(dp1875
g60
(dp1876
g68
I3
ssg69
g1870
sg62
(lp1877
S''
asbasbasbag55
(g71
g57
NtRp1878
(dp1879
g60
(dp1880
sg69
g1774
sg62
(lp1881
g55
(g76
g57
NtRp1882
(dp1883
g60
(dp1884
g80
g81
ssg69
g1878
sg62
(lp1885
g397
asbag55
(g76
g57
NtRp1886
(dp1887
g60
(dp1888
g87
g88
ssg69
g1878
sg62
(lp1889
S':'
asbag55
(g76
g57
NtRp1890
(dp1891
g60
(dp1892
sg69
g1878
sg62
(lp1893
g55
(g56
g57
NtRp1894
(dp1895
g60
(dp1896
g68
I3
ssg69
g1890
sg62
(lp1897
S''
asbasbasbag55
(g71
g57
NtRp1898
(dp1899
g60
(dp1900
sg69
g1774
sg62
(lp1901
g55
(g76
g57
NtRp1902
(dp1903
g60
(dp1904
g80
g81
ssg69
g1898
sg62
(lp1905
g418
asbag55
(g76
g57
NtRp1906
(dp1907
g60
(dp1908
g87
g88
ssg69
g1898
sg62
(lp1909
S':'
asbag55
(g76
g57
NtRp1910
(dp1911
g60
(dp1912
sg69
g1898
sg62
(lp1913
g55
(g56
g57
NtRp1914
(dp1915
g60
(dp1916
g68
I3
ssg69
g1910
sg62
(lp1917
S''
asbasbasbag55
(g71
g57
NtRp1918
(dp1919
g60
(dp1920
sg69
g1774
sg62
(lp1921
g55
(g76
g57
NtRp1922
(dp1923
g60
(dp1924
g80
g81
ssg69
g1918
sg62
(lp1925
g439
asbag55
(g76
g57
NtRp1926
(dp1927
g60
(dp1928
g87
g88
ssg69
g1918
sg62
(lp1929
S':'
asbag55
(g76
g57
NtRp1930
(dp1931
g60
(dp1932
sg69
g1918
sg62
(lp1933
g55
(g56
g57
NtRp1934
(dp1935
g60
(dp1936
g68
I3
ssg69
g1930
sg62
(lp1937
S''
asbasbasbasbasbasbasbag55
(g71
g57
NtRp1938
(dp1939
g60
(dp1940
sg69
g254
sg62
(lp1941
g55
(g76
g57
NtRp1942
(dp1943
g60
(dp1944
g80
g81
ssg69
g1938
sg62
(lp1945
S'types'
p1946
asbag55
(g76
g57
NtRp1947
(dp1948
g60
(dp1949
g87
g88
ssg69
g1938
sg62
(lp1950
S':'
asbag55
(g76
g57
NtRp1951
(dp1952
g60
(dp1953
sg69
g1938
sg62
(lp1954
g55
(g56
g57
NtRp1955
(dp1956
g60
(dp1957
g68
I4
ssg69
g1951
sg62
(lp1958
S'Rev%201.0.1%20MX60-32S%20%20Kernel%201.0.11%20%28F%29'
p1959
ag55
(g64
g57
NtRp1960
(dp1961
g60
(dp1962
g68
I3
ssg69
Nsg62
(lp1963
g55
(g71
g57
NtRp1964
(dp1965
g60
(dp1966
sg69
g1960
sg62
(lp1967
g55
(g76
g57
NtRp1968
(dp1969
g60
(dp1970
g80
g81
ssg69
g1964
sg62
(lp1971
g292
asbag55
(g76
g57
NtRp1972
(dp1973
g60
(dp1974
g87
g88
ssg69
g1964
sg62
(lp1975
S':'
asbag55
(g76
g57
NtRp1976
(dp1977
g60
(dp1978
sg69
g1964
sg62
(lp1979
g55
(g56
g57
NtRp1980
(dp1981
g60
(dp1982
g68
I3
ssg69
g1976
sg62
(lp1983
S''
asbasbasbag55
(g71
g57
NtRp1984
(dp1985
g60
(dp1986
sg69
g1960
sg62
(lp1987
g55
(g76
g57
NtRp1988
(dp1989
g60
(dp1990
g80
g81
ssg69
g1984
sg62
(lp1991
g313
asbag55
(g76
g57
NtRp1992
(dp1993
g60
(dp1994
g87
g88
ssg69
g1984
sg62
(lp1995
S':'
asbag55
(g76
g57
NtRp1996
(dp1997
g60
(dp1998
sg69
g1984
sg62
(lp1999
g55
(g56
g57
NtRp2000
(dp2001
g60
(dp2002
g68
I3
ssg69
g1996
sg62
(lp2003
S''
asbasbasbag55
(g71
g57
NtRp2004
(dp2005
g60
(dp2006
sg69
g1960
sg62
(lp2007
g55
(g76
g57
NtRp2008
(dp2009
g60
(dp2010
g80
g81
ssg69
g2004
sg62
(lp2011
g334
asbag55
(g76
g57
NtRp2012
(dp2013
g60
(dp2014
g87
g88
ssg69
g2004
sg62
(lp2015
S':'
asbag55
(g76
g57
NtRp2016
(dp2017
g60
(dp2018
sg69
g2004
sg62
(lp2019
g55
(g56
g57
NtRp2020
(dp2021
g60
(dp2022
g68
I3
ssg69
g2016
sg62
(lp2023
S''
asbasbasbag55
(g71
g57
NtRp2024
(dp2025
g60
(dp2026
sg69
g1960
sg62
(lp2027
g55
(g76
g57
NtRp2028
(dp2029
g60
(dp2030
g80
g81
ssg69
g2024
sg62
(lp2031
g355
asbag55
(g76
g57
NtRp2032
(dp2033
g60
(dp2034
g87
g88
ssg69
g2024
sg62
(lp2035
S':'
asbag55
(g76
g57
NtRp2036
(dp2037
g60
(dp2038
sg69
g2024
sg62
(lp2039
g55
(g56
g57
NtRp2040
(dp2041
g60
(dp2042
g68
I3
ssg69
g2036
sg62
(lp2043
S''
asbasbasbag55
(g71
g57
NtRp2044
(dp2045
g60
(dp2046
sg69
g1960
sg62
(lp2047
g55
(g76
g57
NtRp2048
(dp2049
g60
(dp2050
g80
g81
ssg69
g2044
sg62
(lp2051
g376
asbag55
(g76
g57
NtRp2052
(dp2053
g60
(dp2054
g87
g88
ssg69
g2044
sg62
(lp2055
S':'
asbag55
(g76
g57
NtRp2056
(dp2057
g60
(dp2058
sg69
g2044
sg62
(lp2059
g55
(g56
g57
NtRp2060
(dp2061
g60
(dp2062
g68
I3
ssg69
g2056
sg62
(lp2063
S''
asbasbasbag55
(g71
g57
NtRp2064
(dp2065
g60
(dp2066
sg69
g1960
sg62
(lp2067
g55
(g76
g57
NtRp2068
(dp2069
g60
(dp2070
g80
g81
ssg69
g2064
sg62
(lp2071
g397
asbag55
(g76
g57
NtRp2072
(dp2073
g60
(dp2074
g87
g88
ssg69
g2064
sg62
(lp2075
S':'
asbag55
(g76
g57
NtRp2076
(dp2077
g60
(dp2078
sg69
g2064
sg62
(lp2079
g55
(g56
g57
NtRp2080
(dp2081
g60
(dp2082
g68
I3
ssg69
g2076
sg62
(lp2083
S''
asbasbasbag55
(g71
g57
NtRp2084
(dp2085
g60
(dp2086
sg69
g1960
sg62
(lp2087
g55
(g76
g57
NtRp2088
(dp2089
g60
(dp2090
g80
g81
ssg69
g2084
sg62
(lp2091
g418
asbag55
(g76
g57
NtRp2092
(dp2093
g60
(dp2094
g87
g88
ssg69
g2084
sg62
(lp2095
S':'
asbag55
(g76
g57
NtRp2096
(dp2097
g60
(dp2098
sg69
g2084
sg62
(lp2099
g55
(g56
g57
NtRp2100
(dp2101
g60
(dp2102
g68
I3
ssg69
g2096
sg62
(lp2103
S''
asbasbasbag55
(g71
g57
NtRp2104
(dp2105
g60
(dp2106
sg69
g1960
sg62
(lp2107
g55
(g76
g57
NtRp2108
(dp2109
g60
(dp2110
g80
g81
ssg69
g2104
sg62
(lp2111
g439
asbag55
(g76
g57
NtRp2112
(dp2113
g60
(dp2114
g87
g88
ssg69
g2104
sg62
(lp2115
S':'
asbag55
(g76
g57
NtRp2116
(dp2117
g60
(dp2118
sg69
g2104
sg62
(lp2119
g55
(g56
g57
NtRp2120
(dp2121
g60
(dp2122
g68
I3
ssg69
g2116
sg62
(lp2123
S''
asbasbasbasbasbasbasbasbasbasbasbag55
(g71
g57
NtRp2124
(dp2125
g60
(dp2126
sg69
g65
sg62
(lp2127
g55
(g76
g57
NtRp2128
(dp2129
g60
(dp2130
g80
g81
ssg69
g2124
sg62
(lp2131
S'env'
p2132
asbag55
(g76
g57
NtRp2133
(dp2134
g60
(dp2135
g87
g88
ssg69
g2124
sg62
(lp2136
S':'
asbag55
(g76
g57
NtRp2137
(dp2138
g60
(dp2139
sg69
g2124
sg62
(lp2140
g55
(g56
g57
NtRp2141
(dp2142
g60
(dp2143
g68
I5
ssg69
g2137
sg62
(lp2144
g55
(g64
g57
NtRp2145
(dp2146
g60
(dp2147
g68
I4
ssg69
Nsg62
(lp2148
g55
(g71
g57
NtRp2149
(dp2150
g60
(dp2151
sg69
g2145
sg62
(lp2152
g55
(g76
g57
NtRp2153
(dp2154
g60
(dp2155
g80
g81
ssg69
g2149
sg62
(lp2156
S'app_folders'
p2157
asbag55
(g76
g57
NtRp2158
(dp2159
g60
(dp2160
g87
g88
ssg69
g2149
sg62
(lp2161
S':'
asbag55
(g76
g57
NtRp2162
(dp2163
g60
(dp2164
sg69
g2149
sg62
(lp2165
g55
(g56
g57
NtRp2166
(dp2167
g60
(dp2168
g68
I4
ssg69
g2162
sg62
(lp2169
S"set(['/var/www/web2py_curso/applications/home/', '/var/www/web2py_curso/applications/admin/', '/var/www/web2py_curso/applications/projeto/'])"
p2170
asbasbasbag55
(g71
g57
NtRp2171
(dp2172
g60
(dp2173
sg69
g2145
sg62
(lp2174
g55
(g76
g57
NtRp2175
(dp2176
g60
(dp2177
g80
g81
ssg69
g2171
sg62
(lp2178
S'applications_parent'
p2179
asbag55
(g76
g57
NtRp2180
(dp2181
g60
(dp2182
g87
g88
ssg69
g2171
sg62
(lp2183
S':'
asbag55
(g76
g57
NtRp2184
(dp2185
g60
(dp2186
sg69
g2171
sg62
(lp2187
g55
(g56
g57
NtRp2188
(dp2189
g60
(dp2190
g68
I4
ssg69
g2184
sg62
(lp2191
S'/var/www/web2py_curso'
p2192
asbasbasbag55
(g71
g57
NtRp2193
(dp2194
g60
(dp2195
sg69
g2145
sg62
(lp2196
g55
(g76
g57
NtRp2197
(dp2198
g60
(dp2199
g80
g81
ssg69
g2193
sg62
(lp2200
S'cmd_args'
p2201
asbag55
(g76
g57
NtRp2202
(dp2203
g60
(dp2204
g87
g88
ssg69
g2193
sg62
(lp2205
S':'
asbag55
(g76
g57
NtRp2206
(dp2207
g60
(dp2208
sg69
g2193
sg62
(lp2209
g55
(g56
g57
NtRp2210
(dp2211
g60
(dp2212
g68
I4
ssg69
g2206
sg62
(lp2213
g55
(g64
g57
NtRp2214
(dp2215
g60
(dp2216
g68
I3
ssg69
Nsg62
(lp2217
sbasbasbasbag55
(g71
g57
NtRp2218
(dp2219
g60
(dp2220
sg69
g2145
sg62
(lp2221
g55
(g76
g57
NtRp2222
(dp2223
g60
(dp2224
g80
g81
ssg69
g2218
sg62
(lp2225
S'cmd_options'
p2226
asbag55
(g76
g57
NtRp2227
(dp2228
g60
(dp2229
g87
g88
ssg69
g2218
sg62
(lp2230
S':'
asbag55
(g76
g57
NtRp2231
(dp2232
g60
(dp2233
sg69
g2218
sg62
(lp2234
g55
(g56
g57
NtRp2235
(dp2236
g60
(dp2237
g68
I4
ssg69
g2231
sg62
(lp2238
S"<Values at 0x188e488: {'verbose': False, 'ip': '127.0.0.1', 'with_scheduler': False, 'ips': [], 'shutdown_timeout': 5, 'taskbar': False, 'port': 8000, 'maxthreads': None, 'softcron': False, 'server_name': 'fernado-desktop', 'bpython': False, 'nogui': False, 'pid_filename': 'httpserver.pid', 'extcron': False, 'runcron': False, 'run_system_tests': False, 'test': None, 'folder': '/var/www/web2py_curso', 'config': '', 'minthreads': None, 'winservice': '', 'shell': None, 'run': '', 'log_filename': 'httpserver.log', 'debuglevel': 30, 'args': [''], 'socket_timeout': 5, 'ssl_ca_certificate': None, 'scheduler': None, 'profiler_filename': None, 'ssl_private_key': '', 'scheduler_groups': None, 'password': '123456', 'request_queue_size': 5, 'ssl_certificate': '', 'cronjob': False, 'numthreads': None, 'quiet': False, 'interfaces': None, 'import_models': False, 'timeout': 10, 'plain': False, 'nobanner': False}>"
p2239
asbasbasbag55
(g71
g57
NtRp2240
(dp2241
g60
(dp2242
sg69
g2145
sg62
(lp2243
g55
(g76
g57
NtRp2244
(dp2245
g60
(dp2246
g80
g81
ssg69
g2240
sg62
(lp2247
S'db_sessions'
p2248
asbag55
(g76
g57
NtRp2249
(dp2250
g60
(dp2251
g87
g88
ssg69
g2240
sg62
(lp2252
S':'
asbag55
(g76
g57
NtRp2253
(dp2254
g60
(dp2255
sg69
g2240
sg62
(lp2256
g55
(g56
g57
NtRp2257
(dp2258
g60
(dp2259
g68
I4
ssg69
g2253
sg62
(lp2260
S'set([])'
p2261
asbasbasbag55
(g71
g57
NtRp2262
(dp2263
g60
(dp2264
sg69
g2145
sg62
(lp2265
g55
(g76
g57
NtRp2266
(dp2267
g60
(dp2268
g80
g81
ssg69
g2262
sg62
(lp2269
S'debugging'
p2270
asbag55
(g76
g57
NtRp2271
(dp2272
g60
(dp2273
g87
g88
ssg69
g2262
sg62
(lp2274
S':'
asbag55
(g76
g57
NtRp2275
(dp2276
g60
(dp2277
sg69
g2262
sg62
(lp2278
g55
(g56
g57
NtRp2279
(dp2280
g60
(dp2281
g68
I4
ssg69
g2275
sg62
(lp2282
g98
asbasbasbag55
(g71
g57
NtRp2283
(dp2284
g60
(dp2285
sg69
g2145
sg62
(lp2286
g55
(g76
g57
NtRp2287
(dp2288
g60
(dp2289
g80
g81
ssg69
g2283
sg62
(lp2290
S'gluon_parent'
p2291
asbag55
(g76
g57
NtRp2292
(dp2293
g60
(dp2294
g87
g88
ssg69
g2283
sg62
(lp2295
S':'
asbag55
(g76
g57
NtRp2296
(dp2297
g60
(dp2298
sg69
g2283
sg62
(lp2299
g55
(g56
g57
NtRp2300
(dp2301
g60
(dp2302
g68
I4
ssg69
g2296
sg62
(lp2303
S'/var/www/web2py_curso'
p2304
asbasbasbag55
(g71
g57
NtRp2305
(dp2306
g60
(dp2307
sg69
g2145
sg62
(lp2308
g55
(g76
g57
NtRp2309
(dp2310
g60
(dp2311
g80
g81
ssg69
g2305
sg62
(lp2312
S'http_accept'
p2313
asbag55
(g76
g57
NtRp2314
(dp2315
g60
(dp2316
g87
g88
ssg69
g2305
sg62
(lp2317
S':'
asbag55
(g76
g57
NtRp2318
(dp2319
g60
(dp2320
sg69
g2305
sg62
(lp2321
g55
(g56
g57
NtRp2322
(dp2323
g60
(dp2324
g68
I4
ssg69
g2318
sg62
(lp2325
S'text/html,application/xhtml+xml,application/xml;q=0.9,*/*;q=0.8'
p2326
asbasbasbag55
(g71
g57
NtRp2327
(dp2328
g60
(dp2329
sg69
g2145
sg62
(lp2330
g55
(g76
g57
NtRp2331
(dp2332
g60
(dp2333
g80
g81
ssg69
g2327
sg62
(lp2334
S'http_accept_charset'
p2335
asbag55
(g76
g57
NtRp2336
(dp2337
g60
(dp2338
g87
g88
ssg69
g2327
sg62
(lp2339
S':'
asbag55
(g76
g57
NtRp2340
(dp2341
g60
(dp2342
sg69
g2327
sg62
(lp2343
g55
(g56
g57
NtRp2344
(dp2345
g60
(dp2346
g68
I4
ssg69
g2340
sg62
(lp2347
S'ISO-8859-1,utf-8;q=0.7,*;q=0.3'
p2348
asbasbasbag55
(g71
g57
NtRp2349
(dp2350
g60
(dp2351
sg69
g2145
sg62
(lp2352
g55
(g76
g57
NtRp2353
(dp2354
g60
(dp2355
g80
g81
ssg69
g2349
sg62
(lp2356
S'http_accept_encoding'
p2357
asbag55
(g76
g57
NtRp2358
(dp2359
g60
(dp2360
g87
g88
ssg69
g2349
sg62
(lp2361
S':'
asbag55
(g76
g57
NtRp2362
(dp2363
g60
(dp2364
sg69
g2349
sg62
(lp2365
g55
(g56
g57
NtRp2366
(dp2367
g60
(dp2368
g68
I4
ssg69
g2362
sg62
(lp2369
S'gzip,deflate,sdch'
p2370
asbasbasbag55
(g71
g57
NtRp2371
(dp2372
g60
(dp2373
sg69
g2145
sg62
(lp2374
g55
(g76
g57
NtRp2375
(dp2376
g60
(dp2377
g80
g81
ssg69
g2371
sg62
(lp2378
S'http_accept_language'
p2379
asbag55
(g76
g57
NtRp2380
(dp2381
g60
(dp2382
g87
g88
ssg69
g2371
sg62
(lp2383
S':'
asbag55
(g76
g57
NtRp2384
(dp2385
g60
(dp2386
sg69
g2371
sg62
(lp2387
g55
(g56
g57
NtRp2388
(dp2389
g60
(dp2390
g68
I4
ssg69
g2384
sg62
(lp2391
S'pt-BR,pt;q=0.8,en-US;q=0.6,en;q=0.4'
p2392
asbasbasbag55
(g71
g57
NtRp2393
(dp2394
g60
(dp2395
sg69
g2145
sg62
(lp2396
g55
(g76
g57
NtRp2397
(dp2398
g60
(dp2399
g80
g81
ssg69
g2393
sg62
(lp2400
S'http_cache_control'
p2401
asbag55
(g76
g57
NtRp2402
(dp2403
g60
(dp2404
g87
g88
ssg69
g2393
sg62
(lp2405
S':'
asbag55
(g76
g57
NtRp2406
(dp2407
g60
(dp2408
sg69
g2393
sg62
(lp2409
g55
(g56
g57
NtRp2410
(dp2411
g60
(dp2412
g68
I4
ssg69
g2406
sg62
(lp2413
S'max-age=0'
p2414
asbasbasbag55
(g71
g57
NtRp2415
(dp2416
g60
(dp2417
sg69
g2145
sg62
(lp2418
g55
(g76
g57
NtRp2419
(dp2420
g60
(dp2421
g80
g81
ssg69
g2415
sg62
(lp2422
S'http_connection'
p2423
asbag55
(g76
g57
NtRp2424
(dp2425
g60
(dp2426
g87
g88
ssg69
g2415
sg62
(lp2427
S':'
asbag55
(g76
g57
NtRp2428
(dp2429
g60
(dp2430
sg69
g2415
sg62
(lp2431
g55
(g56
g57
NtRp2432
(dp2433
g60
(dp2434
g68
I4
ssg69
g2428
sg62
(lp2435
S'keep-alive'
p2436
asbasbasbag55
(g71
g57
NtRp2437
(dp2438
g60
(dp2439
sg69
g2145
sg62
(lp2440
g55
(g76
g57
NtRp2441
(dp2442
g60
(dp2443
g80
g81
ssg69
g2437
sg62
(lp2444
S'http_cookie'
p2445
asbag55
(g76
g57
NtRp2446
(dp2447
g60
(dp2448
g87
g88
ssg69
g2437
sg62
(lp2449
S':'
asbag55
(g76
g57
NtRp2450
(dp2451
g60
(dp2452
sg69
g2437
sg62
(lp2453
g55
(g56
g57
NtRp2454
(dp2455
g60
(dp2456
g68
I4
ssg69
g2450
sg62
(lp2457
S'hw_type=MX60; hw_version=Rev%201.9.82.316; types=Rev%201.0.1%20MX60-32S%20%20Kernel%201.0.11%20%28F%29; admin=admin; cookie=1649423593; model=MX; nr=1; language=1; session_id_admin=127.0.0.1-d10ee534-f8d1-400f-aa2b-66e05550ca0a; session_id_projeto=127.0.0.1-a8d6ff4e-868b-4aa2-bd9e-521d75a87c41'
p2458
asbasbasbag55
(g71
g57
NtRp2459
(dp2460
g60
(dp2461
sg69
g2145
sg62
(lp2462
g55
(g76
g57
NtRp2463
(dp2464
g60
(dp2465
g80
g81
ssg69
g2459
sg62
(lp2466
S'http_host'
p2467
asbag55
(g76
g57
NtRp2468
(dp2469
g60
(dp2470
g87
g88
ssg69
g2459
sg62
(lp2471
S':'
asbag55
(g76
g57
NtRp2472
(dp2473
g60
(dp2474
sg69
g2459
sg62
(lp2475
g55
(g56
g57
NtRp2476
(dp2477
g60
(dp2478
g68
I4
ssg69
g2472
sg62
(lp2479
S'127.0.0.1:8000'
p2480
asbasbasbag55
(g71
g57
NtRp2481
(dp2482
g60
(dp2483
sg69
g2145
sg62
(lp2484
g55
(g76
g57
NtRp2485
(dp2486
g60
(dp2487
g80
g81
ssg69
g2481
sg62
(lp2488
S'http_referer'
p2489
asbag55
(g76
g57
NtRp2490
(dp2491
g60
(dp2492
g87
g88
ssg69
g2481
sg62
(lp2493
S':'
asbag55
(g76
g57
NtRp2494
(dp2495
g60
(dp2496
sg69
g2481
sg62
(lp2497
g55
(g56
g57
NtRp2498
(dp2499
g60
(dp2500
g68
I4
ssg69
g2494
sg62
(lp2501
S'http://127.0.0.1:8000/user/login?_next=/post/add2'
p2502
asbasbasbag55
(g71
g57
NtRp2503
(dp2504
g60
(dp2505
sg69
g2145
sg62
(lp2506
g55
(g76
g57
NtRp2507
(dp2508
g60
(dp2509
g80
g81
ssg69
g2503
sg62
(lp2510
S'http_user_agent'
p2511
asbag55
(g76
g57
NtRp2512
(dp2513
g60
(dp2514
g87
g88
ssg69
g2503
sg62
(lp2515
S':'
asbag55
(g76
g57
NtRp2516
(dp2517
g60
(dp2518
sg69
g2503
sg62
(lp2519
g55
(g56
g57
NtRp2520
(dp2521
g60
(dp2522
g68
I4
ssg69
g2516
sg62
(lp2523
S'Mozilla/5.0 (X11; Linux x86_64) AppleWebKit/537.4 (KHTML, like Gecko) Ubuntu/12.10 Chromium/22.0.1229.94 Chrome/22.0.1229.94 Safari/537.4'
p2524
asbasbasbag55
(g71
g57
NtRp2525
(dp2526
g60
(dp2527
sg69
g2145
sg62
(lp2528
g55
(g76
g57
NtRp2529
(dp2530
g60
(dp2531
g80
g81
ssg69
g2525
sg62
(lp2532
S'is_jython'
p2533
asbag55
(g76
g57
NtRp2534
(dp2535
g60
(dp2536
g87
g88
ssg69
g2525
sg62
(lp2537
S':'
asbag55
(g76
g57
NtRp2538
(dp2539
g60
(dp2540
sg69
g2525
sg62
(lp2541
g55
(g56
g57
NtRp2542
(dp2543
g60
(dp2544
g68
I4
ssg69
g2538
sg62
(lp2545
g98
asbasbasbag55
(g71
g57
NtRp2546
(dp2547
g60
(dp2548
sg69
g2145
sg62
(lp2549
g55
(g76
g57
NtRp2550
(dp2551
g60
(dp2552
g80
g81
ssg69
g2546
sg62
(lp2553
S'is_pypy'
p2554
asbag55
(g76
g57
NtRp2555
(dp2556
g60
(dp2557
g87
g88
ssg69
g2546
sg62
(lp2558
S':'
asbag55
(g76
g57
NtRp2559
(dp2560
g60
(dp2561
sg69
g2546
sg62
(lp2562
g55
(g56
g57
NtRp2563
(dp2564
g60
(dp2565
g68
I4
ssg69
g2559
sg62
(lp2566
g98
asbasbasbag55
(g71
g57
NtRp2567
(dp2568
g60
(dp2569
sg69
g2145
sg62
(lp2570
g55
(g76
g57
NtRp2571
(dp2572
g60
(dp2573
g80
g81
ssg69
g2567
sg62
(lp2574
S'local_hosts'
p2575
asbag55
(g76
g57
NtRp2576
(dp2577
g60
(dp2578
g87
g88
ssg69
g2567
sg62
(lp2579
S':'
asbag55
(g76
g57
NtRp2580
(dp2581
g60
(dp2582
sg69
g2567
sg62
(lp2583
g55
(g56
g57
NtRp2584
(dp2585
g60
(dp2586
g68
I4
ssg69
g2580
sg62
(lp2587
g55
(g64
g57
NtRp2588
(dp2589
g60
(dp2590
g68
I3
ssg69
Nsg62
(lp2591
g55
(g71
g57
NtRp2592
(dp2593
g60
(dp2594
sg69
g2588
sg62
(lp2595
g55
(g76
g57
NtRp2596
(dp2597
g60
(dp2598
sg69
g2592
sg62
(lp2599
g55
(g56
g57
NtRp2600
(dp2601
g60
(dp2602
g68
I3
ssg69
g2596
sg62
(lp2603
S'127.0.1.1'
p2604
asbasbasbag55
(g71
g57
NtRp2605
(dp2606
g60
(dp2607
sg69
g2588
sg62
(lp2608
g55
(g76
g57
NtRp2609
(dp2610
g60
(dp2611
sg69
g2605
sg62
(lp2612
g55
(g56
g57
NtRp2613
(dp2614
g60
(dp2615
g68
I3
ssg69
g2609
sg62
(lp2616
S'::1'
p2617
asbasbasbag55
(g71
g57
NtRp2618
(dp2619
g60
(dp2620
sg69
g2588
sg62
(lp2621
g55
(g76
g57
NtRp2622
(dp2623
g60
(dp2624
sg69
g2618
sg62
(lp2625
g55
(g56
g57
NtRp2626
(dp2627
g60
(dp2628
g68
I3
ssg69
g2622
sg62
(lp2629
S'fernado-desktop'
p2630
asbasbasbag55
(g71
g57
NtRp2631
(dp2632
g60
(dp2633
sg69
g2588
sg62
(lp2634
g55
(g76
g57
NtRp2635
(dp2636
g60
(dp2637
sg69
g2631
sg62
(lp2638
g55
(g56
g57
NtRp2639
(dp2640
g60
(dp2641
g68
I3
ssg69
g2635
sg62
(lp2642
S'::ffff:127.0.0.1'
p2643
asbasbasbag55
(g71
g57
NtRp2644
(dp2645
g60
(dp2646
sg69
g2588
sg62
(lp2647
g55
(g76
g57
NtRp2648
(dp2649
g60
(dp2650
sg69
g2644
sg62
(lp2651
g55
(g56
g57
NtRp2652
(dp2653
g60
(dp2654
g68
I3
ssg69
g2648
sg62
(lp2655
S'127.0.0.1'
p2656
asbasbasbasbasbasbasbag55
(g71
g57
NtRp2657
(dp2658
g60
(dp2659
sg69
g2145
sg62
(lp2660
g55
(g76
g57
NtRp2661
(dp2662
g60
(dp2663
g80
g81
ssg69
g2657
sg62
(lp2664
S'path_info'
p2665
asbag55
(g76
g57
NtRp2666
(dp2667
g60
(dp2668
g87
g88
ssg69
g2657
sg62
(lp2669
S':'
asbag55
(g76
g57
NtRp2670
(dp2671
g60
(dp2672
sg69
g2657
sg62
(lp2673
g55
(g56
g57
NtRp2674
(dp2675
g60
(dp2676
g68
I4
ssg69
g2670
sg62
(lp2677
S'/post/add2'
p2678
asbasbasbag55
(g71
g57
NtRp2679
(dp2680
g60
(dp2681
sg69
g2145
sg62
(lp2682
g55
(g76
g57
NtRp2683
(dp2684
g60
(dp2685
g80
g81
ssg69
g2679
sg62
(lp2686
S'query_string'
p2687
asbag55
(g76
g57
NtRp2688
(dp2689
g60
(dp2690
g87
g88
ssg69
g2679
sg62
(lp2691
S':'
asbag55
(g76
g57
NtRp2692
(dp2693
g60
(dp2694
sg69
g2679
sg62
(lp2695
g55
(g56
g57
NtRp2696
(dp2697
g60
(dp2698
g68
I4
ssg69
g2692
sg62
(lp2699
S''
asbasbasbag55
(g71
g57
NtRp2700
(dp2701
g60
(dp2702
sg69
g2145
sg62
(lp2703
g55
(g76
g57
NtRp2704
(dp2705
g60
(dp2706
g80
g81
ssg69
g2700
sg62
(lp2707
S'remote_addr'
p2708
asbag55
(g76
g57
NtRp2709
(dp2710
g60
(dp2711
g87
g88
ssg69
g2700
sg62
(lp2712
S':'
asbag55
(g76
g57
NtRp2713
(dp2714
g60
(dp2715
sg69
g2700
sg62
(lp2716
g55
(g56
g57
NtRp2717
(dp2718
g60
(dp2719
g68
I4
ssg69
g2713
sg62
(lp2720
g210
asbasbasbag55
(g71
g57
NtRp2721
(dp2722
g60
(dp2723
sg69
g2145
sg62
(lp2724
g55
(g76
g57
NtRp2725
(dp2726
g60
(dp2727
g80
g81
ssg69
g2721
sg62
(lp2728
S'remote_port'
p2729
asbag55
(g76
g57
NtRp2730
(dp2731
g60
(dp2732
g87
g88
ssg69
g2721
sg62
(lp2733
S':'
asbag55
(g76
g57
NtRp2734
(dp2735
g60
(dp2736
sg69
g2721
sg62
(lp2737
g55
(g56
g57
NtRp2738
(dp2739
g60
(dp2740
g68
I4
ssg69
g2734
sg62
(lp2741
S'36886'
p2742
asbasbasbag55
(g71
g57
NtRp2743
(dp2744
g60
(dp2745
sg69
g2145
sg62
(lp2746
g55
(g76
g57
NtRp2747
(dp2748
g60
(dp2749
g80
g81
ssg69
g2743
sg62
(lp2750
S'request_method'
p2751
asbag55
(g76
g57
NtRp2752
(dp2753
g60
(dp2754
g87
g88
ssg69
g2743
sg62
(lp2755
S':'
asbag55
(g76
g57
NtRp2756
(dp2757
g60
(dp2758
sg69
g2743
sg62
(lp2759
g55
(g56
g57
NtRp2760
(dp2761
g60
(dp2762
g68
I4
ssg69
g2756
sg62
(lp2763
S'GET'
p2764
asbasbasbag55
(g71
g57
NtRp2765
(dp2766
g60
(dp2767
sg69
g2145
sg62
(lp2768
g55
(g76
g57
NtRp2769
(dp2770
g60
(dp2771
g80
g81
ssg69
g2765
sg62
(lp2772
S'request_uri'
p2773
asbag55
(g76
g57
NtRp2774
(dp2775
g60
(dp2776
g87
g88
ssg69
g2765
sg62
(lp2777
S':'
asbag55
(g76
g57
NtRp2778
(dp2779
g60
(dp2780
sg69
g2765
sg62
(lp2781
g55
(g56
g57
NtRp2782
(dp2783
g60
(dp2784
g68
I4
ssg69
g2778
sg62
(lp2785
S'/projeto/post/add2'
p2786
asbasbasbag55
(g71
g57
NtRp2787
(dp2788
g60
(dp2789
sg69
g2145
sg62
(lp2790
g55
(g76
g57
NtRp2791
(dp2792
g60
(dp2793
g80
g81
ssg69
g2787
sg62
(lp2794
S'script_name'
p2795
asbag55
(g76
g57
NtRp2796
(dp2797
g60
(dp2798
g87
g88
ssg69
g2787
sg62
(lp2799
S':'
asbag55
(g76
g57
NtRp2800
(dp2801
g60
(dp2802
sg69
g2787
sg62
(lp2803
g55
(g56
g57
NtRp2804
(dp2805
g60
(dp2806
g68
I4
ssg69
g2800
sg62
(lp2807
S''
asbasbasbag55
(g71
g57
NtRp2808
(dp2809
g60
(dp2810
sg69
g2145
sg62
(lp2811
g55
(g76
g57
NtRp2812
(dp2813
g60
(dp2814
g80
g81
ssg69
g2808
sg62
(lp2815
S'server_name'
p2816
asbag55
(g76
g57
NtRp2817
(dp2818
g60
(dp2819
g87
g88
ssg69
g2808
sg62
(lp2820
S':'
asbag55
(g76
g57
NtRp2821
(dp2822
g60
(dp2823
sg69
g2808
sg62
(lp2824
g55
(g56
g57
NtRp2825
(dp2826
g60
(dp2827
g68
I4
ssg69
g2821
sg62
(lp2828
S'fernado-desktop'
p2829
asbasbasbag55
(g71
g57
NtRp2830
(dp2831
g60
(dp2832
sg69
g2145
sg62
(lp2833
g55
(g76
g57
NtRp2834
(dp2835
g60
(dp2836
g80
g81
ssg69
g2830
sg62
(lp2837
S'server_port'
p2838
asbag55
(g76
g57
NtRp2839
(dp2840
g60
(dp2841
g87
g88
ssg69
g2830
sg62
(lp2842
S':'
asbag55
(g76
g57
NtRp2843
(dp2844
g60
(dp2845
sg69
g2830
sg62
(lp2846
g55
(g56
g57
NtRp2847
(dp2848
g60
(dp2849
g68
I4
ssg69
g2843
sg62
(lp2850
S'8000'
p2851
asbasbasbag55
(g71
g57
NtRp2852
(dp2853
g60
(dp2854
sg69
g2145
sg62
(lp2855
g55
(g76
g57
NtRp2856
(dp2857
g60
(dp2858
g80
g81
ssg69
g2852
sg62
(lp2859
S'server_protocol'
p2860
asbag55
(g76
g57
NtRp2861
(dp2862
g60
(dp2863
g87
g88
ssg69
g2852
sg62
(lp2864
S':'
asbag55
(g76
g57
NtRp2865
(dp2866
g60
(dp2867
sg69
g2852
sg62
(lp2868
g55
(g56
g57
NtRp2869
(dp2870
g60
(dp2871
g68
I4
ssg69
g2865
sg62
(lp2872
S'HTTP/1.1'
p2873
asbasbasbag55
(g71
g57
NtRp2874
(dp2875
g60
(dp2876
sg69
g2145
sg62
(lp2877
g55
(g76
g57
NtRp2878
(dp2879
g60
(dp2880
g80
g81
ssg69
g2874
sg62
(lp2881
S'server_software'
p2882
asbag55
(g76
g57
NtRp2883
(dp2884
g60
(dp2885
g87
g88
ssg69
g2874
sg62
(lp2886
S':'
asbag55
(g76
g57
NtRp2887
(dp2888
g60
(dp2889
sg69
g2874
sg62
(lp2890
g55
(g56
g57
NtRp2891
(dp2892
g60
(dp2893
g68
I4
ssg69
g2887
sg62
(lp2894
S'Rocket 1.2.6'
p2895
asbasbasbag55
(g71
g57
NtRp2896
(dp2897
g60
(dp2898
sg69
g2145
sg62
(lp2899
g55
(g76
g57
NtRp2900
(dp2901
g60
(dp2902
g80
g81
ssg69
g2896
sg62
(lp2903
S'web2py_original_uri'
p2904
asbag55
(g76
g57
NtRp2905
(dp2906
g60
(dp2907
g87
g88
ssg69
g2896
sg62
(lp2908
S':'
asbag55
(g76
g57
NtRp2909
(dp2910
g60
(dp2911
sg69
g2896
sg62
(lp2912
g55
(g56
g57
NtRp2913
(dp2914
g60
(dp2915
g68
I4
ssg69
g2909
sg62
(lp2916
g2678
asbasbasbag55
(g71
g57
NtRp2917
(dp2918
g60
(dp2919
sg69
g2145
sg62
(lp2920
g55
(g76
g57
NtRp2921
(dp2922
g60
(dp2923
g80
g81
ssg69
g2917
sg62
(lp2924
S'web2py_path'
p2925
asbag55
(g76
g57
NtRp2926
(dp2927
g60
(dp2928
g87
g88
ssg69
g2917
sg62
(lp2929
S':'
asbag55
(g76
g57
NtRp2930
(dp2931
g60
(dp2932
sg69
g2917
sg62
(lp2933
g55
(g56
g57
NtRp2934
(dp2935
g60
(dp2936
g68
I4
ssg69
g2930
sg62
(lp2937
g2192
asbasbasbag55
(g71
g57
NtRp2938
(dp2939
g60
(dp2940
sg69
g2145
sg62
(lp2941
g55
(g76
g57
NtRp2942
(dp2943
g60
(dp2944
g80
g81
ssg69
g2938
sg62
(lp2945
S'web2py_version'
p2946
asbag55
(g76
g57
NtRp2947
(dp2948
g60
(dp2949
g87
g88
ssg69
g2938
sg62
(lp2950
S':'
asbag55
(g76
g57
NtRp2951
(dp2952
g60
(dp2953
sg69
g2938
sg62
(lp2954
g55
(g56
g57
NtRp2955
(dp2956
g60
(dp2957
g68
I4
ssg69
g2951
sg62
(lp2958
g55
(g64
g57
NtRp2959
(dp2960
g60
(dp2961
g68
I3
ssg69
Nsg62
(lp2962
g55
(g71
g57
NtRp2963
(dp2964
g60
(dp2965
sg69
g2959
sg62
(lp2966
g55
(g76
g57
NtRp2967
(dp2968
g60
(dp2969
sg69
g2963
sg62
(lp2970
g55
(g56
g57
NtRp2971
(dp2972
g60
(dp2973
g68
I3
ssg69
g2967
sg62
(lp2974
S'2'
asbasbasbag55
(g71
g57
NtRp2975
(dp2976
g60
(dp2977
sg69
g2959
sg62
(lp2978
g55
(g76
g57
NtRp2979
(dp2980
g60
(dp2981
sg69
g2975
sg62
(lp2982
g55
(g56
g57
NtRp2983
(dp2984
g60
(dp2985
g68
I3
ssg69
g2979
sg62
(lp2986
S'3'
asbasbasbag55
(g71
g57
NtRp2987
(dp2988
g60
(dp2989
sg69
g2959
sg62
(lp2990
g55
(g76
g57
NtRp2991
(dp2992
g60
(dp2993
sg69
g2987
sg62
(lp2994
g55
(g56
g57
NtRp2995
(dp2996
g60
(dp2997
g68
I3
ssg69
g2991
sg62
(lp2998
S'2'
asbasbasbag55
(g71
g57
NtRp2999
(dp3000
g60
(dp3001
sg69
g2959
sg62
(lp3002
g55
(g76
g57
NtRp3003
(dp3004
g60
(dp3005
sg69
g2999
sg62
(lp3006
g55
(g56
g57
NtRp3007
(dp3008
g60
(dp3009
g68
I3
ssg69
g3003
sg62
(lp3010
S'datetime.datetime(2012, 12, 17, 15, 3, 30)'
p3011
asbasbasbag55
(g71
g57
NtRp3012
(dp3013
g60
(dp3014
sg69
g2959
sg62
(lp3015
g55
(g76
g57
NtRp3016
(dp3017
g60
(dp3018
sg69
g3012
sg62
(lp3019
g55
(g56
g57
NtRp3020
(dp3021
g60
(dp3022
g68
I3
ssg69
g3016
sg62
(lp3023
S'stable'
p3024
asbasbasbasbasbasbasbag55
(g71
g57
NtRp3025
(dp3026
g60
(dp3027
sg69
g2145
sg62
(lp3028
g55
(g76
g57
NtRp3029
(dp3030
g60
(dp3031
g80
g81
ssg69
g3025
sg62
(lp3032
S'wsgi_errors'
p3033
asbag55
(g76
g57
NtRp3034
(dp3035
g60
(dp3036
g87
g88
ssg69
g3025
sg62
(lp3037
S':'
asbag55
(g76
g57
NtRp3038
(dp3039
g60
(dp3040
sg69
g3025
sg62
(lp3041
g55
(g56
g57
NtRp3042
(dp3043
g60
(dp3044
g68
I4
ssg69
g3038
sg62
(lp3045
S"<open file '<stderr>', mode 'w' at 0x7fca14e47270>"
p3046
asbasbasbag55
(g71
g57
NtRp3047
(dp3048
g60
(dp3049
sg69
g2145
sg62
(lp3050
g55
(g76
g57
NtRp3051
(dp3052
g60
(dp3053
g80
g81
ssg69
g3047
sg62
(lp3054
S'wsgi_file_wrapper'
p3055
asbag55
(g76
g57
NtRp3056
(dp3057
g60
(dp3058
g87
g88
ssg69
g3047
sg62
(lp3059
S':'
asbag55
(g76
g57
NtRp3060
(dp3061
g60
(dp3062
sg69
g3047
sg62
(lp3063
g55
(g56
g57
NtRp3064
(dp3065
g60
(dp3066
g68
I4
ssg69
g3060
sg62
(lp3067
S'<class wsgiref.util.FileWrapper at 0x17e2a10>'
p3068
asbasbasbag55
(g71
g57
NtRp3069
(dp3070
g60
(dp3071
sg69
g2145
sg62
(lp3072
g55
(g76
g57
NtRp3073
(dp3074
g60
(dp3075
g80
g81
ssg69
g3069
sg62
(lp3076
S'wsgi_input'
p3077
asbag55
(g76
g57
NtRp3078
(dp3079
g60
(dp3080
g87
g88
ssg69
g3069
sg62
(lp3081
S':'
asbag55
(g76
g57
NtRp3082
(dp3083
g60
(dp3084
sg69
g3069
sg62
(lp3085
g55
(g56
g57
NtRp3086
(dp3087
g60
(dp3088
g68
I4
ssg69
g3082
sg62
(lp3089
S'<socket._fileobject object at 0x7fc9e45a36d0>'
p3090
asbasbasbag55
(g71
g57
NtRp3091
(dp3092
g60
(dp3093
sg69
g2145
sg62
(lp3094
g55
(g76
g57
NtRp3095
(dp3096
g60
(dp3097
g80
g81
ssg69
g3091
sg62
(lp3098
S'wsgi_multiprocess'
p3099
asbag55
(g76
g57
NtRp3100
(dp3101
g60
(dp3102
g87
g88
ssg69
g3091
sg62
(lp3103
S':'
asbag55
(g76
g57
NtRp3104
(dp3105
g60
(dp3106
sg69
g3091
sg62
(lp3107
g55
(g56
g57
NtRp3108
(dp3109
g60
(dp3110
g68
I4
ssg69
g3104
sg62
(lp3111
g98
asbasbasbag55
(g71
g57
NtRp3112
(dp3113
g60
(dp3114
sg69
g2145
sg62
(lp3115
g55
(g76
g57
NtRp3116
(dp3117
g60
(dp3118
g80
g81
ssg69
g3112
sg62
(lp3119
S'wsgi_multithread'
p3120
asbag55
(g76
g57
NtRp3121
(dp3122
g60
(dp3123
g87
g88
ssg69
g3112
sg62
(lp3124
S':'
asbag55
(g76
g57
NtRp3125
(dp3126
g60
(dp3127
sg69
g3112
sg62
(lp3128
g55
(g56
g57
NtRp3129
(dp3130
g60
(dp3131
g68
I4
ssg69
g3125
sg62
(lp3132
S'True'
p3133
asbasbasbag55
(g71
g57
NtRp3134
(dp3135
g60
(dp3136
sg69
g2145
sg62
(lp3137
g55
(g76
g57
NtRp3138
(dp3139
g60
(dp3140
g80
g81
ssg69
g3134
sg62
(lp3141
S'wsgi_run_once'
p3142
asbag55
(g76
g57
NtRp3143
(dp3144
g60
(dp3145
g87
g88
ssg69
g3134
sg62
(lp3146
S':'
asbag55
(g76
g57
NtRp3147
(dp3148
g60
(dp3149
sg69
g3134
sg62
(lp3150
g55
(g56
g57
NtRp3151
(dp3152
g60
(dp3153
g68
I4
ssg69
g3147
sg62
(lp3154
g98
asbasbasbag55
(g71
g57
NtRp3155
(dp3156
g60
(dp3157
sg69
g2145
sg62
(lp3158
g55
(g76
g57
NtRp3159
(dp3160
g60
(dp3161
g80
g81
ssg69
g3155
sg62
(lp3162
S'wsgi_url_scheme'
p3163
asbag55
(g76
g57
NtRp3164
(dp3165
g60
(dp3166
g87
g88
ssg69
g3155
sg62
(lp3167
S':'
asbag55
(g76
g57
NtRp3168
(dp3169
g60
(dp3170
sg69
g3155
sg62
(lp3171
g55
(g56
g57
NtRp3172
(dp3173
g60
(dp3174
g68
I4
ssg69
g3168
sg62
(lp3175
S'http'
p3176
asbasbasbag55
(g71
g57
NtRp3177
(dp3178
g60
(dp3179
sg69
g2145
sg62
(lp3180
g55
(g76
g57
NtRp3181
(dp3182
g60
(dp3183
g80
g81
ssg69
g3177
sg62
(lp3184
S'wsgi_version'
p3185
asbag55
(g76
g57
NtRp3186
(dp3187
g60
(dp3188
g87
g88
ssg69
g3177
sg62
(lp3189
S':'
asbag55
(g76
g57
NtRp3190
(dp3191
g60
(dp3192
sg69
g3177
sg62
(lp3193
g55
(g56
g57
NtRp3194
(dp3195
g60
(dp3196
g68
I4
ssg69
g3190
sg62
(lp3197
g55
(g64
g57
NtRp3198
(dp3199
g60
(dp3200
g68
I3
ssg69
Nsg62
(lp3201
g55
(g71
g57
NtRp3202
(dp3203
g60
(dp3204
sg69
g3198
sg62
(lp3205
g55
(g76
g57
NtRp3206
(dp3207
g60
(dp3208
sg69
g3202
sg62
(lp3209
g55
(g56
g57
NtRp3210
(dp3211
g60
(dp3212
g68
I3
ssg69
g3206
sg62
(lp3213
S'1'
asbasbasbag55
(g71
g57
NtRp3214
(dp3215
g60
(dp3216
sg69
g3198
sg62
(lp3217
g55
(g76
g57
NtRp3218
(dp3219
g60
(dp3220
sg69
g3214
sg62
(lp3221
g55
(g56
g57
NtRp3222
(dp3223
g60
(dp3224
g68
I3
ssg69
g3218
sg62
(lp3225
S'0'
asbasbasbasbasbasbasbasbasbasbasbag55
(g71
g57
NtRp3226
(dp3227
g60
(dp3228
sg69
g65
sg62
(lp3229
g55
(g76
g57
NtRp3230
(dp3231
g60
(dp3232
g80
g81
ssg69
g3226
sg62
(lp3233
S'extension'
p3234
asbag55
(g76
g57
NtRp3235
(dp3236
g60
(dp3237
g87
g88
ssg69
g3226
sg62
(lp3238
S':'
asbag55
(g76
g57
NtRp3239
(dp3240
g60
(dp3241
sg69
g3226
sg62
(lp3242
g55
(g56
g57
NtRp3243
(dp3244
g60
(dp3245
g68
I5
ssg69
g3239
sg62
(lp3246
S'html'
p3247
asbasbasbag55
(g71
g57
NtRp3248
(dp3249
g60
(dp3250
sg69
g65
sg62
(lp3251
g55
(g76
g57
NtRp3252
(dp3253
g60
(dp3254
g80
g81
ssg69
g3248
sg62
(lp3255
S'folder'
p3256
asbag55
(g76
g57
NtRp3257
(dp3258
g60
(dp3259
g87
g88
ssg69
g3248
sg62
(lp3260
S':'
asbag55
(g76
g57
NtRp3261
(dp3262
g60
(dp3263
sg69
g3248
sg62
(lp3264
g55
(g56
g57
NtRp3265
(dp3266
g60
(dp3267
g68
I5
ssg69
g3261
sg62
(lp3268
S'/var/www/web2py_curso/applications/projeto/'
p3269
asbasbasbag55
(g71
g57
NtRp3270
(dp3271
g60
(dp3272
sg69
g65
sg62
(lp3273
g55
(g76
g57
NtRp3274
(dp3275
g60
(dp3276
g80
g81
ssg69
g3270
sg62
(lp3277
S'function'
p3278
asbag55
(g76
g57
NtRp3279
(dp3280
g60
(dp3281
g87
g88
ssg69
g3270
sg62
(lp3282
S':'
asbag55
(g76
g57
NtRp3283
(dp3284
g60
(dp3285
sg69
g3270
sg62
(lp3286
g55
(g56
g57
NtRp3287
(dp3288
g60
(dp3289
g68
I5
ssg69
g3283
sg62
(lp3290
S'add2'
p3291
asbasbasbag55
(g71
g57
NtRp3292
(dp3293
g60
(dp3294
sg69
g65
sg62
(lp3295
g55
(g76
g57
NtRp3296
(dp3297
g60
(dp3298
g80
g81
ssg69
g3292
sg62
(lp3299
S'get_vars'
p3300
asbag55
(g76
g57
NtRp3301
(dp3302
g60
(dp3303
g87
g88
ssg69
g3292
sg62
(lp3304
S':'
asbag55
(g76
g57
NtRp3305
(dp3306
g60
(dp3307
sg69
g3292
sg62
(lp3308
g55
(g56
g57
NtRp3309
(dp3310
g60
(dp3311
g68
I5
ssg69
g3305
sg62
(lp3312
g55
(g64
g57
NtRp3313
(dp3314
g60
(dp3315
g68
I4
ssg69
Nsg62
(lp3316
sbasbasbasbag55
(g71
g57
NtRp3317
(dp3318
g60
(dp3319
sg69
g65
sg62
(lp3320
g55
(g76
g57
NtRp3321
(dp3322
g60
(dp3323
g80
g81
ssg69
g3317
sg62
(lp3324
S'global_settings'
p3325
asbag55
(g76
g57
NtRp3326
(dp3327
g60
(dp3328
g87
g88
ssg69
g3317
sg62
(lp3329
S':'
asbag55
(g76
g57
NtRp3330
(dp3331
g60
(dp3332
sg69
g3317
sg62
(lp3333
g55
(g56
g57
NtRp3334
(dp3335
g60
(dp3336
g68
I5
ssg69
g3330
sg62
(lp3337
g55
(g64
g57
NtRp3338
(dp3339
g60
(dp3340
g68
I4
ssg69
Nsg62
(lp3341
g55
(g71
g57
NtRp3342
(dp3343
g60
(dp3344
sg69
g3338
sg62
(lp3345
g55
(g76
g57
NtRp3346
(dp3347
g60
(dp3348
g80
g81
ssg69
g3342
sg62
(lp3349
g2157
asbag55
(g76
g57
NtRp3350
(dp3351
g60
(dp3352
g87
g88
ssg69
g3342
sg62
(lp3353
S':'
asbag55
(g76
g57
NtRp3354
(dp3355
g60
(dp3356
sg69
g3342
sg62
(lp3357
g55
(g56
g57
NtRp3358
(dp3359
g60
(dp3360
g68
I4
ssg69
g3354
sg62
(lp3361
S"set(['/var/www/web2py_curso/applications/home/', '/var/www/web2py_curso/applications/admin/', '/var/www/web2py_curso/applications/projeto/'])"
p3362
asbasbasbag55
(g71
g57
NtRp3363
(dp3364
g60
(dp3365
sg69
g3338
sg62
(lp3366
g55
(g76
g57
NtRp3367
(dp3368
g60
(dp3369
g80
g81
ssg69
g3363
sg62
(lp3370
g2179
asbag55
(g76
g57
NtRp3371
(dp3372
g60
(dp3373
g87
g88
ssg69
g3363
sg62
(lp3374
S':'
asbag55
(g76
g57
NtRp3375
(dp3376
g60
(dp3377
sg69
g3363
sg62
(lp3378
g55
(g56
g57
NtRp3379
(dp3380
g60
(dp3381
g68
I4
ssg69
g3375
sg62
(lp3382
g2192
asbasbasbag55
(g71
g57
NtRp3383
(dp3384
g60
(dp3385
sg69
g3338
sg62
(lp3386
g55
(g76
g57
NtRp3387
(dp3388
g60
(dp3389
g80
g81
ssg69
g3383
sg62
(lp3390
g2201
asbag55
(g76
g57
NtRp3391
(dp3392
g60
(dp3393
g87
g88
ssg69
g3383
sg62
(lp3394
S':'
asbag55
(g76
g57
NtRp3395
(dp3396
g60
(dp3397
sg69
g3383
sg62
(lp3398
g55
(g56
g57
NtRp3399
(dp3400
g60
(dp3401
g68
I4
ssg69
g3395
sg62
(lp3402
g55
(g64
g57
NtRp3403
(dp3404
g60
(dp3405
g68
I3
ssg69
Nsg62
(lp3406
sbasbasbasbag55
(g71
g57
NtRp3407
(dp3408
g60
(dp3409
sg69
g3338
sg62
(lp3410
g55
(g76
g57
NtRp3411
(dp3412
g60
(dp3413
g80
g81
ssg69
g3407
sg62
(lp3414
g2226
asbag55
(g76
g57
NtRp3415
(dp3416
g60
(dp3417
g87
g88
ssg69
g3407
sg62
(lp3418
S':'
asbag55
(g76
g57
NtRp3419
(dp3420
g60
(dp3421
sg69
g3407
sg62
(lp3422
g55
(g56
g57
NtRp3423
(dp3424
g60
(dp3425
g68
I4
ssg69
g3419
sg62
(lp3426
S"<Values at 0x188e488: {'verbose': False, 'ip': '127.0.0.1', 'with_scheduler': False, 'ips': [], 'shutdown_timeout': 5, 'taskbar': False, 'port': 8000, 'maxthreads': None, 'softcron': False, 'server_name': 'fernado-desktop', 'bpython': False, 'nogui': False, 'pid_filename': 'httpserver.pid', 'extcron': False, 'runcron': False, 'run_system_tests': False, 'test': None, 'folder': '/var/www/web2py_curso', 'config': '', 'minthreads': None, 'winservice': '', 'shell': None, 'run': '', 'log_filename': 'httpserver.log', 'debuglevel': 30, 'args': [''], 'socket_timeout': 5, 'ssl_ca_certificate': None, 'scheduler': None, 'profiler_filename': None, 'ssl_private_key': '', 'scheduler_groups': None, 'password': '123456', 'request_queue_size': 5, 'ssl_certificate': '', 'cronjob': False, 'numthreads': None, 'quiet': False, 'interfaces': None, 'import_models': False, 'timeout': 10, 'plain': False, 'nobanner': False}>"
p3427
asbasbasbag55
(g71
g57
NtRp3428
(dp3429
g60
(dp3430
sg69
g3338
sg62
(lp3431
g55
(g76
g57
NtRp3432
(dp3433
g60
(dp3434
g80
g81
ssg69
g3428
sg62
(lp3435
g2248
asbag55
(g76
g57
NtRp3436
(dp3437
g60
(dp3438
g87
g88
ssg69
g3428
sg62
(lp3439
S':'
asbag55
(g76
g57
NtRp3440
(dp3441
g60
(dp3442
sg69
g3428
sg62
(lp3443
g55
(g56
g57
NtRp3444
(dp3445
g60
(dp3446
g68
I4
ssg69
g3440
sg62
(lp3447
S'set([])'
p3448
asbasbasbag55
(g71
g57
NtRp3449
(dp3450
g60
(dp3451
sg69
g3338
sg62
(lp3452
g55
(g76
g57
NtRp3453
(dp3454
g60
(dp3455
g80
g81
ssg69
g3449
sg62
(lp3456
g2270
asbag55
(g76
g57
NtRp3457
(dp3458
g60
(dp3459
g87
g88
ssg69
g3449
sg62
(lp3460
S':'
asbag55
(g76
g57
NtRp3461
(dp3462
g60
(dp3463
sg69
g3449
sg62
(lp3464
g55
(g56
g57
NtRp3465
(dp3466
g60
(dp3467
g68
I4
ssg69
g3461
sg62
(lp3468
g98
asbasbasbag55
(g71
g57
NtRp3469
(dp3470
g60
(dp3471
sg69
g3338
sg62
(lp3472
g55
(g76
g57
NtRp3473
(dp3474
g60
(dp3475
g80
g81
ssg69
g3469
sg62
(lp3476
g2291
asbag55
(g76
g57
NtRp3477
(dp3478
g60
(dp3479
g87
g88
ssg69
g3469
sg62
(lp3480
S':'
asbag55
(g76
g57
NtRp3481
(dp3482
g60
(dp3483
sg69
g3469
sg62
(lp3484
g55
(g56
g57
NtRp3485
(dp3486
g60
(dp3487
g68
I4
ssg69
g3481
sg62
(lp3488
g2304
asbasbasbag55
(g71
g57
NtRp3489
(dp3490
g60
(dp3491
sg69
g3338
sg62
(lp3492
g55
(g76
g57
NtRp3493
(dp3494
g60
(dp3495
g80
g81
ssg69
g3489
sg62
(lp3496
g2533
asbag55
(g76
g57
NtRp3497
(dp3498
g60
(dp3499
g87
g88
ssg69
g3489
sg62
(lp3500
S':'
asbag55
(g76
g57
NtRp3501
(dp3502
g60
(dp3503
sg69
g3489
sg62
(lp3504
g55
(g56
g57
NtRp3505
(dp3506
g60
(dp3507
g68
I4
ssg69
g3501
sg62
(lp3508
g98
asbasbasbag55
(g71
g57
NtRp3509
(dp3510
g60
(dp3511
sg69
g3338
sg62
(lp3512
g55
(g76
g57
NtRp3513
(dp3514
g60
(dp3515
g80
g81
ssg69
g3509
sg62
(lp3516
g2554
asbag55
(g76
g57
NtRp3517
(dp3518
g60
(dp3519
g87
g88
ssg69
g3509
sg62
(lp3520
S':'
asbag55
(g76
g57
NtRp3521
(dp3522
g60
(dp3523
sg69
g3509
sg62
(lp3524
g55
(g56
g57
NtRp3525
(dp3526
g60
(dp3527
g68
I4
ssg69
g3521
sg62
(lp3528
g98
asbasbasbag55
(g71
g57
NtRp3529
(dp3530
g60
(dp3531
sg69
g3338
sg62
(lp3532
g55
(g76
g57
NtRp3533
(dp3534
g60
(dp3535
g80
g81
ssg69
g3529
sg62
(lp3536
g2575
asbag55
(g76
g57
NtRp3537
(dp3538
g60
(dp3539
g87
g88
ssg69
g3529
sg62
(lp3540
S':'
asbag55
(g76
g57
NtRp3541
(dp3542
g60
(dp3543
sg69
g3529
sg62
(lp3544
g55
(g56
g57
NtRp3545
(dp3546
g60
(dp3547
g68
I4
ssg69
g3541
sg62
(lp3548
g55
(g64
g57
NtRp3549
(dp3550
g60
(dp3551
g68
I3
ssg69
Nsg62
(lp3552
g55
(g71
g57
NtRp3553
(dp3554
g60
(dp3555
sg69
g3549
sg62
(lp3556
g55
(g76
g57
NtRp3557
(dp3558
g60
(dp3559
sg69
g3553
sg62
(lp3560
g55
(g56
g57
NtRp3561
(dp3562
g60
(dp3563
g68
I3
ssg69
g3557
sg62
(lp3564
g2604
asbasbasbag55
(g71
g57
NtRp3565
(dp3566
g60
(dp3567
sg69
g3549
sg62
(lp3568
g55
(g76
g57
NtRp3569
(dp3570
g60
(dp3571
sg69
g3565
sg62
(lp3572
g55
(g56
g57
NtRp3573
(dp3574
g60
(dp3575
g68
I3
ssg69
g3569
sg62
(lp3576
g2617
asbasbasbag55
(g71
g57
NtRp3577
(dp3578
g60
(dp3579
sg69
g3549
sg62
(lp3580
g55
(g76
g57
NtRp3581
(dp3582
g60
(dp3583
sg69
g3577
sg62
(lp3584
g55
(g56
g57
NtRp3585
(dp3586
g60
(dp3587
g68
I3
ssg69
g3581
sg62
(lp3588
g2630
asbasbasbag55
(g71
g57
NtRp3589
(dp3590
g60
(dp3591
sg69
g3549
sg62
(lp3592
g55
(g76
g57
NtRp3593
(dp3594
g60
(dp3595
sg69
g3589
sg62
(lp3596
g55
(g56
g57
NtRp3597
(dp3598
g60
(dp3599
g68
I3
ssg69
g3593
sg62
(lp3600
g2643
asbasbasbag55
(g71
g57
NtRp3601
(dp3602
g60
(dp3603
sg69
g3549
sg62
(lp3604
g55
(g76
g57
NtRp3605
(dp3606
g60
(dp3607
sg69
g3601
sg62
(lp3608
g55
(g56
g57
NtRp3609
(dp3610
g60
(dp3611
g68
I3
ssg69
g3605
sg62
(lp3612
g2656
asbasbasbasbasbasbasbag55
(g71
g57
NtRp3613
(dp3614
g60
(dp3615
sg69
g3338
sg62
(lp3616
g55
(g76
g57
NtRp3617
(dp3618
g60
(dp3619
g80
g81
ssg69
g3613
sg62
(lp3620
g2946
asbag55
(g76
g57
NtRp3621
(dp3622
g60
(dp3623
g87
g88
ssg69
g3613
sg62
(lp3624
S':'
asbag55
(g76
g57
NtRp3625
(dp3626
g60
(dp3627
sg69
g3613
sg62
(lp3628
g55
(g56
g57
NtRp3629
(dp3630
g60
(dp3631
g68
I4
ssg69
g3625
sg62
(lp3632
g55
(g64
g57
NtRp3633
(dp3634
g60
(dp3635
g68
I3
ssg69
Nsg62
(lp3636
g55
(g71
g57
NtRp3637
(dp3638
g60
(dp3639
sg69
g3633
sg62
(lp3640
g55
(g76
g57
NtRp3641
(dp3642
g60
(dp3643
sg69
g3637
sg62
(lp3644
g55
(g56
g57
NtRp3645
(dp3646
g60
(dp3647
g68
I3
ssg69
g3641
sg62
(lp3648
S'2'
asbasbasbag55
(g71
g57
NtRp3649
(dp3650
g60
(dp3651
sg69
g3633
sg62
(lp3652
g55
(g76
g57
NtRp3653
(dp3654
g60
(dp3655
sg69
g3649
sg62
(lp3656
g55
(g56
g57
NtRp3657
(dp3658
g60
(dp3659
g68
I3
ssg69
g3653
sg62
(lp3660
S'3'
asbasbasbag55
(g71
g57
NtRp3661
(dp3662
g60
(dp3663
sg69
g3633
sg62
(lp3664
g55
(g76
g57
NtRp3665
(dp3666
g60
(dp3667
sg69
g3661
sg62
(lp3668
g55
(g56
g57
NtRp3669
(dp3670
g60
(dp3671
g68
I3
ssg69
g3665
sg62
(lp3672
S'2'
asbasbasbag55
(g71
g57
NtRp3673
(dp3674
g60
(dp3675
sg69
g3633
sg62
(lp3676
g55
(g76
g57
NtRp3677
(dp3678
g60
(dp3679
sg69
g3673
sg62
(lp3680
g55
(g56
g57
NtRp3681
(dp3682
g60
(dp3683
g68
I3
ssg69
g3677
sg62
(lp3684
S'datetime.datetime(2012, 12, 17, 15, 3, 30)'
p3685
asbasbasbag55
(g71
g57
NtRp3686
(dp3687
g60
(dp3688
sg69
g3633
sg62
(lp3689
g55
(g76
g57
NtRp3690
(dp3691
g60
(dp3692
sg69
g3686
sg62
(lp3693
g55
(g56
g57
NtRp3694
(dp3695
g60
(dp3696
g68
I3
ssg69
g3690
sg62
(lp3697
g3024
asbasbasbasbasbasbasbasbasbasbasbag55
(g71
g57
NtRp3698
(dp3699
g60
(dp3700
sg69
g65
sg62
(lp3701
g55
(g76
g57
NtRp3702
(dp3703
g60
(dp3704
g80
g81
ssg69
g3698
sg62
(lp3705
S'is_https'
p3706
asbag55
(g76
g57
NtRp3707
(dp3708
g60
(dp3709
g87
g88
ssg69
g3698
sg62
(lp3710
S':'
asbag55
(g76
g57
NtRp3711
(dp3712
g60
(dp3713
sg69
g3698
sg62
(lp3714
g55
(g56
g57
NtRp3715
(dp3716
g60
(dp3717
g68
I5
ssg69
g3711
sg62
(lp3718
g98
asbasbasbag55
(g71
g57
NtRp3719
(dp3720
g60
(dp3721
sg69
g65
sg62
(lp3722
g55
(g76
g57
NtRp3723
(dp3724
g60
(dp3725
g80
g81
ssg69
g3719
sg62
(lp3726
S'is_local'
p3727
asbag55
(g76
g57
NtRp3728
(dp3729
g60
(dp3730
g87
g88
ssg69
g3719
sg62
(lp3731
S':'
asbag55
(g76
g57
NtRp3732
(dp3733
g60
(dp3734
sg69
g3719
sg62
(lp3735
g55
(g56
g57
NtRp3736
(dp3737
g60
(dp3738
g68
I5
ssg69
g3732
sg62
(lp3739
g3133
asbasbasbag55
(g71
g57
NtRp3740
(dp3741
g60
(dp3742
sg69
g65
sg62
(lp3743
g55
(g76
g57
NtRp3744
(dp3745
g60
(dp3746
g80
g81
ssg69
g3740
sg62
(lp3747
S'is_restful'
p3748
asbag55
(g76
g57
NtRp3749
(dp3750
g60
(dp3751
g87
g88
ssg69
g3740
sg62
(lp3752
S':'
asbag55
(g76
g57
NtRp3753
(dp3754
g60
(dp3755
sg69
g3740
sg62
(lp3756
g55
(g56
g57
NtRp3757
(dp3758
g60
(dp3759
g68
I5
ssg69
g3753
sg62
(lp3760
g98
asbasbasbag55
(g71
g57
NtRp3761
(dp3762
g60
(dp3763
sg69
g65
sg62
(lp3764
g55
(g76
g57
NtRp3765
(dp3766
g60
(dp3767
g80
g81
ssg69
g3761
sg62
(lp3768
S'now'
p3769
asbag55
(g76
g57
NtRp3770
(dp3771
g60
(dp3772
g87
g88
ssg69
g3761
sg62
(lp3773
S':'
asbag55
(g76
g57
NtRp3774
(dp3775
g60
(dp3776
sg69
g3761
sg62
(lp3777
g55
(g56
g57
NtRp3778
(dp3779
g60
(dp3780
g68
I5
ssg69
g3774
sg62
(lp3781
S'datetime.datetime(2013, 2, 5, 16, 25, 30, 529038)'
p3782
asbasbasbag55
(g71
g57
NtRp3783
(dp3784
g60
(dp3785
sg69
g65
sg62
(lp3786
g55
(g76
g57
NtRp3787
(dp3788
g60
(dp3789
g80
g81
ssg69
g3783
sg62
(lp3790
S'post_vars'
p3791
asbag55
(g76
g57
NtRp3792
(dp3793
g60
(dp3794
g87
g88
ssg69
g3783
sg62
(lp3795
S':'
asbag55
(g76
g57
NtRp3796
(dp3797
g60
(dp3798
sg69
g3783
sg62
(lp3799
g55
(g56
g57
NtRp3800
(dp3801
g60
(dp3802
g68
I5
ssg69
g3796
sg62
(lp3803
g55
(g64
g57
NtRp3804
(dp3805
g60
(dp3806
g68
I4
ssg69
Nsg62
(lp3807
sbasbasbasbag55
(g71
g57
NtRp3808
(dp3809
g60
(dp3810
sg69
g65
sg62
(lp3811
g55
(g76
g57
NtRp3812
(dp3813
g60
(dp3814
g80
g81
ssg69
g3808
sg62
(lp3815
S'url'
p3816
asbag55
(g76
g57
NtRp3817
(dp3818
g60
(dp3819
g87
g88
ssg69
g3808
sg62
(lp3820
S':'
asbag55
(g76
g57
NtRp3821
(dp3822
g60
(dp3823
sg69
g3808
sg62
(lp3824
g55
(g56
g57
NtRp3825
(dp3826
g60
(dp3827
g68
I5
ssg69
g3821
sg62
(lp3828
g2678
asbasbasbag55
(g71
g57
NtRp3829
(dp3830
g60
(dp3831
sg69
g65
sg62
(lp3832
g55
(g76
g57
NtRp3833
(dp3834
g60
(dp3835
g80
g81
ssg69
g3829
sg62
(lp3836
S'utcnow'
p3837
asbag55
(g76
g57
NtRp3838
(dp3839
g60
(dp3840
g87
g88
ssg69
g3829
sg62
(lp3841
S':'
asbag55
(g76
g57
NtRp3842
(dp3843
g60
(dp3844
sg69
g3829
sg62
(lp3845
g55
(g56
g57
NtRp3846
(dp3847
g60
(dp3848
g68
I5
ssg69
g3842
sg62
(lp3849
S'datetime.datetime(2013, 2, 5, 18, 25, 30, 529123)'
p3850
asbasbasbag55
(g71
g57
NtRp3851
(dp3852
g60
(dp3853
sg69
g65
sg62
(lp3854
g55
(g76
g57
NtRp3855
(dp3856
g60
(dp3857
g80
g81
ssg69
g3851
sg62
(lp3858
S'uuid'
p3859
asbag55
(g76
g57
NtRp3860
(dp3861
g60
(dp3862
g87
g88
ssg69
g3851
sg62
(lp3863
S':'
asbag55
(g76
g57
NtRp3864
(dp3865
g60
(dp3866
sg69
g3851
sg62
(lp3867
g55
(g56
g57
NtRp3868
(dp3869
g60
(dp3870
g68
I5
ssg69
g3864
sg62
(lp3871
S'projeto/127.0.0.1.2013-02-05.16-25-30.bedee946-5322-4df0-8101-dadf257df3de'
p3872
asbasbasbag55
(g71
g57
NtRp3873
(dp3874
g60
(dp3875
sg69
g65
sg62
(lp3876
g55
(g76
g57
NtRp3877
(dp3878
g60
(dp3879
g80
g81
ssg69
g3873
sg62
(lp3880
S'vars'
p3881
asbag55
(g76
g57
NtRp3882
(dp3883
g60
(dp3884
g87
g88
ssg69
g3873
sg62
(lp3885
S':'
asbag55
(g76
g57
NtRp3886
(dp3887
g60
(dp3888
sg69
g3873
sg62
(lp3889
g55
(g56
g57
NtRp3890
(dp3891
g60
(dp3892
g68
I5
ssg69
g3886
sg62
(lp3893
g55
(g64
g57
NtRp3894
(dp3895
g60
(dp3896
g68
I4
ssg69
Nsg62
(lp3897
sbasbasbasbag55
(g71
g57
NtRp3898
(dp3899
g60
(dp3900
sg69
g65
sg62
(lp3901
g55
(g76
g57
NtRp3902
(dp3903
g60
(dp3904
g80
g81
ssg69
g3898
sg62
(lp3905
S'wsgi'
p3906
asbag55
(g76
g57
NtRp3907
(dp3908
g60
(dp3909
g87
g88
ssg69
g3898
sg62
(lp3910
S':'
asbag55
(g76
g57
NtRp3911
(dp3912
g60
(dp3913
sg69
g3898
sg62
(lp3914
g55
(g56
g57
NtRp3915
(dp3916
g60
(dp3917
g68
I5
ssg69
g3911
sg62
(lp3918
g55
(g64
g57
NtRp3919
(dp3920
g60
(dp3921
g68
I4
ssg69
Nsg62
(lp3922
g55
(g71
g57
NtRp3923
(dp3924
g60
(dp3925
sg69
g3919
sg62
(lp3926
g55
(g76
g57
NtRp3927
(dp3928
g60
(dp3929
g80
g81
ssg69
g3923
sg62
(lp3930
S'environ'
p3931
asbag55
(g76
g57
NtRp3932
(dp3933
g60
(dp3934
g87
g88
ssg69
g3923
sg62
(lp3935
S':'
asbag55
(g76
g57
NtRp3936
(dp3937
g60
(dp3938
sg69
g3923
sg62
(lp3939
g55
(g56
g57
NtRp3940
(dp3941
g60
(dp3942
g68
I4
ssg69
g3936
sg62
(lp3943
g55
(g64
g57
NtRp3944
(dp3945
g60
(dp3946
g68
I3
ssg69
Nsg62
(lp3947
g55
(g71
g57
NtRp3948
(dp3949
g60
(dp3950
sg69
g3944
sg62
(lp3951
g55
(g76
g57
NtRp3952
(dp3953
g60
(dp3954
g80
g81
ssg69
g3948
sg62
(lp3955
S'HTTP_ACCEPT'
p3956
asbag55
(g76
g57
NtRp3957
(dp3958
g60
(dp3959
g87
g88
ssg69
g3948
sg62
(lp3960
S':'
asbag55
(g76
g57
NtRp3961
(dp3962
g60
(dp3963
sg69
g3948
sg62
(lp3964
g55
(g56
g57
NtRp3965
(dp3966
g60
(dp3967
g68
I3
ssg69
g3961
sg62
(lp3968
g2326
asbasbasbag55
(g71
g57
NtRp3969
(dp3970
g60
(dp3971
sg69
g3944
sg62
(lp3972
g55
(g76
g57
NtRp3973
(dp3974
g60
(dp3975
g80
g81
ssg69
g3969
sg62
(lp3976
S'HTTP_ACCEPT_CHARSET'
p3977
asbag55
(g76
g57
NtRp3978
(dp3979
g60
(dp3980
g87
g88
ssg69
g3969
sg62
(lp3981
S':'
asbag55
(g76
g57
NtRp3982
(dp3983
g60
(dp3984
sg69
g3969
sg62
(lp3985
g55
(g56
g57
NtRp3986
(dp3987
g60
(dp3988
g68
I3
ssg69
g3982
sg62
(lp3989
g2348
asbasbasbag55
(g71
g57
NtRp3990
(dp3991
g60
(dp3992
sg69
g3944
sg62
(lp3993
g55
(g76
g57
NtRp3994
(dp3995
g60
(dp3996
g80
g81
ssg69
g3990
sg62
(lp3997
S'HTTP_ACCEPT_ENCODING'
p3998
asbag55
(g76
g57
NtRp3999
(dp4000
g60
(dp4001
g87
g88
ssg69
g3990
sg62
(lp4002
S':'
asbag55
(g76
g57
NtRp4003
(dp4004
g60
(dp4005
sg69
g3990
sg62
(lp4006
g55
(g56
g57
NtRp4007
(dp4008
g60
(dp4009
g68
I3
ssg69
g4003
sg62
(lp4010
g2370
asbasbasbag55
(g71
g57
NtRp4011
(dp4012
g60
(dp4013
sg69
g3944
sg62
(lp4014
g55
(g76
g57
NtRp4015
(dp4016
g60
(dp4017
g80
g81
ssg69
g4011
sg62
(lp4018
S'HTTP_ACCEPT_LANGUAGE'
p4019
asbag55
(g76
g57
NtRp4020
(dp4021
g60
(dp4022
g87
g88
ssg69
g4011
sg62
(lp4023
S':'
asbag55
(g76
g57
NtRp4024
(dp4025
g60
(dp4026
sg69
g4011
sg62
(lp4027
g55
(g56
g57
NtRp4028
(dp4029
g60
(dp4030
g68
I3
ssg69
g4024
sg62
(lp4031
g2392
asbasbasbag55
(g71
g57
NtRp4032
(dp4033
g60
(dp4034
sg69
g3944
sg62
(lp4035
g55
(g76
g57
NtRp4036
(dp4037
g60
(dp4038
g80
g81
ssg69
g4032
sg62
(lp4039
S'HTTP_CACHE_CONTROL'
p4040
asbag55
(g76
g57
NtRp4041
(dp4042
g60
(dp4043
g87
g88
ssg69
g4032
sg62
(lp4044
S':'
asbag55
(g76
g57
NtRp4045
(dp4046
g60
(dp4047
sg69
g4032
sg62
(lp4048
g55
(g56
g57
NtRp4049
(dp4050
g60
(dp4051
g68
I3
ssg69
g4045
sg62
(lp4052
g2414
asbasbasbag55
(g71
g57
NtRp4053
(dp4054
g60
(dp4055
sg69
g3944
sg62
(lp4056
g55
(g76
g57
NtRp4057
(dp4058
g60
(dp4059
g80
g81
ssg69
g4053
sg62
(lp4060
S'HTTP_CONNECTION'
p4061
asbag55
(g76
g57
NtRp4062
(dp4063
g60
(dp4064
g87
g88
ssg69
g4053
sg62
(lp4065
S':'
asbag55
(g76
g57
NtRp4066
(dp4067
g60
(dp4068
sg69
g4053
sg62
(lp4069
g55
(g56
g57
NtRp4070
(dp4071
g60
(dp4072
g68
I3
ssg69
g4066
sg62
(lp4073
g2436
asbasbasbag55
(g71
g57
NtRp4074
(dp4075
g60
(dp4076
sg69
g3944
sg62
(lp4077
g55
(g76
g57
NtRp4078
(dp4079
g60
(dp4080
g80
g81
ssg69
g4074
sg62
(lp4081
S'HTTP_COOKIE'
p4082
asbag55
(g76
g57
NtRp4083
(dp4084
g60
(dp4085
g87
g88
ssg69
g4074
sg62
(lp4086
S':'
asbag55
(g76
g57
NtRp4087
(dp4088
g60
(dp4089
sg69
g4074
sg62
(lp4090
g55
(g56
g57
NtRp4091
(dp4092
g60
(dp4093
g68
I3
ssg69
g4087
sg62
(lp4094
g2458
asbasbasbag55
(g71
g57
NtRp4095
(dp4096
g60
(dp4097
sg69
g3944
sg62
(lp4098
g55
(g76
g57
NtRp4099
(dp4100
g60
(dp4101
g80
g81
ssg69
g4095
sg62
(lp4102
S'HTTP_HOST'
p4103
asbag55
(g76
g57
NtRp4104
(dp4105
g60
(dp4106
g87
g88
ssg69
g4095
sg62
(lp4107
S':'
asbag55
(g76
g57
NtRp4108
(dp4109
g60
(dp4110
sg69
g4095
sg62
(lp4111
g55
(g56
g57
NtRp4112
(dp4113
g60
(dp4114
g68
I3
ssg69
g4108
sg62
(lp4115
g2480
asbasbasbag55
(g71
g57
NtRp4116
(dp4117
g60
(dp4118
sg69
g3944
sg62
(lp4119
g55
(g76
g57
NtRp4120
(dp4121
g60
(dp4122
g80
g81
ssg69
g4116
sg62
(lp4123
S'HTTP_REFERER'
p4124
asbag55
(g76
g57
NtRp4125
(dp4126
g60
(dp4127
g87
g88
ssg69
g4116
sg62
(lp4128
S':'
asbag55
(g76
g57
NtRp4129
(dp4130
g60
(dp4131
sg69
g4116
sg62
(lp4132
g55
(g56
g57
NtRp4133
(dp4134
g60
(dp4135
g68
I3
ssg69
g4129
sg62
(lp4136
g2502
asbasbasbag55
(g71
g57
NtRp4137
(dp4138
g60
(dp4139
sg69
g3944
sg62
(lp4140
g55
(g76
g57
NtRp4141
(dp4142
g60
(dp4143
g80
g81
ssg69
g4137
sg62
(lp4144
S'HTTP_USER_AGENT'
p4145
asbag55
(g76
g57
NtRp4146
(dp4147
g60
(dp4148
g87
g88
ssg69
g4137
sg62
(lp4149
S':'
asbag55
(g76
g57
NtRp4150
(dp4151
g60
(dp4152
sg69
g4137
sg62
(lp4153
g55
(g56
g57
NtRp4154
(dp4155
g60
(dp4156
g68
I3
ssg69
g4150
sg62
(lp4157
g2524
asbasbasbag55
(g71
g57
NtRp4158
(dp4159
g60
(dp4160
sg69
g3944
sg62
(lp4161
g55
(g76
g57
NtRp4162
(dp4163
g60
(dp4164
g80
g81
ssg69
g4158
sg62
(lp4165
S'PATH_INFO'
p4166
asbag55
(g76
g57
NtRp4167
(dp4168
g60
(dp4169
g87
g88
ssg69
g4158
sg62
(lp4170
S':'
asbag55
(g76
g57
NtRp4171
(dp4172
g60
(dp4173
sg69
g4158
sg62
(lp4174
g55
(g56
g57
NtRp4175
(dp4176
g60
(dp4177
g68
I3
ssg69
g4171
sg62
(lp4178
g2678
asbasbasbag55
(g71
g57
NtRp4179
(dp4180
g60
(dp4181
sg69
g3944
sg62
(lp4182
g55
(g76
g57
NtRp4183
(dp4184
g60
(dp4185
g80
g81
ssg69
g4179
sg62
(lp4186
S'QUERY_STRING'
p4187
asbag55
(g76
g57
NtRp4188
(dp4189
g60
(dp4190
g87
g88
ssg69
g4179
sg62
(lp4191
S':'
asbag55
(g76
g57
NtRp4192
(dp4193
g60
(dp4194
sg69
g4179
sg62
(lp4195
g55
(g56
g57
NtRp4196
(dp4197
g60
(dp4198
g68
I3
ssg69
g4192
sg62
(lp4199
S''
asbasbasbag55
(g71
g57
NtRp4200
(dp4201
g60
(dp4202
sg69
g3944
sg62
(lp4203
g55
(g76
g57
NtRp4204
(dp4205
g60
(dp4206
g80
g81
ssg69
g4200
sg62
(lp4207
S'REMOTE_ADDR'
p4208
asbag55
(g76
g57
NtRp4209
(dp4210
g60
(dp4211
g87
g88
ssg69
g4200
sg62
(lp4212
S':'
asbag55
(g76
g57
NtRp4213
(dp4214
g60
(dp4215
sg69
g4200
sg62
(lp4216
g55
(g56
g57
NtRp4217
(dp4218
g60
(dp4219
g68
I3
ssg69
g4213
sg62
(lp4220
g210
asbasbasbag55
(g71
g57
NtRp4221
(dp4222
g60
(dp4223
sg69
g3944
sg62
(lp4224
g55
(g76
g57
NtRp4225
(dp4226
g60
(dp4227
g80
g81
ssg69
g4221
sg62
(lp4228
S'REMOTE_PORT'
p4229
asbag55
(g76
g57
NtRp4230
(dp4231
g60
(dp4232
g87
g88
ssg69
g4221
sg62
(lp4233
S':'
asbag55
(g76
g57
NtRp4234
(dp4235
g60
(dp4236
sg69
g4221
sg62
(lp4237
g55
(g56
g57
NtRp4238
(dp4239
g60
(dp4240
g68
I3
ssg69
g4234
sg62
(lp4241
g2742
asbasbasbag55
(g71
g57
NtRp4242
(dp4243
g60
(dp4244
sg69
g3944
sg62
(lp4245
g55
(g76
g57
NtRp4246
(dp4247
g60
(dp4248
g80
g81
ssg69
g4242
sg62
(lp4249
S'REQUEST_METHOD'
p4250
asbag55
(g76
g57
NtRp4251
(dp4252
g60
(dp4253
g87
g88
ssg69
g4242
sg62
(lp4254
S':'
asbag55
(g76
g57
NtRp4255
(dp4256
g60
(dp4257
sg69
g4242
sg62
(lp4258
g55
(g56
g57
NtRp4259
(dp4260
g60
(dp4261
g68
I3
ssg69
g4255
sg62
(lp4262
g2764
asbasbasbag55
(g71
g57
NtRp4263
(dp4264
g60
(dp4265
sg69
g3944
sg62
(lp4266
g55
(g76
g57
NtRp4267
(dp4268
g60
(dp4269
g80
g81
ssg69
g4263
sg62
(lp4270
S'REQUEST_URI'
p4271
asbag55
(g76
g57
NtRp4272
(dp4273
g60
(dp4274
g87
g88
ssg69
g4263
sg62
(lp4275
S':'
asbag55
(g76
g57
NtRp4276
(dp4277
g60
(dp4278
sg69
g4263
sg62
(lp4279
g55
(g56
g57
NtRp4280
(dp4281
g60
(dp4282
g68
I3
ssg69
g4276
sg62
(lp4283
g2786
asbasbasbag55
(g71
g57
NtRp4284
(dp4285
g60
(dp4286
sg69
g3944
sg62
(lp4287
g55
(g76
g57
NtRp4288
(dp4289
g60
(dp4290
g80
g81
ssg69
g4284
sg62
(lp4291
S'SCRIPT_NAME'
p4292
asbag55
(g76
g57
NtRp4293
(dp4294
g60
(dp4295
g87
g88
ssg69
g4284
sg62
(lp4296
S':'
asbag55
(g76
g57
NtRp4297
(dp4298
g60
(dp4299
sg69
g4284
sg62
(lp4300
g55
(g56
g57
NtRp4301
(dp4302
g60
(dp4303
g68
I3
ssg69
g4297
sg62
(lp4304
S''
asbasbasbag55
(g71
g57
NtRp4305
(dp4306
g60
(dp4307
sg69
g3944
sg62
(lp4308
g55
(g76
g57
NtRp4309
(dp4310
g60
(dp4311
g80
g81
ssg69
g4305
sg62
(lp4312
S'SERVER_NAME'
p4313
asbag55
(g76
g57
NtRp4314
(dp4315
g60
(dp4316
g87
g88
ssg69
g4305
sg62
(lp4317
S':'
asbag55
(g76
g57
NtRp4318
(dp4319
g60
(dp4320
sg69
g4305
sg62
(lp4321
g55
(g56
g57
NtRp4322
(dp4323
g60
(dp4324
g68
I3
ssg69
g4318
sg62
(lp4325
g2829
asbasbasbag55
(g71
g57
NtRp4326
(dp4327
g60
(dp4328
sg69
g3944
sg62
(lp4329
g55
(g76
g57
NtRp4330
(dp4331
g60
(dp4332
g80
g81
ssg69
g4326
sg62
(lp4333
S'SERVER_PORT'
p4334
asbag55
(g76
g57
NtRp4335
(dp4336
g60
(dp4337
g87
g88
ssg69
g4326
sg62
(lp4338
S':'
asbag55
(g76
g57
NtRp4339
(dp4340
g60
(dp4341
sg69
g4326
sg62
(lp4342
g55
(g56
g57
NtRp4343
(dp4344
g60
(dp4345
g68
I3
ssg69
g4339
sg62
(lp4346
g2851
asbasbasbag55
(g71
g57
NtRp4347
(dp4348
g60
(dp4349
sg69
g3944
sg62
(lp4350
g55
(g76
g57
NtRp4351
(dp4352
g60
(dp4353
g80
g81
ssg69
g4347
sg62
(lp4354
S'SERVER_PROTOCOL'
p4355
asbag55
(g76
g57
NtRp4356
(dp4357
g60
(dp4358
g87
g88
ssg69
g4347
sg62
(lp4359
S':'
asbag55
(g76
g57
NtRp4360
(dp4361
g60
(dp4362
sg69
g4347
sg62
(lp4363
g55
(g56
g57
NtRp4364
(dp4365
g60
(dp4366
g68
I3
ssg69
g4360
sg62
(lp4367
g2873
asbasbasbag55
(g71
g57
NtRp4368
(dp4369
g60
(dp4370
sg69
g3944
sg62
(lp4371
g55
(g76
g57
NtRp4372
(dp4373
g60
(dp4374
g80
g81
ssg69
g4368
sg62
(lp4375
S'SERVER_SOFTWARE'
p4376
asbag55
(g76
g57
NtRp4377
(dp4378
g60
(dp4379
g87
g88
ssg69
g4368
sg62
(lp4380
S':'
asbag55
(g76
g57
NtRp4381
(dp4382
g60
(dp4383
sg69
g4368
sg62
(lp4384
g55
(g56
g57
NtRp4385
(dp4386
g60
(dp4387
g68
I3
ssg69
g4381
sg62
(lp4388
g2895
asbasbasbag55
(g71
g57
NtRp4389
(dp4390
g60
(dp4391
sg69
g3944
sg62
(lp4392
g55
(g76
g57
NtRp4393
(dp4394
g60
(dp4395
g80
g81
ssg69
g4389
sg62
(lp4396
S'WEB2PY_ORIGINAL_URI'
p4397
asbag55
(g76
g57
NtRp4398
(dp4399
g60
(dp4400
g87
g88
ssg69
g4389
sg62
(lp4401
S':'
asbag55
(g76
g57
NtRp4402
(dp4403
g60
(dp4404
sg69
g4389
sg62
(lp4405
g55
(g56
g57
NtRp4406
(dp4407
g60
(dp4408
g68
I3
ssg69
g4402
sg62
(lp4409
g2678
asbasbasbag55
(g71
g57
NtRp4410
(dp4411
g60
(dp4412
sg69
g3944
sg62
(lp4413
g55
(g76
g57
NtRp4414
(dp4415
g60
(dp4416
g80
g81
ssg69
g4410
sg62
(lp4417
S'wsgi.errors'
p4418
asbag55
(g76
g57
NtRp4419
(dp4420
g60
(dp4421
g87
g88
ssg69
g4410
sg62
(lp4422
S':'
asbag55
(g76
g57
NtRp4423
(dp4424
g60
(dp4425
sg69
g4410
sg62
(lp4426
g55
(g56
g57
NtRp4427
(dp4428
g60
(dp4429
g68
I3
ssg69
g4423
sg62
(lp4430
S"<open file '<stderr>', mode 'w' at 0x7fca14e47270>"
p4431
asbasbasbag55
(g71
g57
NtRp4432
(dp4433
g60
(dp4434
sg69
g3944
sg62
(lp4435
g55
(g76
g57
NtRp4436
(dp4437
g60
(dp4438
g80
g81
ssg69
g4432
sg62
(lp4439
S'wsgi.file_wrapper'
p4440
asbag55
(g76
g57
NtRp4441
(dp4442
g60
(dp4443
g87
g88
ssg69
g4432
sg62
(lp4444
S':'
asbag55
(g76
g57
NtRp4445
(dp4446
g60
(dp4447
sg69
g4432
sg62
(lp4448
g55
(g56
g57
NtRp4449
(dp4450
g60
(dp4451
g68
I3
ssg69
g4445
sg62
(lp4452
S'<class wsgiref.util.FileWrapper at 0x17e2a10>'
p4453
asbasbasbag55
(g71
g57
NtRp4454
(dp4455
g60
(dp4456
sg69
g3944
sg62
(lp4457
g55
(g76
g57
NtRp4458
(dp4459
g60
(dp4460
g80
g81
ssg69
g4454
sg62
(lp4461
S'wsgi.input'
p4462
asbag55
(g76
g57
NtRp4463
(dp4464
g60
(dp4465
g87
g88
ssg69
g4454
sg62
(lp4466
S':'
asbag55
(g76
g57
NtRp4467
(dp4468
g60
(dp4469
sg69
g4454
sg62
(lp4470
g55
(g56
g57
NtRp4471
(dp4472
g60
(dp4473
g68
I3
ssg69
g4467
sg62
(lp4474
S'<cStringIO.StringO object at 0x7fc9e45a5180>'
p4475
asbasbasbag55
(g71
g57
NtRp4476
(dp4477
g60
(dp4478
sg69
g3944
sg62
(lp4479
g55
(g76
g57
NtRp4480
(dp4481
g60
(dp4482
g80
g81
ssg69
g4476
sg62
(lp4483
S'wsgi.multiprocess'
p4484
asbag55
(g76
g57
NtRp4485
(dp4486
g60
(dp4487
g87
g88
ssg69
g4476
sg62
(lp4488
S':'
asbag55
(g76
g57
NtRp4489
(dp4490
g60
(dp4491
sg69
g4476
sg62
(lp4492
g55
(g56
g57
NtRp4493
(dp4494
g60
(dp4495
g68
I3
ssg69
g4489
sg62
(lp4496
g98
asbasbasbag55
(g71
g57
NtRp4497
(dp4498
g60
(dp4499
sg69
g3944
sg62
(lp4500
g55
(g76
g57
NtRp4501
(dp4502
g60
(dp4503
g80
g81
ssg69
g4497
sg62
(lp4504
S'wsgi.multithread'
p4505
asbag55
(g76
g57
NtRp4506
(dp4507
g60
(dp4508
g87
g88
ssg69
g4497
sg62
(lp4509
S':'
asbag55
(g76
g57
NtRp4510
(dp4511
g60
(dp4512
sg69
g4497
sg62
(lp4513
g55
(g56
g57
NtRp4514
(dp4515
g60
(dp4516
g68
I3
ssg69
g4510
sg62
(lp4517
g3133
asbasbasbag55
(g71
g57
NtRp4518
(dp4519
g60
(dp4520
sg69
g3944
sg62
(lp4521
g55
(g76
g57
NtRp4522
(dp4523
g60
(dp4524
g80
g81
ssg69
g4518
sg62
(lp4525
S'wsgi.run_once'
p4526
asbag55
(g76
g57
NtRp4527
(dp4528
g60
(dp4529
g87
g88
ssg69
g4518
sg62
(lp4530
S':'
asbag55
(g76
g57
NtRp4531
(dp4532
g60
(dp4533
sg69
g4518
sg62
(lp4534
g55
(g56
g57
NtRp4535
(dp4536
g60
(dp4537
g68
I3
ssg69
g4531
sg62
(lp4538
g98
asbasbasbag55
(g71
g57
NtRp4539
(dp4540
g60
(dp4541
sg69
g3944
sg62
(lp4542
g55
(g76
g57
NtRp4543
(dp4544
g60
(dp4545
g80
g81
ssg69
g4539
sg62
(lp4546
S'wsgi.url_scheme'
p4547
asbag55
(g76
g57
NtRp4548
(dp4549
g60
(dp4550
g87
g88
ssg69
g4539
sg62
(lp4551
S':'
asbag55
(g76
g57
NtRp4552
(dp4553
g60
(dp4554
sg69
g4539
sg62
(lp4555
g55
(g56
g57
NtRp4556
(dp4557
g60
(dp4558
g68
I3
ssg69
g4552
sg62
(lp4559
g3176
asbasbasbag55
(g71
g57
NtRp4560
(dp4561
g60
(dp4562
sg69
g3944
sg62
(lp4563
g55
(g76
g57
NtRp4564
(dp4565
g60
(dp4566
g80
g81
ssg69
g4560
sg62
(lp4567
S'wsgi.version'
p4568
asbag55
(g76
g57
NtRp4569
(dp4570
g60
(dp4571
g87
g88
ssg69
g4560
sg62
(lp4572
S':'
asbag55
(g76
g57
NtRp4573
(dp4574
g60
(dp4575
sg69
g4560
sg62
(lp4576
g55
(g56
g57
NtRp4577
(dp4578
g60
(dp4579
g68
I3
ssg69
g4573
sg62
(lp4580
S'1'
asbasbasbasbasbasbasbasbasbasbasbasbasbsS'frames'
p4581
(lp4582
(dp4583
S'file'
p4584
S'/var/www/web2py_curso/gluon/main.py'
p4585
sS'dump'
p4586
(dp4587
S'global serve_controller'
p4588
S'<function serve_controller>'
p4589
sS'session'
p4590
S"<Storage {'last_query': 'db.post.id>0', '_user_a...reate]': '42437df9-c4e8-4cf3-941a-9e6c44ddec6d'}>"
p4591
sS'request'
p4592
S"<Storage {'function': 'add2', 'body': <cStringIO...plications/projeto/', 'post_vars': <Storage {}>}>"
p4593
sS'response'
p4594
S"<Storage {'body': <cStringIO.StringO object at 0...a> at 0x7fc9e458cb18>, 'view': 'post/add2.html'}>"
p4595
ssS'lnum'
p4596
I543
sS'lines'
p4597
(dp4598
I544
S''
sI545
S'            except HTTP, http_response:'
p4599
sI546
S''
sI547
S'                if static_file:'
p4600
sI538
S'                if global_settings.debugging and app != "admin":'
p4601
sI539
S'                    import gluon.debug'
p4602
sI540
S'                    # activate the debugger'
p4603
sI541
S'                    gluon.debug.dbg.do_debug(mainpyfile=request.folder)'
p4604
sI542
S''
sI543
S'                serve_controller(request, response, session)'
p4605
ssS'call'
p4606
S"(environ={'HTTP_ACCEPT': 'text/html,application/xhtml+xml,application/xml;q=0.9,*/*;q=0.8', 'HTTP_ACCEPT_CHARSET': 'ISO-8859-1,utf-8;q=0.7,*;q=0.3', 'HTTP_ACCEPT_ENCODING': 'gzip,deflate,sdch', 'HTTP_ACCEPT_LANGUAGE': 'pt-BR,pt;q=0.8,en-US;q=0.6,en;q=0.4', 'HTTP_CACHE_CONTROL': 'max-age=0', 'HTTP_CONNECTION': 'keep-alive', 'HTTP_COOKIE': 'hw_type=MX60; hw_version=Rev%201.9.82.316; types...to=127.0.0.1-a8d6ff4e-868b-4aa2-bd9e-521d75a87c41', 'HTTP_HOST': '127.0.0.1:8000', 'HTTP_REFERER': 'http://127.0.0.1:8000/user/login?_next=/post/add2', 'HTTP_USER_AGENT': 'Mozilla/5.0 (X11; Linux x86_64) AppleWebKit/537....ium/22.0.1229.94 Chrome/22.0.1229.94 Safari/537.4', ...}, responder=<function responder2>)"
p4607
sS'func'
p4608
S'wsgibase'
p4609
sa(dp4610
g4584
S'/var/www/web2py_curso/gluon/main.py'
p4611
sg4586
(dp4612
S'response._view_environment'
p4613
S"{'A': <class 'gluon.html.A'>, 'Auth': <class 'gluon.tools.Auth'>, 'B': <class 'gluon.html.B'>, 'BEAUTIFY': <class 'gluon.html.BEAUTIFY'>, 'BODY': <class 'gluon.html.BODY'>, 'BR': <class 'gluon.html.BR'>, 'BUTTON': <class 'gluon.html.BUTTON'>, 'Blog': <Table blog (id,title,description)>, 'CAT': <class 'gluon.html.CAT'>, 'CENTER': <class 'gluon.html.CENTER'>, ...}"
p4614
sS'response'
p4615
S"<Storage {'body': <cStringIO.StringO object at 0...a> at 0x7fc9e458cb18>, 'view': 'post/add2.html'}>"
p4616
sS'global run_view_in'
p4617
S'<function run_view_in>'
p4618
ssg4596
I227
sg4597
(dp4619
I224
S'    if isinstance(page, dict):'
p4620
sI225
S'        response._vars = page'
p4621
sI226
S'        response._view_environment.update(page)'
p4622
sI227
S'        run_view_in(response._view_environment)'
p4623
sI228
S'        page = response.body.getvalue()'
p4624
sI229
S'    # logic to garbage collect after exec, not always, once every 100 requests'
p4625
sI230
S'    global requests'
p4626
sI231
S"    requests = ('requests' in globals()) and (requests + 1) % 100 or 0"
p4627
sI222
S'    response._view_environment = copy.copy(environment)'
p4628
sI223
S'    page = run_controller_in(request.controller, request.function, environment)'
p4629
ssg4606
S"(request=<Storage {'function': 'add2', 'body': <cStringIO...plications/projeto/', 'post_vars': <Storage {}>}>, response=<Storage {'body': <cStringIO.StringO object at 0...a> at 0x7fc9e458cb18>, 'view': 'post/add2.html'}>, session=<Storage {'last_query': 'db.post.id>0', '_user_a...reate]': '42437df9-c4e8-4cf3-941a-9e6c44ddec6d'}>)"
p4630
sg4608
S'serve_controller'
p4631
sa(dp4632
g4584
S'/var/www/web2py_curso/gluon/compileapp.py'
p4633
sg4586
(dp4634
S'environment'
p4635
S"{'A': <class 'gluon.html.A'>, 'Auth': <class 'gluon.tools.Auth'>, 'B': <class 'gluon.html.B'>, 'BEAUTIFY': <class 'gluon.html.BEAUTIFY'>, 'BODY': <class 'gluon.html.BODY'>, 'BR': <class 'gluon.html.BR'>, 'BUTTON': <class 'gluon.html.BUTTON'>, 'Blog': <Table blog (id,title,description)>, 'CAT': <class 'gluon.html.CAT'>, 'CENTER': <class 'gluon.html.CENTER'>, ...}"
p4636
sS'context'
p4637
S'undefined'
p4638
ssg4596
I672
sg4597
(dp4639
I672
S'                                   context=environment)'
p4640
sI673
S'        restricted(ccode, environment, layer)'
p4641
sI674
S''
sI675
S''
sI676
S'def remove_compiled_application(folder):'
p4642
sI667
S"                                            pjoin(folder, 'views'),"
p4643
sI668
S'                                            context=environment), layer))'
p4644
sI669
S'        else:'
p4645
sI670
S'            ccode = parse_template(view,'
p4646
sI671
S"                                   pjoin(folder, 'views'),"
p4647
ssg4606
S"(environment={'A': <class 'gluon.html.A'>, 'Auth': <class 'gluon.tools.Auth'>, 'B': <class 'gluon.html.B'>, 'BEAUTIFY': <class 'gluon.html.BEAUTIFY'>, 'BODY': <class 'gluon.html.BODY'>, 'BR': <class 'gluon.html.BR'>, 'BUTTON': <class 'gluon.html.BUTTON'>, 'Blog': <Table blog (id,title,description)>, 'CAT': <class 'gluon.html.CAT'>, 'CENTER': <class 'gluon.html.CENTER'>, ...})"
p4648
sg4608
S'run_view_in'
p4649
sa(dp4650
g4584
S'/var/www/web2py_curso/gluon/template.py'
p4651
sg4586
(dp4652
S'builtinstr'
p4653
S"<type 'str'>"
p4654
sS'global TemplateParser'
p4655
S"<class 'gluon.template.TemplateParser'>"
p4656
sS'delimiters'
p4657
S"('{{', '}}')"
p4658
sS'context'
p4659
S"{'A': <class 'gluon.html.A'>, 'Auth': <class 'gluon.tools.Auth'>, 'B': <class 'gluon.html.B'>, 'BEAUTIFY': <class 'gluon.html.BEAUTIFY'>, 'BODY': <class 'gluon.html.BODY'>, 'BR': <class 'gluon.html.BR'>, 'BUTTON': <class 'gluon.html.BUTTON'>, 'Blog': <Table blog (id,title,description)>, 'CAT': <class 'gluon.html.CAT'>, 'CENTER': <class 'gluon.html.CENTER'>, ...}"
p4660
sS'text'
p4661
S"'{{extend layout.html}}\\n\\n<h1>Adicione uma postagem</h1>'"
p4662
sS'path'
p4663
S"'/var/www/web2py_curso/applications/projeto/views'"
p4664
sS'lexers'
p4665
g43
ssg4596
I785
sg4597
(dp4666
I780
S"            raise RestrictedError(filename, '', 'Unable to find the file')"
p4667
sI781
S'    else:'
p4668
sI782
S'        text = filename.read()'
p4669
sI783
S''
sI784
S'    # Use the file contents to get a parsed template and return it.'
p4670
sI785
S'    return str(TemplateParser(text, context=context, path=path, lexers=lexers, delimiters=delimiters))'
p4671
sI786
S''
sI787
S''
sI788
S'def get_parsed(text):'
p4672
sI789
S'    """'
p4673
ssg4606
S"(filename='post/add2.html', path='/var/www/web2py_curso/applications/projeto/views', context={'A': <class 'gluon.html.A'>, 'Auth': <class 'gluon.tools.Auth'>, 'B': <class 'gluon.html.B'>, 'BEAUTIFY': <class 'gluon.html.BEAUTIFY'>, 'BODY': <class 'gluon.html.BODY'>, 'BR': <class 'gluon.html.BR'>, 'BUTTON': <class 'gluon.html.BUTTON'>, 'Blog': <Table blog (id,title,description)>, 'CAT': <class 'gluon.html.CAT'>, 'CENTER': <class 'gluon.html.CENTER'>, ...}, lexers={}, delimiters=('{{', '}}'))"
p4674
sg4608
S'parse_template'
p4675
sa(dp4676
g4584
S'/var/www/web2py_curso/gluon/template.py'
p4677
sg4586
(dp4678
S'text'
p4679
S"'{{extend layout.html}}\\n\\n<h1>Adicione uma postagem</h1>'"
p4680
sS'self'
p4681
S'<gluon.template.TemplateParser object>'
p4682
sS'self.parse'
p4683
S'<bound method TemplateParser.parse of <gluon.template.TemplateParser object>>'
p4684
ssg4596
I316
sg4597
(dp4685
I320
S'        Return the parsed template with correct indentation.'
p4686
sI311
S'        # This variable will hold a reference to every block'
p4687
sI312
S'        # that we come across in this template'
p4688
sI313
S'        self.blocks = {}'
p4689
sI314
S''
sI315
S'        # Begin parsing.'
p4690
sI316
S'        self.parse(text)'
p4691
sI317
S''
sI318
S'    def to_string(self):'
p4692
sI319
S'        """'
p4693
ssg4606
S"(self=<gluon.template.TemplateParser object>, text='{{extend layout.html}}\\n\\n<h1>Adicione uma postagem</h1>', name='ParserContainer', context={'A': <class 'gluon.html.A'>, 'Auth': <class 'gluon.tools.Auth'>, 'B': <class 'gluon.html.B'>, 'BEAUTIFY': <class 'gluon.html.BEAUTIFY'>, 'BODY': <class 'gluon.html.BODY'>, 'BR': <class 'gluon.html.BR'>, 'BUTTON': <class 'gluon.html.BUTTON'>, 'Blog': <Table blog (id,title,description)>, 'CAT': <class 'gluon.html.CAT'>, 'CENTER': <class 'gluon.html.CENTER'>, ...}, path='/var/www/web2py_curso/applications/projeto/views', writer='response.write', lexers={}, delimiters=('{{', '}}'), _super_nodes=[])"
p4694
sg4608
g48
sa(dp4695
g4584
S'/var/www/web2py_curso/gluon/template.py'
p4696
sg4586
(dp4697
S'self'
p4698
S'<gluon.template.TemplateParser object>'
p4699
sS'extend'
p4700
S"'layout.html'"
p4701
sS'self.extend'
p4702
S'<bound method TemplateParser.extend of <gluon.template.TemplateParser object>>'
p4703
ssg4596
I756
sg4597
(dp4704
I751
S'            # Sometimes I miss C-Style pointers... I want my asterisk...'
p4705
sI752
S'            self.child_super_nodes.remove(node)'
p4706
sI753
S''
sI754
S'        # If we need to extend a template.'
p4707
sI755
S'        if extend:'
p4708
sI756
S'            self.extend(extend)'
p4709
sI757
S''
sI758
S'# We need this for integration with gluon'
p4710
sI759
S''
sI760
S''
ssg4606
S"(self=<gluon.template.TemplateParser object>, text='{{extend layout.html}}\\n\\n<h1>Adicione uma postagem</h1>')"
p4711
sg4608
S'parse'
p4712
sa(dp4713
g4584
S'/var/www/web2py_curso/gluon/template.py'
p4714
sg4586
(dp4715
S'text'
p4716
g4638
sS'self'
p4717
S'<gluon.template.TemplateParser object>'
p4718
sS'self._get_file_text'
p4719
S'<bound method TemplateParser._get_file_text of <gluon.template.TemplateParser object>>'
p4720
sS'filename'
p4721
S"'layout.html'"
p4722
ssg4596
I471
sg4597
(dp4723
I466
S'    def extend(self, filename):'
p4724
sI467
S'        """'
p4725
sI468
S'        Extend ``filename``. Anything not declared in a block defined by the'
p4726
sI469
S'        parent will be placed in the parent templates ``{{include}}`` block.'
p4727
sI470
S'        """'
p4728
sI471
S'        text = self._get_file_text(filename)'
p4729
sI472
S''
sI473
S'        # Create out nodes list to send to the parent'
p4730
sI474
S'        super_nodes = []'
p4731
sI475
S'        # We want to include any non-handled nodes.'
p4732
ssg4606
S"(self=<gluon.template.TemplateParser object>, filename='layout.html')"
p4733
sg4608
S'extend'
p4734
sa(dp4735
g4584
S'/var/www/web2py_curso/gluon/template.py'
p4736
sg4586
(dp4737
S'builtineval'
p4738
S'<built-in function eval>'
p4739
sS'context'
p4740
S"{'A': <class 'gluon.html.A'>, 'Auth': <class 'gluon.tools.Auth'>, 'B': <class 'gluon.html.B'>, 'BEAUTIFY': <class 'gluon.html.BEAUTIFY'>, 'BODY': <class 'gluon.html.BODY'>, 'BR': <class 'gluon.html.BR'>, 'BUTTON': <class 'gluon.html.BUTTON'>, 'Blog': <Table blog (id,title,description)>, 'CAT': <class 'gluon.html.CAT'>, 'CENTER': <class 'gluon.html.CENTER'>, ...}"
p4741
sS'filename'
p4742
S"'layout.html'"
p4743
ssg4596
I436
sg4597
(dp4744
I431
S'        if current and not "response" in context:'
p4745
sI432
S'            context["response"] = getattr(current, \'response\', None)'
p4746
sI433
S''
sI434
S'        # Get the filename; filename looks like ``"template.html"``.'
p4747
sI435
S'        # We need to eval to remove the quotes and get the string type.'
p4748
sI436
S'        filename = eval(filename, context)'
p4749
sI437
S''
sI438
S'        # Get the path of the file on the system.'
p4750
sI439
S'        filepath = self.path and os.path.join(self.path, filename) or filename'
p4751
sI440
S''
ssg4606
S"(self=<gluon.template.TemplateParser object>, filename='layout.html')"
p4752
sg4608
S'_get_file_text'
p4753
sa(dp4754
g4584
S'/var/www/web2py_curso/<string>'
p4755
sg4586
(dp4756
sg4596
I1
sg4597
(dp4757
sg4606
S'()'
p4758
sg4608
S'<module>'
p4759
sasS'pyver'
p4760
S'Python 2.7.3: /usr/bin/python'
p4761
sS'session'
p4762
g55
(g56
g57
NtRp4763
(dp4764
g60
(dp4765
sg62
(lp4766
g55
(g64
g57
NtRp4767
(dp4768
g60
(dp4769
g68
I5
ssg69
Nsg62
(lp4770
g55
(g71
g57
NtRp4771
(dp4772
g60
(dp4773
sg69
g4767
sg62
(lp4774
g55
(g76
g57
NtRp4775
(dp4776
g60
(dp4777
g80
g81
ssg69
g4771
sg62
(lp4778
S'auth'
p4779
asbag55
(g76
g57
NtRp4780
(dp4781
g60
(dp4782
g87
g88
ssg69
g4771
sg62
(lp4783
S':'
asbag55
(g76
g57
NtRp4784
(dp4785
g60
(dp4786
sg69
g4771
sg62
(lp4787
g55
(g56
g57
NtRp4788
(dp4789
g60
(dp4790
g68
I5
ssg69
g4784
sg62
(lp4791
g55
(g64
g57
NtRp4792
(dp4793
g60
(dp4794
g68
I4
ssg69
Nsg62
(lp4795
g55
(g71
g57
NtRp4796
(dp4797
g60
(dp4798
sg69
g4792
sg62
(lp4799
g55
(g76
g57
NtRp4800
(dp4801
g60
(dp4802
g80
g81
ssg69
g4796
sg62
(lp4803
S'expiration'
p4804
asbag55
(g76
g57
NtRp4805
(dp4806
g60
(dp4807
g87
g88
ssg69
g4796
sg62
(lp4808
S':'
asbag55
(g76
g57
NtRp4809
(dp4810
g60
(dp4811
sg69
g4796
sg62
(lp4812
g55
(g56
g57
NtRp4813
(dp4814
g60
(dp4815
g68
I4
ssg69
g4809
sg62
(lp4816
S'3600'
p4817
asbasbasbag55
(g71
g57
NtRp4818
(dp4819
g60
(dp4820
sg69
g4792
sg62
(lp4821
g55
(g76
g57
NtRp4822
(dp4823
g60
(dp4824
g80
g81
ssg69
g4818
sg62
(lp4825
S'hmac_key'
p4826
asbag55
(g76
g57
NtRp4827
(dp4828
g60
(dp4829
g87
g88
ssg69
g4818
sg62
(lp4830
S':'
asbag55
(g76
g57
NtRp4831
(dp4832
g60
(dp4833
sg69
g4818
sg62
(lp4834
g55
(g56
g57
NtRp4835
(dp4836
g60
(dp4837
g68
I4
ssg69
g4831
sg62
(lp4838
S'40c1abef-cedb-4375-8311-3614a9635386'
p4839
asbasbasbag55
(g71
g57
NtRp4840
(dp4841
g60
(dp4842
sg69
g4792
sg62
(lp4843
g55
(g76
g57
NtRp4844
(dp4845
g60
(dp4846
g80
g81
ssg69
g4840
sg62
(lp4847
S'last_visit'
p4848
asbag55
(g76
g57
NtRp4849
(dp4850
g60
(dp4851
g87
g88
ssg69
g4840
sg62
(lp4852
S':'
asbag55
(g76
g57
NtRp4853
(dp4854
g60
(dp4855
sg69
g4840
sg62
(lp4856
g55
(g56
g57
NtRp4857
(dp4858
g60
(dp4859
g68
I4
ssg69
g4853
sg62
(lp4860
S'datetime.datetime(2013, 2, 5, 16, 25, 30, 25989)'
p4861
asbasbasbag55
(g71
g57
NtRp4862
(dp4863
g60
(dp4864
sg69
g4792
sg62
(lp4865
g55
(g76
g57
NtRp4866
(dp4867
g60
(dp4868
g80
g81
ssg69
g4862
sg62
(lp4869
S'remember'
p4870
asbag55
(g76
g57
NtRp4871
(dp4872
g60
(dp4873
g87
g88
ssg69
g4862
sg62
(lp4874
S':'
asbag55
(g76
g57
NtRp4875
(dp4876
g60
(dp4877
sg69
g4862
sg62
(lp4878
g55
(g56
g57
NtRp4879
(dp4880
g60
(dp4881
g68
I4
ssg69
g4875
sg62
(lp4882
g98
asbasbasbag55
(g71
g57
NtRp4883
(dp4884
g60
(dp4885
sg69
g4792
sg62
(lp4886
g55
(g76
g57
NtRp4887
(dp4888
g60
(dp4889
g80
g81
ssg69
g4883
sg62
(lp4890
S'user'
p4891
asbag55
(g76
g57
NtRp4892
(dp4893
g60
(dp4894
g87
g88
ssg69
g4883
sg62
(lp4895
S':'
asbag55
(g76
g57
NtRp4896
(dp4897
g60
(dp4898
sg69
g4883
sg62
(lp4899
g55
(g56
g57
NtRp4900
(dp4901
g60
(dp4902
g68
I4
ssg69
g4896
sg62
(lp4903
g55
(g64
g57
NtRp4904
(dp4905
g60
(dp4906
g68
I3
ssg69
Nsg62
(lp4907
g55
(g71
g57
NtRp4908
(dp4909
g60
(dp4910
sg69
g4904
sg62
(lp4911
g55
(g76
g57
NtRp4912
(dp4913
g60
(dp4914
g80
g81
ssg69
g4908
sg62
(lp4915
S'bio'
p4916
asbag55
(g76
g57
NtRp4917
(dp4918
g60
(dp4919
g87
g88
ssg69
g4908
sg62
(lp4920
S':'
asbag55
(g76
g57
NtRp4921
(dp4922
g60
(dp4923
sg69
g4908
sg62
(lp4924
g55
(g56
g57
NtRp4925
(dp4926
g60
(dp4927
g68
I3
ssg69
g4921
sg62
(lp4928
S'None'
p4929
asbasbasbag55
(g71
g57
NtRp4930
(dp4931
g60
(dp4932
sg69
g4904
sg62
(lp4933
g55
(g76
g57
NtRp4934
(dp4935
g60
(dp4936
g80
g81
ssg69
g4930
sg62
(lp4937
S'email'
p4938
asbag55
(g76
g57
NtRp4939
(dp4940
g60
(dp4941
g87
g88
ssg69
g4930
sg62
(lp4942
S':'
asbag55
(g76
g57
NtRp4943
(dp4944
g60
(dp4945
sg69
g4930
sg62
(lp4946
g55
(g56
g57
NtRp4947
(dp4948
g60
(dp4949
g68
I3
ssg69
g4943
sg62
(lp4950
S'fernando@ad2.com.br'
p4951
asbasbasbag55
(g71
g57
NtRp4952
(dp4953
g60
(dp4954
sg69
g4904
sg62
(lp4955
g55
(g76
g57
NtRp4956
(dp4957
g60
(dp4958
g80
g81
ssg69
g4952
sg62
(lp4959
S'first_name'
p4960
asbag55
(g76
g57
NtRp4961
(dp4962
g60
(dp4963
g87
g88
ssg69
g4952
sg62
(lp4964
S':'
asbag55
(g76
g57
NtRp4965
(dp4966
g60
(dp4967
sg69
g4952
sg62
(lp4968
g55
(g56
g57
NtRp4969
(dp4970
g60
(dp4971
g68
I3
ssg69
g4965
sg62
(lp4972
S'Dend'
p4973
asbasbasbag55
(g71
g57
NtRp4974
(dp4975
g60
(dp4976
sg69
g4904
sg62
(lp4977
g55
(g76
g57
NtRp4978
(dp4979
g60
(dp4980
g80
g81
ssg69
g4974
sg62
(lp4981
S'gender'
p4982
asbag55
(g76
g57
NtRp4983
(dp4984
g60
(dp4985
g87
g88
ssg69
g4974
sg62
(lp4986
S':'
asbag55
(g76
g57
NtRp4987
(dp4988
g60
(dp4989
sg69
g4974
sg62
(lp4990
g55
(g56
g57
NtRp4991
(dp4992
g60
(dp4993
g68
I3
ssg69
g4987
sg62
(lp4994
S'masculino'
p4995
asbasbasbag55
(g71
g57
NtRp4996
(dp4997
g60
(dp4998
sg69
g4904
sg62
(lp4999
g55
(g76
g57
NtRp5000
(dp5001
g60
(dp5002
g80
g81
ssg69
g4996
sg62
(lp5003
S'id'
p5004
asbag55
(g76
g57
NtRp5005
(dp5006
g60
(dp5007
g87
g88
ssg69
g4996
sg62
(lp5008
S':'
asbag55
(g76
g57
NtRp5009
(dp5010
g60
(dp5011
sg69
g4996
sg62
(lp5012
g55
(g56
g57
NtRp5013
(dp5014
g60
(dp5015
g68
I3
ssg69
g5009
sg62
(lp5016
S'5'
asbasbasbag55
(g71
g57
NtRp5017
(dp5018
g60
(dp5019
sg69
g4904
sg62
(lp5020
g55
(g76
g57
NtRp5021
(dp5022
g60
(dp5023
g80
g81
ssg69
g5017
sg62
(lp5024
S'last_name'
p5025
asbag55
(g76
g57
NtRp5026
(dp5027
g60
(dp5028
g87
g88
ssg69
g5017
sg62
(lp5029
S':'
asbag55
(g76
g57
NtRp5030
(dp5031
g60
(dp5032
sg69
g5017
sg62
(lp5033
g55
(g56
g57
NtRp5034
(dp5035
g60
(dp5036
g68
I3
ssg69
g5030
sg62
(lp5037
S'delkson'
p5038
asbasbasbag55
(g71
g57
NtRp5039
(dp5040
g60
(dp5041
sg69
g4904
sg62
(lp5042
g55
(g76
g57
NtRp5043
(dp5044
g60
(dp5045
g80
g81
ssg69
g5039
sg62
(lp5046
S'photo'
p5047
asbag55
(g76
g57
NtRp5048
(dp5049
g60
(dp5050
g87
g88
ssg69
g5039
sg62
(lp5051
S':'
asbag55
(g76
g57
NtRp5052
(dp5053
g60
(dp5054
sg69
g5039
sg62
(lp5055
g55
(g56
g57
NtRp5056
(dp5057
g60
(dp5058
g68
I3
ssg69
g5052
sg62
(lp5059
S'auth_user.photo.852c1e9d624a7670.746563686e6f6c6f676965735f7068702e706e67.png'
p5060
asbasbasbag55
(g71
g57
NtRp5061
(dp5062
g60
(dp5063
sg69
g4904
sg62
(lp5064
g55
(g76
g57
NtRp5065
(dp5066
g60
(dp5067
g80
g81
ssg69
g5061
sg62
(lp5068
S'registration_id'
p5069
asbag55
(g76
g57
NtRp5070
(dp5071
g60
(dp5072
g87
g88
ssg69
g5061
sg62
(lp5073
S':'
asbag55
(g76
g57
NtRp5074
(dp5075
g60
(dp5076
sg69
g5061
sg62
(lp5077
g55
(g56
g57
NtRp5078
(dp5079
g60
(dp5080
g68
I3
ssg69
g5074
sg62
(lp5081
S''
asbasbasbag55
(g71
g57
NtRp5082
(dp5083
g60
(dp5084
sg69
g4904
sg62
(lp5085
g55
(g76
g57
NtRp5086
(dp5087
g60
(dp5088
g80
g81
ssg69
g5082
sg62
(lp5089
S'registration_key'
p5090
asbag55
(g76
g57
NtRp5091
(dp5092
g60
(dp5093
g87
g88
ssg69
g5082
sg62
(lp5094
S':'
asbag55
(g76
g57
NtRp5095
(dp5096
g60
(dp5097
sg69
g5082
sg62
(lp5098
g55
(g56
g57
NtRp5099
(dp5100
g60
(dp5101
g68
I3
ssg69
g5095
sg62
(lp5102
S''
asbasbasbag55
(g71
g57
NtRp5103
(dp5104
g60
(dp5105
sg69
g4904
sg62
(lp5106
g55
(g76
g57
NtRp5107
(dp5108
g60
(dp5109
g80
g81
ssg69
g5103
sg62
(lp5110
S'reset_password_key'
p5111
asbag55
(g76
g57
NtRp5112
(dp5113
g60
(dp5114
g87
g88
ssg69
g5103
sg62
(lp5115
S':'
asbag55
(g76
g57
NtRp5116
(dp5117
g60
(dp5118
sg69
g5103
sg62
(lp5119
g55
(g56
g57
NtRp5120
(dp5121
g60
(dp5122
g68
I3
ssg69
g5116
sg62
(lp5123
S''
asbasbasbasbasbasbasbag55
(g71
g57
NtRp5124
(dp5125
g60
(dp5126
sg69
g4792
sg62
(lp5127
g55
(g76
g57
NtRp5128
(dp5129
g60
(dp5130
g80
g81
ssg69
g5124
sg62
(lp5131
S'user_groups'
p5132
asbag55
(g76
g57
NtRp5133
(dp5134
g60
(dp5135
g87
g88
ssg69
g5124
sg62
(lp5136
S':'
asbag55
(g76
g57
NtRp5137
(dp5138
g60
(dp5139
sg69
g5124
sg62
(lp5140
g55
(g56
g57
NtRp5141
(dp5142
g60
(dp5143
g68
I4
ssg69
g5137
sg62
(lp5144
g55
(g64
g57
NtRp5145
(dp5146
g60
(dp5147
g68
I3
ssg69
Nsg62
(lp5148
g55
(g71
g57
NtRp5149
(dp5150
g60
(dp5151
sg69
g5145
sg62
(lp5152
g55
(g76
g57
NtRp5153
(dp5154
g60
(dp5155
g80
g81
ssg69
g5149
sg62
(lp5156
S'5'
asbag55
(g76
g57
NtRp5157
(dp5158
g60
(dp5159
g87
g88
ssg69
g5149
sg62
(lp5160
S':'
asbag55
(g76
g57
NtRp5161
(dp5162
g60
(dp5163
sg69
g5149
sg62
(lp5164
g55
(g56
g57
NtRp5165
(dp5166
g60
(dp5167
g68
I3
ssg69
g5161
sg62
(lp5168
S'user_5'
p5169
asbasbasbag55
(g71
g57
NtRp5170
(dp5171
g60
(dp5172
sg69
g5145
sg62
(lp5173
g55
(g76
g57
NtRp5174
(dp5175
g60
(dp5176
g80
g81
ssg69
g5170
sg62
(lp5177
S'7'
asbag55
(g76
g57
NtRp5178
(dp5179
g60
(dp5180
g87
g88
ssg69
g5170
sg62
(lp5181
S':'
asbag55
(g76
g57
NtRp5182
(dp5183
g60
(dp5184
sg69
g5170
sg62
(lp5185
g55
(g56
g57
NtRp5186
(dp5187
g60
(dp5188
g68
I3
ssg69
g5182
sg62
(lp5189
S'admin'
p5190
asbasbasbasbasbasbasbasbasbasbasbag55
(g71
g57
NtRp5191
(dp5192
g60
(dp5193
sg69
g4767
sg62
(lp5194
g55
(g76
g57
NtRp5195
(dp5196
g60
(dp5197
g80
g81
ssg69
g5191
sg62
(lp5198
S'flash'
p5199
asbag55
(g76
g57
NtRp5200
(dp5201
g60
(dp5202
g87
g88
ssg69
g5191
sg62
(lp5203
S':'
asbag55
(g76
g57
NtRp5204
(dp5205
g60
(dp5206
sg69
g5191
sg62
(lp5207
g55
(g56
g57
NtRp5208
(dp5209
g60
(dp5210
g68
I5
ssg69
g5204
sg62
(lp5211
S'None'
p5212
asbasbasbag55
(g71
g57
NtRp5213
(dp5214
g60
(dp5215
sg69
g4767
sg62
(lp5216
g55
(g76
g57
NtRp5217
(dp5218
g60
(dp5219
g80
g81
ssg69
g5213
sg62
(lp5220
S'last_orderby'
p5221
asbag55
(g76
g57
NtRp5222
(dp5223
g60
(dp5224
g87
g88
ssg69
g5213
sg62
(lp5225
S':'
asbag55
(g76
g57
NtRp5226
(dp5227
g60
(dp5228
sg69
g5213
sg62
(lp5229
g55
(g56
g57
NtRp5230
(dp5231
g60
(dp5232
g68
I5
ssg69
g5226
sg62
(lp5233
S'None'
p5234
asbasbasbag55
(g71
g57
NtRp5235
(dp5236
g60
(dp5237
sg69
g4767
sg62
(lp5238
g55
(g76
g57
NtRp5239
(dp5240
g60
(dp5241
g80
g81
ssg69
g5235
sg62
(lp5242
S'last_query'
p5243
asbag55
(g76
g57
NtRp5244
(dp5245
g60
(dp5246
g87
g88
ssg69
g5235
sg62
(lp5247
S':'
asbag55
(g76
g57
NtRp5248
(dp5249
g60
(dp5250
sg69
g5235
sg62
(lp5251
g55
(g56
g57
NtRp5252
(dp5253
g60
(dp5254
g68
I5
ssg69
g5248
sg62
(lp5255
S'db.post.id>0'
p5256
asbasbasbasbasbsS'etype'
p5257
S"<type 'exceptions.NameError'>"
p5258
sS'date'
p5259
S'Tue Feb  5 16:25:30 2013'
p5260
sS'response'
p5261
g55
(g56
g57
NtRp5262
(dp5263
g60
(dp5264
sg62
(lp5265
g55
(g64
g57
NtRp5266
(dp5267
g60
(dp5268
g68
I5
ssg69
Nsg62
(lp5269
g55
(g71
g57
NtRp5270
(dp5271
g60
(dp5272
sg69
g5266
sg62
(lp5273
g55
(g76
g57
NtRp5274
(dp5275
g60
(dp5276
g80
g81
ssg69
g5270
sg62
(lp5277
g153
asbag55
(g76
g57
NtRp5278
(dp5279
g60
(dp5280
g87
g88
ssg69
g5270
sg62
(lp5281
S':'
asbag55
(g76
g57
NtRp5282
(dp5283
g60
(dp5284
sg69
g5270
sg62
(lp5285
g55
(g56
g57
NtRp5286
(dp5287
g60
(dp5288
g68
I5
ssg69
g5282
sg62
(lp5289
S'<cStringIO.StringO object at 0x7fc9e458a0d8>'
p5290
asbasbasbag55
(g71
g57
NtRp5291
(dp5292
g60
(dp5293
sg69
g5266
sg62
(lp5294
g55
(g76
g57
NtRp5295
(dp5296
g60
(dp5297
g80
g81
ssg69
g5291
sg62
(lp5298
g241
asbag55
(g76
g57
NtRp5299
(dp5300
g60
(dp5301
g87
g88
ssg69
g5291
sg62
(lp5302
S':'
asbag55
(g76
g57
NtRp5303
(dp5304
g60
(dp5305
sg69
g5291
sg62
(lp5306
g55
(g56
g57
NtRp5307
(dp5308
g60
(dp5309
g68
I5
ssg69
g5303
sg62
(lp5310
g55
(g64
g57
NtRp5311
(dp5312
g60
(dp5313
g68
I4
ssg69
Nsg62
(lp5314
g55
(g71
g57
NtRp5315
(dp5316
g60
(dp5317
sg69
g5311
sg62
(lp5318
g55
(g76
g57
NtRp5319
(dp5320
g60
(dp5321
g80
g81
ssg69
g5315
sg62
(lp5322
S'session_id_projeto'
p5323
asbag55
(g76
g57
NtRp5324
(dp5325
g60
(dp5326
g87
g88
ssg69
g5315
sg62
(lp5327
S':'
asbag55
(g76
g57
NtRp5328
(dp5329
g60
(dp5330
sg69
g5315
sg62
(lp5331
g55
(g56
g57
NtRp5332
(dp5333
g60
(dp5334
g68
I4
ssg69
g5328
sg62
(lp5335
g1773
ag55
(g64
g57
NtRp5336
(dp5337
g60
(dp5338
g68
I3
ssg69
Nsg62
(lp5339
g55
(g71
g57
NtRp5340
(dp5341
g60
(dp5342
sg69
g5336
sg62
(lp5343
g55
(g76
g57
NtRp5344
(dp5345
g60
(dp5346
g80
g81
ssg69
g5340
sg62
(lp5347
g292
asbag55
(g76
g57
NtRp5348
(dp5349
g60
(dp5350
g87
g88
ssg69
g5340
sg62
(lp5351
S':'
asbag55
(g76
g57
NtRp5352
(dp5353
g60
(dp5354
sg69
g5340
sg62
(lp5355
g55
(g56
g57
NtRp5356
(dp5357
g60
(dp5358
g68
I3
ssg69
g5352
sg62
(lp5359
S''
asbasbasbag55
(g71
g57
NtRp5360
(dp5361
g60
(dp5362
sg69
g5336
sg62
(lp5363
g55
(g76
g57
NtRp5364
(dp5365
g60
(dp5366
g80
g81
ssg69
g5360
sg62
(lp5367
g313
asbag55
(g76
g57
NtRp5368
(dp5369
g60
(dp5370
g87
g88
ssg69
g5360
sg62
(lp5371
S':'
asbag55
(g76
g57
NtRp5372
(dp5373
g60
(dp5374
sg69
g5360
sg62
(lp5375
g55
(g56
g57
NtRp5376
(dp5377
g60
(dp5378
g68
I3
ssg69
g5372
sg62
(lp5379
S''
asbasbasbag55
(g71
g57
NtRp5380
(dp5381
g60
(dp5382
sg69
g5336
sg62
(lp5383
g55
(g76
g57
NtRp5384
(dp5385
g60
(dp5386
g80
g81
ssg69
g5380
sg62
(lp5387
g334
asbag55
(g76
g57
NtRp5388
(dp5389
g60
(dp5390
g87
g88
ssg69
g5380
sg62
(lp5391
S':'
asbag55
(g76
g57
NtRp5392
(dp5393
g60
(dp5394
sg69
g5380
sg62
(lp5395
g55
(g56
g57
NtRp5396
(dp5397
g60
(dp5398
g68
I3
ssg69
g5392
sg62
(lp5399
S''
asbasbasbag55
(g71
g57
NtRp5400
(dp5401
g60
(dp5402
sg69
g5336
sg62
(lp5403
g55
(g76
g57
NtRp5404
(dp5405
g60
(dp5406
g80
g81
ssg69
g5400
sg62
(lp5407
g355
asbag55
(g76
g57
NtRp5408
(dp5409
g60
(dp5410
g87
g88
ssg69
g5400
sg62
(lp5411
S':'
asbag55
(g76
g57
NtRp5412
(dp5413
g60
(dp5414
sg69
g5400
sg62
(lp5415
g55
(g56
g57
NtRp5416
(dp5417
g60
(dp5418
g68
I3
ssg69
g5412
sg62
(lp5419
S''
asbasbasbag55
(g71
g57
NtRp5420
(dp5421
g60
(dp5422
sg69
g5336
sg62
(lp5423
g55
(g76
g57
NtRp5424
(dp5425
g60
(dp5426
g80
g81
ssg69
g5420
sg62
(lp5427
g376
asbag55
(g76
g57
NtRp5428
(dp5429
g60
(dp5430
g87
g88
ssg69
g5420
sg62
(lp5431
S':'
asbag55
(g76
g57
NtRp5432
(dp5433
g60
(dp5434
sg69
g5420
sg62
(lp5435
g55
(g56
g57
NtRp5436
(dp5437
g60
(dp5438
g68
I3
ssg69
g5432
sg62
(lp5439
S''
asbasbasbag55
(g71
g57
NtRp5440
(dp5441
g60
(dp5442
sg69
g5336
sg62
(lp5443
g55
(g76
g57
NtRp5444
(dp5445
g60
(dp5446
g80
g81
ssg69
g5440
sg62
(lp5447
g397
asbag55
(g76
g57
NtRp5448
(dp5449
g60
(dp5450
g87
g88
ssg69
g5440
sg62
(lp5451
S':'
asbag55
(g76
g57
NtRp5452
(dp5453
g60
(dp5454
sg69
g5440
sg62
(lp5455
g55
(g56
g57
NtRp5456
(dp5457
g60
(dp5458
g68
I3
ssg69
g5452
sg62
(lp5459
S'/'
asbasbasbag55
(g71
g57
NtRp5460
(dp5461
g60
(dp5462
sg69
g5336
sg62
(lp5463
g55
(g76
g57
NtRp5464
(dp5465
g60
(dp5466
g80
g81
ssg69
g5460
sg62
(lp5467
g418
asbag55
(g76
g57
NtRp5468
(dp5469
g60
(dp5470
g87
g88
ssg69
g5460
sg62
(lp5471
S':'
asbag55
(g76
g57
NtRp5472
(dp5473
g60
(dp5474
sg69
g5460
sg62
(lp5475
g55
(g56
g57
NtRp5476
(dp5477
g60
(dp5478
g68
I3
ssg69
g5472
sg62
(lp5479
S''
asbasbasbag55
(g71
g57
NtRp5480
(dp5481
g60
(dp5482
sg69
g5336
sg62
(lp5483
g55
(g76
g57
NtRp5484
(dp5485
g60
(dp5486
g80
g81
ssg69
g5480
sg62
(lp5487
g439
asbag55
(g76
g57
NtRp5488
(dp5489
g60
(dp5490
g87
g88
ssg69
g5480
sg62
(lp5491
S':'
asbag55
(g76
g57
NtRp5492
(dp5493
g60
(dp5494
sg69
g5480
sg62
(lp5495
g55
(g56
g57
NtRp5496
(dp5497
g60
(dp5498
g68
I3
ssg69
g5492
sg62
(lp5499
S''
asbasbasbasbasbasbasbasbasbasbasbag55
(g71
g57
NtRp5500
(dp5501
g60
(dp5502
sg69
g5266
sg62
(lp5503
g55
(g76
g57
NtRp5504
(dp5505
g60
(dp5506
g80
g81
ssg69
g5500
sg62
(lp5507
S'delimiters'
p5508
asbag55
(g76
g57
NtRp5509
(dp5510
g60
(dp5511
g87
g88
ssg69
g5500
sg62
(lp5512
S':'
asbag55
(g76
g57
NtRp5513
(dp5514
g60
(dp5515
sg69
g5500
sg62
(lp5516
g55
(g56
g57
NtRp5517
(dp5518
g60
(dp5519
g68
I5
ssg69
g5513
sg62
(lp5520
g55
(g64
g57
NtRp5521
(dp5522
g60
(dp5523
g68
I4
ssg69
Nsg62
(lp5524
g55
(g71
g57
NtRp5525
(dp5526
g60
(dp5527
sg69
g5521
sg62
(lp5528
g55
(g76
g57
NtRp5529
(dp5530
g60
(dp5531
sg69
g5525
sg62
(lp5532
g55
(g56
g57
NtRp5533
(dp5534
g60
(dp5535
g68
I4
ssg69
g5529
sg62
(lp5536
S'{{'
p5537
asbasbasbag55
(g71
g57
NtRp5538
(dp5539
g60
(dp5540
sg69
g5521
sg62
(lp5541
g55
(g76
g57
NtRp5542
(dp5543
g60
(dp5544
sg69
g5538
sg62
(lp5545
g55
(g56
g57
NtRp5546
(dp5547
g60
(dp5548
g68
I4
ssg69
g5542
sg62
(lp5549
S'}}'
p5550
asbasbasbasbasbasbasbag55
(g71
g57
NtRp5551
(dp5552
g60
(dp5553
sg69
g5266
sg62
(lp5554
g55
(g76
g57
NtRp5555
(dp5556
g60
(dp5557
g80
g81
ssg69
g5551
sg62
(lp5558
S'files'
p5559
asbag55
(g76
g57
NtRp5560
(dp5561
g60
(dp5562
g87
g88
ssg69
g5551
sg62
(lp5563
S':'
asbag55
(g76
g57
NtRp5564
(dp5565
g60
(dp5566
sg69
g5551
sg62
(lp5567
g55
(g56
g57
NtRp5568
(dp5569
g60
(dp5570
g68
I5
ssg69
g5564
sg62
(lp5571
g55
(g64
g57
NtRp5572
(dp5573
g60
(dp5574
g68
I4
ssg69
Nsg62
(lp5575
sbasbasbasbag55
(g71
g57
NtRp5576
(dp5577
g60
(dp5578
sg69
g5266
sg62
(lp5579
g55
(g76
g57
NtRp5580
(dp5581
g60
(dp5582
g80
g81
ssg69
g5576
sg62
(lp5583
S'flash'
p5584
asbag55
(g76
g57
NtRp5585
(dp5586
g60
(dp5587
g87
g88
ssg69
g5576
sg62
(lp5588
S':'
asbag55
(g76
g57
NtRp5589
(dp5590
g60
(dp5591
sg69
g5576
sg62
(lp5592
g55
(g56
g57
NtRp5593
(dp5594
g60
(dp5595
g68
I5
ssg69
g5589
sg62
(lp5596
S'Preencha o form'
p5597
asbasbasbag55
(g71
g57
NtRp5598
(dp5599
g60
(dp5600
sg69
g5266
sg62
(lp5601
g55
(g76
g57
NtRp5602
(dp5603
g60
(dp5604
g80
g81
ssg69
g5598
sg62
(lp5605
S'generic_patterns'
p5606
asbag55
(g76
g57
NtRp5607
(dp5608
g60
(dp5609
g87
g88
ssg69
g5598
sg62
(lp5610
S':'
asbag55
(g76
g57
NtRp5611
(dp5612
g60
(dp5613
sg69
g5598
sg62
(lp5614
g55
(g56
g57
NtRp5615
(dp5616
g60
(dp5617
g68
I5
ssg69
g5611
sg62
(lp5618
g55
(g64
g57
NtRp5619
(dp5620
g60
(dp5621
g68
I4
ssg69
Nsg62
(lp5622
g55
(g71
g57
NtRp5623
(dp5624
g60
(dp5625
sg69
g5619
sg62
(lp5626
g55
(g76
g57
NtRp5627
(dp5628
g60
(dp5629
sg69
g5623
sg62
(lp5630
g55
(g56
g57
NtRp5631
(dp5632
g60
(dp5633
g68
I4
ssg69
g5627
sg62
(lp5634
S'*'
asbasbasbasbasbasbasbag55
(g71
g57
NtRp5635
(dp5636
g60
(dp5637
sg69
g5266
sg62
(lp5638
g55
(g76
g57
NtRp5639
(dp5640
g60
(dp5641
g80
g81
ssg69
g5635
sg62
(lp5642
S'headers'
p5643
asbag55
(g76
g57
NtRp5644
(dp5645
g60
(dp5646
g87
g88
ssg69
g5635
sg62
(lp5647
S':'
asbag55
(g76
g57
NtRp5648
(dp5649
g60
(dp5650
sg69
g5635
sg62
(lp5651
g55
(g56
g57
NtRp5652
(dp5653
g60
(dp5654
g68
I5
ssg69
g5648
sg62
(lp5655
g55
(g64
g57
NtRp5656
(dp5657
g60
(dp5658
g68
I4
ssg69
Nsg62
(lp5659
g55
(g71
g57
NtRp5660
(dp5661
g60
(dp5662
sg69
g5656
sg62
(lp5663
g55
(g76
g57
NtRp5664
(dp5665
g60
(dp5666
g80
g81
ssg69
g5660
sg62
(lp5667
S'X-Powered-By'
p5668
asbag55
(g76
g57
NtRp5669
(dp5670
g60
(dp5671
g87
g88
ssg69
g5660
sg62
(lp5672
S':'
asbag55
(g76
g57
NtRp5673
(dp5674
g60
(dp5675
sg69
g5660
sg62
(lp5676
g55
(g56
g57
NtRp5677
(dp5678
g60
(dp5679
g68
I4
ssg69
g5673
sg62
(lp5680
S'web2py'
p5681
asbasbasbasbasbasbasbag55
(g71
g57
NtRp5682
(dp5683
g60
(dp5684
sg69
g5266
sg62
(lp5685
g55
(g76
g57
NtRp5686
(dp5687
g60
(dp5688
g80
g81
ssg69
g5682
sg62
(lp5689
S'menu'
p5690
asbag55
(g76
g57
NtRp5691
(dp5692
g60
(dp5693
g87
g88
ssg69
g5682
sg62
(lp5694
S':'
asbag55
(g76
g57
NtRp5695
(dp5696
g60
(dp5697
sg69
g5682
sg62
(lp5698
g55
(g56
g57
NtRp5699
(dp5700
g60
(dp5701
g68
I5
ssg69
g5695
sg62
(lp5702
g55
(g64
g57
NtRp5703
(dp5704
g60
(dp5705
g68
I4
ssg69
Nsg62
(lp5706
sbasbasbasbag55
(g71
g57
NtRp5707
(dp5708
g60
(dp5709
sg69
g5266
sg62
(lp5710
g55
(g76
g57
NtRp5711
(dp5712
g60
(dp5713
g80
g81
ssg69
g5707
sg62
(lp5714
S'meta'
p5715
asbag55
(g76
g57
NtRp5716
(dp5717
g60
(dp5718
g87
g88
ssg69
g5707
sg62
(lp5719
S':'
asbag55
(g76
g57
NtRp5720
(dp5721
g60
(dp5722
sg69
g5707
sg62
(lp5723
g55
(g56
g57
NtRp5724
(dp5725
g60
(dp5726
g68
I5
ssg69
g5720
sg62
(lp5727
g55
(g64
g57
NtRp5728
(dp5729
g60
(dp5730
g68
I4
ssg69
Nsg62
(lp5731
g55
(g71
g57
NtRp5732
(dp5733
g60
(dp5734
sg69
g5728
sg62
(lp5735
g55
(g76
g57
NtRp5736
(dp5737
g60
(dp5738
g80
g81
ssg69
g5732
sg62
(lp5739
S'description'
p5740
asbag55
(g76
g57
NtRp5741
(dp5742
g60
(dp5743
g87
g88
ssg69
g5732
sg62
(lp5744
S':'
asbag55
(g76
g57
NtRp5745
(dp5746
g60
(dp5747
sg69
g5732
sg62
(lp5748
g55
(g56
g57
NtRp5749
(dp5750
g60
(dp5751
g68
I4
ssg69
g5745
sg62
(lp5752
S'blog do shedon'
p5753
asbasbasbag55
(g71
g57
NtRp5754
(dp5755
g60
(dp5756
sg69
g5728
sg62
(lp5757
g55
(g76
g57
NtRp5758
(dp5759
g60
(dp5760
g80
g81
ssg69
g5754
sg62
(lp5761
S'keywords'
p5762
asbag55
(g76
g57
NtRp5763
(dp5764
g60
(dp5765
g87
g88
ssg69
g5754
sg62
(lp5766
S':'
asbag55
(g76
g57
NtRp5767
(dp5768
g60
(dp5769
sg69
g5754
sg62
(lp5770
g55
(g56
g57
NtRp5771
(dp5772
g60
(dp5773
g68
I4
ssg69
g5767
sg62
(lp5774
S'chave, outra, e utra'
p5775
asbasbasbasbasbasbasbag55
(g71
g57
NtRp5776
(dp5777
g60
(dp5778
sg69
g5266
sg62
(lp5779
g55
(g76
g57
NtRp5780
(dp5781
g60
(dp5782
g80
g81
ssg69
g5776
sg62
(lp5783
S'models_to_run'
p5784
asbag55
(g76
g57
NtRp5785
(dp5786
g60
(dp5787
g87
g88
ssg69
g5776
sg62
(lp5788
S':'
asbag55
(g76
g57
NtRp5789
(dp5790
g60
(dp5791
sg69
g5776
sg62
(lp5792
g55
(g56
g57
NtRp5793
(dp5794
g60
(dp5795
g68
I5
ssg69
g5789
sg62
(lp5796
g55
(g64
g57
NtRp5797
(dp5798
g60
(dp5799
g68
I4
ssg69
Nsg62
(lp5800
g55
(g71
g57
NtRp5801
(dp5802
g60
(dp5803
sg69
g5797
sg62
(lp5804
g55
(g76
g57
NtRp5805
(dp5806
g60
(dp5807
sg69
g5801
sg62
(lp5808
g55
(g56
g57
NtRp5809
(dp5810
g60
(dp5811
g68
I4
ssg69
g5805
sg62
(lp5812
S'^\\w+\\.py$'
p5813
asbasbasbag55
(g71
g57
NtRp5814
(dp5815
g60
(dp5816
sg69
g5797
sg62
(lp5817
g55
(g76
g57
NtRp5818
(dp5819
g60
(dp5820
sg69
g5814
sg62
(lp5821
g55
(g56
g57
NtRp5822
(dp5823
g60
(dp5824
g68
I4
ssg69
g5818
sg62
(lp5825
S'^post/\\w+\\.py$'
p5826
asbasbasbag55
(g71
g57
NtRp5827
(dp5828
g60
(dp5829
sg69
g5797
sg62
(lp5830
g55
(g76
g57
NtRp5831
(dp5832
g60
(dp5833
sg69
g5827
sg62
(lp5834
g55
(g56
g57
NtRp5835
(dp5836
g60
(dp5837
g68
I4
ssg69
g5831
sg62
(lp5838
S'^post/add2/\\w+\\.py$'
p5839
asbasbasbasbasbasbasbag55
(g71
g57
NtRp5840
(dp5841
g60
(dp5842
sg69
g5266
sg62
(lp5843
g55
(g76
g57
NtRp5844
(dp5845
g60
(dp5846
g80
g81
ssg69
g5840
sg62
(lp5847
S'postprocessing'
p5848
asbag55
(g76
g57
NtRp5849
(dp5850
g60
(dp5851
g87
g88
ssg69
g5840
sg62
(lp5852
S':'
asbag55
(g76
g57
NtRp5853
(dp5854
g60
(dp5855
sg69
g5840
sg62
(lp5856
g55
(g56
g57
NtRp5857
(dp5858
g60
(dp5859
g68
I5
ssg69
g5853
sg62
(lp5860
g55
(g64
g57
NtRp5861
(dp5862
g60
(dp5863
g68
I4
ssg69
Nsg62
(lp5864
sbasbasbasbag55
(g71
g57
NtRp5865
(dp5866
g60
(dp5867
sg69
g5266
sg62
(lp5868
g55
(g76
g57
NtRp5869
(dp5870
g60
(dp5871
g80
g81
ssg69
g5865
sg62
(lp5872
S'session_cookie_expires'
p5873
asbag55
(g76
g57
NtRp5874
(dp5875
g60
(dp5876
g87
g88
ssg69
g5865
sg62
(lp5877
S':'
asbag55
(g76
g57
NtRp5878
(dp5879
g60
(dp5880
sg69
g5865
sg62
(lp5881
g55
(g56
g57
NtRp5882
(dp5883
g60
(dp5884
g68
I5
ssg69
g5878
sg62
(lp5885
S'None'
p5886
asbasbasbag55
(g71
g57
NtRp5887
(dp5888
g60
(dp5889
sg69
g5266
sg62
(lp5890
g55
(g76
g57
NtRp5891
(dp5892
g60
(dp5893
g80
g81
ssg69
g5887
sg62
(lp5894
S'session_data_name'
p5895
asbag55
(g76
g57
NtRp5896
(dp5897
g60
(dp5898
g87
g88
ssg69
g5887
sg62
(lp5899
S':'
asbag55
(g76
g57
NtRp5900
(dp5901
g60
(dp5902
sg69
g5887
sg62
(lp5903
g55
(g56
g57
NtRp5904
(dp5905
g60
(dp5906
g68
I5
ssg69
g5900
sg62
(lp5907
S'session_data_projeto'
p5908
asbasbasbag55
(g71
g57
NtRp5909
(dp5910
g60
(dp5911
sg69
g5266
sg62
(lp5912
g55
(g76
g57
NtRp5913
(dp5914
g60
(dp5915
g80
g81
ssg69
g5909
sg62
(lp5916
S'session_file'
p5917
asbag55
(g76
g57
NtRp5918
(dp5919
g60
(dp5920
g87
g88
ssg69
g5909
sg62
(lp5921
S':'
asbag55
(g76
g57
NtRp5922
(dp5923
g60
(dp5924
sg69
g5909
sg62
(lp5925
g55
(g56
g57
NtRp5926
(dp5927
g60
(dp5928
g68
I5
ssg69
g5922
sg62
(lp5929
S"<open file '/var/www/web2py_curso/applications/projeto/sessions/127.0.0.1-a8d6ff4e-868b-4aa2-bd9e-521d75a87c41', mode 'rb+' at 0x7fca084516f0>"
p5930
asbasbasbag55
(g71
g57
NtRp5931
(dp5932
g60
(dp5933
sg69
g5266
sg62
(lp5934
g55
(g76
g57
NtRp5935
(dp5936
g60
(dp5937
g80
g81
ssg69
g5931
sg62
(lp5938
S'session_filename'
p5939
asbag55
(g76
g57
NtRp5940
(dp5941
g60
(dp5942
g87
g88
ssg69
g5931
sg62
(lp5943
S':'
asbag55
(g76
g57
NtRp5944
(dp5945
g60
(dp5946
sg69
g5931
sg62
(lp5947
g55
(g56
g57
NtRp5948
(dp5949
g60
(dp5950
g68
I5
ssg69
g5944
sg62
(lp5951
S'/var/www/web2py_curso/applications/projeto/sessions/127.0.0.1-a8d6ff4e-868b-4aa2-bd9e-521d75a87c41'
p5952
asbasbasbag55
(g71
g57
NtRp5953
(dp5954
g60
(dp5955
sg69
g5266
sg62
(lp5956
g55
(g76
g57
NtRp5957
(dp5958
g60
(dp5959
g80
g81
ssg69
g5953
sg62
(lp5960
S'session_id'
p5961
asbag55
(g76
g57
NtRp5962
(dp5963
g60
(dp5964
g87
g88
ssg69
g5953
sg62
(lp5965
S':'
asbag55
(g76
g57
NtRp5966
(dp5967
g60
(dp5968
sg69
g5953
sg62
(lp5969
g55
(g56
g57
NtRp5970
(dp5971
g60
(dp5972
g68
I5
ssg69
g5966
sg62
(lp5973
g1773
asbasbasbag55
(g71
g57
NtRp5974
(dp5975
g60
(dp5976
sg69
g5266
sg62
(lp5977
g55
(g76
g57
NtRp5978
(dp5979
g60
(dp5980
g80
g81
ssg69
g5974
sg62
(lp5981
S'session_id_name'
p5982
asbag55
(g76
g57
NtRp5983
(dp5984
g60
(dp5985
g87
g88
ssg69
g5974
sg62
(lp5986
S':'
asbag55
(g76
g57
NtRp5987
(dp5988
g60
(dp5989
sg69
g5974
sg62
(lp5990
g55
(g56
g57
NtRp5991
(dp5992
g60
(dp5993
g68
I5
ssg69
g5987
sg62
(lp5994
g5323
asbasbasbag55
(g71
g57
NtRp5995
(dp5996
g60
(dp5997
sg69
g5266
sg62
(lp5998
g55
(g76
g57
NtRp5999
(dp6000
g60
(dp6001
g80
g81
ssg69
g5995
sg62
(lp6002
S'session_locked'
p6003
asbag55
(g76
g57
NtRp6004
(dp6005
g60
(dp6006
g87
g88
ssg69
g5995
sg62
(lp6007
S':'
asbag55
(g76
g57
NtRp6008
(dp6009
g60
(dp6010
sg69
g5995
sg62
(lp6011
g55
(g56
g57
NtRp6012
(dp6013
g60
(dp6014
g68
I5
ssg69
g6008
sg62
(lp6015
g3133
asbasbasbag55
(g71
g57
NtRp6016
(dp6017
g60
(dp6018
sg69
g5266
sg62
(lp6019
g55
(g76
g57
NtRp6020
(dp6021
g60
(dp6022
g80
g81
ssg69
g6016
sg62
(lp6023
S'session_new'
p6024
asbag55
(g76
g57
NtRp6025
(dp6026
g60
(dp6027
g87
g88
ssg69
g6016
sg62
(lp6028
S':'
asbag55
(g76
g57
NtRp6029
(dp6030
g60
(dp6031
sg69
g6016
sg62
(lp6032
g55
(g56
g57
NtRp6033
(dp6034
g60
(dp6035
g68
I5
ssg69
g6029
sg62
(lp6036
g98
asbasbasbag55
(g71
g57
NtRp6037
(dp6038
g60
(dp6039
sg69
g5266
sg62
(lp6040
g55
(g76
g57
NtRp6041
(dp6042
g60
(dp6043
g80
g81
ssg69
g6037
sg62
(lp6044
S'session_storage_type'
p6045
asbag55
(g76
g57
NtRp6046
(dp6047
g60
(dp6048
g87
g88
ssg69
g6037
sg62
(lp6049
S':'
asbag55
(g76
g57
NtRp6050
(dp6051
g60
(dp6052
sg69
g6037
sg62
(lp6053
g55
(g56
g57
NtRp6054
(dp6055
g60
(dp6056
g68
I5
ssg69
g6050
sg62
(lp6057
g4584
asbasbasbag55
(g71
g57
NtRp6058
(dp6059
g60
(dp6060
sg69
g5266
sg62
(lp6061
g55
(g76
g57
NtRp6062
(dp6063
g60
(dp6064
g80
g81
ssg69
g6058
sg62
(lp6065
S'status'
p6066
asbag55
(g76
g57
NtRp6067
(dp6068
g60
(dp6069
g87
g88
ssg69
g6058
sg62
(lp6070
S':'
asbag55
(g76
g57
NtRp6071
(dp6072
g60
(dp6073
sg69
g6058
sg62
(lp6074
g55
(g56
g57
NtRp6075
(dp6076
g60
(dp6077
g68
I5
ssg69
g6071
sg62
(lp6078
S'200'
p6079
asbasbasbag55
(g71
g57
NtRp6080
(dp6081
g60
(dp6082
sg69
g5266
sg62
(lp6083
g55
(g76
g57
NtRp6084
(dp6085
g60
(dp6086
g80
g81
ssg69
g6080
sg62
(lp6087
S'subtitle'
p6088
asbag55
(g76
g57
NtRp6089
(dp6090
g60
(dp6091
g87
g88
ssg69
g6080
sg62
(lp6092
S':'
asbag55
(g76
g57
NtRp6093
(dp6094
g60
(dp6095
sg69
g6080
sg62
(lp6096
g55
(g56
g57
NtRp6097
(dp6098
g60
(dp6099
g68
I5
ssg69
g6093
sg62
(lp6100
S'O blog do sheldon'
p6101
asbasbasbag55
(g71
g57
NtRp6102
(dp6103
g60
(dp6104
sg69
g5266
sg62
(lp6105
g55
(g76
g57
NtRp6106
(dp6107
g60
(dp6108
g80
g81
ssg69
g6102
sg62
(lp6109
S'title'
p6110
asbag55
(g76
g57
NtRp6111
(dp6112
g60
(dp6113
g87
g88
ssg69
g6102
sg62
(lp6114
S':'
asbag55
(g76
g57
NtRp6115
(dp6116
g60
(dp6117
sg69
g6102
sg62
(lp6118
g55
(g56
g57
NtRp6119
(dp6120
g60
(dp6121
g68
I5
ssg69
g6115
sg62
(lp6122
S'Meu site magnifico'
p6123
asbasbasbag55
(g71
g57
NtRp6124
(dp6125
g60
(dp6126
sg69
g5266
sg62
(lp6127
g55
(g76
g57
NtRp6128
(dp6129
g60
(dp6130
g80
g81
ssg69
g6124
sg62
(lp6131
S'view'
p6132
asbag55
(g76
g57
NtRp6133
(dp6134
g60
(dp6135
g87
g88
ssg69
g6124
sg62
(lp6136
S':'
asbag55
(g76
g57
NtRp6137
(dp6138
g60
(dp6139
sg69
g6124
sg62
(lp6140
g55
(g56
g57
NtRp6141
(dp6142
g60
(dp6143
g68
I5
ssg69
g6137
sg62
(lp6144
S'post/add2.html'
p6145
asbasbasbasbasbsS'locals'
p6146
(dp6147
S'OBJECT'
p6148
S"<class 'gluon.html.OBJECT'>"
p6149
sS'SQLDB'
p6150
S"<class 'gluon.dal.DAL'>"
p6151
sg4762
S"<Storage {'last_query': 'db.post.id>0', '_user_a...reate]': '42437df9-c4e8-4cf3-941a-9e6c44ddec6d'}>"
p6152
sS'LINK'
p6153
S"<class 'gluon.html.LINK'>"
p6154
sS'BR'
p6155
S"<class 'gluon.html.BR'>"
p6156
sS'local_import'
p6157
S'<function <lambda>>'
p6158
sS'OPTGROUP'
p6159
S"<class 'gluon.html.OPTGROUP'>"
p6160
sS'__package__'
p6161
S'None'
p6162
sS'PRE'
p6163
S"<class 'gluon.html.PRE'>"
p6164
sS'IS_INT_IN_RANGE'
p6165
S"<class 'gluon.validators.IS_INT_IN_RANGE'>"
p6166
sS'IS_LOWER'
p6167
S"<class 'gluon.validators.IS_LOWER'>"
p6168
sS'IS_STRONG'
p6169
S"<class 'gluon.validators.IS_STRONG'>"
p6170
sS'cache'
p6171
S'<gluon.cache.Cache object>'
p6172
sS'IS_IN_DB'
p6173
S"<class 'gluon.validators.IS_IN_DB'>"
p6174
sS'TAG'
p6175
S'<gluon.html.__TAG__ object>'
p6176
sS'SQLField'
p6177
S"<class 'gluon.dal.Field'>"
p6178
sS'mail'
p6179
S'<gluon.tools.Mail object>'
p6180
sS'logger'
p6181
S'<logging.Logger object>'
p6182
sS'BODY'
p6183
S"<class 'gluon.html.BODY'>"
p6184
sS'IS_DATE_IN_RANGE'
p6185
S"<class 'gluon.validators.IS_DATE_IN_RANGE'>"
p6186
sS'IFRAME'
p6187
S"<class 'gluon.html.IFRAME'>"
p6188
sS'URL'
p6189
S'<function URL>'
p6190
sS'config'
p6191
S"<Storage {'mail': <Storage {}>, 'db': <Storage {...qlite', 'pool_size': 10}>, 'auth': <Storage {}>}>"
p6192
sS'__file__'
p6193
S"'/var/www/web2py_curso/applications/projeto/models/validators.py'"
p6194
sS'db'
p6195
S'<DAL uri="sqlite://projeto.sqlite">'
p6196
sS'auth'
p6197
S'<gluon.tools.Auth object>'
p6198
sS'P'
S"<class 'gluon.html.P'>"
p6199
sS'TFOOT'
p6200
S"<class 'gluon.html.TFOOT'>"
p6201
sS'XHTML'
p6202
S"<class 'gluon.html.XHTML'>"
p6203
sS'ON'
p6204
g3133
sS'OL'
p6205
S"<class 'gluon.html.OL'>"
p6206
sS'TEXTAREA'
p6207
S"<class 'gluon.html.TEXTAREA'>"
p6208
sS'MENU'
p6209
S"<class 'gluon.html.MENU'>"
p6210
sS'IS_IMAGE'
p6211
S"<class 'gluon.validators.IS_IMAGE'>"
p6212
sS'EM'
p6213
S"<class 'gluon.html.EM'>"
p6214
sS'CODE'
p6215
S"<class 'gluon.html.CODE'>"
p6216
sS'HTTP'
p6217
S"<class 'gluon.http.HTTP'>"
p6218
sS'HR'
p6219
S"<class 'gluon.html.HR'>"
p6220
sS'IS_DATETIME'
p6221
S"<class 'gluon.validators.IS_DATETIME'>"
p6222
sS'Storage'
p6223
S"<class 'gluon.storage.Storage'>"
p6224
sS'STYLE'
p6225
S"<class 'gluon.html.STYLE'>"
p6226
sS'LABEL'
p6227
S"<class 'gluon.html.LABEL'>"
p6228
sS'CLEANUP'
p6229
S"<class 'gluon.validators.CLEANUP'>"
p6230
sS'SELECT'
p6231
S"<class 'gluon.html.SELECT'>"
p6232
sS'CENTER'
p6233
S"<class 'gluon.html.CENTER'>"
p6234
sS'prettydate'
p6235
S'<function prettydate>'
p6236
sS'Auth'
p6237
S"<class 'gluon.tools.Auth'>"
p6238
sS'__builtins__'
p6239
S"{'ArithmeticError': <type 'exceptions.ArithmeticError'>, 'AssertionError': <type 'exceptions.AssertionError'>, 'AttributeError': <type 'exceptions.AttributeError'>, 'BaseException': <type 'exceptions.BaseException'>, 'BufferError': <type 'exceptions.BufferError'>, 'BytesWarning': <type 'exceptions.BytesWarning'>, 'DeprecationWarning': <type 'exceptions.DeprecationWarning'>, 'EOFError': <type 'exceptions.EOFError'>, 'Ellipsis': Ellipsis, 'EnvironmentError': <type 'exceptions.EnvironmentError'>, ...}"
p6240
sS'HTML'
p6241
S"<class 'gluon.html.HTML'>"
p6242
sS'SQLFORM'
p6243
S"<class 'gluon.sqlhtml.SQLFORM'>"
p6244
sS'LOAD'
p6245
S'<function LOAD>'
p6246
sS'redirect'
p6247
S'<function redirect>'
p6248
sS'FIELDSET'
p6249
S"<class 'gluon.html.FIELDSET'>"
p6250
sS'IS_EQUAL_TO'
p6251
S"<class 'gluon.validators.IS_EQUAL_TO'>"
p6252
sS'embed64'
p6253
S'<function embed64>'
p6254
sS'IS_LIST_OF'
p6255
S"<class 'gluon.validators.IS_LIST_OF'>"
p6256
sS'INPUT'
p6257
S"<class 'gluon.html.INPUT'>"
p6258
sS'EMBED'
p6259
S"<class 'gluon.html.EMBED'>"
p6260
sS'logging'
p6261
S"<module 'logging' from '/usr/lib/python2.7/logging/__init__.pyc'>"
p6262
sS'H2'
p6263
S"<class 'gluon.html.H2'>"
p6264
sS'H3'
p6265
S"<class 'gluon.html.H3'>"
p6266
sS'BUTTON'
p6267
S"<class 'gluon.html.BUTTON'>"
p6268
sS'H1'
p6269
S"<class 'gluon.html.H1'>"
p6270
sS'H6'
p6271
S"<class 'gluon.html.H6'>"
p6272
sS'H4'
p6273
S"<class 'gluon.html.H4'>"
p6274
sS'H5'
p6275
S"<class 'gluon.html.H5'>"
p6276
sS'UL'
p6277
S"<class 'gluon.html.UL'>"
p6278
sS'IS_UPPER'
p6279
S"<class 'gluon.validators.IS_UPPER'>"
p6280
sS'xmlescape'
p6281
S'<function xmlescape>'
p6282
sS'IS_TIME'
p6283
S"<class 'gluon.validators.IS_TIME'>"
p6284
sS'Category'
p6285
S'<Table category (id,name)>'
p6286
sS'OPTION'
p6287
S"<class 'gluon.html.OPTION'>"
p6288
sS'TITLE'
p6289
S"<class 'gluon.html.TITLE'>"
p6290
sS'CRYPT'
p6291
S"<class 'gluon.validators.CRYPT'>"
p6292
sS'IS_EMPTY_OR'
p6293
S"<class 'gluon.validators.IS_EMPTY_OR'>"
p6294
sS'MARKMIN'
p6295
S"<class 'gluon.html.MARKMIN'>"
p6296
sS'notifica'
p6297
S'<function notifica>'
p6298
sS'STRONG'
p6299
S"<class 'gluon.html.STRONG'>"
p6300
sS'COL'
p6301
S"<class 'gluon.html.COL'>"
p6302
sS'SCRIPT'
p6303
S"<class 'gluon.html.SCRIPT'>"
p6304
sS'TABLE'
p6305
S"<class 'gluon.html.TABLE'>"
p6306
sS'Post'
p6307
S'<Table post (id,blog,title,slug,post_body,post_d...by,is_active,created_on,modified_on,modified_by)>'
p6308
sS'IS_IPV4'
p6309
S"<class 'gluon.validators.IS_IPV4'>"
p6310
sS'IS_LENGTH'
p6311
S"<class 'gluon.validators.IS_LENGTH'>"
p6312
sS'XML'
p6313
S"<class 'gluon.html.XML'>"
p6314
sS'B'
S"<class 'gluon.html.B'>"
p6315
sS'IMG'
p6316
S"<class 'gluon.html.IMG'>"
p6317
sS'SQLTABLE'
p6318
S"<class 'gluon.sqlhtml.SQLTABLE'>"
p6319
sS'IS_MATCH'
p6320
S"<class 'gluon.validators.IS_MATCH'>"
p6321
sS'IS_ALPHANUMERIC'
p6322
S"<class 'gluon.validators.IS_ALPHANUMERIC'>"
p6323
sS'SPAN'
p6324
S"<class 'gluon.html.SPAN'>"
p6325
sS'IS_SLUG'
p6326
S"<class 'gluon.validators.IS_SLUG'>"
p6327
sS'BEAUTIFY'
p6328
S"<class 'gluon.html.BEAUTIFY'>"
p6329
sS'META'
p6330
S"<class 'gluon.html.META'>"
p6331
sS'IS_DATE'
p6332
S"<class 'gluon.validators.IS_DATE'>"
p6333
sS'IS_EMAIL'
p6334
S"<class 'gluon.validators.IS_EMAIL'>"
p6335
sS'IS_NOT_EMPTY'
p6336
S"<class 'gluon.validators.IS_NOT_EMPTY'>"
p6337
sS'IS_FLOAT_IN_RANGE'
p6338
S"<class 'gluon.validators.IS_FLOAT_IN_RANGE'>"
p6339
sS'TBODY'
p6340
S"<class 'gluon.html.TBODY'>"
p6341
sS'CAT'
p6342
S"<class 'gluon.html.CAT'>"
p6343
sS'Blog'
p6344
S'<Table blog (id,title,description)>'
p6345
sS'Field'
p6346
S"<class 'gluon.dal.Field'>"
p6347
sS'DIV'
p6348
S"<class 'gluon.html.DIV'>"
p6349
sS'LEGEND'
p6350
S"<class 'gluon.html.LEGEND'>"
p6351
sS'form'
p6352
S'<gluon.sqlhtml.SQLFORM object>'
p6353
sS'COLGROUP'
p6354
S"<class 'gluon.html.COLGROUP'>"
p6355
sS'DAL'
p6356
S"<class 'gluon.dal.DAL'>"
p6357
sS'TT'
p6358
S"<class 'gluon.html.TT'>"
p6359
sS'TR'
p6360
S"<class 'gluon.html.TR'>"
p6361
sS'LI'
p6362
S"<class 'gluon.html.LI'>"
p6363
sS'TH'
p6364
S"<class 'gluon.html.TH'>"
p6365
sS'TD'
p6366
S"<class 'gluon.html.TD'>"
p6367
sS'IS_URL'
p6368
S"<class 'gluon.validators.IS_URL'>"
p6369
sS'A'
S"<class 'gluon.html.A'>"
p6370
sS'HEAD'
p6371
S"<class 'gluon.html.HEAD'>"
p6372
sS'IS_DATETIME_IN_RANGE'
p6373
S"<class 'gluon.validators.IS_DATETIME_IN_RANGE'>"
p6374
sS'FORM'
p6375
S"<class 'gluon.html.FORM'>"
p6376
sS'I'
S"<class 'gluon.html.I'>"
p6377
sS'IS_NOT_IN_DB'
p6378
S"<class 'gluon.validators.IS_NOT_IN_DB'>"
p6379
sg5261
S"<Storage {'body': <cStringIO.StringO object at 0...a> at 0x7fc9e458cb18>, 'view': 'post/add2.html'}>"
p6380
sS'THEAD'
p6381
S"<class 'gluon.html.THEAD'>"
p6382
sS'IS_NULL_OR'
p6383
S"<class 'gluon.validators.IS_EMPTY_OR'>"
p6384
sS'__name__'
p6385
S"'__restricted__'"
p6386
sg54
S"<Storage {'function': 'add2', 'body': <cStringIO...plications/projeto/', 'post_vars': <Storage {}>}>"
p6387
sS'IS_EXPR'
p6388
S"<class 'gluon.validators.IS_EXPR'>"
p6389
sS'T'
S'<gluon.languages.translator object>'
p6390
sS'IS_IN_SET'
p6391
S"<class 'gluon.validators.IS_IN_SET'>"
p6392
sS'IS_UPLOAD_FILENAME'
p6393
S"<class 'gluon.validators.IS_UPLOAD_FILENAME'>"
p6394
sS'IS_NOT_CONTEUDO'
p6395
S"<class 'applications.projeto.modules.customvalidators.IS_NOT_CONTEUDO'>"
p6396
sS'IS_DECIMAL_IN_RANGE'
p6397
S"<class 'gluon.validators.IS_DECIMAL_IN_RANGE'>"
p6398
sssS'traceback'
p6399
S'Traceback (most recent call last):\n  File "/var/www/web2py_curso/gluon/main.py", line 543, in wsgibase\n    serve_controller(request, response, session)\n  File "/var/www/web2py_curso/gluon/main.py", line 227, in serve_controller\n    run_view_in(response._view_environment)\n  File "/var/www/web2py_curso/gluon/compileapp.py", line 672, in run_view_in\n    context=environment)\n  File "/var/www/web2py_curso/gluon/template.py", line 785, in parse_template\n    return str(TemplateParser(text, context=context, path=path, lexers=lexers, delimiters=delimiters))\n  File "/var/www/web2py_curso/gluon/template.py", line 316, in __init__\n    self.parse(text)\n  File "/var/www/web2py_curso/gluon/template.py", line 756, in parse\n    self.extend(extend)\n  File "/var/www/web2py_curso/gluon/template.py", line 471, in extend\n    text = self._get_file_text(filename)\n  File "/var/www/web2py_curso/gluon/template.py", line 436, in _get_file_text\n    filename = eval(filename, context)\n  File "<string>", line 1, in <module>\nNameError: name \'layout\' is not defined\n'
p6400
s.