(dp1
S'output'
p2
S"<type 'exceptions.TypeError'> 'Set' object is not iterable"
p3
sS'layer'
p4
S'/var/www/web2py_curso/applications/projeto/controllers/post.py'
p5
sS'code'
p6
S'def show():\n\treturn "post"\n\ndef edit():\n\treturn "edit post"\n\ndef delete():\n\treturn "delete"\n\n@auth.requires(auth.has_membership("admin") or auth.has_membership("editor"))\ndef add():\n\tform = SQLFORM(db.post)\n\tprint form\n\n\tif form.process().accepted:\n\t\tresponse.flash = "Sucesso"\n\telif form.errors:\n\t\tresponse.flash = "erro"\n\telse:\n\t\tresponse.flash = "Preencha o form"\n\n\treturn dict(form=form)\n\n\nresponse._vars=response._caller(add)\n'
p7
sS'snapshot'
p8
(dp9
S'exception'
p10
(dp11
S'__hash__'
p12
S"<method-wrapper '__hash__' of exceptions.TypeError object>"
p13
sS'__setattr__'
p14
S"<method-wrapper '__setattr__' of exceptions.TypeError object>"
p15
sS'__reduce_ex__'
p16
S'<built-in method __reduce_ex__ of exceptions.TypeError object>'
p17
sS'__getslice__'
p18
S"<method-wrapper '__getslice__' of exceptions.TypeError object>"
p19
sS'__getitem__'
p20
S"<method-wrapper '__getitem__' of exceptions.TypeError object>"
p21
sS'__setstate__'
p22
S'<built-in method __setstate__ of exceptions.TypeError object>'
p23
sS'args'
p24
S'("\'Set\' object is not iterable",)'
p25
sS'__reduce__'
p26
S'<built-in method __reduce__ of exceptions.TypeError object>'
p27
sS'__str__'
p28
S"<method-wrapper '__str__' of exceptions.TypeError object>"
p29
sS'__format__'
p30
S'<built-in method __format__ of exceptions.TypeError object>'
p31
sS'__getattribute__'
p32
S"<method-wrapper '__getattribute__' of exceptions.TypeError object>"
p33
sS'__class__'
p34
S"<type 'exceptions.TypeError'>"
p35
sS'__unicode__'
p36
S'<built-in method __unicode__ of exceptions.TypeError object>'
p37
sS'__delattr__'
p38
S"<method-wrapper '__delattr__' of exceptions.TypeError object>"
p39
sS'__subclasshook__'
p40
S'<built-in method __subclasshook__ of type object>'
p41
sS'__repr__'
p42
S"<method-wrapper '__repr__' of exceptions.TypeError object>"
p43
sS'__dict__'
p44
S'{}'
p45
sS'__sizeof__'
p46
S'<built-in method __sizeof__ of exceptions.TypeError object>'
p47
sS'__doc__'
p48
S"'Inappropriate argument type.'"
p49
sS'__init__'
p50
S"<method-wrapper '__init__' of exceptions.TypeError object>"
p51
sS'__new__'
p52
S'<built-in method __new__ of type object>'
p53
ssS'evalue'
p54
S"'Set' object is not iterable"
p55
sS'request'
p56
ccopy_reg
_reconstructor
p57
(cgluon.html
BEAUTIFY
p58
c__builtin__
object
p59
NtRp60
(dp61
S'attributes'
p62
(dp63
sS'components'
p64
(lp65
g57
(cgluon.html
TABLE
p66
g59
NtRp67
(dp68
g62
(dp69
S'level'
p70
I5
ssS'parent'
p71
Nsg64
(lp72
g57
(cgluon.html
TR
p73
g59
NtRp74
(dp75
g62
(dp76
sg71
g67
sg64
(lp77
g57
(cgluon.html
TD
p78
g59
NtRp79
(dp80
g62
(dp81
S'_style'
p82
S'font-weight:bold;vertical-align:top'
p83
ssg71
g74
sg64
(lp84
S'ajax'
p85
asbag57
(g78
g59
NtRp86
(dp87
g62
(dp88
S'_valign'
p89
S'top'
p90
ssg71
g74
sg64
(lp91
S':'
asbag57
(g78
g59
NtRp92
(dp93
g62
(dp94
sg71
g74
sg64
(lp95
g57
(g58
g59
NtRp96
(dp97
g62
(dp98
g70
I5
ssg71
g92
sg64
(lp99
S'False'
p100
asbasbasbag57
(g73
g59
NtRp101
(dp102
g62
(dp103
sg71
g67
sg64
(lp104
g57
(g78
g59
NtRp105
(dp106
g62
(dp107
g82
g83
ssg71
g101
sg64
(lp108
S'application'
p109
asbag57
(g78
g59
NtRp110
(dp111
g62
(dp112
g89
g90
ssg71
g101
sg64
(lp113
S':'
asbag57
(g78
g59
NtRp114
(dp115
g62
(dp116
sg71
g101
sg64
(lp117
g57
(g58
g59
NtRp118
(dp119
g62
(dp120
g70
I5
ssg71
g114
sg64
(lp121
S'projeto'
p122
asbasbasbag57
(g73
g59
NtRp123
(dp124
g62
(dp125
sg71
g67
sg64
(lp126
g57
(g78
g59
NtRp127
(dp128
g62
(dp129
g82
g83
ssg71
g123
sg64
(lp130
g24
asbag57
(g78
g59
NtRp131
(dp132
g62
(dp133
g89
g90
ssg71
g123
sg64
(lp134
S':'
asbag57
(g78
g59
NtRp135
(dp136
g62
(dp137
sg71
g123
sg64
(lp138
g57
(g58
g59
NtRp139
(dp140
g62
(dp141
g70
I5
ssg71
g135
sg64
(lp142
g57
(g66
g59
NtRp143
(dp144
g62
(dp145
g70
I4
ssg71
Nsg64
(lp146
sbasbasbasbag57
(g73
g59
NtRp147
(dp148
g62
(dp149
sg71
g67
sg64
(lp150
g57
(g78
g59
NtRp151
(dp152
g62
(dp153
g82
g83
ssg71
g147
sg64
(lp154
S'body'
p155
asbag57
(g78
g59
NtRp156
(dp157
g62
(dp158
g89
g90
ssg71
g147
sg64
(lp159
S':'
asbag57
(g78
g59
NtRp160
(dp161
g62
(dp162
sg71
g147
sg64
(lp163
g57
(g58
g59
NtRp164
(dp165
g62
(dp166
g70
I5
ssg71
g160
sg64
(lp167
S"<open file '<fdopen>', mode 'w+b' at 0x7ff37c53f1e0>"
p168
asbasbasbag57
(g73
g59
NtRp169
(dp170
g62
(dp171
sg71
g67
sg64
(lp172
g57
(g78
g59
NtRp173
(dp174
g62
(dp175
g82
g83
ssg71
g169
sg64
(lp176
S'cid'
p177
asbag57
(g78
g59
NtRp178
(dp179
g62
(dp180
g89
g90
ssg71
g169
sg64
(lp181
S':'
asbag57
(g78
g59
NtRp182
(dp183
g62
(dp184
sg71
g169
sg64
(lp185
g57
(g58
g59
NtRp186
(dp187
g62
(dp188
g70
I5
ssg71
g182
sg64
(lp189
S'None'
p190
asbasbasbag57
(g73
g59
NtRp191
(dp192
g62
(dp193
sg71
g67
sg64
(lp194
g57
(g78
g59
NtRp195
(dp196
g62
(dp197
g82
g83
ssg71
g191
sg64
(lp198
S'client'
p199
asbag57
(g78
g59
NtRp200
(dp201
g62
(dp202
g89
g90
ssg71
g191
sg64
(lp203
S':'
asbag57
(g78
g59
NtRp204
(dp205
g62
(dp206
sg71
g191
sg64
(lp207
g57
(g58
g59
NtRp208
(dp209
g62
(dp210
g70
I5
ssg71
g204
sg64
(lp211
S'127.0.0.1'
p212
asbasbasbag57
(g73
g59
NtRp213
(dp214
g62
(dp215
sg71
g67
sg64
(lp216
g57
(g78
g59
NtRp217
(dp218
g62
(dp219
g82
g83
ssg71
g213
sg64
(lp220
S'controller'
p221
asbag57
(g78
g59
NtRp222
(dp223
g62
(dp224
g89
g90
ssg71
g213
sg64
(lp225
S':'
asbag57
(g78
g59
NtRp226
(dp227
g62
(dp228
sg71
g213
sg64
(lp229
g57
(g58
g59
NtRp230
(dp231
g62
(dp232
g70
I5
ssg71
g226
sg64
(lp233
S'post'
p234
asbasbasbag57
(g73
g59
NtRp235
(dp236
g62
(dp237
sg71
g67
sg64
(lp238
g57
(g78
g59
NtRp239
(dp240
g62
(dp241
g82
g83
ssg71
g235
sg64
(lp242
S'cookies'
p243
asbag57
(g78
g59
NtRp244
(dp245
g62
(dp246
g89
g90
ssg71
g235
sg64
(lp247
S':'
asbag57
(g78
g59
NtRp248
(dp249
g62
(dp250
sg71
g235
sg64
(lp251
g57
(g58
g59
NtRp252
(dp253
g62
(dp254
g70
I5
ssg71
g248
sg64
(lp255
g57
(g66
g59
NtRp256
(dp257
g62
(dp258
g70
I4
ssg71
Nsg64
(lp259
g57
(g73
g59
NtRp260
(dp261
g62
(dp262
sg71
g256
sg64
(lp263
g57
(g78
g59
NtRp264
(dp265
g62
(dp266
g82
g83
ssg71
g260
sg64
(lp267
S'admin'
p268
asbag57
(g78
g59
NtRp269
(dp270
g62
(dp271
g89
g90
ssg71
g260
sg64
(lp272
S':'
asbag57
(g78
g59
NtRp273
(dp274
g62
(dp275
sg71
g260
sg64
(lp276
g57
(g58
g59
NtRp277
(dp278
g62
(dp279
g70
I4
ssg71
g273
sg64
(lp280
S'admin'
p281
ag57
(g66
g59
NtRp282
(dp283
g62
(dp284
g70
I3
ssg71
Nsg64
(lp285
g57
(g73
g59
NtRp286
(dp287
g62
(dp288
sg71
g282
sg64
(lp289
g57
(g78
g59
NtRp290
(dp291
g62
(dp292
g82
g83
ssg71
g286
sg64
(lp293
S'comment'
p294
asbag57
(g78
g59
NtRp295
(dp296
g62
(dp297
g89
g90
ssg71
g286
sg64
(lp298
S':'
asbag57
(g78
g59
NtRp299
(dp300
g62
(dp301
sg71
g286
sg64
(lp302
g57
(g58
g59
NtRp303
(dp304
g62
(dp305
g70
I3
ssg71
g299
sg64
(lp306
S''
asbasbasbag57
(g73
g59
NtRp307
(dp308
g62
(dp309
sg71
g282
sg64
(lp310
g57
(g78
g59
NtRp311
(dp312
g62
(dp313
g82
g83
ssg71
g307
sg64
(lp314
S'domain'
p315
asbag57
(g78
g59
NtRp316
(dp317
g62
(dp318
g89
g90
ssg71
g307
sg64
(lp319
S':'
asbag57
(g78
g59
NtRp320
(dp321
g62
(dp322
sg71
g307
sg64
(lp323
g57
(g58
g59
NtRp324
(dp325
g62
(dp326
g70
I3
ssg71
g320
sg64
(lp327
S''
asbasbasbag57
(g73
g59
NtRp328
(dp329
g62
(dp330
sg71
g282
sg64
(lp331
g57
(g78
g59
NtRp332
(dp333
g62
(dp334
g82
g83
ssg71
g328
sg64
(lp335
S'expires'
p336
asbag57
(g78
g59
NtRp337
(dp338
g62
(dp339
g89
g90
ssg71
g328
sg64
(lp340
S':'
asbag57
(g78
g59
NtRp341
(dp342
g62
(dp343
sg71
g328
sg64
(lp344
g57
(g58
g59
NtRp345
(dp346
g62
(dp347
g70
I3
ssg71
g341
sg64
(lp348
S''
asbasbasbag57
(g73
g59
NtRp349
(dp350
g62
(dp351
sg71
g282
sg64
(lp352
g57
(g78
g59
NtRp353
(dp354
g62
(dp355
g82
g83
ssg71
g349
sg64
(lp356
S'httponly'
p357
asbag57
(g78
g59
NtRp358
(dp359
g62
(dp360
g89
g90
ssg71
g349
sg64
(lp361
S':'
asbag57
(g78
g59
NtRp362
(dp363
g62
(dp364
sg71
g349
sg64
(lp365
g57
(g58
g59
NtRp366
(dp367
g62
(dp368
g70
I3
ssg71
g362
sg64
(lp369
S''
asbasbasbag57
(g73
g59
NtRp370
(dp371
g62
(dp372
sg71
g282
sg64
(lp373
g57
(g78
g59
NtRp374
(dp375
g62
(dp376
g82
g83
ssg71
g370
sg64
(lp377
S'max-age'
p378
asbag57
(g78
g59
NtRp379
(dp380
g62
(dp381
g89
g90
ssg71
g370
sg64
(lp382
S':'
asbag57
(g78
g59
NtRp383
(dp384
g62
(dp385
sg71
g370
sg64
(lp386
g57
(g58
g59
NtRp387
(dp388
g62
(dp389
g70
I3
ssg71
g383
sg64
(lp390
S''
asbasbasbag57
(g73
g59
NtRp391
(dp392
g62
(dp393
sg71
g282
sg64
(lp394
g57
(g78
g59
NtRp395
(dp396
g62
(dp397
g82
g83
ssg71
g391
sg64
(lp398
S'path'
p399
asbag57
(g78
g59
NtRp400
(dp401
g62
(dp402
g89
g90
ssg71
g391
sg64
(lp403
S':'
asbag57
(g78
g59
NtRp404
(dp405
g62
(dp406
sg71
g391
sg64
(lp407
g57
(g58
g59
NtRp408
(dp409
g62
(dp410
g70
I3
ssg71
g404
sg64
(lp411
S''
asbasbasbag57
(g73
g59
NtRp412
(dp413
g62
(dp414
sg71
g282
sg64
(lp415
g57
(g78
g59
NtRp416
(dp417
g62
(dp418
g82
g83
ssg71
g412
sg64
(lp419
S'secure'
p420
asbag57
(g78
g59
NtRp421
(dp422
g62
(dp423
g89
g90
ssg71
g412
sg64
(lp424
S':'
asbag57
(g78
g59
NtRp425
(dp426
g62
(dp427
sg71
g412
sg64
(lp428
g57
(g58
g59
NtRp429
(dp430
g62
(dp431
g70
I3
ssg71
g425
sg64
(lp432
S''
asbasbasbag57
(g73
g59
NtRp433
(dp434
g62
(dp435
sg71
g282
sg64
(lp436
g57
(g78
g59
NtRp437
(dp438
g62
(dp439
g82
g83
ssg71
g433
sg64
(lp440
S'version'
p441
asbag57
(g78
g59
NtRp442
(dp443
g62
(dp444
g89
g90
ssg71
g433
sg64
(lp445
S':'
asbag57
(g78
g59
NtRp446
(dp447
g62
(dp448
sg71
g433
sg64
(lp449
g57
(g58
g59
NtRp450
(dp451
g62
(dp452
g70
I3
ssg71
g446
sg64
(lp453
S''
asbasbasbasbasbasbasbag57
(g73
g59
NtRp454
(dp455
g62
(dp456
sg71
g256
sg64
(lp457
g57
(g78
g59
NtRp458
(dp459
g62
(dp460
g82
g83
ssg71
g454
sg64
(lp461
S'cookie'
p462
asbag57
(g78
g59
NtRp463
(dp464
g62
(dp465
g89
g90
ssg71
g454
sg64
(lp466
S':'
asbag57
(g78
g59
NtRp467
(dp468
g62
(dp469
sg71
g454
sg64
(lp470
g57
(g58
g59
NtRp471
(dp472
g62
(dp473
g70
I4
ssg71
g467
sg64
(lp474
S'1649423593'
p475
ag57
(g66
g59
NtRp476
(dp477
g62
(dp478
g70
I3
ssg71
Nsg64
(lp479
g57
(g73
g59
NtRp480
(dp481
g62
(dp482
sg71
g476
sg64
(lp483
g57
(g78
g59
NtRp484
(dp485
g62
(dp486
g82
g83
ssg71
g480
sg64
(lp487
g294
asbag57
(g78
g59
NtRp488
(dp489
g62
(dp490
g89
g90
ssg71
g480
sg64
(lp491
S':'
asbag57
(g78
g59
NtRp492
(dp493
g62
(dp494
sg71
g480
sg64
(lp495
g57
(g58
g59
NtRp496
(dp497
g62
(dp498
g70
I3
ssg71
g492
sg64
(lp499
S''
asbasbasbag57
(g73
g59
NtRp500
(dp501
g62
(dp502
sg71
g476
sg64
(lp503
g57
(g78
g59
NtRp504
(dp505
g62
(dp506
g82
g83
ssg71
g500
sg64
(lp507
g315
asbag57
(g78
g59
NtRp508
(dp509
g62
(dp510
g89
g90
ssg71
g500
sg64
(lp511
S':'
asbag57
(g78
g59
NtRp512
(dp513
g62
(dp514
sg71
g500
sg64
(lp515
g57
(g58
g59
NtRp516
(dp517
g62
(dp518
g70
I3
ssg71
g512
sg64
(lp519
S''
asbasbasbag57
(g73
g59
NtRp520
(dp521
g62
(dp522
sg71
g476
sg64
(lp523
g57
(g78
g59
NtRp524
(dp525
g62
(dp526
g82
g83
ssg71
g520
sg64
(lp527
g336
asbag57
(g78
g59
NtRp528
(dp529
g62
(dp530
g89
g90
ssg71
g520
sg64
(lp531
S':'
asbag57
(g78
g59
NtRp532
(dp533
g62
(dp534
sg71
g520
sg64
(lp535
g57
(g58
g59
NtRp536
(dp537
g62
(dp538
g70
I3
ssg71
g532
sg64
(lp539
S''
asbasbasbag57
(g73
g59
NtRp540
(dp541
g62
(dp542
sg71
g476
sg64
(lp543
g57
(g78
g59
NtRp544
(dp545
g62
(dp546
g82
g83
ssg71
g540
sg64
(lp547
g357
asbag57
(g78
g59
NtRp548
(dp549
g62
(dp550
g89
g90
ssg71
g540
sg64
(lp551
S':'
asbag57
(g78
g59
NtRp552
(dp553
g62
(dp554
sg71
g540
sg64
(lp555
g57
(g58
g59
NtRp556
(dp557
g62
(dp558
g70
I3
ssg71
g552
sg64
(lp559
S''
asbasbasbag57
(g73
g59
NtRp560
(dp561
g62
(dp562
sg71
g476
sg64
(lp563
g57
(g78
g59
NtRp564
(dp565
g62
(dp566
g82
g83
ssg71
g560
sg64
(lp567
g378
asbag57
(g78
g59
NtRp568
(dp569
g62
(dp570
g89
g90
ssg71
g560
sg64
(lp571
S':'
asbag57
(g78
g59
NtRp572
(dp573
g62
(dp574
sg71
g560
sg64
(lp575
g57
(g58
g59
NtRp576
(dp577
g62
(dp578
g70
I3
ssg71
g572
sg64
(lp579
S''
asbasbasbag57
(g73
g59
NtRp580
(dp581
g62
(dp582
sg71
g476
sg64
(lp583
g57
(g78
g59
NtRp584
(dp585
g62
(dp586
g82
g83
ssg71
g580
sg64
(lp587
g399
asbag57
(g78
g59
NtRp588
(dp589
g62
(dp590
g89
g90
ssg71
g580
sg64
(lp591
S':'
asbag57
(g78
g59
NtRp592
(dp593
g62
(dp594
sg71
g580
sg64
(lp595
g57
(g58
g59
NtRp596
(dp597
g62
(dp598
g70
I3
ssg71
g592
sg64
(lp599
S''
asbasbasbag57
(g73
g59
NtRp600
(dp601
g62
(dp602
sg71
g476
sg64
(lp603
g57
(g78
g59
NtRp604
(dp605
g62
(dp606
g82
g83
ssg71
g600
sg64
(lp607
g420
asbag57
(g78
g59
NtRp608
(dp609
g62
(dp610
g89
g90
ssg71
g600
sg64
(lp611
S':'
asbag57
(g78
g59
NtRp612
(dp613
g62
(dp614
sg71
g600
sg64
(lp615
g57
(g58
g59
NtRp616
(dp617
g62
(dp618
g70
I3
ssg71
g612
sg64
(lp619
S''
asbasbasbag57
(g73
g59
NtRp620
(dp621
g62
(dp622
sg71
g476
sg64
(lp623
g57
(g78
g59
NtRp624
(dp625
g62
(dp626
g82
g83
ssg71
g620
sg64
(lp627
g441
asbag57
(g78
g59
NtRp628
(dp629
g62
(dp630
g89
g90
ssg71
g620
sg64
(lp631
S':'
asbag57
(g78
g59
NtRp632
(dp633
g62
(dp634
sg71
g620
sg64
(lp635
g57
(g58
g59
NtRp636
(dp637
g62
(dp638
g70
I3
ssg71
g632
sg64
(lp639
S''
asbasbasbasbasbasbasbag57
(g73
g59
NtRp640
(dp641
g62
(dp642
sg71
g256
sg64
(lp643
g57
(g78
g59
NtRp644
(dp645
g62
(dp646
g82
g83
ssg71
g640
sg64
(lp647
S'hw_type'
p648
asbag57
(g78
g59
NtRp649
(dp650
g62
(dp651
g89
g90
ssg71
g640
sg64
(lp652
S':'
asbag57
(g78
g59
NtRp653
(dp654
g62
(dp655
sg71
g640
sg64
(lp656
g57
(g58
g59
NtRp657
(dp658
g62
(dp659
g70
I4
ssg71
g653
sg64
(lp660
S'MX60'
p661
ag57
(g66
g59
NtRp662
(dp663
g62
(dp664
g70
I3
ssg71
Nsg64
(lp665
g57
(g73
g59
NtRp666
(dp667
g62
(dp668
sg71
g662
sg64
(lp669
g57
(g78
g59
NtRp670
(dp671
g62
(dp672
g82
g83
ssg71
g666
sg64
(lp673
g294
asbag57
(g78
g59
NtRp674
(dp675
g62
(dp676
g89
g90
ssg71
g666
sg64
(lp677
S':'
asbag57
(g78
g59
NtRp678
(dp679
g62
(dp680
sg71
g666
sg64
(lp681
g57
(g58
g59
NtRp682
(dp683
g62
(dp684
g70
I3
ssg71
g678
sg64
(lp685
S''
asbasbasbag57
(g73
g59
NtRp686
(dp687
g62
(dp688
sg71
g662
sg64
(lp689
g57
(g78
g59
NtRp690
(dp691
g62
(dp692
g82
g83
ssg71
g686
sg64
(lp693
g315
asbag57
(g78
g59
NtRp694
(dp695
g62
(dp696
g89
g90
ssg71
g686
sg64
(lp697
S':'
asbag57
(g78
g59
NtRp698
(dp699
g62
(dp700
sg71
g686
sg64
(lp701
g57
(g58
g59
NtRp702
(dp703
g62
(dp704
g70
I3
ssg71
g698
sg64
(lp705
S''
asbasbasbag57
(g73
g59
NtRp706
(dp707
g62
(dp708
sg71
g662
sg64
(lp709
g57
(g78
g59
NtRp710
(dp711
g62
(dp712
g82
g83
ssg71
g706
sg64
(lp713
g336
asbag57
(g78
g59
NtRp714
(dp715
g62
(dp716
g89
g90
ssg71
g706
sg64
(lp717
S':'
asbag57
(g78
g59
NtRp718
(dp719
g62
(dp720
sg71
g706
sg64
(lp721
g57
(g58
g59
NtRp722
(dp723
g62
(dp724
g70
I3
ssg71
g718
sg64
(lp725
S''
asbasbasbag57
(g73
g59
NtRp726
(dp727
g62
(dp728
sg71
g662
sg64
(lp729
g57
(g78
g59
NtRp730
(dp731
g62
(dp732
g82
g83
ssg71
g726
sg64
(lp733
g357
asbag57
(g78
g59
NtRp734
(dp735
g62
(dp736
g89
g90
ssg71
g726
sg64
(lp737
S':'
asbag57
(g78
g59
NtRp738
(dp739
g62
(dp740
sg71
g726
sg64
(lp741
g57
(g58
g59
NtRp742
(dp743
g62
(dp744
g70
I3
ssg71
g738
sg64
(lp745
S''
asbasbasbag57
(g73
g59
NtRp746
(dp747
g62
(dp748
sg71
g662
sg64
(lp749
g57
(g78
g59
NtRp750
(dp751
g62
(dp752
g82
g83
ssg71
g746
sg64
(lp753
g378
asbag57
(g78
g59
NtRp754
(dp755
g62
(dp756
g89
g90
ssg71
g746
sg64
(lp757
S':'
asbag57
(g78
g59
NtRp758
(dp759
g62
(dp760
sg71
g746
sg64
(lp761
g57
(g58
g59
NtRp762
(dp763
g62
(dp764
g70
I3
ssg71
g758
sg64
(lp765
S''
asbasbasbag57
(g73
g59
NtRp766
(dp767
g62
(dp768
sg71
g662
sg64
(lp769
g57
(g78
g59
NtRp770
(dp771
g62
(dp772
g82
g83
ssg71
g766
sg64
(lp773
g399
asbag57
(g78
g59
NtRp774
(dp775
g62
(dp776
g89
g90
ssg71
g766
sg64
(lp777
S':'
asbag57
(g78
g59
NtRp778
(dp779
g62
(dp780
sg71
g766
sg64
(lp781
g57
(g58
g59
NtRp782
(dp783
g62
(dp784
g70
I3
ssg71
g778
sg64
(lp785
S''
asbasbasbag57
(g73
g59
NtRp786
(dp787
g62
(dp788
sg71
g662
sg64
(lp789
g57
(g78
g59
NtRp790
(dp791
g62
(dp792
g82
g83
ssg71
g786
sg64
(lp793
g420
asbag57
(g78
g59
NtRp794
(dp795
g62
(dp796
g89
g90
ssg71
g786
sg64
(lp797
S':'
asbag57
(g78
g59
NtRp798
(dp799
g62
(dp800
sg71
g786
sg64
(lp801
g57
(g58
g59
NtRp802
(dp803
g62
(dp804
g70
I3
ssg71
g798
sg64
(lp805
S''
asbasbasbag57
(g73
g59
NtRp806
(dp807
g62
(dp808
sg71
g662
sg64
(lp809
g57
(g78
g59
NtRp810
(dp811
g62
(dp812
g82
g83
ssg71
g806
sg64
(lp813
g441
asbag57
(g78
g59
NtRp814
(dp815
g62
(dp816
g89
g90
ssg71
g806
sg64
(lp817
S':'
asbag57
(g78
g59
NtRp818
(dp819
g62
(dp820
sg71
g806
sg64
(lp821
g57
(g58
g59
NtRp822
(dp823
g62
(dp824
g70
I3
ssg71
g818
sg64
(lp825
S''
asbasbasbasbasbasbasbag57
(g73
g59
NtRp826
(dp827
g62
(dp828
sg71
g256
sg64
(lp829
g57
(g78
g59
NtRp830
(dp831
g62
(dp832
g82
g83
ssg71
g826
sg64
(lp833
S'hw_version'
p834
asbag57
(g78
g59
NtRp835
(dp836
g62
(dp837
g89
g90
ssg71
g826
sg64
(lp838
S':'
asbag57
(g78
g59
NtRp839
(dp840
g62
(dp841
sg71
g826
sg64
(lp842
g57
(g58
g59
NtRp843
(dp844
g62
(dp845
g70
I4
ssg71
g839
sg64
(lp846
S'Rev%201.9.82.316'
p847
ag57
(g66
g59
NtRp848
(dp849
g62
(dp850
g70
I3
ssg71
Nsg64
(lp851
g57
(g73
g59
NtRp852
(dp853
g62
(dp854
sg71
g848
sg64
(lp855
g57
(g78
g59
NtRp856
(dp857
g62
(dp858
g82
g83
ssg71
g852
sg64
(lp859
g294
asbag57
(g78
g59
NtRp860
(dp861
g62
(dp862
g89
g90
ssg71
g852
sg64
(lp863
S':'
asbag57
(g78
g59
NtRp864
(dp865
g62
(dp866
sg71
g852
sg64
(lp867
g57
(g58
g59
NtRp868
(dp869
g62
(dp870
g70
I3
ssg71
g864
sg64
(lp871
S''
asbasbasbag57
(g73
g59
NtRp872
(dp873
g62
(dp874
sg71
g848
sg64
(lp875
g57
(g78
g59
NtRp876
(dp877
g62
(dp878
g82
g83
ssg71
g872
sg64
(lp879
g315
asbag57
(g78
g59
NtRp880
(dp881
g62
(dp882
g89
g90
ssg71
g872
sg64
(lp883
S':'
asbag57
(g78
g59
NtRp884
(dp885
g62
(dp886
sg71
g872
sg64
(lp887
g57
(g58
g59
NtRp888
(dp889
g62
(dp890
g70
I3
ssg71
g884
sg64
(lp891
S''
asbasbasbag57
(g73
g59
NtRp892
(dp893
g62
(dp894
sg71
g848
sg64
(lp895
g57
(g78
g59
NtRp896
(dp897
g62
(dp898
g82
g83
ssg71
g892
sg64
(lp899
g336
asbag57
(g78
g59
NtRp900
(dp901
g62
(dp902
g89
g90
ssg71
g892
sg64
(lp903
S':'
asbag57
(g78
g59
NtRp904
(dp905
g62
(dp906
sg71
g892
sg64
(lp907
g57
(g58
g59
NtRp908
(dp909
g62
(dp910
g70
I3
ssg71
g904
sg64
(lp911
S''
asbasbasbag57
(g73
g59
NtRp912
(dp913
g62
(dp914
sg71
g848
sg64
(lp915
g57
(g78
g59
NtRp916
(dp917
g62
(dp918
g82
g83
ssg71
g912
sg64
(lp919
g357
asbag57
(g78
g59
NtRp920
(dp921
g62
(dp922
g89
g90
ssg71
g912
sg64
(lp923
S':'
asbag57
(g78
g59
NtRp924
(dp925
g62
(dp926
sg71
g912
sg64
(lp927
g57
(g58
g59
NtRp928
(dp929
g62
(dp930
g70
I3
ssg71
g924
sg64
(lp931
S''
asbasbasbag57
(g73
g59
NtRp932
(dp933
g62
(dp934
sg71
g848
sg64
(lp935
g57
(g78
g59
NtRp936
(dp937
g62
(dp938
g82
g83
ssg71
g932
sg64
(lp939
g378
asbag57
(g78
g59
NtRp940
(dp941
g62
(dp942
g89
g90
ssg71
g932
sg64
(lp943
S':'
asbag57
(g78
g59
NtRp944
(dp945
g62
(dp946
sg71
g932
sg64
(lp947
g57
(g58
g59
NtRp948
(dp949
g62
(dp950
g70
I3
ssg71
g944
sg64
(lp951
S''
asbasbasbag57
(g73
g59
NtRp952
(dp953
g62
(dp954
sg71
g848
sg64
(lp955
g57
(g78
g59
NtRp956
(dp957
g62
(dp958
g82
g83
ssg71
g952
sg64
(lp959
g399
asbag57
(g78
g59
NtRp960
(dp961
g62
(dp962
g89
g90
ssg71
g952
sg64
(lp963
S':'
asbag57
(g78
g59
NtRp964
(dp965
g62
(dp966
sg71
g952
sg64
(lp967
g57
(g58
g59
NtRp968
(dp969
g62
(dp970
g70
I3
ssg71
g964
sg64
(lp971
S''
asbasbasbag57
(g73
g59
NtRp972
(dp973
g62
(dp974
sg71
g848
sg64
(lp975
g57
(g78
g59
NtRp976
(dp977
g62
(dp978
g82
g83
ssg71
g972
sg64
(lp979
g420
asbag57
(g78
g59
NtRp980
(dp981
g62
(dp982
g89
g90
ssg71
g972
sg64
(lp983
S':'
asbag57
(g78
g59
NtRp984
(dp985
g62
(dp986
sg71
g972
sg64
(lp987
g57
(g58
g59
NtRp988
(dp989
g62
(dp990
g70
I3
ssg71
g984
sg64
(lp991
S''
asbasbasbag57
(g73
g59
NtRp992
(dp993
g62
(dp994
sg71
g848
sg64
(lp995
g57
(g78
g59
NtRp996
(dp997
g62
(dp998
g82
g83
ssg71
g992
sg64
(lp999
g441
asbag57
(g78
g59
NtRp1000
(dp1001
g62
(dp1002
g89
g90
ssg71
g992
sg64
(lp1003
S':'
asbag57
(g78
g59
NtRp1004
(dp1005
g62
(dp1006
sg71
g992
sg64
(lp1007
g57
(g58
g59
NtRp1008
(dp1009
g62
(dp1010
g70
I3
ssg71
g1004
sg64
(lp1011
S''
asbasbasbasbasbasbasbag57
(g73
g59
NtRp1012
(dp1013
g62
(dp1014
sg71
g256
sg64
(lp1015
g57
(g78
g59
NtRp1016
(dp1017
g62
(dp1018
g82
g83
ssg71
g1012
sg64
(lp1019
S'language'
p1020
asbag57
(g78
g59
NtRp1021
(dp1022
g62
(dp1023
g89
g90
ssg71
g1012
sg64
(lp1024
S':'
asbag57
(g78
g59
NtRp1025
(dp1026
g62
(dp1027
sg71
g1012
sg64
(lp1028
g57
(g58
g59
NtRp1029
(dp1030
g62
(dp1031
g70
I4
ssg71
g1025
sg64
(lp1032
S'1'
ag57
(g66
g59
NtRp1033
(dp1034
g62
(dp1035
g70
I3
ssg71
Nsg64
(lp1036
g57
(g73
g59
NtRp1037
(dp1038
g62
(dp1039
sg71
g1033
sg64
(lp1040
g57
(g78
g59
NtRp1041
(dp1042
g62
(dp1043
g82
g83
ssg71
g1037
sg64
(lp1044
g294
asbag57
(g78
g59
NtRp1045
(dp1046
g62
(dp1047
g89
g90
ssg71
g1037
sg64
(lp1048
S':'
asbag57
(g78
g59
NtRp1049
(dp1050
g62
(dp1051
sg71
g1037
sg64
(lp1052
g57
(g58
g59
NtRp1053
(dp1054
g62
(dp1055
g70
I3
ssg71
g1049
sg64
(lp1056
S''
asbasbasbag57
(g73
g59
NtRp1057
(dp1058
g62
(dp1059
sg71
g1033
sg64
(lp1060
g57
(g78
g59
NtRp1061
(dp1062
g62
(dp1063
g82
g83
ssg71
g1057
sg64
(lp1064
g315
asbag57
(g78
g59
NtRp1065
(dp1066
g62
(dp1067
g89
g90
ssg71
g1057
sg64
(lp1068
S':'
asbag57
(g78
g59
NtRp1069
(dp1070
g62
(dp1071
sg71
g1057
sg64
(lp1072
g57
(g58
g59
NtRp1073
(dp1074
g62
(dp1075
g70
I3
ssg71
g1069
sg64
(lp1076
S''
asbasbasbag57
(g73
g59
NtRp1077
(dp1078
g62
(dp1079
sg71
g1033
sg64
(lp1080
g57
(g78
g59
NtRp1081
(dp1082
g62
(dp1083
g82
g83
ssg71
g1077
sg64
(lp1084
g336
asbag57
(g78
g59
NtRp1085
(dp1086
g62
(dp1087
g89
g90
ssg71
g1077
sg64
(lp1088
S':'
asbag57
(g78
g59
NtRp1089
(dp1090
g62
(dp1091
sg71
g1077
sg64
(lp1092
g57
(g58
g59
NtRp1093
(dp1094
g62
(dp1095
g70
I3
ssg71
g1089
sg64
(lp1096
S''
asbasbasbag57
(g73
g59
NtRp1097
(dp1098
g62
(dp1099
sg71
g1033
sg64
(lp1100
g57
(g78
g59
NtRp1101
(dp1102
g62
(dp1103
g82
g83
ssg71
g1097
sg64
(lp1104
g357
asbag57
(g78
g59
NtRp1105
(dp1106
g62
(dp1107
g89
g90
ssg71
g1097
sg64
(lp1108
S':'
asbag57
(g78
g59
NtRp1109
(dp1110
g62
(dp1111
sg71
g1097
sg64
(lp1112
g57
(g58
g59
NtRp1113
(dp1114
g62
(dp1115
g70
I3
ssg71
g1109
sg64
(lp1116
S''
asbasbasbag57
(g73
g59
NtRp1117
(dp1118
g62
(dp1119
sg71
g1033
sg64
(lp1120
g57
(g78
g59
NtRp1121
(dp1122
g62
(dp1123
g82
g83
ssg71
g1117
sg64
(lp1124
g378
asbag57
(g78
g59
NtRp1125
(dp1126
g62
(dp1127
g89
g90
ssg71
g1117
sg64
(lp1128
S':'
asbag57
(g78
g59
NtRp1129
(dp1130
g62
(dp1131
sg71
g1117
sg64
(lp1132
g57
(g58
g59
NtRp1133
(dp1134
g62
(dp1135
g70
I3
ssg71
g1129
sg64
(lp1136
S''
asbasbasbag57
(g73
g59
NtRp1137
(dp1138
g62
(dp1139
sg71
g1033
sg64
(lp1140
g57
(g78
g59
NtRp1141
(dp1142
g62
(dp1143
g82
g83
ssg71
g1137
sg64
(lp1144
g399
asbag57
(g78
g59
NtRp1145
(dp1146
g62
(dp1147
g89
g90
ssg71
g1137
sg64
(lp1148
S':'
asbag57
(g78
g59
NtRp1149
(dp1150
g62
(dp1151
sg71
g1137
sg64
(lp1152
g57
(g58
g59
NtRp1153
(dp1154
g62
(dp1155
g70
I3
ssg71
g1149
sg64
(lp1156
S''
asbasbasbag57
(g73
g59
NtRp1157
(dp1158
g62
(dp1159
sg71
g1033
sg64
(lp1160
g57
(g78
g59
NtRp1161
(dp1162
g62
(dp1163
g82
g83
ssg71
g1157
sg64
(lp1164
g420
asbag57
(g78
g59
NtRp1165
(dp1166
g62
(dp1167
g89
g90
ssg71
g1157
sg64
(lp1168
S':'
asbag57
(g78
g59
NtRp1169
(dp1170
g62
(dp1171
sg71
g1157
sg64
(lp1172
g57
(g58
g59
NtRp1173
(dp1174
g62
(dp1175
g70
I3
ssg71
g1169
sg64
(lp1176
S''
asbasbasbag57
(g73
g59
NtRp1177
(dp1178
g62
(dp1179
sg71
g1033
sg64
(lp1180
g57
(g78
g59
NtRp1181
(dp1182
g62
(dp1183
g82
g83
ssg71
g1177
sg64
(lp1184
g441
asbag57
(g78
g59
NtRp1185
(dp1186
g62
(dp1187
g89
g90
ssg71
g1177
sg64
(lp1188
S':'
asbag57
(g78
g59
NtRp1189
(dp1190
g62
(dp1191
sg71
g1177
sg64
(lp1192
g57
(g58
g59
NtRp1193
(dp1194
g62
(dp1195
g70
I3
ssg71
g1189
sg64
(lp1196
S''
asbasbasbasbasbasbasbag57
(g73
g59
NtRp1197
(dp1198
g62
(dp1199
sg71
g256
sg64
(lp1200
g57
(g78
g59
NtRp1201
(dp1202
g62
(dp1203
g82
g83
ssg71
g1197
sg64
(lp1204
S'model'
p1205
asbag57
(g78
g59
NtRp1206
(dp1207
g62
(dp1208
g89
g90
ssg71
g1197
sg64
(lp1209
S':'
asbag57
(g78
g59
NtRp1210
(dp1211
g62
(dp1212
sg71
g1197
sg64
(lp1213
g57
(g58
g59
NtRp1214
(dp1215
g62
(dp1216
g70
I4
ssg71
g1210
sg64
(lp1217
S'MX'
p1218
ag57
(g66
g59
NtRp1219
(dp1220
g62
(dp1221
g70
I3
ssg71
Nsg64
(lp1222
g57
(g73
g59
NtRp1223
(dp1224
g62
(dp1225
sg71
g1219
sg64
(lp1226
g57
(g78
g59
NtRp1227
(dp1228
g62
(dp1229
g82
g83
ssg71
g1223
sg64
(lp1230
g294
asbag57
(g78
g59
NtRp1231
(dp1232
g62
(dp1233
g89
g90
ssg71
g1223
sg64
(lp1234
S':'
asbag57
(g78
g59
NtRp1235
(dp1236
g62
(dp1237
sg71
g1223
sg64
(lp1238
g57
(g58
g59
NtRp1239
(dp1240
g62
(dp1241
g70
I3
ssg71
g1235
sg64
(lp1242
S''
asbasbasbag57
(g73
g59
NtRp1243
(dp1244
g62
(dp1245
sg71
g1219
sg64
(lp1246
g57
(g78
g59
NtRp1247
(dp1248
g62
(dp1249
g82
g83
ssg71
g1243
sg64
(lp1250
g315
asbag57
(g78
g59
NtRp1251
(dp1252
g62
(dp1253
g89
g90
ssg71
g1243
sg64
(lp1254
S':'
asbag57
(g78
g59
NtRp1255
(dp1256
g62
(dp1257
sg71
g1243
sg64
(lp1258
g57
(g58
g59
NtRp1259
(dp1260
g62
(dp1261
g70
I3
ssg71
g1255
sg64
(lp1262
S''
asbasbasbag57
(g73
g59
NtRp1263
(dp1264
g62
(dp1265
sg71
g1219
sg64
(lp1266
g57
(g78
g59
NtRp1267
(dp1268
g62
(dp1269
g82
g83
ssg71
g1263
sg64
(lp1270
g336
asbag57
(g78
g59
NtRp1271
(dp1272
g62
(dp1273
g89
g90
ssg71
g1263
sg64
(lp1274
S':'
asbag57
(g78
g59
NtRp1275
(dp1276
g62
(dp1277
sg71
g1263
sg64
(lp1278
g57
(g58
g59
NtRp1279
(dp1280
g62
(dp1281
g70
I3
ssg71
g1275
sg64
(lp1282
S''
asbasbasbag57
(g73
g59
NtRp1283
(dp1284
g62
(dp1285
sg71
g1219
sg64
(lp1286
g57
(g78
g59
NtRp1287
(dp1288
g62
(dp1289
g82
g83
ssg71
g1283
sg64
(lp1290
g357
asbag57
(g78
g59
NtRp1291
(dp1292
g62
(dp1293
g89
g90
ssg71
g1283
sg64
(lp1294
S':'
asbag57
(g78
g59
NtRp1295
(dp1296
g62
(dp1297
sg71
g1283
sg64
(lp1298
g57
(g58
g59
NtRp1299
(dp1300
g62
(dp1301
g70
I3
ssg71
g1295
sg64
(lp1302
S''
asbasbasbag57
(g73
g59
NtRp1303
(dp1304
g62
(dp1305
sg71
g1219
sg64
(lp1306
g57
(g78
g59
NtRp1307
(dp1308
g62
(dp1309
g82
g83
ssg71
g1303
sg64
(lp1310
g378
asbag57
(g78
g59
NtRp1311
(dp1312
g62
(dp1313
g89
g90
ssg71
g1303
sg64
(lp1314
S':'
asbag57
(g78
g59
NtRp1315
(dp1316
g62
(dp1317
sg71
g1303
sg64
(lp1318
g57
(g58
g59
NtRp1319
(dp1320
g62
(dp1321
g70
I3
ssg71
g1315
sg64
(lp1322
S''
asbasbasbag57
(g73
g59
NtRp1323
(dp1324
g62
(dp1325
sg71
g1219
sg64
(lp1326
g57
(g78
g59
NtRp1327
(dp1328
g62
(dp1329
g82
g83
ssg71
g1323
sg64
(lp1330
g399
asbag57
(g78
g59
NtRp1331
(dp1332
g62
(dp1333
g89
g90
ssg71
g1323
sg64
(lp1334
S':'
asbag57
(g78
g59
NtRp1335
(dp1336
g62
(dp1337
sg71
g1323
sg64
(lp1338
g57
(g58
g59
NtRp1339
(dp1340
g62
(dp1341
g70
I3
ssg71
g1335
sg64
(lp1342
S''
asbasbasbag57
(g73
g59
NtRp1343
(dp1344
g62
(dp1345
sg71
g1219
sg64
(lp1346
g57
(g78
g59
NtRp1347
(dp1348
g62
(dp1349
g82
g83
ssg71
g1343
sg64
(lp1350
g420
asbag57
(g78
g59
NtRp1351
(dp1352
g62
(dp1353
g89
g90
ssg71
g1343
sg64
(lp1354
S':'
asbag57
(g78
g59
NtRp1355
(dp1356
g62
(dp1357
sg71
g1343
sg64
(lp1358
g57
(g58
g59
NtRp1359
(dp1360
g62
(dp1361
g70
I3
ssg71
g1355
sg64
(lp1362
S''
asbasbasbag57
(g73
g59
NtRp1363
(dp1364
g62
(dp1365
sg71
g1219
sg64
(lp1366
g57
(g78
g59
NtRp1367
(dp1368
g62
(dp1369
g82
g83
ssg71
g1363
sg64
(lp1370
g441
asbag57
(g78
g59
NtRp1371
(dp1372
g62
(dp1373
g89
g90
ssg71
g1363
sg64
(lp1374
S':'
asbag57
(g78
g59
NtRp1375
(dp1376
g62
(dp1377
sg71
g1363
sg64
(lp1378
g57
(g58
g59
NtRp1379
(dp1380
g62
(dp1381
g70
I3
ssg71
g1375
sg64
(lp1382
S''
asbasbasbasbasbasbasbag57
(g73
g59
NtRp1383
(dp1384
g62
(dp1385
sg71
g256
sg64
(lp1386
g57
(g78
g59
NtRp1387
(dp1388
g62
(dp1389
g82
g83
ssg71
g1383
sg64
(lp1390
S'nr'
p1391
asbag57
(g78
g59
NtRp1392
(dp1393
g62
(dp1394
g89
g90
ssg71
g1383
sg64
(lp1395
S':'
asbag57
(g78
g59
NtRp1396
(dp1397
g62
(dp1398
sg71
g1383
sg64
(lp1399
g57
(g58
g59
NtRp1400
(dp1401
g62
(dp1402
g70
I4
ssg71
g1396
sg64
(lp1403
S'1'
ag57
(g66
g59
NtRp1404
(dp1405
g62
(dp1406
g70
I3
ssg71
Nsg64
(lp1407
g57
(g73
g59
NtRp1408
(dp1409
g62
(dp1410
sg71
g1404
sg64
(lp1411
g57
(g78
g59
NtRp1412
(dp1413
g62
(dp1414
g82
g83
ssg71
g1408
sg64
(lp1415
g294
asbag57
(g78
g59
NtRp1416
(dp1417
g62
(dp1418
g89
g90
ssg71
g1408
sg64
(lp1419
S':'
asbag57
(g78
g59
NtRp1420
(dp1421
g62
(dp1422
sg71
g1408
sg64
(lp1423
g57
(g58
g59
NtRp1424
(dp1425
g62
(dp1426
g70
I3
ssg71
g1420
sg64
(lp1427
S''
asbasbasbag57
(g73
g59
NtRp1428
(dp1429
g62
(dp1430
sg71
g1404
sg64
(lp1431
g57
(g78
g59
NtRp1432
(dp1433
g62
(dp1434
g82
g83
ssg71
g1428
sg64
(lp1435
g315
asbag57
(g78
g59
NtRp1436
(dp1437
g62
(dp1438
g89
g90
ssg71
g1428
sg64
(lp1439
S':'
asbag57
(g78
g59
NtRp1440
(dp1441
g62
(dp1442
sg71
g1428
sg64
(lp1443
g57
(g58
g59
NtRp1444
(dp1445
g62
(dp1446
g70
I3
ssg71
g1440
sg64
(lp1447
S''
asbasbasbag57
(g73
g59
NtRp1448
(dp1449
g62
(dp1450
sg71
g1404
sg64
(lp1451
g57
(g78
g59
NtRp1452
(dp1453
g62
(dp1454
g82
g83
ssg71
g1448
sg64
(lp1455
g336
asbag57
(g78
g59
NtRp1456
(dp1457
g62
(dp1458
g89
g90
ssg71
g1448
sg64
(lp1459
S':'
asbag57
(g78
g59
NtRp1460
(dp1461
g62
(dp1462
sg71
g1448
sg64
(lp1463
g57
(g58
g59
NtRp1464
(dp1465
g62
(dp1466
g70
I3
ssg71
g1460
sg64
(lp1467
S''
asbasbasbag57
(g73
g59
NtRp1468
(dp1469
g62
(dp1470
sg71
g1404
sg64
(lp1471
g57
(g78
g59
NtRp1472
(dp1473
g62
(dp1474
g82
g83
ssg71
g1468
sg64
(lp1475
g357
asbag57
(g78
g59
NtRp1476
(dp1477
g62
(dp1478
g89
g90
ssg71
g1468
sg64
(lp1479
S':'
asbag57
(g78
g59
NtRp1480
(dp1481
g62
(dp1482
sg71
g1468
sg64
(lp1483
g57
(g58
g59
NtRp1484
(dp1485
g62
(dp1486
g70
I3
ssg71
g1480
sg64
(lp1487
S''
asbasbasbag57
(g73
g59
NtRp1488
(dp1489
g62
(dp1490
sg71
g1404
sg64
(lp1491
g57
(g78
g59
NtRp1492
(dp1493
g62
(dp1494
g82
g83
ssg71
g1488
sg64
(lp1495
g378
asbag57
(g78
g59
NtRp1496
(dp1497
g62
(dp1498
g89
g90
ssg71
g1488
sg64
(lp1499
S':'
asbag57
(g78
g59
NtRp1500
(dp1501
g62
(dp1502
sg71
g1488
sg64
(lp1503
g57
(g58
g59
NtRp1504
(dp1505
g62
(dp1506
g70
I3
ssg71
g1500
sg64
(lp1507
S''
asbasbasbag57
(g73
g59
NtRp1508
(dp1509
g62
(dp1510
sg71
g1404
sg64
(lp1511
g57
(g78
g59
NtRp1512
(dp1513
g62
(dp1514
g82
g83
ssg71
g1508
sg64
(lp1515
g399
asbag57
(g78
g59
NtRp1516
(dp1517
g62
(dp1518
g89
g90
ssg71
g1508
sg64
(lp1519
S':'
asbag57
(g78
g59
NtRp1520
(dp1521
g62
(dp1522
sg71
g1508
sg64
(lp1523
g57
(g58
g59
NtRp1524
(dp1525
g62
(dp1526
g70
I3
ssg71
g1520
sg64
(lp1527
S''
asbasbasbag57
(g73
g59
NtRp1528
(dp1529
g62
(dp1530
sg71
g1404
sg64
(lp1531
g57
(g78
g59
NtRp1532
(dp1533
g62
(dp1534
g82
g83
ssg71
g1528
sg64
(lp1535
g420
asbag57
(g78
g59
NtRp1536
(dp1537
g62
(dp1538
g89
g90
ssg71
g1528
sg64
(lp1539
S':'
asbag57
(g78
g59
NtRp1540
(dp1541
g62
(dp1542
sg71
g1528
sg64
(lp1543
g57
(g58
g59
NtRp1544
(dp1545
g62
(dp1546
g70
I3
ssg71
g1540
sg64
(lp1547
S''
asbasbasbag57
(g73
g59
NtRp1548
(dp1549
g62
(dp1550
sg71
g1404
sg64
(lp1551
g57
(g78
g59
NtRp1552
(dp1553
g62
(dp1554
g82
g83
ssg71
g1548
sg64
(lp1555
g441
asbag57
(g78
g59
NtRp1556
(dp1557
g62
(dp1558
g89
g90
ssg71
g1548
sg64
(lp1559
S':'
asbag57
(g78
g59
NtRp1560
(dp1561
g62
(dp1562
sg71
g1548
sg64
(lp1563
g57
(g58
g59
NtRp1564
(dp1565
g62
(dp1566
g70
I3
ssg71
g1560
sg64
(lp1567
S''
asbasbasbasbasbasbasbag57
(g73
g59
NtRp1568
(dp1569
g62
(dp1570
sg71
g256
sg64
(lp1571
g57
(g78
g59
NtRp1572
(dp1573
g62
(dp1574
g82
g83
ssg71
g1568
sg64
(lp1575
S'session_id_admin'
p1576
asbag57
(g78
g59
NtRp1577
(dp1578
g62
(dp1579
g89
g90
ssg71
g1568
sg64
(lp1580
S':'
asbag57
(g78
g59
NtRp1581
(dp1582
g62
(dp1583
sg71
g1568
sg64
(lp1584
g57
(g58
g59
NtRp1585
(dp1586
g62
(dp1587
g70
I4
ssg71
g1581
sg64
(lp1588
S'127.0.0.1-d10ee534-f8d1-400f-aa2b-66e05550ca0a'
p1589
ag57
(g66
g59
NtRp1590
(dp1591
g62
(dp1592
g70
I3
ssg71
Nsg64
(lp1593
g57
(g73
g59
NtRp1594
(dp1595
g62
(dp1596
sg71
g1590
sg64
(lp1597
g57
(g78
g59
NtRp1598
(dp1599
g62
(dp1600
g82
g83
ssg71
g1594
sg64
(lp1601
g294
asbag57
(g78
g59
NtRp1602
(dp1603
g62
(dp1604
g89
g90
ssg71
g1594
sg64
(lp1605
S':'
asbag57
(g78
g59
NtRp1606
(dp1607
g62
(dp1608
sg71
g1594
sg64
(lp1609
g57
(g58
g59
NtRp1610
(dp1611
g62
(dp1612
g70
I3
ssg71
g1606
sg64
(lp1613
S''
asbasbasbag57
(g73
g59
NtRp1614
(dp1615
g62
(dp1616
sg71
g1590
sg64
(lp1617
g57
(g78
g59
NtRp1618
(dp1619
g62
(dp1620
g82
g83
ssg71
g1614
sg64
(lp1621
g315
asbag57
(g78
g59
NtRp1622
(dp1623
g62
(dp1624
g89
g90
ssg71
g1614
sg64
(lp1625
S':'
asbag57
(g78
g59
NtRp1626
(dp1627
g62
(dp1628
sg71
g1614
sg64
(lp1629
g57
(g58
g59
NtRp1630
(dp1631
g62
(dp1632
g70
I3
ssg71
g1626
sg64
(lp1633
S''
asbasbasbag57
(g73
g59
NtRp1634
(dp1635
g62
(dp1636
sg71
g1590
sg64
(lp1637
g57
(g78
g59
NtRp1638
(dp1639
g62
(dp1640
g82
g83
ssg71
g1634
sg64
(lp1641
g336
asbag57
(g78
g59
NtRp1642
(dp1643
g62
(dp1644
g89
g90
ssg71
g1634
sg64
(lp1645
S':'
asbag57
(g78
g59
NtRp1646
(dp1647
g62
(dp1648
sg71
g1634
sg64
(lp1649
g57
(g58
g59
NtRp1650
(dp1651
g62
(dp1652
g70
I3
ssg71
g1646
sg64
(lp1653
S''
asbasbasbag57
(g73
g59
NtRp1654
(dp1655
g62
(dp1656
sg71
g1590
sg64
(lp1657
g57
(g78
g59
NtRp1658
(dp1659
g62
(dp1660
g82
g83
ssg71
g1654
sg64
(lp1661
g357
asbag57
(g78
g59
NtRp1662
(dp1663
g62
(dp1664
g89
g90
ssg71
g1654
sg64
(lp1665
S':'
asbag57
(g78
g59
NtRp1666
(dp1667
g62
(dp1668
sg71
g1654
sg64
(lp1669
g57
(g58
g59
NtRp1670
(dp1671
g62
(dp1672
g70
I3
ssg71
g1666
sg64
(lp1673
S''
asbasbasbag57
(g73
g59
NtRp1674
(dp1675
g62
(dp1676
sg71
g1590
sg64
(lp1677
g57
(g78
g59
NtRp1678
(dp1679
g62
(dp1680
g82
g83
ssg71
g1674
sg64
(lp1681
g378
asbag57
(g78
g59
NtRp1682
(dp1683
g62
(dp1684
g89
g90
ssg71
g1674
sg64
(lp1685
S':'
asbag57
(g78
g59
NtRp1686
(dp1687
g62
(dp1688
sg71
g1674
sg64
(lp1689
g57
(g58
g59
NtRp1690
(dp1691
g62
(dp1692
g70
I3
ssg71
g1686
sg64
(lp1693
S''
asbasbasbag57
(g73
g59
NtRp1694
(dp1695
g62
(dp1696
sg71
g1590
sg64
(lp1697
g57
(g78
g59
NtRp1698
(dp1699
g62
(dp1700
g82
g83
ssg71
g1694
sg64
(lp1701
g399
asbag57
(g78
g59
NtRp1702
(dp1703
g62
(dp1704
g89
g90
ssg71
g1694
sg64
(lp1705
S':'
asbag57
(g78
g59
NtRp1706
(dp1707
g62
(dp1708
sg71
g1694
sg64
(lp1709
g57
(g58
g59
NtRp1710
(dp1711
g62
(dp1712
g70
I3
ssg71
g1706
sg64
(lp1713
S''
asbasbasbag57
(g73
g59
NtRp1714
(dp1715
g62
(dp1716
sg71
g1590
sg64
(lp1717
g57
(g78
g59
NtRp1718
(dp1719
g62
(dp1720
g82
g83
ssg71
g1714
sg64
(lp1721
g420
asbag57
(g78
g59
NtRp1722
(dp1723
g62
(dp1724
g89
g90
ssg71
g1714
sg64
(lp1725
S':'
asbag57
(g78
g59
NtRp1726
(dp1727
g62
(dp1728
sg71
g1714
sg64
(lp1729
g57
(g58
g59
NtRp1730
(dp1731
g62
(dp1732
g70
I3
ssg71
g1726
sg64
(lp1733
S''
asbasbasbag57
(g73
g59
NtRp1734
(dp1735
g62
(dp1736
sg71
g1590
sg64
(lp1737
g57
(g78
g59
NtRp1738
(dp1739
g62
(dp1740
g82
g83
ssg71
g1734
sg64
(lp1741
g441
asbag57
(g78
g59
NtRp1742
(dp1743
g62
(dp1744
g89
g90
ssg71
g1734
sg64
(lp1745
S':'
asbag57
(g78
g59
NtRp1746
(dp1747
g62
(dp1748
sg71
g1734
sg64
(lp1749
g57
(g58
g59
NtRp1750
(dp1751
g62
(dp1752
g70
I3
ssg71
g1746
sg64
(lp1753
S''
asbasbasbasbasbasbasbag57
(g73
g59
NtRp1754
(dp1755
g62
(dp1756
sg71
g256
sg64
(lp1757
g57
(g78
g59
NtRp1758
(dp1759
g62
(dp1760
g82
g83
ssg71
g1754
sg64
(lp1761
S'session_id_projeto'
p1762
asbag57
(g78
g59
NtRp1763
(dp1764
g62
(dp1765
g89
g90
ssg71
g1754
sg64
(lp1766
S':'
asbag57
(g78
g59
NtRp1767
(dp1768
g62
(dp1769
sg71
g1754
sg64
(lp1770
g57
(g58
g59
NtRp1771
(dp1772
g62
(dp1773
g70
I4
ssg71
g1767
sg64
(lp1774
S'127.0.0.1-a8d6ff4e-868b-4aa2-bd9e-521d75a87c41'
p1775
ag57
(g66
g59
NtRp1776
(dp1777
g62
(dp1778
g70
I3
ssg71
Nsg64
(lp1779
g57
(g73
g59
NtRp1780
(dp1781
g62
(dp1782
sg71
g1776
sg64
(lp1783
g57
(g78
g59
NtRp1784
(dp1785
g62
(dp1786
g82
g83
ssg71
g1780
sg64
(lp1787
g294
asbag57
(g78
g59
NtRp1788
(dp1789
g62
(dp1790
g89
g90
ssg71
g1780
sg64
(lp1791
S':'
asbag57
(g78
g59
NtRp1792
(dp1793
g62
(dp1794
sg71
g1780
sg64
(lp1795
g57
(g58
g59
NtRp1796
(dp1797
g62
(dp1798
g70
I3
ssg71
g1792
sg64
(lp1799
S''
asbasbasbag57
(g73
g59
NtRp1800
(dp1801
g62
(dp1802
sg71
g1776
sg64
(lp1803
g57
(g78
g59
NtRp1804
(dp1805
g62
(dp1806
g82
g83
ssg71
g1800
sg64
(lp1807
g315
asbag57
(g78
g59
NtRp1808
(dp1809
g62
(dp1810
g89
g90
ssg71
g1800
sg64
(lp1811
S':'
asbag57
(g78
g59
NtRp1812
(dp1813
g62
(dp1814
sg71
g1800
sg64
(lp1815
g57
(g58
g59
NtRp1816
(dp1817
g62
(dp1818
g70
I3
ssg71
g1812
sg64
(lp1819
S''
asbasbasbag57
(g73
g59
NtRp1820
(dp1821
g62
(dp1822
sg71
g1776
sg64
(lp1823
g57
(g78
g59
NtRp1824
(dp1825
g62
(dp1826
g82
g83
ssg71
g1820
sg64
(lp1827
g336
asbag57
(g78
g59
NtRp1828
(dp1829
g62
(dp1830
g89
g90
ssg71
g1820
sg64
(lp1831
S':'
asbag57
(g78
g59
NtRp1832
(dp1833
g62
(dp1834
sg71
g1820
sg64
(lp1835
g57
(g58
g59
NtRp1836
(dp1837
g62
(dp1838
g70
I3
ssg71
g1832
sg64
(lp1839
S''
asbasbasbag57
(g73
g59
NtRp1840
(dp1841
g62
(dp1842
sg71
g1776
sg64
(lp1843
g57
(g78
g59
NtRp1844
(dp1845
g62
(dp1846
g82
g83
ssg71
g1840
sg64
(lp1847
g357
asbag57
(g78
g59
NtRp1848
(dp1849
g62
(dp1850
g89
g90
ssg71
g1840
sg64
(lp1851
S':'
asbag57
(g78
g59
NtRp1852
(dp1853
g62
(dp1854
sg71
g1840
sg64
(lp1855
g57
(g58
g59
NtRp1856
(dp1857
g62
(dp1858
g70
I3
ssg71
g1852
sg64
(lp1859
S''
asbasbasbag57
(g73
g59
NtRp1860
(dp1861
g62
(dp1862
sg71
g1776
sg64
(lp1863
g57
(g78
g59
NtRp1864
(dp1865
g62
(dp1866
g82
g83
ssg71
g1860
sg64
(lp1867
g378
asbag57
(g78
g59
NtRp1868
(dp1869
g62
(dp1870
g89
g90
ssg71
g1860
sg64
(lp1871
S':'
asbag57
(g78
g59
NtRp1872
(dp1873
g62
(dp1874
sg71
g1860
sg64
(lp1875
g57
(g58
g59
NtRp1876
(dp1877
g62
(dp1878
g70
I3
ssg71
g1872
sg64
(lp1879
S''
asbasbasbag57
(g73
g59
NtRp1880
(dp1881
g62
(dp1882
sg71
g1776
sg64
(lp1883
g57
(g78
g59
NtRp1884
(dp1885
g62
(dp1886
g82
g83
ssg71
g1880
sg64
(lp1887
g399
asbag57
(g78
g59
NtRp1888
(dp1889
g62
(dp1890
g89
g90
ssg71
g1880
sg64
(lp1891
S':'
asbag57
(g78
g59
NtRp1892
(dp1893
g62
(dp1894
sg71
g1880
sg64
(lp1895
g57
(g58
g59
NtRp1896
(dp1897
g62
(dp1898
g70
I3
ssg71
g1892
sg64
(lp1899
S''
asbasbasbag57
(g73
g59
NtRp1900
(dp1901
g62
(dp1902
sg71
g1776
sg64
(lp1903
g57
(g78
g59
NtRp1904
(dp1905
g62
(dp1906
g82
g83
ssg71
g1900
sg64
(lp1907
g420
asbag57
(g78
g59
NtRp1908
(dp1909
g62
(dp1910
g89
g90
ssg71
g1900
sg64
(lp1911
S':'
asbag57
(g78
g59
NtRp1912
(dp1913
g62
(dp1914
sg71
g1900
sg64
(lp1915
g57
(g58
g59
NtRp1916
(dp1917
g62
(dp1918
g70
I3
ssg71
g1912
sg64
(lp1919
S''
asbasbasbag57
(g73
g59
NtRp1920
(dp1921
g62
(dp1922
sg71
g1776
sg64
(lp1923
g57
(g78
g59
NtRp1924
(dp1925
g62
(dp1926
g82
g83
ssg71
g1920
sg64
(lp1927
g441
asbag57
(g78
g59
NtRp1928
(dp1929
g62
(dp1930
g89
g90
ssg71
g1920
sg64
(lp1931
S':'
asbag57
(g78
g59
NtRp1932
(dp1933
g62
(dp1934
sg71
g1920
sg64
(lp1935
g57
(g58
g59
NtRp1936
(dp1937
g62
(dp1938
g70
I3
ssg71
g1932
sg64
(lp1939
S''
asbasbasbasbasbasbasbag57
(g73
g59
NtRp1940
(dp1941
g62
(dp1942
sg71
g256
sg64
(lp1943
g57
(g78
g59
NtRp1944
(dp1945
g62
(dp1946
g82
g83
ssg71
g1940
sg64
(lp1947
S'types'
p1948
asbag57
(g78
g59
NtRp1949
(dp1950
g62
(dp1951
g89
g90
ssg71
g1940
sg64
(lp1952
S':'
asbag57
(g78
g59
NtRp1953
(dp1954
g62
(dp1955
sg71
g1940
sg64
(lp1956
g57
(g58
g59
NtRp1957
(dp1958
g62
(dp1959
g70
I4
ssg71
g1953
sg64
(lp1960
S'Rev%201.0.1%20MX60-32S%20%20Kernel%201.0.11%20%28F%29'
p1961
ag57
(g66
g59
NtRp1962
(dp1963
g62
(dp1964
g70
I3
ssg71
Nsg64
(lp1965
g57
(g73
g59
NtRp1966
(dp1967
g62
(dp1968
sg71
g1962
sg64
(lp1969
g57
(g78
g59
NtRp1970
(dp1971
g62
(dp1972
g82
g83
ssg71
g1966
sg64
(lp1973
g294
asbag57
(g78
g59
NtRp1974
(dp1975
g62
(dp1976
g89
g90
ssg71
g1966
sg64
(lp1977
S':'
asbag57
(g78
g59
NtRp1978
(dp1979
g62
(dp1980
sg71
g1966
sg64
(lp1981
g57
(g58
g59
NtRp1982
(dp1983
g62
(dp1984
g70
I3
ssg71
g1978
sg64
(lp1985
S''
asbasbasbag57
(g73
g59
NtRp1986
(dp1987
g62
(dp1988
sg71
g1962
sg64
(lp1989
g57
(g78
g59
NtRp1990
(dp1991
g62
(dp1992
g82
g83
ssg71
g1986
sg64
(lp1993
g315
asbag57
(g78
g59
NtRp1994
(dp1995
g62
(dp1996
g89
g90
ssg71
g1986
sg64
(lp1997
S':'
asbag57
(g78
g59
NtRp1998
(dp1999
g62
(dp2000
sg71
g1986
sg64
(lp2001
g57
(g58
g59
NtRp2002
(dp2003
g62
(dp2004
g70
I3
ssg71
g1998
sg64
(lp2005
S''
asbasbasbag57
(g73
g59
NtRp2006
(dp2007
g62
(dp2008
sg71
g1962
sg64
(lp2009
g57
(g78
g59
NtRp2010
(dp2011
g62
(dp2012
g82
g83
ssg71
g2006
sg64
(lp2013
g336
asbag57
(g78
g59
NtRp2014
(dp2015
g62
(dp2016
g89
g90
ssg71
g2006
sg64
(lp2017
S':'
asbag57
(g78
g59
NtRp2018
(dp2019
g62
(dp2020
sg71
g2006
sg64
(lp2021
g57
(g58
g59
NtRp2022
(dp2023
g62
(dp2024
g70
I3
ssg71
g2018
sg64
(lp2025
S''
asbasbasbag57
(g73
g59
NtRp2026
(dp2027
g62
(dp2028
sg71
g1962
sg64
(lp2029
g57
(g78
g59
NtRp2030
(dp2031
g62
(dp2032
g82
g83
ssg71
g2026
sg64
(lp2033
g357
asbag57
(g78
g59
NtRp2034
(dp2035
g62
(dp2036
g89
g90
ssg71
g2026
sg64
(lp2037
S':'
asbag57
(g78
g59
NtRp2038
(dp2039
g62
(dp2040
sg71
g2026
sg64
(lp2041
g57
(g58
g59
NtRp2042
(dp2043
g62
(dp2044
g70
I3
ssg71
g2038
sg64
(lp2045
S''
asbasbasbag57
(g73
g59
NtRp2046
(dp2047
g62
(dp2048
sg71
g1962
sg64
(lp2049
g57
(g78
g59
NtRp2050
(dp2051
g62
(dp2052
g82
g83
ssg71
g2046
sg64
(lp2053
g378
asbag57
(g78
g59
NtRp2054
(dp2055
g62
(dp2056
g89
g90
ssg71
g2046
sg64
(lp2057
S':'
asbag57
(g78
g59
NtRp2058
(dp2059
g62
(dp2060
sg71
g2046
sg64
(lp2061
g57
(g58
g59
NtRp2062
(dp2063
g62
(dp2064
g70
I3
ssg71
g2058
sg64
(lp2065
S''
asbasbasbag57
(g73
g59
NtRp2066
(dp2067
g62
(dp2068
sg71
g1962
sg64
(lp2069
g57
(g78
g59
NtRp2070
(dp2071
g62
(dp2072
g82
g83
ssg71
g2066
sg64
(lp2073
g399
asbag57
(g78
g59
NtRp2074
(dp2075
g62
(dp2076
g89
g90
ssg71
g2066
sg64
(lp2077
S':'
asbag57
(g78
g59
NtRp2078
(dp2079
g62
(dp2080
sg71
g2066
sg64
(lp2081
g57
(g58
g59
NtRp2082
(dp2083
g62
(dp2084
g70
I3
ssg71
g2078
sg64
(lp2085
S''
asbasbasbag57
(g73
g59
NtRp2086
(dp2087
g62
(dp2088
sg71
g1962
sg64
(lp2089
g57
(g78
g59
NtRp2090
(dp2091
g62
(dp2092
g82
g83
ssg71
g2086
sg64
(lp2093
g420
asbag57
(g78
g59
NtRp2094
(dp2095
g62
(dp2096
g89
g90
ssg71
g2086
sg64
(lp2097
S':'
asbag57
(g78
g59
NtRp2098
(dp2099
g62
(dp2100
sg71
g2086
sg64
(lp2101
g57
(g58
g59
NtRp2102
(dp2103
g62
(dp2104
g70
I3
ssg71
g2098
sg64
(lp2105
S''
asbasbasbag57
(g73
g59
NtRp2106
(dp2107
g62
(dp2108
sg71
g1962
sg64
(lp2109
g57
(g78
g59
NtRp2110
(dp2111
g62
(dp2112
g82
g83
ssg71
g2106
sg64
(lp2113
g441
asbag57
(g78
g59
NtRp2114
(dp2115
g62
(dp2116
g89
g90
ssg71
g2106
sg64
(lp2117
S':'
asbag57
(g78
g59
NtRp2118
(dp2119
g62
(dp2120
sg71
g2106
sg64
(lp2121
g57
(g58
g59
NtRp2122
(dp2123
g62
(dp2124
g70
I3
ssg71
g2118
sg64
(lp2125
S''
asbasbasbasbasbasbasbasbasbasbasbag57
(g73
g59
NtRp2126
(dp2127
g62
(dp2128
sg71
g67
sg64
(lp2129
g57
(g78
g59
NtRp2130
(dp2131
g62
(dp2132
g82
g83
ssg71
g2126
sg64
(lp2133
S'env'
p2134
asbag57
(g78
g59
NtRp2135
(dp2136
g62
(dp2137
g89
g90
ssg71
g2126
sg64
(lp2138
S':'
asbag57
(g78
g59
NtRp2139
(dp2140
g62
(dp2141
sg71
g2126
sg64
(lp2142
g57
(g58
g59
NtRp2143
(dp2144
g62
(dp2145
g70
I5
ssg71
g2139
sg64
(lp2146
g57
(g66
g59
NtRp2147
(dp2148
g62
(dp2149
g70
I4
ssg71
Nsg64
(lp2150
g57
(g73
g59
NtRp2151
(dp2152
g62
(dp2153
sg71
g2147
sg64
(lp2154
g57
(g78
g59
NtRp2155
(dp2156
g62
(dp2157
g82
g83
ssg71
g2151
sg64
(lp2158
S'app_folders'
p2159
asbag57
(g78
g59
NtRp2160
(dp2161
g62
(dp2162
g89
g90
ssg71
g2151
sg64
(lp2163
S':'
asbag57
(g78
g59
NtRp2164
(dp2165
g62
(dp2166
sg71
g2151
sg64
(lp2167
g57
(g58
g59
NtRp2168
(dp2169
g62
(dp2170
g70
I4
ssg71
g2164
sg64
(lp2171
S"set(['/var/www/web2py_curso/applications/admin/', '/var/www/web2py_curso/applications/projeto/'])"
p2172
asbasbasbag57
(g73
g59
NtRp2173
(dp2174
g62
(dp2175
sg71
g2147
sg64
(lp2176
g57
(g78
g59
NtRp2177
(dp2178
g62
(dp2179
g82
g83
ssg71
g2173
sg64
(lp2180
S'applications_parent'
p2181
asbag57
(g78
g59
NtRp2182
(dp2183
g62
(dp2184
g89
g90
ssg71
g2173
sg64
(lp2185
S':'
asbag57
(g78
g59
NtRp2186
(dp2187
g62
(dp2188
sg71
g2173
sg64
(lp2189
g57
(g58
g59
NtRp2190
(dp2191
g62
(dp2192
g70
I4
ssg71
g2186
sg64
(lp2193
S'/var/www/web2py_curso'
p2194
asbasbasbag57
(g73
g59
NtRp2195
(dp2196
g62
(dp2197
sg71
g2147
sg64
(lp2198
g57
(g78
g59
NtRp2199
(dp2200
g62
(dp2201
g82
g83
ssg71
g2195
sg64
(lp2202
S'cmd_args'
p2203
asbag57
(g78
g59
NtRp2204
(dp2205
g62
(dp2206
g89
g90
ssg71
g2195
sg64
(lp2207
S':'
asbag57
(g78
g59
NtRp2208
(dp2209
g62
(dp2210
sg71
g2195
sg64
(lp2211
g57
(g58
g59
NtRp2212
(dp2213
g62
(dp2214
g70
I4
ssg71
g2208
sg64
(lp2215
g57
(g66
g59
NtRp2216
(dp2217
g62
(dp2218
g70
I3
ssg71
Nsg64
(lp2219
sbasbasbasbag57
(g73
g59
NtRp2220
(dp2221
g62
(dp2222
sg71
g2147
sg64
(lp2223
g57
(g78
g59
NtRp2224
(dp2225
g62
(dp2226
g82
g83
ssg71
g2220
sg64
(lp2227
S'cmd_options'
p2228
asbag57
(g78
g59
NtRp2229
(dp2230
g62
(dp2231
g89
g90
ssg71
g2220
sg64
(lp2232
S':'
asbag57
(g78
g59
NtRp2233
(dp2234
g62
(dp2235
sg71
g2220
sg64
(lp2236
g57
(g58
g59
NtRp2237
(dp2238
g62
(dp2239
g70
I4
ssg71
g2233
sg64
(lp2240
S"<Values at 0x2920488: {'verbose': False, 'ip': '127.0.0.1', 'with_scheduler': False, 'ips': [], 'shutdown_timeout': 5, 'taskbar': False, 'port': 8000, 'maxthreads': None, 'softcron': False, 'server_name': 'fernado-desktop', 'bpython': False, 'nogui': False, 'pid_filename': 'httpserver.pid', 'extcron': False, 'runcron': False, 'run_system_tests': False, 'test': None, 'folder': '/var/www/web2py_curso', 'config': '', 'minthreads': None, 'winservice': '', 'shell': None, 'run': '', 'log_filename': 'httpserver.log', 'debuglevel': 30, 'args': [''], 'socket_timeout': 5, 'ssl_ca_certificate': None, 'scheduler': None, 'profiler_filename': None, 'ssl_private_key': '', 'scheduler_groups': None, 'password': '123456', 'request_queue_size': 5, 'ssl_certificate': '', 'cronjob': False, 'numthreads': None, 'quiet': False, 'interfaces': None, 'import_models': False, 'timeout': 10, 'plain': False, 'nobanner': False}>"
p2241
asbasbasbag57
(g73
g59
NtRp2242
(dp2243
g62
(dp2244
sg71
g2147
sg64
(lp2245
g57
(g78
g59
NtRp2246
(dp2247
g62
(dp2248
g82
g83
ssg71
g2242
sg64
(lp2249
S'content_length'
p2250
asbag57
(g78
g59
NtRp2251
(dp2252
g62
(dp2253
g89
g90
ssg71
g2242
sg64
(lp2254
S':'
asbag57
(g78
g59
NtRp2255
(dp2256
g62
(dp2257
sg71
g2242
sg64
(lp2258
g57
(g58
g59
NtRp2259
(dp2260
g62
(dp2261
g70
I4
ssg71
g2255
sg64
(lp2262
S'968'
p2263
asbasbasbag57
(g73
g59
NtRp2264
(dp2265
g62
(dp2266
sg71
g2147
sg64
(lp2267
g57
(g78
g59
NtRp2268
(dp2269
g62
(dp2270
g82
g83
ssg71
g2264
sg64
(lp2271
S'content_type'
p2272
asbag57
(g78
g59
NtRp2273
(dp2274
g62
(dp2275
g89
g90
ssg71
g2264
sg64
(lp2276
S':'
asbag57
(g78
g59
NtRp2277
(dp2278
g62
(dp2279
sg71
g2264
sg64
(lp2280
g57
(g58
g59
NtRp2281
(dp2282
g62
(dp2283
g70
I4
ssg71
g2277
sg64
(lp2284
S'multipart/form-data; boundary=----WebKitFormBoundaryaDrA1oL0yAzN2hA8'
p2285
asbasbasbag57
(g73
g59
NtRp2286
(dp2287
g62
(dp2288
sg71
g2147
sg64
(lp2289
g57
(g78
g59
NtRp2290
(dp2291
g62
(dp2292
g82
g83
ssg71
g2286
sg64
(lp2293
S'db_sessions'
p2294
asbag57
(g78
g59
NtRp2295
(dp2296
g62
(dp2297
g89
g90
ssg71
g2286
sg64
(lp2298
S':'
asbag57
(g78
g59
NtRp2299
(dp2300
g62
(dp2301
sg71
g2286
sg64
(lp2302
g57
(g58
g59
NtRp2303
(dp2304
g62
(dp2305
g70
I4
ssg71
g2299
sg64
(lp2306
S'set([])'
p2307
asbasbasbag57
(g73
g59
NtRp2308
(dp2309
g62
(dp2310
sg71
g2147
sg64
(lp2311
g57
(g78
g59
NtRp2312
(dp2313
g62
(dp2314
g82
g83
ssg71
g2308
sg64
(lp2315
S'debugging'
p2316
asbag57
(g78
g59
NtRp2317
(dp2318
g62
(dp2319
g89
g90
ssg71
g2308
sg64
(lp2320
S':'
asbag57
(g78
g59
NtRp2321
(dp2322
g62
(dp2323
sg71
g2308
sg64
(lp2324
g57
(g58
g59
NtRp2325
(dp2326
g62
(dp2327
g70
I4
ssg71
g2321
sg64
(lp2328
g100
asbasbasbag57
(g73
g59
NtRp2329
(dp2330
g62
(dp2331
sg71
g2147
sg64
(lp2332
g57
(g78
g59
NtRp2333
(dp2334
g62
(dp2335
g82
g83
ssg71
g2329
sg64
(lp2336
S'gluon_parent'
p2337
asbag57
(g78
g59
NtRp2338
(dp2339
g62
(dp2340
g89
g90
ssg71
g2329
sg64
(lp2341
S':'
asbag57
(g78
g59
NtRp2342
(dp2343
g62
(dp2344
sg71
g2329
sg64
(lp2345
g57
(g58
g59
NtRp2346
(dp2347
g62
(dp2348
g70
I4
ssg71
g2342
sg64
(lp2349
S'/var/www/web2py_curso'
p2350
asbasbasbag57
(g73
g59
NtRp2351
(dp2352
g62
(dp2353
sg71
g2147
sg64
(lp2354
g57
(g78
g59
NtRp2355
(dp2356
g62
(dp2357
g82
g83
ssg71
g2351
sg64
(lp2358
S'http_accept'
p2359
asbag57
(g78
g59
NtRp2360
(dp2361
g62
(dp2362
g89
g90
ssg71
g2351
sg64
(lp2363
S':'
asbag57
(g78
g59
NtRp2364
(dp2365
g62
(dp2366
sg71
g2351
sg64
(lp2367
g57
(g58
g59
NtRp2368
(dp2369
g62
(dp2370
g70
I4
ssg71
g2364
sg64
(lp2371
S'text/html,application/xhtml+xml,application/xml;q=0.9,*/*;q=0.8'
p2372
asbasbasbag57
(g73
g59
NtRp2373
(dp2374
g62
(dp2375
sg71
g2147
sg64
(lp2376
g57
(g78
g59
NtRp2377
(dp2378
g62
(dp2379
g82
g83
ssg71
g2373
sg64
(lp2380
S'http_accept_charset'
p2381
asbag57
(g78
g59
NtRp2382
(dp2383
g62
(dp2384
g89
g90
ssg71
g2373
sg64
(lp2385
S':'
asbag57
(g78
g59
NtRp2386
(dp2387
g62
(dp2388
sg71
g2373
sg64
(lp2389
g57
(g58
g59
NtRp2390
(dp2391
g62
(dp2392
g70
I4
ssg71
g2386
sg64
(lp2393
S'ISO-8859-1,utf-8;q=0.7,*;q=0.3'
p2394
asbasbasbag57
(g73
g59
NtRp2395
(dp2396
g62
(dp2397
sg71
g2147
sg64
(lp2398
g57
(g78
g59
NtRp2399
(dp2400
g62
(dp2401
g82
g83
ssg71
g2395
sg64
(lp2402
S'http_accept_encoding'
p2403
asbag57
(g78
g59
NtRp2404
(dp2405
g62
(dp2406
g89
g90
ssg71
g2395
sg64
(lp2407
S':'
asbag57
(g78
g59
NtRp2408
(dp2409
g62
(dp2410
sg71
g2395
sg64
(lp2411
g57
(g58
g59
NtRp2412
(dp2413
g62
(dp2414
g70
I4
ssg71
g2408
sg64
(lp2415
S'gzip,deflate,sdch'
p2416
asbasbasbag57
(g73
g59
NtRp2417
(dp2418
g62
(dp2419
sg71
g2147
sg64
(lp2420
g57
(g78
g59
NtRp2421
(dp2422
g62
(dp2423
g82
g83
ssg71
g2417
sg64
(lp2424
S'http_accept_language'
p2425
asbag57
(g78
g59
NtRp2426
(dp2427
g62
(dp2428
g89
g90
ssg71
g2417
sg64
(lp2429
S':'
asbag57
(g78
g59
NtRp2430
(dp2431
g62
(dp2432
sg71
g2417
sg64
(lp2433
g57
(g58
g59
NtRp2434
(dp2435
g62
(dp2436
g70
I4
ssg71
g2430
sg64
(lp2437
S'pt-BR,pt;q=0.8,en-US;q=0.6,en;q=0.4'
p2438
asbasbasbag57
(g73
g59
NtRp2439
(dp2440
g62
(dp2441
sg71
g2147
sg64
(lp2442
g57
(g78
g59
NtRp2443
(dp2444
g62
(dp2445
g82
g83
ssg71
g2439
sg64
(lp2446
S'http_cache_control'
p2447
asbag57
(g78
g59
NtRp2448
(dp2449
g62
(dp2450
g89
g90
ssg71
g2439
sg64
(lp2451
S':'
asbag57
(g78
g59
NtRp2452
(dp2453
g62
(dp2454
sg71
g2439
sg64
(lp2455
g57
(g58
g59
NtRp2456
(dp2457
g62
(dp2458
g70
I4
ssg71
g2452
sg64
(lp2459
S'max-age=0'
p2460
asbasbasbag57
(g73
g59
NtRp2461
(dp2462
g62
(dp2463
sg71
g2147
sg64
(lp2464
g57
(g78
g59
NtRp2465
(dp2466
g62
(dp2467
g82
g83
ssg71
g2461
sg64
(lp2468
S'http_connection'
p2469
asbag57
(g78
g59
NtRp2470
(dp2471
g62
(dp2472
g89
g90
ssg71
g2461
sg64
(lp2473
S':'
asbag57
(g78
g59
NtRp2474
(dp2475
g62
(dp2476
sg71
g2461
sg64
(lp2477
g57
(g58
g59
NtRp2478
(dp2479
g62
(dp2480
g70
I4
ssg71
g2474
sg64
(lp2481
S'keep-alive'
p2482
asbasbasbag57
(g73
g59
NtRp2483
(dp2484
g62
(dp2485
sg71
g2147
sg64
(lp2486
g57
(g78
g59
NtRp2487
(dp2488
g62
(dp2489
g82
g83
ssg71
g2483
sg64
(lp2490
S'http_content_length'
p2491
asbag57
(g78
g59
NtRp2492
(dp2493
g62
(dp2494
g89
g90
ssg71
g2483
sg64
(lp2495
S':'
asbag57
(g78
g59
NtRp2496
(dp2497
g62
(dp2498
sg71
g2483
sg64
(lp2499
g57
(g58
g59
NtRp2500
(dp2501
g62
(dp2502
g70
I4
ssg71
g2496
sg64
(lp2503
g2263
asbasbasbag57
(g73
g59
NtRp2504
(dp2505
g62
(dp2506
sg71
g2147
sg64
(lp2507
g57
(g78
g59
NtRp2508
(dp2509
g62
(dp2510
g82
g83
ssg71
g2504
sg64
(lp2511
S'http_content_type'
p2512
asbag57
(g78
g59
NtRp2513
(dp2514
g62
(dp2515
g89
g90
ssg71
g2504
sg64
(lp2516
S':'
asbag57
(g78
g59
NtRp2517
(dp2518
g62
(dp2519
sg71
g2504
sg64
(lp2520
g57
(g58
g59
NtRp2521
(dp2522
g62
(dp2523
g70
I4
ssg71
g2517
sg64
(lp2524
g2285
asbasbasbag57
(g73
g59
NtRp2525
(dp2526
g62
(dp2527
sg71
g2147
sg64
(lp2528
g57
(g78
g59
NtRp2529
(dp2530
g62
(dp2531
g82
g83
ssg71
g2525
sg64
(lp2532
S'http_cookie'
p2533
asbag57
(g78
g59
NtRp2534
(dp2535
g62
(dp2536
g89
g90
ssg71
g2525
sg64
(lp2537
S':'
asbag57
(g78
g59
NtRp2538
(dp2539
g62
(dp2540
sg71
g2525
sg64
(lp2541
g57
(g58
g59
NtRp2542
(dp2543
g62
(dp2544
g70
I4
ssg71
g2538
sg64
(lp2545
S'hw_type=MX60; hw_version=Rev%201.9.82.316; types=Rev%201.0.1%20MX60-32S%20%20Kernel%201.0.11%20%28F%29; admin=admin; cookie=1649423593; model=MX; nr=1; language=1; session_id_admin=127.0.0.1-d10ee534-f8d1-400f-aa2b-66e05550ca0a; session_id_projeto=127.0.0.1-a8d6ff4e-868b-4aa2-bd9e-521d75a87c41'
p2546
asbasbasbag57
(g73
g59
NtRp2547
(dp2548
g62
(dp2549
sg71
g2147
sg64
(lp2550
g57
(g78
g59
NtRp2551
(dp2552
g62
(dp2553
g82
g83
ssg71
g2547
sg64
(lp2554
S'http_host'
p2555
asbag57
(g78
g59
NtRp2556
(dp2557
g62
(dp2558
g89
g90
ssg71
g2547
sg64
(lp2559
S':'
asbag57
(g78
g59
NtRp2560
(dp2561
g62
(dp2562
sg71
g2547
sg64
(lp2563
g57
(g58
g59
NtRp2564
(dp2565
g62
(dp2566
g70
I4
ssg71
g2560
sg64
(lp2567
S'127.0.0.1:8000'
p2568
asbasbasbag57
(g73
g59
NtRp2569
(dp2570
g62
(dp2571
sg71
g2147
sg64
(lp2572
g57
(g78
g59
NtRp2573
(dp2574
g62
(dp2575
g82
g83
ssg71
g2569
sg64
(lp2576
S'http_origin'
p2577
asbag57
(g78
g59
NtRp2578
(dp2579
g62
(dp2580
g89
g90
ssg71
g2569
sg64
(lp2581
S':'
asbag57
(g78
g59
NtRp2582
(dp2583
g62
(dp2584
sg71
g2569
sg64
(lp2585
g57
(g58
g59
NtRp2586
(dp2587
g62
(dp2588
g70
I4
ssg71
g2582
sg64
(lp2589
S'http://127.0.0.1:8000'
p2590
asbasbasbag57
(g73
g59
NtRp2591
(dp2592
g62
(dp2593
sg71
g2147
sg64
(lp2594
g57
(g78
g59
NtRp2595
(dp2596
g62
(dp2597
g82
g83
ssg71
g2591
sg64
(lp2598
S'http_referer'
p2599
asbag57
(g78
g59
NtRp2600
(dp2601
g62
(dp2602
g89
g90
ssg71
g2591
sg64
(lp2603
S':'
asbag57
(g78
g59
NtRp2604
(dp2605
g62
(dp2606
sg71
g2591
sg64
(lp2607
g57
(g58
g59
NtRp2608
(dp2609
g62
(dp2610
g70
I4
ssg71
g2604
sg64
(lp2611
S'http://127.0.0.1:8000/post/add'
p2612
asbasbasbag57
(g73
g59
NtRp2613
(dp2614
g62
(dp2615
sg71
g2147
sg64
(lp2616
g57
(g78
g59
NtRp2617
(dp2618
g62
(dp2619
g82
g83
ssg71
g2613
sg64
(lp2620
S'http_user_agent'
p2621
asbag57
(g78
g59
NtRp2622
(dp2623
g62
(dp2624
g89
g90
ssg71
g2613
sg64
(lp2625
S':'
asbag57
(g78
g59
NtRp2626
(dp2627
g62
(dp2628
sg71
g2613
sg64
(lp2629
g57
(g58
g59
NtRp2630
(dp2631
g62
(dp2632
g70
I4
ssg71
g2626
sg64
(lp2633
S'Mozilla/5.0 (X11; Linux x86_64) AppleWebKit/537.4 (KHTML, like Gecko) Ubuntu/12.10 Chromium/22.0.1229.94 Chrome/22.0.1229.94 Safari/537.4'
p2634
asbasbasbag57
(g73
g59
NtRp2635
(dp2636
g62
(dp2637
sg71
g2147
sg64
(lp2638
g57
(g78
g59
NtRp2639
(dp2640
g62
(dp2641
g82
g83
ssg71
g2635
sg64
(lp2642
S'is_jython'
p2643
asbag57
(g78
g59
NtRp2644
(dp2645
g62
(dp2646
g89
g90
ssg71
g2635
sg64
(lp2647
S':'
asbag57
(g78
g59
NtRp2648
(dp2649
g62
(dp2650
sg71
g2635
sg64
(lp2651
g57
(g58
g59
NtRp2652
(dp2653
g62
(dp2654
g70
I4
ssg71
g2648
sg64
(lp2655
g100
asbasbasbag57
(g73
g59
NtRp2656
(dp2657
g62
(dp2658
sg71
g2147
sg64
(lp2659
g57
(g78
g59
NtRp2660
(dp2661
g62
(dp2662
g82
g83
ssg71
g2656
sg64
(lp2663
S'is_pypy'
p2664
asbag57
(g78
g59
NtRp2665
(dp2666
g62
(dp2667
g89
g90
ssg71
g2656
sg64
(lp2668
S':'
asbag57
(g78
g59
NtRp2669
(dp2670
g62
(dp2671
sg71
g2656
sg64
(lp2672
g57
(g58
g59
NtRp2673
(dp2674
g62
(dp2675
g70
I4
ssg71
g2669
sg64
(lp2676
g100
asbasbasbag57
(g73
g59
NtRp2677
(dp2678
g62
(dp2679
sg71
g2147
sg64
(lp2680
g57
(g78
g59
NtRp2681
(dp2682
g62
(dp2683
g82
g83
ssg71
g2677
sg64
(lp2684
S'local_hosts'
p2685
asbag57
(g78
g59
NtRp2686
(dp2687
g62
(dp2688
g89
g90
ssg71
g2677
sg64
(lp2689
S':'
asbag57
(g78
g59
NtRp2690
(dp2691
g62
(dp2692
sg71
g2677
sg64
(lp2693
g57
(g58
g59
NtRp2694
(dp2695
g62
(dp2696
g70
I4
ssg71
g2690
sg64
(lp2697
g57
(g66
g59
NtRp2698
(dp2699
g62
(dp2700
g70
I3
ssg71
Nsg64
(lp2701
g57
(g73
g59
NtRp2702
(dp2703
g62
(dp2704
sg71
g2698
sg64
(lp2705
g57
(g78
g59
NtRp2706
(dp2707
g62
(dp2708
sg71
g2702
sg64
(lp2709
g57
(g58
g59
NtRp2710
(dp2711
g62
(dp2712
g70
I3
ssg71
g2706
sg64
(lp2713
S'127.0.1.1'
p2714
asbasbasbag57
(g73
g59
NtRp2715
(dp2716
g62
(dp2717
sg71
g2698
sg64
(lp2718
g57
(g78
g59
NtRp2719
(dp2720
g62
(dp2721
sg71
g2715
sg64
(lp2722
g57
(g58
g59
NtRp2723
(dp2724
g62
(dp2725
g70
I3
ssg71
g2719
sg64
(lp2726
S'::1'
p2727
asbasbasbag57
(g73
g59
NtRp2728
(dp2729
g62
(dp2730
sg71
g2698
sg64
(lp2731
g57
(g78
g59
NtRp2732
(dp2733
g62
(dp2734
sg71
g2728
sg64
(lp2735
g57
(g58
g59
NtRp2736
(dp2737
g62
(dp2738
g70
I3
ssg71
g2732
sg64
(lp2739
S'fernado-desktop'
p2740
asbasbasbag57
(g73
g59
NtRp2741
(dp2742
g62
(dp2743
sg71
g2698
sg64
(lp2744
g57
(g78
g59
NtRp2745
(dp2746
g62
(dp2747
sg71
g2741
sg64
(lp2748
g57
(g58
g59
NtRp2749
(dp2750
g62
(dp2751
g70
I3
ssg71
g2745
sg64
(lp2752
S'::ffff:127.0.0.1'
p2753
asbasbasbag57
(g73
g59
NtRp2754
(dp2755
g62
(dp2756
sg71
g2698
sg64
(lp2757
g57
(g78
g59
NtRp2758
(dp2759
g62
(dp2760
sg71
g2754
sg64
(lp2761
g57
(g58
g59
NtRp2762
(dp2763
g62
(dp2764
g70
I3
ssg71
g2758
sg64
(lp2765
S'127.0.0.1'
p2766
asbasbasbasbasbasbasbag57
(g73
g59
NtRp2767
(dp2768
g62
(dp2769
sg71
g2147
sg64
(lp2770
g57
(g78
g59
NtRp2771
(dp2772
g62
(dp2773
g82
g83
ssg71
g2767
sg64
(lp2774
S'path_info'
p2775
asbag57
(g78
g59
NtRp2776
(dp2777
g62
(dp2778
g89
g90
ssg71
g2767
sg64
(lp2779
S':'
asbag57
(g78
g59
NtRp2780
(dp2781
g62
(dp2782
sg71
g2767
sg64
(lp2783
g57
(g58
g59
NtRp2784
(dp2785
g62
(dp2786
g70
I4
ssg71
g2780
sg64
(lp2787
S'/post/add'
p2788
asbasbasbag57
(g73
g59
NtRp2789
(dp2790
g62
(dp2791
sg71
g2147
sg64
(lp2792
g57
(g78
g59
NtRp2793
(dp2794
g62
(dp2795
g82
g83
ssg71
g2789
sg64
(lp2796
S'query_string'
p2797
asbag57
(g78
g59
NtRp2798
(dp2799
g62
(dp2800
g89
g90
ssg71
g2789
sg64
(lp2801
S':'
asbag57
(g78
g59
NtRp2802
(dp2803
g62
(dp2804
sg71
g2789
sg64
(lp2805
g57
(g58
g59
NtRp2806
(dp2807
g62
(dp2808
g70
I4
ssg71
g2802
sg64
(lp2809
S''
asbasbasbag57
(g73
g59
NtRp2810
(dp2811
g62
(dp2812
sg71
g2147
sg64
(lp2813
g57
(g78
g59
NtRp2814
(dp2815
g62
(dp2816
g82
g83
ssg71
g2810
sg64
(lp2817
S'remote_addr'
p2818
asbag57
(g78
g59
NtRp2819
(dp2820
g62
(dp2821
g89
g90
ssg71
g2810
sg64
(lp2822
S':'
asbag57
(g78
g59
NtRp2823
(dp2824
g62
(dp2825
sg71
g2810
sg64
(lp2826
g57
(g58
g59
NtRp2827
(dp2828
g62
(dp2829
g70
I4
ssg71
g2823
sg64
(lp2830
g212
asbasbasbag57
(g73
g59
NtRp2831
(dp2832
g62
(dp2833
sg71
g2147
sg64
(lp2834
g57
(g78
g59
NtRp2835
(dp2836
g62
(dp2837
g82
g83
ssg71
g2831
sg64
(lp2838
S'remote_port'
p2839
asbag57
(g78
g59
NtRp2840
(dp2841
g62
(dp2842
g89
g90
ssg71
g2831
sg64
(lp2843
S':'
asbag57
(g78
g59
NtRp2844
(dp2845
g62
(dp2846
sg71
g2831
sg64
(lp2847
g57
(g58
g59
NtRp2848
(dp2849
g62
(dp2850
g70
I4
ssg71
g2844
sg64
(lp2851
S'35750'
p2852
asbasbasbag57
(g73
g59
NtRp2853
(dp2854
g62
(dp2855
sg71
g2147
sg64
(lp2856
g57
(g78
g59
NtRp2857
(dp2858
g62
(dp2859
g82
g83
ssg71
g2853
sg64
(lp2860
S'request_method'
p2861
asbag57
(g78
g59
NtRp2862
(dp2863
g62
(dp2864
g89
g90
ssg71
g2853
sg64
(lp2865
S':'
asbag57
(g78
g59
NtRp2866
(dp2867
g62
(dp2868
sg71
g2853
sg64
(lp2869
g57
(g58
g59
NtRp2870
(dp2871
g62
(dp2872
g70
I4
ssg71
g2866
sg64
(lp2873
S'POST'
p2874
asbasbasbag57
(g73
g59
NtRp2875
(dp2876
g62
(dp2877
sg71
g2147
sg64
(lp2878
g57
(g78
g59
NtRp2879
(dp2880
g62
(dp2881
g82
g83
ssg71
g2875
sg64
(lp2882
S'request_uri'
p2883
asbag57
(g78
g59
NtRp2884
(dp2885
g62
(dp2886
g89
g90
ssg71
g2875
sg64
(lp2887
S':'
asbag57
(g78
g59
NtRp2888
(dp2889
g62
(dp2890
sg71
g2875
sg64
(lp2891
g57
(g58
g59
NtRp2892
(dp2893
g62
(dp2894
g70
I4
ssg71
g2888
sg64
(lp2895
S'/projeto/post/add'
p2896
asbasbasbag57
(g73
g59
NtRp2897
(dp2898
g62
(dp2899
sg71
g2147
sg64
(lp2900
g57
(g78
g59
NtRp2901
(dp2902
g62
(dp2903
g82
g83
ssg71
g2897
sg64
(lp2904
S'script_name'
p2905
asbag57
(g78
g59
NtRp2906
(dp2907
g62
(dp2908
g89
g90
ssg71
g2897
sg64
(lp2909
S':'
asbag57
(g78
g59
NtRp2910
(dp2911
g62
(dp2912
sg71
g2897
sg64
(lp2913
g57
(g58
g59
NtRp2914
(dp2915
g62
(dp2916
g70
I4
ssg71
g2910
sg64
(lp2917
S''
asbasbasbag57
(g73
g59
NtRp2918
(dp2919
g62
(dp2920
sg71
g2147
sg64
(lp2921
g57
(g78
g59
NtRp2922
(dp2923
g62
(dp2924
g82
g83
ssg71
g2918
sg64
(lp2925
S'server_name'
p2926
asbag57
(g78
g59
NtRp2927
(dp2928
g62
(dp2929
g89
g90
ssg71
g2918
sg64
(lp2930
S':'
asbag57
(g78
g59
NtRp2931
(dp2932
g62
(dp2933
sg71
g2918
sg64
(lp2934
g57
(g58
g59
NtRp2935
(dp2936
g62
(dp2937
g70
I4
ssg71
g2931
sg64
(lp2938
S'fernado-desktop'
p2939
asbasbasbag57
(g73
g59
NtRp2940
(dp2941
g62
(dp2942
sg71
g2147
sg64
(lp2943
g57
(g78
g59
NtRp2944
(dp2945
g62
(dp2946
g82
g83
ssg71
g2940
sg64
(lp2947
S'server_port'
p2948
asbag57
(g78
g59
NtRp2949
(dp2950
g62
(dp2951
g89
g90
ssg71
g2940
sg64
(lp2952
S':'
asbag57
(g78
g59
NtRp2953
(dp2954
g62
(dp2955
sg71
g2940
sg64
(lp2956
g57
(g58
g59
NtRp2957
(dp2958
g62
(dp2959
g70
I4
ssg71
g2953
sg64
(lp2960
S'8000'
p2961
asbasbasbag57
(g73
g59
NtRp2962
(dp2963
g62
(dp2964
sg71
g2147
sg64
(lp2965
g57
(g78
g59
NtRp2966
(dp2967
g62
(dp2968
g82
g83
ssg71
g2962
sg64
(lp2969
S'server_protocol'
p2970
asbag57
(g78
g59
NtRp2971
(dp2972
g62
(dp2973
g89
g90
ssg71
g2962
sg64
(lp2974
S':'
asbag57
(g78
g59
NtRp2975
(dp2976
g62
(dp2977
sg71
g2962
sg64
(lp2978
g57
(g58
g59
NtRp2979
(dp2980
g62
(dp2981
g70
I4
ssg71
g2975
sg64
(lp2982
S'HTTP/1.1'
p2983
asbasbasbag57
(g73
g59
NtRp2984
(dp2985
g62
(dp2986
sg71
g2147
sg64
(lp2987
g57
(g78
g59
NtRp2988
(dp2989
g62
(dp2990
g82
g83
ssg71
g2984
sg64
(lp2991
S'server_software'
p2992
asbag57
(g78
g59
NtRp2993
(dp2994
g62
(dp2995
g89
g90
ssg71
g2984
sg64
(lp2996
S':'
asbag57
(g78
g59
NtRp2997
(dp2998
g62
(dp2999
sg71
g2984
sg64
(lp3000
g57
(g58
g59
NtRp3001
(dp3002
g62
(dp3003
g70
I4
ssg71
g2997
sg64
(lp3004
S'Rocket 1.2.6'
p3005
asbasbasbag57
(g73
g59
NtRp3006
(dp3007
g62
(dp3008
sg71
g2147
sg64
(lp3009
g57
(g78
g59
NtRp3010
(dp3011
g62
(dp3012
g82
g83
ssg71
g3006
sg64
(lp3013
S'web2py_original_uri'
p3014
asbag57
(g78
g59
NtRp3015
(dp3016
g62
(dp3017
g89
g90
ssg71
g3006
sg64
(lp3018
S':'
asbag57
(g78
g59
NtRp3019
(dp3020
g62
(dp3021
sg71
g3006
sg64
(lp3022
g57
(g58
g59
NtRp3023
(dp3024
g62
(dp3025
g70
I4
ssg71
g3019
sg64
(lp3026
g2788
asbasbasbag57
(g73
g59
NtRp3027
(dp3028
g62
(dp3029
sg71
g2147
sg64
(lp3030
g57
(g78
g59
NtRp3031
(dp3032
g62
(dp3033
g82
g83
ssg71
g3027
sg64
(lp3034
S'web2py_path'
p3035
asbag57
(g78
g59
NtRp3036
(dp3037
g62
(dp3038
g89
g90
ssg71
g3027
sg64
(lp3039
S':'
asbag57
(g78
g59
NtRp3040
(dp3041
g62
(dp3042
sg71
g3027
sg64
(lp3043
g57
(g58
g59
NtRp3044
(dp3045
g62
(dp3046
g70
I4
ssg71
g3040
sg64
(lp3047
g2194
asbasbasbag57
(g73
g59
NtRp3048
(dp3049
g62
(dp3050
sg71
g2147
sg64
(lp3051
g57
(g78
g59
NtRp3052
(dp3053
g62
(dp3054
g82
g83
ssg71
g3048
sg64
(lp3055
S'web2py_version'
p3056
asbag57
(g78
g59
NtRp3057
(dp3058
g62
(dp3059
g89
g90
ssg71
g3048
sg64
(lp3060
S':'
asbag57
(g78
g59
NtRp3061
(dp3062
g62
(dp3063
sg71
g3048
sg64
(lp3064
g57
(g58
g59
NtRp3065
(dp3066
g62
(dp3067
g70
I4
ssg71
g3061
sg64
(lp3068
g57
(g66
g59
NtRp3069
(dp3070
g62
(dp3071
g70
I3
ssg71
Nsg64
(lp3072
g57
(g73
g59
NtRp3073
(dp3074
g62
(dp3075
sg71
g3069
sg64
(lp3076
g57
(g78
g59
NtRp3077
(dp3078
g62
(dp3079
sg71
g3073
sg64
(lp3080
g57
(g58
g59
NtRp3081
(dp3082
g62
(dp3083
g70
I3
ssg71
g3077
sg64
(lp3084
S'2'
asbasbasbag57
(g73
g59
NtRp3085
(dp3086
g62
(dp3087
sg71
g3069
sg64
(lp3088
g57
(g78
g59
NtRp3089
(dp3090
g62
(dp3091
sg71
g3085
sg64
(lp3092
g57
(g58
g59
NtRp3093
(dp3094
g62
(dp3095
g70
I3
ssg71
g3089
sg64
(lp3096
S'3'
asbasbasbag57
(g73
g59
NtRp3097
(dp3098
g62
(dp3099
sg71
g3069
sg64
(lp3100
g57
(g78
g59
NtRp3101
(dp3102
g62
(dp3103
sg71
g3097
sg64
(lp3104
g57
(g58
g59
NtRp3105
(dp3106
g62
(dp3107
g70
I3
ssg71
g3101
sg64
(lp3108
S'2'
asbasbasbag57
(g73
g59
NtRp3109
(dp3110
g62
(dp3111
sg71
g3069
sg64
(lp3112
g57
(g78
g59
NtRp3113
(dp3114
g62
(dp3115
sg71
g3109
sg64
(lp3116
g57
(g58
g59
NtRp3117
(dp3118
g62
(dp3119
g70
I3
ssg71
g3113
sg64
(lp3120
S'datetime.datetime(2012, 12, 17, 15, 3, 30)'
p3121
asbasbasbag57
(g73
g59
NtRp3122
(dp3123
g62
(dp3124
sg71
g3069
sg64
(lp3125
g57
(g78
g59
NtRp3126
(dp3127
g62
(dp3128
sg71
g3122
sg64
(lp3129
g57
(g58
g59
NtRp3130
(dp3131
g62
(dp3132
g70
I3
ssg71
g3126
sg64
(lp3133
S'stable'
p3134
asbasbasbasbasbasbasbag57
(g73
g59
NtRp3135
(dp3136
g62
(dp3137
sg71
g2147
sg64
(lp3138
g57
(g78
g59
NtRp3139
(dp3140
g62
(dp3141
g82
g83
ssg71
g3135
sg64
(lp3142
S'wsgi_errors'
p3143
asbag57
(g78
g59
NtRp3144
(dp3145
g62
(dp3146
g89
g90
ssg71
g3135
sg64
(lp3147
S':'
asbag57
(g78
g59
NtRp3148
(dp3149
g62
(dp3150
sg71
g3135
sg64
(lp3151
g57
(g58
g59
NtRp3152
(dp3153
g62
(dp3154
g70
I4
ssg71
g3148
sg64
(lp3155
S"<open file '<stderr>', mode 'w' at 0x7ff38e4fb270>"
p3156
asbasbasbag57
(g73
g59
NtRp3157
(dp3158
g62
(dp3159
sg71
g2147
sg64
(lp3160
g57
(g78
g59
NtRp3161
(dp3162
g62
(dp3163
g82
g83
ssg71
g3157
sg64
(lp3164
S'wsgi_file_wrapper'
p3165
asbag57
(g78
g59
NtRp3166
(dp3167
g62
(dp3168
g89
g90
ssg71
g3157
sg64
(lp3169
S':'
asbag57
(g78
g59
NtRp3170
(dp3171
g62
(dp3172
sg71
g3157
sg64
(lp3173
g57
(g58
g59
NtRp3174
(dp3175
g62
(dp3176
g70
I4
ssg71
g3170
sg64
(lp3177
S'<class wsgiref.util.FileWrapper at 0x2875a10>'
p3178
asbasbasbag57
(g73
g59
NtRp3179
(dp3180
g62
(dp3181
sg71
g2147
sg64
(lp3182
g57
(g78
g59
NtRp3183
(dp3184
g62
(dp3185
g82
g83
ssg71
g3179
sg64
(lp3186
S'wsgi_input'
p3187
asbag57
(g78
g59
NtRp3188
(dp3189
g62
(dp3190
g89
g90
ssg71
g3179
sg64
(lp3191
S':'
asbag57
(g78
g59
NtRp3192
(dp3193
g62
(dp3194
sg71
g3179
sg64
(lp3195
g57
(g58
g59
NtRp3196
(dp3197
g62
(dp3198
g70
I4
ssg71
g3192
sg64
(lp3199
S'<socket._fileobject object at 0x7ff36c2d8ad0>'
p3200
asbasbasbag57
(g73
g59
NtRp3201
(dp3202
g62
(dp3203
sg71
g2147
sg64
(lp3204
g57
(g78
g59
NtRp3205
(dp3206
g62
(dp3207
g82
g83
ssg71
g3201
sg64
(lp3208
S'wsgi_multiprocess'
p3209
asbag57
(g78
g59
NtRp3210
(dp3211
g62
(dp3212
g89
g90
ssg71
g3201
sg64
(lp3213
S':'
asbag57
(g78
g59
NtRp3214
(dp3215
g62
(dp3216
sg71
g3201
sg64
(lp3217
g57
(g58
g59
NtRp3218
(dp3219
g62
(dp3220
g70
I4
ssg71
g3214
sg64
(lp3221
g100
asbasbasbag57
(g73
g59
NtRp3222
(dp3223
g62
(dp3224
sg71
g2147
sg64
(lp3225
g57
(g78
g59
NtRp3226
(dp3227
g62
(dp3228
g82
g83
ssg71
g3222
sg64
(lp3229
S'wsgi_multithread'
p3230
asbag57
(g78
g59
NtRp3231
(dp3232
g62
(dp3233
g89
g90
ssg71
g3222
sg64
(lp3234
S':'
asbag57
(g78
g59
NtRp3235
(dp3236
g62
(dp3237
sg71
g3222
sg64
(lp3238
g57
(g58
g59
NtRp3239
(dp3240
g62
(dp3241
g70
I4
ssg71
g3235
sg64
(lp3242
S'True'
p3243
asbasbasbag57
(g73
g59
NtRp3244
(dp3245
g62
(dp3246
sg71
g2147
sg64
(lp3247
g57
(g78
g59
NtRp3248
(dp3249
g62
(dp3250
g82
g83
ssg71
g3244
sg64
(lp3251
S'wsgi_run_once'
p3252
asbag57
(g78
g59
NtRp3253
(dp3254
g62
(dp3255
g89
g90
ssg71
g3244
sg64
(lp3256
S':'
asbag57
(g78
g59
NtRp3257
(dp3258
g62
(dp3259
sg71
g3244
sg64
(lp3260
g57
(g58
g59
NtRp3261
(dp3262
g62
(dp3263
g70
I4
ssg71
g3257
sg64
(lp3264
g100
asbasbasbag57
(g73
g59
NtRp3265
(dp3266
g62
(dp3267
sg71
g2147
sg64
(lp3268
g57
(g78
g59
NtRp3269
(dp3270
g62
(dp3271
g82
g83
ssg71
g3265
sg64
(lp3272
S'wsgi_url_scheme'
p3273
asbag57
(g78
g59
NtRp3274
(dp3275
g62
(dp3276
g89
g90
ssg71
g3265
sg64
(lp3277
S':'
asbag57
(g78
g59
NtRp3278
(dp3279
g62
(dp3280
sg71
g3265
sg64
(lp3281
g57
(g58
g59
NtRp3282
(dp3283
g62
(dp3284
g70
I4
ssg71
g3278
sg64
(lp3285
S'http'
p3286
asbasbasbag57
(g73
g59
NtRp3287
(dp3288
g62
(dp3289
sg71
g2147
sg64
(lp3290
g57
(g78
g59
NtRp3291
(dp3292
g62
(dp3293
g82
g83
ssg71
g3287
sg64
(lp3294
S'wsgi_version'
p3295
asbag57
(g78
g59
NtRp3296
(dp3297
g62
(dp3298
g89
g90
ssg71
g3287
sg64
(lp3299
S':'
asbag57
(g78
g59
NtRp3300
(dp3301
g62
(dp3302
sg71
g3287
sg64
(lp3303
g57
(g58
g59
NtRp3304
(dp3305
g62
(dp3306
g70
I4
ssg71
g3300
sg64
(lp3307
g57
(g66
g59
NtRp3308
(dp3309
g62
(dp3310
g70
I3
ssg71
Nsg64
(lp3311
g57
(g73
g59
NtRp3312
(dp3313
g62
(dp3314
sg71
g3308
sg64
(lp3315
g57
(g78
g59
NtRp3316
(dp3317
g62
(dp3318
sg71
g3312
sg64
(lp3319
g57
(g58
g59
NtRp3320
(dp3321
g62
(dp3322
g70
I3
ssg71
g3316
sg64
(lp3323
S'1'
asbasbasbag57
(g73
g59
NtRp3324
(dp3325
g62
(dp3326
sg71
g3308
sg64
(lp3327
g57
(g78
g59
NtRp3328
(dp3329
g62
(dp3330
sg71
g3324
sg64
(lp3331
g57
(g58
g59
NtRp3332
(dp3333
g62
(dp3334
g70
I3
ssg71
g3328
sg64
(lp3335
S'0'
asbasbasbasbasbasbasbasbasbasbasbag57
(g73
g59
NtRp3336
(dp3337
g62
(dp3338
sg71
g67
sg64
(lp3339
g57
(g78
g59
NtRp3340
(dp3341
g62
(dp3342
g82
g83
ssg71
g3336
sg64
(lp3343
S'extension'
p3344
asbag57
(g78
g59
NtRp3345
(dp3346
g62
(dp3347
g89
g90
ssg71
g3336
sg64
(lp3348
S':'
asbag57
(g78
g59
NtRp3349
(dp3350
g62
(dp3351
sg71
g3336
sg64
(lp3352
g57
(g58
g59
NtRp3353
(dp3354
g62
(dp3355
g70
I5
ssg71
g3349
sg64
(lp3356
S'html'
p3357
asbasbasbag57
(g73
g59
NtRp3358
(dp3359
g62
(dp3360
sg71
g67
sg64
(lp3361
g57
(g78
g59
NtRp3362
(dp3363
g62
(dp3364
g82
g83
ssg71
g3358
sg64
(lp3365
S'folder'
p3366
asbag57
(g78
g59
NtRp3367
(dp3368
g62
(dp3369
g89
g90
ssg71
g3358
sg64
(lp3370
S':'
asbag57
(g78
g59
NtRp3371
(dp3372
g62
(dp3373
sg71
g3358
sg64
(lp3374
g57
(g58
g59
NtRp3375
(dp3376
g62
(dp3377
g70
I5
ssg71
g3371
sg64
(lp3378
S'/var/www/web2py_curso/applications/projeto/'
p3379
asbasbasbag57
(g73
g59
NtRp3380
(dp3381
g62
(dp3382
sg71
g67
sg64
(lp3383
g57
(g78
g59
NtRp3384
(dp3385
g62
(dp3386
g82
g83
ssg71
g3380
sg64
(lp3387
S'function'
p3388
asbag57
(g78
g59
NtRp3389
(dp3390
g62
(dp3391
g89
g90
ssg71
g3380
sg64
(lp3392
S':'
asbag57
(g78
g59
NtRp3393
(dp3394
g62
(dp3395
sg71
g3380
sg64
(lp3396
g57
(g58
g59
NtRp3397
(dp3398
g62
(dp3399
g70
I5
ssg71
g3393
sg64
(lp3400
S'add'
p3401
asbasbasbag57
(g73
g59
NtRp3402
(dp3403
g62
(dp3404
sg71
g67
sg64
(lp3405
g57
(g78
g59
NtRp3406
(dp3407
g62
(dp3408
g82
g83
ssg71
g3402
sg64
(lp3409
S'get_vars'
p3410
asbag57
(g78
g59
NtRp3411
(dp3412
g62
(dp3413
g89
g90
ssg71
g3402
sg64
(lp3414
S':'
asbag57
(g78
g59
NtRp3415
(dp3416
g62
(dp3417
sg71
g3402
sg64
(lp3418
g57
(g58
g59
NtRp3419
(dp3420
g62
(dp3421
g70
I5
ssg71
g3415
sg64
(lp3422
g57
(g66
g59
NtRp3423
(dp3424
g62
(dp3425
g70
I4
ssg71
Nsg64
(lp3426
sbasbasbasbag57
(g73
g59
NtRp3427
(dp3428
g62
(dp3429
sg71
g67
sg64
(lp3430
g57
(g78
g59
NtRp3431
(dp3432
g62
(dp3433
g82
g83
ssg71
g3427
sg64
(lp3434
S'global_settings'
p3435
asbag57
(g78
g59
NtRp3436
(dp3437
g62
(dp3438
g89
g90
ssg71
g3427
sg64
(lp3439
S':'
asbag57
(g78
g59
NtRp3440
(dp3441
g62
(dp3442
sg71
g3427
sg64
(lp3443
g57
(g58
g59
NtRp3444
(dp3445
g62
(dp3446
g70
I5
ssg71
g3440
sg64
(lp3447
g57
(g66
g59
NtRp3448
(dp3449
g62
(dp3450
g70
I4
ssg71
Nsg64
(lp3451
g57
(g73
g59
NtRp3452
(dp3453
g62
(dp3454
sg71
g3448
sg64
(lp3455
g57
(g78
g59
NtRp3456
(dp3457
g62
(dp3458
g82
g83
ssg71
g3452
sg64
(lp3459
g2159
asbag57
(g78
g59
NtRp3460
(dp3461
g62
(dp3462
g89
g90
ssg71
g3452
sg64
(lp3463
S':'
asbag57
(g78
g59
NtRp3464
(dp3465
g62
(dp3466
sg71
g3452
sg64
(lp3467
g57
(g58
g59
NtRp3468
(dp3469
g62
(dp3470
g70
I4
ssg71
g3464
sg64
(lp3471
S"set(['/var/www/web2py_curso/applications/admin/', '/var/www/web2py_curso/applications/projeto/'])"
p3472
asbasbasbag57
(g73
g59
NtRp3473
(dp3474
g62
(dp3475
sg71
g3448
sg64
(lp3476
g57
(g78
g59
NtRp3477
(dp3478
g62
(dp3479
g82
g83
ssg71
g3473
sg64
(lp3480
g2181
asbag57
(g78
g59
NtRp3481
(dp3482
g62
(dp3483
g89
g90
ssg71
g3473
sg64
(lp3484
S':'
asbag57
(g78
g59
NtRp3485
(dp3486
g62
(dp3487
sg71
g3473
sg64
(lp3488
g57
(g58
g59
NtRp3489
(dp3490
g62
(dp3491
g70
I4
ssg71
g3485
sg64
(lp3492
g2194
asbasbasbag57
(g73
g59
NtRp3493
(dp3494
g62
(dp3495
sg71
g3448
sg64
(lp3496
g57
(g78
g59
NtRp3497
(dp3498
g62
(dp3499
g82
g83
ssg71
g3493
sg64
(lp3500
g2203
asbag57
(g78
g59
NtRp3501
(dp3502
g62
(dp3503
g89
g90
ssg71
g3493
sg64
(lp3504
S':'
asbag57
(g78
g59
NtRp3505
(dp3506
g62
(dp3507
sg71
g3493
sg64
(lp3508
g57
(g58
g59
NtRp3509
(dp3510
g62
(dp3511
g70
I4
ssg71
g3505
sg64
(lp3512
g57
(g66
g59
NtRp3513
(dp3514
g62
(dp3515
g70
I3
ssg71
Nsg64
(lp3516
sbasbasbasbag57
(g73
g59
NtRp3517
(dp3518
g62
(dp3519
sg71
g3448
sg64
(lp3520
g57
(g78
g59
NtRp3521
(dp3522
g62
(dp3523
g82
g83
ssg71
g3517
sg64
(lp3524
g2228
asbag57
(g78
g59
NtRp3525
(dp3526
g62
(dp3527
g89
g90
ssg71
g3517
sg64
(lp3528
S':'
asbag57
(g78
g59
NtRp3529
(dp3530
g62
(dp3531
sg71
g3517
sg64
(lp3532
g57
(g58
g59
NtRp3533
(dp3534
g62
(dp3535
g70
I4
ssg71
g3529
sg64
(lp3536
S"<Values at 0x2920488: {'verbose': False, 'ip': '127.0.0.1', 'with_scheduler': False, 'ips': [], 'shutdown_timeout': 5, 'taskbar': False, 'port': 8000, 'maxthreads': None, 'softcron': False, 'server_name': 'fernado-desktop', 'bpython': False, 'nogui': False, 'pid_filename': 'httpserver.pid', 'extcron': False, 'runcron': False, 'run_system_tests': False, 'test': None, 'folder': '/var/www/web2py_curso', 'config': '', 'minthreads': None, 'winservice': '', 'shell': None, 'run': '', 'log_filename': 'httpserver.log', 'debuglevel': 30, 'args': [''], 'socket_timeout': 5, 'ssl_ca_certificate': None, 'scheduler': None, 'profiler_filename': None, 'ssl_private_key': '', 'scheduler_groups': None, 'password': '123456', 'request_queue_size': 5, 'ssl_certificate': '', 'cronjob': False, 'numthreads': None, 'quiet': False, 'interfaces': None, 'import_models': False, 'timeout': 10, 'plain': False, 'nobanner': False}>"
p3537
asbasbasbag57
(g73
g59
NtRp3538
(dp3539
g62
(dp3540
sg71
g3448
sg64
(lp3541
g57
(g78
g59
NtRp3542
(dp3543
g62
(dp3544
g82
g83
ssg71
g3538
sg64
(lp3545
g2294
asbag57
(g78
g59
NtRp3546
(dp3547
g62
(dp3548
g89
g90
ssg71
g3538
sg64
(lp3549
S':'
asbag57
(g78
g59
NtRp3550
(dp3551
g62
(dp3552
sg71
g3538
sg64
(lp3553
g57
(g58
g59
NtRp3554
(dp3555
g62
(dp3556
g70
I4
ssg71
g3550
sg64
(lp3557
S'set([])'
p3558
asbasbasbag57
(g73
g59
NtRp3559
(dp3560
g62
(dp3561
sg71
g3448
sg64
(lp3562
g57
(g78
g59
NtRp3563
(dp3564
g62
(dp3565
g82
g83
ssg71
g3559
sg64
(lp3566
g2316
asbag57
(g78
g59
NtRp3567
(dp3568
g62
(dp3569
g89
g90
ssg71
g3559
sg64
(lp3570
S':'
asbag57
(g78
g59
NtRp3571
(dp3572
g62
(dp3573
sg71
g3559
sg64
(lp3574
g57
(g58
g59
NtRp3575
(dp3576
g62
(dp3577
g70
I4
ssg71
g3571
sg64
(lp3578
g100
asbasbasbag57
(g73
g59
NtRp3579
(dp3580
g62
(dp3581
sg71
g3448
sg64
(lp3582
g57
(g78
g59
NtRp3583
(dp3584
g62
(dp3585
g82
g83
ssg71
g3579
sg64
(lp3586
g2337
asbag57
(g78
g59
NtRp3587
(dp3588
g62
(dp3589
g89
g90
ssg71
g3579
sg64
(lp3590
S':'
asbag57
(g78
g59
NtRp3591
(dp3592
g62
(dp3593
sg71
g3579
sg64
(lp3594
g57
(g58
g59
NtRp3595
(dp3596
g62
(dp3597
g70
I4
ssg71
g3591
sg64
(lp3598
g2350
asbasbasbag57
(g73
g59
NtRp3599
(dp3600
g62
(dp3601
sg71
g3448
sg64
(lp3602
g57
(g78
g59
NtRp3603
(dp3604
g62
(dp3605
g82
g83
ssg71
g3599
sg64
(lp3606
g2643
asbag57
(g78
g59
NtRp3607
(dp3608
g62
(dp3609
g89
g90
ssg71
g3599
sg64
(lp3610
S':'
asbag57
(g78
g59
NtRp3611
(dp3612
g62
(dp3613
sg71
g3599
sg64
(lp3614
g57
(g58
g59
NtRp3615
(dp3616
g62
(dp3617
g70
I4
ssg71
g3611
sg64
(lp3618
g100
asbasbasbag57
(g73
g59
NtRp3619
(dp3620
g62
(dp3621
sg71
g3448
sg64
(lp3622
g57
(g78
g59
NtRp3623
(dp3624
g62
(dp3625
g82
g83
ssg71
g3619
sg64
(lp3626
g2664
asbag57
(g78
g59
NtRp3627
(dp3628
g62
(dp3629
g89
g90
ssg71
g3619
sg64
(lp3630
S':'
asbag57
(g78
g59
NtRp3631
(dp3632
g62
(dp3633
sg71
g3619
sg64
(lp3634
g57
(g58
g59
NtRp3635
(dp3636
g62
(dp3637
g70
I4
ssg71
g3631
sg64
(lp3638
g100
asbasbasbag57
(g73
g59
NtRp3639
(dp3640
g62
(dp3641
sg71
g3448
sg64
(lp3642
g57
(g78
g59
NtRp3643
(dp3644
g62
(dp3645
g82
g83
ssg71
g3639
sg64
(lp3646
g2685
asbag57
(g78
g59
NtRp3647
(dp3648
g62
(dp3649
g89
g90
ssg71
g3639
sg64
(lp3650
S':'
asbag57
(g78
g59
NtRp3651
(dp3652
g62
(dp3653
sg71
g3639
sg64
(lp3654
g57
(g58
g59
NtRp3655
(dp3656
g62
(dp3657
g70
I4
ssg71
g3651
sg64
(lp3658
g57
(g66
g59
NtRp3659
(dp3660
g62
(dp3661
g70
I3
ssg71
Nsg64
(lp3662
g57
(g73
g59
NtRp3663
(dp3664
g62
(dp3665
sg71
g3659
sg64
(lp3666
g57
(g78
g59
NtRp3667
(dp3668
g62
(dp3669
sg71
g3663
sg64
(lp3670
g57
(g58
g59
NtRp3671
(dp3672
g62
(dp3673
g70
I3
ssg71
g3667
sg64
(lp3674
g2714
asbasbasbag57
(g73
g59
NtRp3675
(dp3676
g62
(dp3677
sg71
g3659
sg64
(lp3678
g57
(g78
g59
NtRp3679
(dp3680
g62
(dp3681
sg71
g3675
sg64
(lp3682
g57
(g58
g59
NtRp3683
(dp3684
g62
(dp3685
g70
I3
ssg71
g3679
sg64
(lp3686
g2727
asbasbasbag57
(g73
g59
NtRp3687
(dp3688
g62
(dp3689
sg71
g3659
sg64
(lp3690
g57
(g78
g59
NtRp3691
(dp3692
g62
(dp3693
sg71
g3687
sg64
(lp3694
g57
(g58
g59
NtRp3695
(dp3696
g62
(dp3697
g70
I3
ssg71
g3691
sg64
(lp3698
g2740
asbasbasbag57
(g73
g59
NtRp3699
(dp3700
g62
(dp3701
sg71
g3659
sg64
(lp3702
g57
(g78
g59
NtRp3703
(dp3704
g62
(dp3705
sg71
g3699
sg64
(lp3706
g57
(g58
g59
NtRp3707
(dp3708
g62
(dp3709
g70
I3
ssg71
g3703
sg64
(lp3710
g2753
asbasbasbag57
(g73
g59
NtRp3711
(dp3712
g62
(dp3713
sg71
g3659
sg64
(lp3714
g57
(g78
g59
NtRp3715
(dp3716
g62
(dp3717
sg71
g3711
sg64
(lp3718
g57
(g58
g59
NtRp3719
(dp3720
g62
(dp3721
g70
I3
ssg71
g3715
sg64
(lp3722
g2766
asbasbasbasbasbasbasbag57
(g73
g59
NtRp3723
(dp3724
g62
(dp3725
sg71
g3448
sg64
(lp3726
g57
(g78
g59
NtRp3727
(dp3728
g62
(dp3729
g82
g83
ssg71
g3723
sg64
(lp3730
g3056
asbag57
(g78
g59
NtRp3731
(dp3732
g62
(dp3733
g89
g90
ssg71
g3723
sg64
(lp3734
S':'
asbag57
(g78
g59
NtRp3735
(dp3736
g62
(dp3737
sg71
g3723
sg64
(lp3738
g57
(g58
g59
NtRp3739
(dp3740
g62
(dp3741
g70
I4
ssg71
g3735
sg64
(lp3742
g57
(g66
g59
NtRp3743
(dp3744
g62
(dp3745
g70
I3
ssg71
Nsg64
(lp3746
g57
(g73
g59
NtRp3747
(dp3748
g62
(dp3749
sg71
g3743
sg64
(lp3750
g57
(g78
g59
NtRp3751
(dp3752
g62
(dp3753
sg71
g3747
sg64
(lp3754
g57
(g58
g59
NtRp3755
(dp3756
g62
(dp3757
g70
I3
ssg71
g3751
sg64
(lp3758
S'2'
asbasbasbag57
(g73
g59
NtRp3759
(dp3760
g62
(dp3761
sg71
g3743
sg64
(lp3762
g57
(g78
g59
NtRp3763
(dp3764
g62
(dp3765
sg71
g3759
sg64
(lp3766
g57
(g58
g59
NtRp3767
(dp3768
g62
(dp3769
g70
I3
ssg71
g3763
sg64
(lp3770
S'3'
asbasbasbag57
(g73
g59
NtRp3771
(dp3772
g62
(dp3773
sg71
g3743
sg64
(lp3774
g57
(g78
g59
NtRp3775
(dp3776
g62
(dp3777
sg71
g3771
sg64
(lp3778
g57
(g58
g59
NtRp3779
(dp3780
g62
(dp3781
g70
I3
ssg71
g3775
sg64
(lp3782
S'2'
asbasbasbag57
(g73
g59
NtRp3783
(dp3784
g62
(dp3785
sg71
g3743
sg64
(lp3786
g57
(g78
g59
NtRp3787
(dp3788
g62
(dp3789
sg71
g3783
sg64
(lp3790
g57
(g58
g59
NtRp3791
(dp3792
g62
(dp3793
g70
I3
ssg71
g3787
sg64
(lp3794
S'datetime.datetime(2012, 12, 17, 15, 3, 30)'
p3795
asbasbasbag57
(g73
g59
NtRp3796
(dp3797
g62
(dp3798
sg71
g3743
sg64
(lp3799
g57
(g78
g59
NtRp3800
(dp3801
g62
(dp3802
sg71
g3796
sg64
(lp3803
g57
(g58
g59
NtRp3804
(dp3805
g62
(dp3806
g70
I3
ssg71
g3800
sg64
(lp3807
g3134
asbasbasbasbasbasbasbasbasbasbasbag57
(g73
g59
NtRp3808
(dp3809
g62
(dp3810
sg71
g67
sg64
(lp3811
g57
(g78
g59
NtRp3812
(dp3813
g62
(dp3814
g82
g83
ssg71
g3808
sg64
(lp3815
S'is_https'
p3816
asbag57
(g78
g59
NtRp3817
(dp3818
g62
(dp3819
g89
g90
ssg71
g3808
sg64
(lp3820
S':'
asbag57
(g78
g59
NtRp3821
(dp3822
g62
(dp3823
sg71
g3808
sg64
(lp3824
g57
(g58
g59
NtRp3825
(dp3826
g62
(dp3827
g70
I5
ssg71
g3821
sg64
(lp3828
g100
asbasbasbag57
(g73
g59
NtRp3829
(dp3830
g62
(dp3831
sg71
g67
sg64
(lp3832
g57
(g78
g59
NtRp3833
(dp3834
g62
(dp3835
g82
g83
ssg71
g3829
sg64
(lp3836
S'is_local'
p3837
asbag57
(g78
g59
NtRp3838
(dp3839
g62
(dp3840
g89
g90
ssg71
g3829
sg64
(lp3841
S':'
asbag57
(g78
g59
NtRp3842
(dp3843
g62
(dp3844
sg71
g3829
sg64
(lp3845
g57
(g58
g59
NtRp3846
(dp3847
g62
(dp3848
g70
I5
ssg71
g3842
sg64
(lp3849
g3243
asbasbasbag57
(g73
g59
NtRp3850
(dp3851
g62
(dp3852
sg71
g67
sg64
(lp3853
g57
(g78
g59
NtRp3854
(dp3855
g62
(dp3856
g82
g83
ssg71
g3850
sg64
(lp3857
S'is_restful'
p3858
asbag57
(g78
g59
NtRp3859
(dp3860
g62
(dp3861
g89
g90
ssg71
g3850
sg64
(lp3862
S':'
asbag57
(g78
g59
NtRp3863
(dp3864
g62
(dp3865
sg71
g3850
sg64
(lp3866
g57
(g58
g59
NtRp3867
(dp3868
g62
(dp3869
g70
I5
ssg71
g3863
sg64
(lp3870
g100
asbasbasbag57
(g73
g59
NtRp3871
(dp3872
g62
(dp3873
sg71
g67
sg64
(lp3874
g57
(g78
g59
NtRp3875
(dp3876
g62
(dp3877
g82
g83
ssg71
g3871
sg64
(lp3878
S'now'
p3879
asbag57
(g78
g59
NtRp3880
(dp3881
g62
(dp3882
g89
g90
ssg71
g3871
sg64
(lp3883
S':'
asbag57
(g78
g59
NtRp3884
(dp3885
g62
(dp3886
sg71
g3871
sg64
(lp3887
g57
(g58
g59
NtRp3888
(dp3889
g62
(dp3890
g70
I5
ssg71
g3884
sg64
(lp3891
S'datetime.datetime(2013, 2, 5, 10, 21, 22, 452726)'
p3892
asbasbasbag57
(g73
g59
NtRp3893
(dp3894
g62
(dp3895
sg71
g67
sg64
(lp3896
g57
(g78
g59
NtRp3897
(dp3898
g62
(dp3899
g82
g83
ssg71
g3893
sg64
(lp3900
S'post_vars'
p3901
asbag57
(g78
g59
NtRp3902
(dp3903
g62
(dp3904
g89
g90
ssg71
g3893
sg64
(lp3905
S':'
asbag57
(g78
g59
NtRp3906
(dp3907
g62
(dp3908
sg71
g3893
sg64
(lp3909
g57
(g58
g59
NtRp3910
(dp3911
g62
(dp3912
g70
I5
ssg71
g3906
sg64
(lp3913
g57
(g66
g59
NtRp3914
(dp3915
g62
(dp3916
g70
I4
ssg71
Nsg64
(lp3917
g57
(g73
g59
NtRp3918
(dp3919
g62
(dp3920
sg71
g3914
sg64
(lp3921
g57
(g78
g59
NtRp3922
(dp3923
g62
(dp3924
g82
g83
ssg71
g3918
sg64
(lp3925
S'blog'
p3926
asbag57
(g78
g59
NtRp3927
(dp3928
g62
(dp3929
g89
g90
ssg71
g3918
sg64
(lp3930
S':'
asbag57
(g78
g59
NtRp3931
(dp3932
g62
(dp3933
sg71
g3918
sg64
(lp3934
g57
(g58
g59
NtRp3935
(dp3936
g62
(dp3937
g70
I4
ssg71
g3931
sg64
(lp3938
S'1'
asbasbasbag57
(g73
g59
NtRp3939
(dp3940
g62
(dp3941
sg71
g3914
sg64
(lp3942
g57
(g78
g59
NtRp3943
(dp3944
g62
(dp3945
g82
g83
ssg71
g3939
sg64
(lp3946
S'created_by'
p3947
asbag57
(g78
g59
NtRp3948
(dp3949
g62
(dp3950
g89
g90
ssg71
g3939
sg64
(lp3951
S':'
asbag57
(g78
g59
NtRp3952
(dp3953
g62
(dp3954
sg71
g3939
sg64
(lp3955
g57
(g58
g59
NtRp3956
(dp3957
g62
(dp3958
g70
I4
ssg71
g3952
sg64
(lp3959
S''
asbasbasbag57
(g73
g59
NtRp3960
(dp3961
g62
(dp3962
sg71
g3914
sg64
(lp3963
g57
(g78
g59
NtRp3964
(dp3965
g62
(dp3966
g82
g83
ssg71
g3960
sg64
(lp3967
S'is_draft'
p3968
asbag57
(g78
g59
NtRp3969
(dp3970
g62
(dp3971
g89
g90
ssg71
g3960
sg64
(lp3972
S':'
asbag57
(g78
g59
NtRp3973
(dp3974
g62
(dp3975
sg71
g3960
sg64
(lp3976
g57
(g58
g59
NtRp3977
(dp3978
g62
(dp3979
g70
I4
ssg71
g3973
sg64
(lp3980
S'on'
p3981
asbasbasbag57
(g73
g59
NtRp3982
(dp3983
g62
(dp3984
sg71
g3914
sg64
(lp3985
g57
(g78
g59
NtRp3986
(dp3987
g62
(dp3988
g82
g83
ssg71
g3982
sg64
(lp3989
S'post_body'
p3990
asbag57
(g78
g59
NtRp3991
(dp3992
g62
(dp3993
g89
g90
ssg71
g3982
sg64
(lp3994
S':'
asbag57
(g78
g59
NtRp3995
(dp3996
g62
(dp3997
sg71
g3982
sg64
(lp3998
g57
(g58
g59
NtRp3999
(dp4000
g62
(dp4001
g70
I4
ssg71
g3995
sg64
(lp4002
S'dfg'
p4003
asbasbasbag57
(g73
g59
NtRp4004
(dp4005
g62
(dp4006
sg71
g3914
sg64
(lp4007
g57
(g78
g59
NtRp4008
(dp4009
g62
(dp4010
g82
g83
ssg71
g4004
sg64
(lp4011
S'post_date'
p4012
asbag57
(g78
g59
NtRp4013
(dp4014
g62
(dp4015
g89
g90
ssg71
g4004
sg64
(lp4016
S':'
asbag57
(g78
g59
NtRp4017
(dp4018
g62
(dp4019
sg71
g4004
sg64
(lp4020
g57
(g58
g59
NtRp4021
(dp4022
g62
(dp4023
g70
I4
ssg71
g4017
sg64
(lp4024
S'2013-02-05 10:21:17'
p4025
asbasbasbag57
(g73
g59
NtRp4026
(dp4027
g62
(dp4028
sg71
g3914
sg64
(lp4029
g57
(g78
g59
NtRp4030
(dp4031
g62
(dp4032
g82
g83
ssg71
g4026
sg64
(lp4033
S'tags'
p4034
asbag57
(g78
g59
NtRp4035
(dp4036
g62
(dp4037
g89
g90
ssg71
g4026
sg64
(lp4038
S':'
asbag57
(g78
g59
NtRp4039
(dp4040
g62
(dp4041
sg71
g4026
sg64
(lp4042
g57
(g58
g59
NtRp4043
(dp4044
g62
(dp4045
g70
I4
ssg71
g4039
sg64
(lp4046
S''
asbasbasbag57
(g73
g59
NtRp4047
(dp4048
g62
(dp4049
sg71
g3914
sg64
(lp4050
g57
(g78
g59
NtRp4051
(dp4052
g62
(dp4053
g82
g83
ssg71
g4047
sg64
(lp4054
S'title'
p4055
asbag57
(g78
g59
NtRp4056
(dp4057
g62
(dp4058
g89
g90
ssg71
g4047
sg64
(lp4059
S':'
asbag57
(g78
g59
NtRp4060
(dp4061
g62
(dp4062
sg71
g4047
sg64
(lp4063
g57
(g58
g59
NtRp4064
(dp4065
g62
(dp4066
g70
I4
ssg71
g4060
sg64
(lp4067
S'dfg'
p4068
asbasbasbasbasbasbasbag57
(g73
g59
NtRp4069
(dp4070
g62
(dp4071
sg71
g67
sg64
(lp4072
g57
(g78
g59
NtRp4073
(dp4074
g62
(dp4075
g82
g83
ssg71
g4069
sg64
(lp4076
S'url'
p4077
asbag57
(g78
g59
NtRp4078
(dp4079
g62
(dp4080
g89
g90
ssg71
g4069
sg64
(lp4081
S':'
asbag57
(g78
g59
NtRp4082
(dp4083
g62
(dp4084
sg71
g4069
sg64
(lp4085
g57
(g58
g59
NtRp4086
(dp4087
g62
(dp4088
g70
I5
ssg71
g4082
sg64
(lp4089
g2788
asbasbasbag57
(g73
g59
NtRp4090
(dp4091
g62
(dp4092
sg71
g67
sg64
(lp4093
g57
(g78
g59
NtRp4094
(dp4095
g62
(dp4096
g82
g83
ssg71
g4090
sg64
(lp4097
S'utcnow'
p4098
asbag57
(g78
g59
NtRp4099
(dp4100
g62
(dp4101
g89
g90
ssg71
g4090
sg64
(lp4102
S':'
asbag57
(g78
g59
NtRp4103
(dp4104
g62
(dp4105
sg71
g4090
sg64
(lp4106
g57
(g58
g59
NtRp4107
(dp4108
g62
(dp4109
g70
I5
ssg71
g4103
sg64
(lp4110
S'datetime.datetime(2013, 2, 5, 12, 21, 22, 452787)'
p4111
asbasbasbag57
(g73
g59
NtRp4112
(dp4113
g62
(dp4114
sg71
g67
sg64
(lp4115
g57
(g78
g59
NtRp4116
(dp4117
g62
(dp4118
g82
g83
ssg71
g4112
sg64
(lp4119
S'uuid'
p4120
asbag57
(g78
g59
NtRp4121
(dp4122
g62
(dp4123
g89
g90
ssg71
g4112
sg64
(lp4124
S':'
asbag57
(g78
g59
NtRp4125
(dp4126
g62
(dp4127
sg71
g4112
sg64
(lp4128
g57
(g58
g59
NtRp4129
(dp4130
g62
(dp4131
g70
I5
ssg71
g4125
sg64
(lp4132
S'projeto/127.0.0.1.2013-02-05.10-21-22.a1478de9-ee49-4885-b25d-9499de69f271'
p4133
asbasbasbag57
(g73
g59
NtRp4134
(dp4135
g62
(dp4136
sg71
g67
sg64
(lp4137
g57
(g78
g59
NtRp4138
(dp4139
g62
(dp4140
g82
g83
ssg71
g4134
sg64
(lp4141
S'vars'
p4142
asbag57
(g78
g59
NtRp4143
(dp4144
g62
(dp4145
g89
g90
ssg71
g4134
sg64
(lp4146
S':'
asbag57
(g78
g59
NtRp4147
(dp4148
g62
(dp4149
sg71
g4134
sg64
(lp4150
g57
(g58
g59
NtRp4151
(dp4152
g62
(dp4153
g70
I5
ssg71
g4147
sg64
(lp4154
g57
(g66
g59
NtRp4155
(dp4156
g62
(dp4157
g70
I4
ssg71
Nsg64
(lp4158
g57
(g73
g59
NtRp4159
(dp4160
g62
(dp4161
sg71
g4155
sg64
(lp4162
g57
(g78
g59
NtRp4163
(dp4164
g62
(dp4165
g82
g83
ssg71
g4159
sg64
(lp4166
g3926
asbag57
(g78
g59
NtRp4167
(dp4168
g62
(dp4169
g89
g90
ssg71
g4159
sg64
(lp4170
S':'
asbag57
(g78
g59
NtRp4171
(dp4172
g62
(dp4173
sg71
g4159
sg64
(lp4174
g57
(g58
g59
NtRp4175
(dp4176
g62
(dp4177
g70
I4
ssg71
g4171
sg64
(lp4178
S'1'
asbasbasbag57
(g73
g59
NtRp4179
(dp4180
g62
(dp4181
sg71
g4155
sg64
(lp4182
g57
(g78
g59
NtRp4183
(dp4184
g62
(dp4185
g82
g83
ssg71
g4179
sg64
(lp4186
g3947
asbag57
(g78
g59
NtRp4187
(dp4188
g62
(dp4189
g89
g90
ssg71
g4179
sg64
(lp4190
S':'
asbag57
(g78
g59
NtRp4191
(dp4192
g62
(dp4193
sg71
g4179
sg64
(lp4194
g57
(g58
g59
NtRp4195
(dp4196
g62
(dp4197
g70
I4
ssg71
g4191
sg64
(lp4198
S''
asbasbasbag57
(g73
g59
NtRp4199
(dp4200
g62
(dp4201
sg71
g4155
sg64
(lp4202
g57
(g78
g59
NtRp4203
(dp4204
g62
(dp4205
g82
g83
ssg71
g4199
sg64
(lp4206
g3968
asbag57
(g78
g59
NtRp4207
(dp4208
g62
(dp4209
g89
g90
ssg71
g4199
sg64
(lp4210
S':'
asbag57
(g78
g59
NtRp4211
(dp4212
g62
(dp4213
sg71
g4199
sg64
(lp4214
g57
(g58
g59
NtRp4215
(dp4216
g62
(dp4217
g70
I4
ssg71
g4211
sg64
(lp4218
g3981
asbasbasbag57
(g73
g59
NtRp4219
(dp4220
g62
(dp4221
sg71
g4155
sg64
(lp4222
g57
(g78
g59
NtRp4223
(dp4224
g62
(dp4225
g82
g83
ssg71
g4219
sg64
(lp4226
g3990
asbag57
(g78
g59
NtRp4227
(dp4228
g62
(dp4229
g89
g90
ssg71
g4219
sg64
(lp4230
S':'
asbag57
(g78
g59
NtRp4231
(dp4232
g62
(dp4233
sg71
g4219
sg64
(lp4234
g57
(g58
g59
NtRp4235
(dp4236
g62
(dp4237
g70
I4
ssg71
g4231
sg64
(lp4238
g4003
asbasbasbag57
(g73
g59
NtRp4239
(dp4240
g62
(dp4241
sg71
g4155
sg64
(lp4242
g57
(g78
g59
NtRp4243
(dp4244
g62
(dp4245
g82
g83
ssg71
g4239
sg64
(lp4246
g4012
asbag57
(g78
g59
NtRp4247
(dp4248
g62
(dp4249
g89
g90
ssg71
g4239
sg64
(lp4250
S':'
asbag57
(g78
g59
NtRp4251
(dp4252
g62
(dp4253
sg71
g4239
sg64
(lp4254
g57
(g58
g59
NtRp4255
(dp4256
g62
(dp4257
g70
I4
ssg71
g4251
sg64
(lp4258
g4025
asbasbasbag57
(g73
g59
NtRp4259
(dp4260
g62
(dp4261
sg71
g4155
sg64
(lp4262
g57
(g78
g59
NtRp4263
(dp4264
g62
(dp4265
g82
g83
ssg71
g4259
sg64
(lp4266
g4034
asbag57
(g78
g59
NtRp4267
(dp4268
g62
(dp4269
g89
g90
ssg71
g4259
sg64
(lp4270
S':'
asbag57
(g78
g59
NtRp4271
(dp4272
g62
(dp4273
sg71
g4259
sg64
(lp4274
g57
(g58
g59
NtRp4275
(dp4276
g62
(dp4277
g70
I4
ssg71
g4271
sg64
(lp4278
S''
asbasbasbag57
(g73
g59
NtRp4279
(dp4280
g62
(dp4281
sg71
g4155
sg64
(lp4282
g57
(g78
g59
NtRp4283
(dp4284
g62
(dp4285
g82
g83
ssg71
g4279
sg64
(lp4286
g4055
asbag57
(g78
g59
NtRp4287
(dp4288
g62
(dp4289
g89
g90
ssg71
g4279
sg64
(lp4290
S':'
asbag57
(g78
g59
NtRp4291
(dp4292
g62
(dp4293
sg71
g4279
sg64
(lp4294
g57
(g58
g59
NtRp4295
(dp4296
g62
(dp4297
g70
I4
ssg71
g4291
sg64
(lp4298
g4068
asbasbasbasbasbasbasbag57
(g73
g59
NtRp4299
(dp4300
g62
(dp4301
sg71
g67
sg64
(lp4302
g57
(g78
g59
NtRp4303
(dp4304
g62
(dp4305
g82
g83
ssg71
g4299
sg64
(lp4306
S'wsgi'
p4307
asbag57
(g78
g59
NtRp4308
(dp4309
g62
(dp4310
g89
g90
ssg71
g4299
sg64
(lp4311
S':'
asbag57
(g78
g59
NtRp4312
(dp4313
g62
(dp4314
sg71
g4299
sg64
(lp4315
g57
(g58
g59
NtRp4316
(dp4317
g62
(dp4318
g70
I5
ssg71
g4312
sg64
(lp4319
g57
(g66
g59
NtRp4320
(dp4321
g62
(dp4322
g70
I4
ssg71
Nsg64
(lp4323
g57
(g73
g59
NtRp4324
(dp4325
g62
(dp4326
sg71
g4320
sg64
(lp4327
g57
(g78
g59
NtRp4328
(dp4329
g62
(dp4330
g82
g83
ssg71
g4324
sg64
(lp4331
S'environ'
p4332
asbag57
(g78
g59
NtRp4333
(dp4334
g62
(dp4335
g89
g90
ssg71
g4324
sg64
(lp4336
S':'
asbag57
(g78
g59
NtRp4337
(dp4338
g62
(dp4339
sg71
g4324
sg64
(lp4340
g57
(g58
g59
NtRp4341
(dp4342
g62
(dp4343
g70
I4
ssg71
g4337
sg64
(lp4344
g57
(g66
g59
NtRp4345
(dp4346
g62
(dp4347
g70
I3
ssg71
Nsg64
(lp4348
g57
(g73
g59
NtRp4349
(dp4350
g62
(dp4351
sg71
g4345
sg64
(lp4352
g57
(g78
g59
NtRp4353
(dp4354
g62
(dp4355
g82
g83
ssg71
g4349
sg64
(lp4356
S'CONTENT_LENGTH'
p4357
asbag57
(g78
g59
NtRp4358
(dp4359
g62
(dp4360
g89
g90
ssg71
g4349
sg64
(lp4361
S':'
asbag57
(g78
g59
NtRp4362
(dp4363
g62
(dp4364
sg71
g4349
sg64
(lp4365
g57
(g58
g59
NtRp4366
(dp4367
g62
(dp4368
g70
I3
ssg71
g4362
sg64
(lp4369
g2263
asbasbasbag57
(g73
g59
NtRp4370
(dp4371
g62
(dp4372
sg71
g4345
sg64
(lp4373
g57
(g78
g59
NtRp4374
(dp4375
g62
(dp4376
g82
g83
ssg71
g4370
sg64
(lp4377
S'CONTENT_TYPE'
p4378
asbag57
(g78
g59
NtRp4379
(dp4380
g62
(dp4381
g89
g90
ssg71
g4370
sg64
(lp4382
S':'
asbag57
(g78
g59
NtRp4383
(dp4384
g62
(dp4385
sg71
g4370
sg64
(lp4386
g57
(g58
g59
NtRp4387
(dp4388
g62
(dp4389
g70
I3
ssg71
g4383
sg64
(lp4390
g2285
asbasbasbag57
(g73
g59
NtRp4391
(dp4392
g62
(dp4393
sg71
g4345
sg64
(lp4394
g57
(g78
g59
NtRp4395
(dp4396
g62
(dp4397
g82
g83
ssg71
g4391
sg64
(lp4398
S'HTTP_ACCEPT'
p4399
asbag57
(g78
g59
NtRp4400
(dp4401
g62
(dp4402
g89
g90
ssg71
g4391
sg64
(lp4403
S':'
asbag57
(g78
g59
NtRp4404
(dp4405
g62
(dp4406
sg71
g4391
sg64
(lp4407
g57
(g58
g59
NtRp4408
(dp4409
g62
(dp4410
g70
I3
ssg71
g4404
sg64
(lp4411
g2372
asbasbasbag57
(g73
g59
NtRp4412
(dp4413
g62
(dp4414
sg71
g4345
sg64
(lp4415
g57
(g78
g59
NtRp4416
(dp4417
g62
(dp4418
g82
g83
ssg71
g4412
sg64
(lp4419
S'HTTP_ACCEPT_CHARSET'
p4420
asbag57
(g78
g59
NtRp4421
(dp4422
g62
(dp4423
g89
g90
ssg71
g4412
sg64
(lp4424
S':'
asbag57
(g78
g59
NtRp4425
(dp4426
g62
(dp4427
sg71
g4412
sg64
(lp4428
g57
(g58
g59
NtRp4429
(dp4430
g62
(dp4431
g70
I3
ssg71
g4425
sg64
(lp4432
g2394
asbasbasbag57
(g73
g59
NtRp4433
(dp4434
g62
(dp4435
sg71
g4345
sg64
(lp4436
g57
(g78
g59
NtRp4437
(dp4438
g62
(dp4439
g82
g83
ssg71
g4433
sg64
(lp4440
S'HTTP_ACCEPT_ENCODING'
p4441
asbag57
(g78
g59
NtRp4442
(dp4443
g62
(dp4444
g89
g90
ssg71
g4433
sg64
(lp4445
S':'
asbag57
(g78
g59
NtRp4446
(dp4447
g62
(dp4448
sg71
g4433
sg64
(lp4449
g57
(g58
g59
NtRp4450
(dp4451
g62
(dp4452
g70
I3
ssg71
g4446
sg64
(lp4453
g2416
asbasbasbag57
(g73
g59
NtRp4454
(dp4455
g62
(dp4456
sg71
g4345
sg64
(lp4457
g57
(g78
g59
NtRp4458
(dp4459
g62
(dp4460
g82
g83
ssg71
g4454
sg64
(lp4461
S'HTTP_ACCEPT_LANGUAGE'
p4462
asbag57
(g78
g59
NtRp4463
(dp4464
g62
(dp4465
g89
g90
ssg71
g4454
sg64
(lp4466
S':'
asbag57
(g78
g59
NtRp4467
(dp4468
g62
(dp4469
sg71
g4454
sg64
(lp4470
g57
(g58
g59
NtRp4471
(dp4472
g62
(dp4473
g70
I3
ssg71
g4467
sg64
(lp4474
g2438
asbasbasbag57
(g73
g59
NtRp4475
(dp4476
g62
(dp4477
sg71
g4345
sg64
(lp4478
g57
(g78
g59
NtRp4479
(dp4480
g62
(dp4481
g82
g83
ssg71
g4475
sg64
(lp4482
S'HTTP_CACHE_CONTROL'
p4483
asbag57
(g78
g59
NtRp4484
(dp4485
g62
(dp4486
g89
g90
ssg71
g4475
sg64
(lp4487
S':'
asbag57
(g78
g59
NtRp4488
(dp4489
g62
(dp4490
sg71
g4475
sg64
(lp4491
g57
(g58
g59
NtRp4492
(dp4493
g62
(dp4494
g70
I3
ssg71
g4488
sg64
(lp4495
g2460
asbasbasbag57
(g73
g59
NtRp4496
(dp4497
g62
(dp4498
sg71
g4345
sg64
(lp4499
g57
(g78
g59
NtRp4500
(dp4501
g62
(dp4502
g82
g83
ssg71
g4496
sg64
(lp4503
S'HTTP_CONNECTION'
p4504
asbag57
(g78
g59
NtRp4505
(dp4506
g62
(dp4507
g89
g90
ssg71
g4496
sg64
(lp4508
S':'
asbag57
(g78
g59
NtRp4509
(dp4510
g62
(dp4511
sg71
g4496
sg64
(lp4512
g57
(g58
g59
NtRp4513
(dp4514
g62
(dp4515
g70
I3
ssg71
g4509
sg64
(lp4516
g2482
asbasbasbag57
(g73
g59
NtRp4517
(dp4518
g62
(dp4519
sg71
g4345
sg64
(lp4520
g57
(g78
g59
NtRp4521
(dp4522
g62
(dp4523
g82
g83
ssg71
g4517
sg64
(lp4524
S'HTTP_CONTENT_LENGTH'
p4525
asbag57
(g78
g59
NtRp4526
(dp4527
g62
(dp4528
g89
g90
ssg71
g4517
sg64
(lp4529
S':'
asbag57
(g78
g59
NtRp4530
(dp4531
g62
(dp4532
sg71
g4517
sg64
(lp4533
g57
(g58
g59
NtRp4534
(dp4535
g62
(dp4536
g70
I3
ssg71
g4530
sg64
(lp4537
g2263
asbasbasbag57
(g73
g59
NtRp4538
(dp4539
g62
(dp4540
sg71
g4345
sg64
(lp4541
g57
(g78
g59
NtRp4542
(dp4543
g62
(dp4544
g82
g83
ssg71
g4538
sg64
(lp4545
S'HTTP_CONTENT_TYPE'
p4546
asbag57
(g78
g59
NtRp4547
(dp4548
g62
(dp4549
g89
g90
ssg71
g4538
sg64
(lp4550
S':'
asbag57
(g78
g59
NtRp4551
(dp4552
g62
(dp4553
sg71
g4538
sg64
(lp4554
g57
(g58
g59
NtRp4555
(dp4556
g62
(dp4557
g70
I3
ssg71
g4551
sg64
(lp4558
g2285
asbasbasbag57
(g73
g59
NtRp4559
(dp4560
g62
(dp4561
sg71
g4345
sg64
(lp4562
g57
(g78
g59
NtRp4563
(dp4564
g62
(dp4565
g82
g83
ssg71
g4559
sg64
(lp4566
S'HTTP_COOKIE'
p4567
asbag57
(g78
g59
NtRp4568
(dp4569
g62
(dp4570
g89
g90
ssg71
g4559
sg64
(lp4571
S':'
asbag57
(g78
g59
NtRp4572
(dp4573
g62
(dp4574
sg71
g4559
sg64
(lp4575
g57
(g58
g59
NtRp4576
(dp4577
g62
(dp4578
g70
I3
ssg71
g4572
sg64
(lp4579
g2546
asbasbasbag57
(g73
g59
NtRp4580
(dp4581
g62
(dp4582
sg71
g4345
sg64
(lp4583
g57
(g78
g59
NtRp4584
(dp4585
g62
(dp4586
g82
g83
ssg71
g4580
sg64
(lp4587
S'HTTP_HOST'
p4588
asbag57
(g78
g59
NtRp4589
(dp4590
g62
(dp4591
g89
g90
ssg71
g4580
sg64
(lp4592
S':'
asbag57
(g78
g59
NtRp4593
(dp4594
g62
(dp4595
sg71
g4580
sg64
(lp4596
g57
(g58
g59
NtRp4597
(dp4598
g62
(dp4599
g70
I3
ssg71
g4593
sg64
(lp4600
g2568
asbasbasbag57
(g73
g59
NtRp4601
(dp4602
g62
(dp4603
sg71
g4345
sg64
(lp4604
g57
(g78
g59
NtRp4605
(dp4606
g62
(dp4607
g82
g83
ssg71
g4601
sg64
(lp4608
S'HTTP_ORIGIN'
p4609
asbag57
(g78
g59
NtRp4610
(dp4611
g62
(dp4612
g89
g90
ssg71
g4601
sg64
(lp4613
S':'
asbag57
(g78
g59
NtRp4614
(dp4615
g62
(dp4616
sg71
g4601
sg64
(lp4617
g57
(g58
g59
NtRp4618
(dp4619
g62
(dp4620
g70
I3
ssg71
g4614
sg64
(lp4621
g2590
asbasbasbag57
(g73
g59
NtRp4622
(dp4623
g62
(dp4624
sg71
g4345
sg64
(lp4625
g57
(g78
g59
NtRp4626
(dp4627
g62
(dp4628
g82
g83
ssg71
g4622
sg64
(lp4629
S'HTTP_REFERER'
p4630
asbag57
(g78
g59
NtRp4631
(dp4632
g62
(dp4633
g89
g90
ssg71
g4622
sg64
(lp4634
S':'
asbag57
(g78
g59
NtRp4635
(dp4636
g62
(dp4637
sg71
g4622
sg64
(lp4638
g57
(g58
g59
NtRp4639
(dp4640
g62
(dp4641
g70
I3
ssg71
g4635
sg64
(lp4642
g2612
asbasbasbag57
(g73
g59
NtRp4643
(dp4644
g62
(dp4645
sg71
g4345
sg64
(lp4646
g57
(g78
g59
NtRp4647
(dp4648
g62
(dp4649
g82
g83
ssg71
g4643
sg64
(lp4650
S'HTTP_USER_AGENT'
p4651
asbag57
(g78
g59
NtRp4652
(dp4653
g62
(dp4654
g89
g90
ssg71
g4643
sg64
(lp4655
S':'
asbag57
(g78
g59
NtRp4656
(dp4657
g62
(dp4658
sg71
g4643
sg64
(lp4659
g57
(g58
g59
NtRp4660
(dp4661
g62
(dp4662
g70
I3
ssg71
g4656
sg64
(lp4663
g2634
asbasbasbag57
(g73
g59
NtRp4664
(dp4665
g62
(dp4666
sg71
g4345
sg64
(lp4667
g57
(g78
g59
NtRp4668
(dp4669
g62
(dp4670
g82
g83
ssg71
g4664
sg64
(lp4671
S'PATH_INFO'
p4672
asbag57
(g78
g59
NtRp4673
(dp4674
g62
(dp4675
g89
g90
ssg71
g4664
sg64
(lp4676
S':'
asbag57
(g78
g59
NtRp4677
(dp4678
g62
(dp4679
sg71
g4664
sg64
(lp4680
g57
(g58
g59
NtRp4681
(dp4682
g62
(dp4683
g70
I3
ssg71
g4677
sg64
(lp4684
g2788
asbasbasbag57
(g73
g59
NtRp4685
(dp4686
g62
(dp4687
sg71
g4345
sg64
(lp4688
g57
(g78
g59
NtRp4689
(dp4690
g62
(dp4691
g82
g83
ssg71
g4685
sg64
(lp4692
S'QUERY_STRING'
p4693
asbag57
(g78
g59
NtRp4694
(dp4695
g62
(dp4696
g89
g90
ssg71
g4685
sg64
(lp4697
S':'
asbag57
(g78
g59
NtRp4698
(dp4699
g62
(dp4700
sg71
g4685
sg64
(lp4701
g57
(g58
g59
NtRp4702
(dp4703
g62
(dp4704
g70
I3
ssg71
g4698
sg64
(lp4705
S''
asbasbasbag57
(g73
g59
NtRp4706
(dp4707
g62
(dp4708
sg71
g4345
sg64
(lp4709
g57
(g78
g59
NtRp4710
(dp4711
g62
(dp4712
g82
g83
ssg71
g4706
sg64
(lp4713
S'REMOTE_ADDR'
p4714
asbag57
(g78
g59
NtRp4715
(dp4716
g62
(dp4717
g89
g90
ssg71
g4706
sg64
(lp4718
S':'
asbag57
(g78
g59
NtRp4719
(dp4720
g62
(dp4721
sg71
g4706
sg64
(lp4722
g57
(g58
g59
NtRp4723
(dp4724
g62
(dp4725
g70
I3
ssg71
g4719
sg64
(lp4726
g212
asbasbasbag57
(g73
g59
NtRp4727
(dp4728
g62
(dp4729
sg71
g4345
sg64
(lp4730
g57
(g78
g59
NtRp4731
(dp4732
g62
(dp4733
g82
g83
ssg71
g4727
sg64
(lp4734
S'REMOTE_PORT'
p4735
asbag57
(g78
g59
NtRp4736
(dp4737
g62
(dp4738
g89
g90
ssg71
g4727
sg64
(lp4739
S':'
asbag57
(g78
g59
NtRp4740
(dp4741
g62
(dp4742
sg71
g4727
sg64
(lp4743
g57
(g58
g59
NtRp4744
(dp4745
g62
(dp4746
g70
I3
ssg71
g4740
sg64
(lp4747
g2852
asbasbasbag57
(g73
g59
NtRp4748
(dp4749
g62
(dp4750
sg71
g4345
sg64
(lp4751
g57
(g78
g59
NtRp4752
(dp4753
g62
(dp4754
g82
g83
ssg71
g4748
sg64
(lp4755
S'REQUEST_METHOD'
p4756
asbag57
(g78
g59
NtRp4757
(dp4758
g62
(dp4759
g89
g90
ssg71
g4748
sg64
(lp4760
S':'
asbag57
(g78
g59
NtRp4761
(dp4762
g62
(dp4763
sg71
g4748
sg64
(lp4764
g57
(g58
g59
NtRp4765
(dp4766
g62
(dp4767
g70
I3
ssg71
g4761
sg64
(lp4768
g2874
asbasbasbag57
(g73
g59
NtRp4769
(dp4770
g62
(dp4771
sg71
g4345
sg64
(lp4772
g57
(g78
g59
NtRp4773
(dp4774
g62
(dp4775
g82
g83
ssg71
g4769
sg64
(lp4776
S'REQUEST_URI'
p4777
asbag57
(g78
g59
NtRp4778
(dp4779
g62
(dp4780
g89
g90
ssg71
g4769
sg64
(lp4781
S':'
asbag57
(g78
g59
NtRp4782
(dp4783
g62
(dp4784
sg71
g4769
sg64
(lp4785
g57
(g58
g59
NtRp4786
(dp4787
g62
(dp4788
g70
I3
ssg71
g4782
sg64
(lp4789
g2896
asbasbasbag57
(g73
g59
NtRp4790
(dp4791
g62
(dp4792
sg71
g4345
sg64
(lp4793
g57
(g78
g59
NtRp4794
(dp4795
g62
(dp4796
g82
g83
ssg71
g4790
sg64
(lp4797
S'SCRIPT_NAME'
p4798
asbag57
(g78
g59
NtRp4799
(dp4800
g62
(dp4801
g89
g90
ssg71
g4790
sg64
(lp4802
S':'
asbag57
(g78
g59
NtRp4803
(dp4804
g62
(dp4805
sg71
g4790
sg64
(lp4806
g57
(g58
g59
NtRp4807
(dp4808
g62
(dp4809
g70
I3
ssg71
g4803
sg64
(lp4810
S''
asbasbasbag57
(g73
g59
NtRp4811
(dp4812
g62
(dp4813
sg71
g4345
sg64
(lp4814
g57
(g78
g59
NtRp4815
(dp4816
g62
(dp4817
g82
g83
ssg71
g4811
sg64
(lp4818
S'SERVER_NAME'
p4819
asbag57
(g78
g59
NtRp4820
(dp4821
g62
(dp4822
g89
g90
ssg71
g4811
sg64
(lp4823
S':'
asbag57
(g78
g59
NtRp4824
(dp4825
g62
(dp4826
sg71
g4811
sg64
(lp4827
g57
(g58
g59
NtRp4828
(dp4829
g62
(dp4830
g70
I3
ssg71
g4824
sg64
(lp4831
g2939
asbasbasbag57
(g73
g59
NtRp4832
(dp4833
g62
(dp4834
sg71
g4345
sg64
(lp4835
g57
(g78
g59
NtRp4836
(dp4837
g62
(dp4838
g82
g83
ssg71
g4832
sg64
(lp4839
S'SERVER_PORT'
p4840
asbag57
(g78
g59
NtRp4841
(dp4842
g62
(dp4843
g89
g90
ssg71
g4832
sg64
(lp4844
S':'
asbag57
(g78
g59
NtRp4845
(dp4846
g62
(dp4847
sg71
g4832
sg64
(lp4848
g57
(g58
g59
NtRp4849
(dp4850
g62
(dp4851
g70
I3
ssg71
g4845
sg64
(lp4852
g2961
asbasbasbag57
(g73
g59
NtRp4853
(dp4854
g62
(dp4855
sg71
g4345
sg64
(lp4856
g57
(g78
g59
NtRp4857
(dp4858
g62
(dp4859
g82
g83
ssg71
g4853
sg64
(lp4860
S'SERVER_PROTOCOL'
p4861
asbag57
(g78
g59
NtRp4862
(dp4863
g62
(dp4864
g89
g90
ssg71
g4853
sg64
(lp4865
S':'
asbag57
(g78
g59
NtRp4866
(dp4867
g62
(dp4868
sg71
g4853
sg64
(lp4869
g57
(g58
g59
NtRp4870
(dp4871
g62
(dp4872
g70
I3
ssg71
g4866
sg64
(lp4873
g2983
asbasbasbag57
(g73
g59
NtRp4874
(dp4875
g62
(dp4876
sg71
g4345
sg64
(lp4877
g57
(g78
g59
NtRp4878
(dp4879
g62
(dp4880
g82
g83
ssg71
g4874
sg64
(lp4881
S'SERVER_SOFTWARE'
p4882
asbag57
(g78
g59
NtRp4883
(dp4884
g62
(dp4885
g89
g90
ssg71
g4874
sg64
(lp4886
S':'
asbag57
(g78
g59
NtRp4887
(dp4888
g62
(dp4889
sg71
g4874
sg64
(lp4890
g57
(g58
g59
NtRp4891
(dp4892
g62
(dp4893
g70
I3
ssg71
g4887
sg64
(lp4894
g3005
asbasbasbag57
(g73
g59
NtRp4895
(dp4896
g62
(dp4897
sg71
g4345
sg64
(lp4898
g57
(g78
g59
NtRp4899
(dp4900
g62
(dp4901
g82
g83
ssg71
g4895
sg64
(lp4902
S'WEB2PY_ORIGINAL_URI'
p4903
asbag57
(g78
g59
NtRp4904
(dp4905
g62
(dp4906
g89
g90
ssg71
g4895
sg64
(lp4907
S':'
asbag57
(g78
g59
NtRp4908
(dp4909
g62
(dp4910
sg71
g4895
sg64
(lp4911
g57
(g58
g59
NtRp4912
(dp4913
g62
(dp4914
g70
I3
ssg71
g4908
sg64
(lp4915
g2788
asbasbasbag57
(g73
g59
NtRp4916
(dp4917
g62
(dp4918
sg71
g4345
sg64
(lp4919
g57
(g78
g59
NtRp4920
(dp4921
g62
(dp4922
g82
g83
ssg71
g4916
sg64
(lp4923
S'wsgi.errors'
p4924
asbag57
(g78
g59
NtRp4925
(dp4926
g62
(dp4927
g89
g90
ssg71
g4916
sg64
(lp4928
S':'
asbag57
(g78
g59
NtRp4929
(dp4930
g62
(dp4931
sg71
g4916
sg64
(lp4932
g57
(g58
g59
NtRp4933
(dp4934
g62
(dp4935
g70
I3
ssg71
g4929
sg64
(lp4936
S"<open file '<stderr>', mode 'w' at 0x7ff38e4fb270>"
p4937
asbasbasbag57
(g73
g59
NtRp4938
(dp4939
g62
(dp4940
sg71
g4345
sg64
(lp4941
g57
(g78
g59
NtRp4942
(dp4943
g62
(dp4944
g82
g83
ssg71
g4938
sg64
(lp4945
S'wsgi.file_wrapper'
p4946
asbag57
(g78
g59
NtRp4947
(dp4948
g62
(dp4949
g89
g90
ssg71
g4938
sg64
(lp4950
S':'
asbag57
(g78
g59
NtRp4951
(dp4952
g62
(dp4953
sg71
g4938
sg64
(lp4954
g57
(g58
g59
NtRp4955
(dp4956
g62
(dp4957
g70
I3
ssg71
g4951
sg64
(lp4958
S'<class wsgiref.util.FileWrapper at 0x2875a10>'
p4959
asbasbasbag57
(g73
g59
NtRp4960
(dp4961
g62
(dp4962
sg71
g4345
sg64
(lp4963
g57
(g78
g59
NtRp4964
(dp4965
g62
(dp4966
g82
g83
ssg71
g4960
sg64
(lp4967
S'wsgi.input'
p4968
asbag57
(g78
g59
NtRp4969
(dp4970
g62
(dp4971
g89
g90
ssg71
g4960
sg64
(lp4972
S':'
asbag57
(g78
g59
NtRp4973
(dp4974
g62
(dp4975
sg71
g4960
sg64
(lp4976
g57
(g58
g59
NtRp4977
(dp4978
g62
(dp4979
g70
I3
ssg71
g4973
sg64
(lp4980
S"<open file '<fdopen>', mode 'w+b' at 0x7ff37c53f1e0>"
p4981
asbasbasbag57
(g73
g59
NtRp4982
(dp4983
g62
(dp4984
sg71
g4345
sg64
(lp4985
g57
(g78
g59
NtRp4986
(dp4987
g62
(dp4988
g82
g83
ssg71
g4982
sg64
(lp4989
S'wsgi.multiprocess'
p4990
asbag57
(g78
g59
NtRp4991
(dp4992
g62
(dp4993
g89
g90
ssg71
g4982
sg64
(lp4994
S':'
asbag57
(g78
g59
NtRp4995
(dp4996
g62
(dp4997
sg71
g4982
sg64
(lp4998
g57
(g58
g59
NtRp4999
(dp5000
g62
(dp5001
g70
I3
ssg71
g4995
sg64
(lp5002
g100
asbasbasbag57
(g73
g59
NtRp5003
(dp5004
g62
(dp5005
sg71
g4345
sg64
(lp5006
g57
(g78
g59
NtRp5007
(dp5008
g62
(dp5009
g82
g83
ssg71
g5003
sg64
(lp5010
S'wsgi.multithread'
p5011
asbag57
(g78
g59
NtRp5012
(dp5013
g62
(dp5014
g89
g90
ssg71
g5003
sg64
(lp5015
S':'
asbag57
(g78
g59
NtRp5016
(dp5017
g62
(dp5018
sg71
g5003
sg64
(lp5019
g57
(g58
g59
NtRp5020
(dp5021
g62
(dp5022
g70
I3
ssg71
g5016
sg64
(lp5023
g3243
asbasbasbag57
(g73
g59
NtRp5024
(dp5025
g62
(dp5026
sg71
g4345
sg64
(lp5027
g57
(g78
g59
NtRp5028
(dp5029
g62
(dp5030
g82
g83
ssg71
g5024
sg64
(lp5031
S'wsgi.run_once'
p5032
asbag57
(g78
g59
NtRp5033
(dp5034
g62
(dp5035
g89
g90
ssg71
g5024
sg64
(lp5036
S':'
asbag57
(g78
g59
NtRp5037
(dp5038
g62
(dp5039
sg71
g5024
sg64
(lp5040
g57
(g58
g59
NtRp5041
(dp5042
g62
(dp5043
g70
I3
ssg71
g5037
sg64
(lp5044
g100
asbasbasbag57
(g73
g59
NtRp5045
(dp5046
g62
(dp5047
sg71
g4345
sg64
(lp5048
g57
(g78
g59
NtRp5049
(dp5050
g62
(dp5051
g82
g83
ssg71
g5045
sg64
(lp5052
S'wsgi.url_scheme'
p5053
asbag57
(g78
g59
NtRp5054
(dp5055
g62
(dp5056
g89
g90
ssg71
g5045
sg64
(lp5057
S':'
asbag57
(g78
g59
NtRp5058
(dp5059
g62
(dp5060
sg71
g5045
sg64
(lp5061
g57
(g58
g59
NtRp5062
(dp5063
g62
(dp5064
g70
I3
ssg71
g5058
sg64
(lp5065
g3286
asbasbasbag57
(g73
g59
NtRp5066
(dp5067
g62
(dp5068
sg71
g4345
sg64
(lp5069
g57
(g78
g59
NtRp5070
(dp5071
g62
(dp5072
g82
g83
ssg71
g5066
sg64
(lp5073
S'wsgi.version'
p5074
asbag57
(g78
g59
NtRp5075
(dp5076
g62
(dp5077
g89
g90
ssg71
g5066
sg64
(lp5078
S':'
asbag57
(g78
g59
NtRp5079
(dp5080
g62
(dp5081
sg71
g5066
sg64
(lp5082
g57
(g58
g59
NtRp5083
(dp5084
g62
(dp5085
g70
I3
ssg71
g5079
sg64
(lp5086
S'1'
asbasbasbasbasbasbasbasbasbasbasbasbasbsS'frames'
p5087
(lp5088
(dp5089
S'file'
p5090
S'/var/www/web2py_curso/gluon/restricted.py'
p5091
sS'dump'
p5092
(dp5093
S'environment'
p5094
S"{'A': <class 'gluon.html.A'>, 'Auth': <class 'gluon.tools.Auth'>, 'B': <class 'gluon.html.B'>, 'BEAUTIFY': <class 'gluon.html.BEAUTIFY'>, 'BODY': <class 'gluon.html.BODY'>, 'BR': <class 'gluon.html.BR'>, 'BUTTON': <class 'gluon.html.BUTTON'>, 'Blog': <Table blog (id,title,description)>, 'CAT': <class 'gluon.html.CAT'>, 'CENTER': <class 'gluon.html.CENTER'>, ...}"
p5095
sS'ccode'
p5096
S'<code object <module> at 0x7ff3744e66b0, file "/...pplications/projeto/controllers/post.py", line 1>'
p5097
ssS'lnum'
p5098
I212
sS'lines'
p5099
(dp5100
I207
S'    try:'
p5101
sI208
S'        if isinstance(code, types.CodeType):'
p5102
sI209
S'            ccode = code'
p5103
sI210
S'        else:'
p5104
sI211
S'            ccode = compile2(code, layer)'
p5105
sI212
S'        exec ccode in environment'
p5106
sI213
S'    except HTTP:'
p5107
sI214
S'        raise'
p5108
sI215
S'    except RestrictedError:'
p5109
sI216
S'        # do not encapsulate (obfuscate) the original RestrictedError'
p5110
ssS'call'
p5111
S'(code=\'def show():\\n\\treturn "post"\\n\\ndef edit():\\n\\treturn ...orm=form)\\n\\n\\nresponse._vars=response._caller(add)\\n\', environment={\'A\': <class \'gluon.html.A\'>, \'Auth\': <class \'gluon.tools.Auth\'>, \'B\': <class \'gluon.html.B\'>, \'BEAUTIFY\': <class \'gluon.html.BEAUTIFY\'>, \'BODY\': <class \'gluon.html.BODY\'>, \'BR\': <class \'gluon.html.BR\'>, \'BUTTON\': <class \'gluon.html.BUTTON\'>, \'Blog\': <Table blog (id,title,description)>, \'CAT\': <class \'gluon.html.CAT\'>, \'CENTER\': <class \'gluon.html.CENTER\'>, ...}, layer=\'/var/www/web2py_curso/applications/projeto/controllers/post.py\')'
p5112
sS'func'
p5113
S'restricted'
p5114
sa(dp5115
g5090
S'/var/www/web2py_curso/applications/projeto/controllers/post.py'
p5116
sg5092
(dp5117
sg5098
I25
sg5099
(dp5118
I14
S''
sI15
S'\tif form.process().accepted:'
p5119
sI16
S'\t\tresponse.flash = "Sucesso"'
p5120
sI17
S'\telif form.errors:'
p5121
sI18
S'\t\tresponse.flash = "erro"'
p5122
sI19
S'\telse:'
p5123
sI20
S'\t\tresponse.flash = "Preencha o form"'
p5124
sI21
S''
sI22
S'\treturn dict(form=form)'
p5125
sI23
S''
ssg5111
S'()'
p5126
sg5113
S'<module>'
p5127
sa(dp5128
g5090
S'/var/www/web2py_curso/gluon/globals.py'
p5129
sg5092
(dp5130
S'self'
p5131
S'undefined'
p5132
sS'f'
S'<function add>'
p5133
ssg5098
I193
sg5099
(dp5134
I192
S'        self._vars = None'
p5135
sI193
S'        self._caller = lambda f: f()'
p5136
sI194
S'        self._view_environment = None'
p5137
sI195
S'        self._custom_commit = None'
p5138
sI196
S'        self._custom_rollback = None'
p5139
sI197
S''
sI188
S'        self.menu = []             # used by the default view layout'
p5140
sI189
S'        self.files = []            # used by web2py_ajax.html'
p5141
sI190
S'        self.generic_patterns = []  # patterns to allow generic views'
p5142
sI191
S"        self.delimiters = ('{{', '}}')"
p5143
ssg5111
S'(f=<function add>)'
p5144
sg5113
S'<lambda>'
p5145
sa(dp5146
g5090
S'/var/www/web2py_curso/gluon/tools.py'
p5147
sg5092
(dp5148
S'action'
p5149
S'<function add>'
p5150
sS'a'
S'()'
p5151
sS'b'
g45
ssg5098
I2929
sg5099
(dp5152
I2924
S'                    flag = condition'
p5153
sI2925
S'                if not flag:'
p5154
sI2926
S'                    current.session.flash = self.messages.access_denied'
p5155
sI2927
S'                    return call_or_redirect('
p5156
sI2928
S'                        self.settings.on_failed_authorization)'
p5157
sI2929
S'                return action(*a, **b)'
p5158
sI2930
S'            f.__doc__ = action.__doc__'
p5159
sI2931
S'            f.__name__ = action.__name__'
p5160
sI2932
S'            f.__dict__.update(action.__dict__)'
p5161
sI2933
S'            return f'
p5162
ssg5111
S'(*a=(), **b={})'
p5163
sg5113
S'f'
sa(dp5164
g5090
S'/var/www/web2py_curso/applications/projeto/controllers/post.py'
p5165
sg5092
(dp5166
S'form.process'
p5167
S'<bound method SQLFORM.process of <gluon.sqlhtml.SQLFORM object>>'
p5168
sS').accepted'
p5169
g5132
sS'form'
p5170
S'<gluon.sqlhtml.SQLFORM object>'
p5171
ssg5098
I15
sg5099
(dp5172
I10
S'@auth.requires(auth.has_membership("admin") or auth.has_membership("editor"))'
p5173
sI11
S'def add():'
p5174
sI12
S'\tform = SQLFORM(db.post)'
p5175
sI13
S'\tprint form'
p5176
sI14
S''
sI15
S'\tif form.process().accepted:'
p5177
sI16
S'\t\tresponse.flash = "Sucesso"'
p5178
sI17
S'\telif form.errors:'
p5179
sI18
S'\t\tresponse.flash = "erro"'
p5180
sI19
S'\telse:'
p5181
ssg5111
S'()'
p5182
sg5113
S'add'
p5183
sa(dp5184
g5090
S'/var/www/web2py_curso/gluon/html.py'
p5185
sg5092
(dp5186
S'self'
p5187
S'<gluon.sqlhtml.SQLFORM object>'
p5188
sS'self.validate'
p5189
S'<bound method SQLFORM.validate of <gluon.sqlhtml.SQLFORM object>>'
p5190
sS'kwargs'
p5191
S"{'dbio': True}"
p5192
ssg5098
I2179
sg5099
(dp5193
I2176
S'        """'
p5194
sI2177
S"        kwargs['dbio'] = kwargs.get('dbio', True)"
p5195
sI2178
S'                                    # necessary for SQLHTML forms'
p5196
sI2179
S'        self.validate(**kwargs)'
p5197
sI2180
S'        return self'
p5198
sI2181
S''
sI2182
S'    REDIRECT_JS = "window.location=\'%s\';return false"'
p5199
sI2183
S''
sI2174
S'        def action():'
p5200
sI2175
S'            return dict(form=SQLFORM(db.table).process(onsuccess=my_callback)'
p5201
ssg5111
S"(self=<gluon.sqlhtml.SQLFORM object>, **kwargs={'dbio': True})"
p5202
sg5113
S'process'
p5203
sa(dp5204
g5090
S'/var/www/web2py_curso/gluon/html.py'
p5205
sg5092
(dp5206
S'self'
p5207
S'<gluon.sqlhtml.SQLFORM object>'
p5208
sS'self.accepts'
p5209
S'<bound method SQLFORM.accepts of <gluon.sqlhtml.SQLFORM object>>'
p5210
sS'kwargs'
p5211
S"{'dbio': True, 'request_vars': <Storage {'post_date': '2013-02-05 10:21:17', 'p...', 'is_draft': 'on', '_formname': 'post/create'}>, 'session': <Storage {'_formkey[login]': 'd8f54294-709d-4226...5}>, 'user_groups': {5: 'user_5', 7: 'admin'}}>}>}"
p5212
ssg5098
I2118
sg5099
(dp5213
I2113
S"        for key in ('message_onsuccess', 'message_onfailure', 'onsuccess',"
p5214
sI2114
S"                    'onfailure', 'next', 'message_onchange', 'onchange'):"
p5215
sI2115
S'            if key in kwargs:'
p5216
sI2116
S'                del kwargs[key]'
p5217
sI2117
S''
sI2118
S'        if self.accepts(**kwargs):'
p5218
sI2119
S"            if onsuccess == 'flash':"
p5219
sI2120
S'                if next:'
p5220
sI2121
S'                    current.session.flash = message_onsuccess'
p5221
sI2122
S'                else:'
p5222
ssg5111
S"(self=<gluon.sqlhtml.SQLFORM object>, **kwargs={'dbio': True, 'request_vars': <Storage {'post_date': '2013-02-05 10:21:17', 'p...', 'is_draft': 'on', '_formname': 'post/create'}>, 'session': <Storage {'_formkey[login]': 'd8f54294-709d-4226...5}>, 'user_groups': {5: 'user_5', 7: 'admin'}}>}>})"
p5223
sg5113
S'validate'
p5224
sa(dp5225
g5090
S'/var/www/web2py_curso/gluon/sqlhtml.py'
p5226
sg5092
(dp5227
S'kwargs'
p5228
g45
ssg5098
I1291
sg5099
(dp5229
I1286
S'            session,'
p5230
sI1287
S'            formname,'
p5231
sI1288
S'            keepvalues,'
p5232
sI1289
S'            onvalidation,'
p5233
sI1290
S'            hideerror=hideerror,'
p5234
sI1291
S'            **kwargs'
p5235
sI1292
S'        )'
p5236
sI1293
S''
sI1294
S'        self.deleted = \\'
p5237
sI1295
S'            request_vars.get(self.FIELDNAME_REQUEST_DELETE, False)'
p5238
ssg5111
S"(self=<gluon.sqlhtml.SQLFORM object>, request_vars=<Storage {'post_date': '2013-02-05 10:21:17', 'p...', 'is_draft': 'on', '_formname': 'post/create'}>, session=<Storage {'_formkey[login]': 'd8f54294-709d-4226...5}>, 'user_groups': {5: 'user_5', 7: 'admin'}}>}>, formname='post/create', keepvalues=False, onvalidation=None, dbio=True, hideerror=False, detect_record_change=False, **kwargs={})"
p5239
sg5113
S'accepts'
p5240
sa(dp5241
g5090
S'/var/www/web2py_curso/gluon/html.py'
p5242
sg5092
(dp5243
S'status'
p5244
g3243
sS'self'
p5245
S'<gluon.sqlhtml.SQLFORM object>'
p5246
sS'self._traverse'
p5247
S'<bound method SQLFORM._traverse of <gluon.sqlhtml.SQLFORM object>>'
p5248
sS'hideerror'
p5249
g100
ssg5098
I2001
sg5099
(dp5250
I1996
S'        if status and session:'
p5251
sI1997
S'            # check if editing a record that has been modified by the server'
p5252
sI1998
S"            if hasattr(self, 'record_hash') and self.record_hash != formkey:"
p5253
sI1999
S'                status = False'
p5254
sI2000
S'                self.record_changed = changed = True'
p5255
sI2001
S'        status = self._traverse(status, hideerror)'
p5256
sI2002
S'        status = self.assert_status(status, request_vars)'
p5257
sI2003
S'        if onvalidation:'
p5258
sI2004
S'            if isinstance(onvalidation, dict):'
p5259
sI2005
S"                onsuccess = onvalidation.get('onsuccess', None)"
p5260
ssg5111
S"(self=<gluon.sqlhtml.SQLFORM object>, request_vars=<Storage {'blog': '1', 'post_body': 'dfg', 'tags...', 'is_draft': 'on', '_formname': 'post/create'}>, session=<Storage {'_formkey[login]': 'd8f54294-709d-4226...5}>, 'user_groups': {5: 'user_5', 7: 'admin'}}>}>, formname='post/create', keepvalues=False, onvalidation=None, hideerror=False, **kwargs={})"
p5261
sg5113
g5240
sa(dp5262
g5090
S'/var/www/web2py_curso/gluon/html.py'
p5263
sg5092
(dp5264
S'status'
p5265
g3243
sS'newstatus'
p5266
g3243
sS'c'
S'<gluon.html.TABLE object>'
p5267
sS'hideerror'
p5268
g100
sS'c._traverse'
p5269
S'<bound method TABLE._traverse of <gluon.html.TABLE object>>'
p5270
ssg5098
I847
sg5099
(dp5271
I842
S'                c.session = self.session'
p5272
sI843
S'                c.formname = self.formname'
p5273
sI844
S'                if hideerror and not \\'
p5274
sI845
S"                        self.attributes.get('hideerror', False):"
p5275
sI846
S"                    c['hideerror'] = hideerror"
p5276
sI847
S'                newstatus = c._traverse(status, hideerror) and newstatus'
p5277
sI848
S''
sI849
S'        # for input, textarea, select, option'
p5278
sI850
S"        # deal with 'value' and 'validation'"
p5279
sI851
S''
ssg5111
S'(self=<gluon.sqlhtml.SQLFORM object>, status=True, hideerror=False)'
p5280
sg5113
S'_traverse'
p5281
sa(dp5282
g5090
S'/var/www/web2py_curso/gluon/html.py'
p5283
sg5092
(dp5284
S'status'
p5285
g3243
sS'newstatus'
p5286
g3243
sS'c'
S'<gluon.html.TR object>'
p5287
sS'hideerror'
p5288
g100
sS'c._traverse'
p5289
S'<bound method TR._traverse of <gluon.html.TR object>>'
p5290
ssg5098
I847
sg5099
(dp5291
I842
S'                c.session = self.session'
p5292
sI843
S'                c.formname = self.formname'
p5293
sI844
S'                if hideerror and not \\'
p5294
sI845
S"                        self.attributes.get('hideerror', False):"
p5295
sI846
S"                    c['hideerror'] = hideerror"
p5296
sI847
S'                newstatus = c._traverse(status, hideerror) and newstatus'
p5297
sI848
S''
sI849
S'        # for input, textarea, select, option'
p5298
sI850
S"        # deal with 'value' and 'validation'"
p5299
sI851
S''
ssg5111
S'(self=<gluon.html.TABLE object>, status=True, hideerror=False)'
p5300
sg5113
g5281
sa(dp5301
g5090
S'/var/www/web2py_curso/gluon/html.py'
p5302
sg5092
(dp5303
S'status'
p5304
g3243
sS'newstatus'
p5305
g3243
sS'c'
S'<gluon.html.TD object>'
p5306
sS'hideerror'
p5307
g100
sS'c._traverse'
p5308
S'<bound method TD._traverse of <gluon.html.TD object>>'
p5309
ssg5098
I847
sg5099
(dp5310
I842
S'                c.session = self.session'
p5311
sI843
S'                c.formname = self.formname'
p5312
sI844
S'                if hideerror and not \\'
p5313
sI845
S"                        self.attributes.get('hideerror', False):"
p5314
sI846
S"                    c['hideerror'] = hideerror"
p5315
sI847
S'                newstatus = c._traverse(status, hideerror) and newstatus'
p5316
sI848
S''
sI849
S'        # for input, textarea, select, option'
p5317
sI850
S"        # deal with 'value' and 'validation'"
p5318
sI851
S''
ssg5111
S'(self=<gluon.html.TR object>, status=True, hideerror=False)'
p5319
sg5113
g5281
sa(dp5320
g5090
S'/var/www/web2py_curso/gluon/html.py'
p5321
sg5092
(dp5322
S'status'
p5323
g3243
sS'newstatus'
p5324
g3243
sS'c'
S'<gluon.html.INPUT object>'
p5325
sS'hideerror'
p5326
g100
sS'c._traverse'
p5327
S'<bound method INPUT._traverse of <gluon.html.INPUT object>>'
p5328
ssg5098
I847
sg5099
(dp5329
I842
S'                c.session = self.session'
p5330
sI843
S'                c.formname = self.formname'
p5331
sI844
S'                if hideerror and not \\'
p5332
sI845
S"                        self.attributes.get('hideerror', False):"
p5333
sI846
S"                    c['hideerror'] = hideerror"
p5334
sI847
S'                newstatus = c._traverse(status, hideerror) and newstatus'
p5335
sI848
S''
sI849
S'        # for input, textarea, select, option'
p5336
sI850
S"        # deal with 'value' and 'validation'"
p5337
sI851
S''
ssg5111
S'(self=<gluon.html.TD object>, status=True, hideerror=False)'
p5338
sg5113
g5281
sa(dp5339
g5090
S'/var/www/web2py_curso/gluon/html.py'
p5340
sg5092
(dp5341
S'newstatus'
p5342
g3243
sS'self'
p5343
S'<gluon.html.INPUT object>'
p5344
sS'self._validate'
p5345
S'<bound method INPUT._validate of <gluon.html.INPUT object>>'
p5346
ssg5098
I854
sg5099
(dp5347
I849
S'        # for input, textarea, select, option'
p5348
sI850
S"        # deal with 'value' and 'validation'"
p5349
sI851
S''
sI852
S"        name = self['_name']"
p5350
sI853
S'        if newstatus:'
p5351
sI854
S'            newstatus = self._validate()'
p5352
sI855
S'            self._postprocessing()'
p5353
sI856
S"        elif 'old_value' in self.attributes:"
p5354
sI857
S"            self['value'] = self['old_value']"
p5355
sI858
S'            self._postprocessing()'
p5356
ssg5111
S'(self=<gluon.html.INPUT object>, status=True, hideerror=False)'
p5357
sg5113
g5281
sa(dp5358
g5090
S'/var/www/web2py_curso/gluon/html.py'
p5359
sg5092
(dp5360
S'errors'
p5361
g5132
sS'value'
p5362
S"''"
p5363
sS'validator'
p5364
S'<DAL uri="sqlite://projeto.sqlite">'
p5365
ssg5098
I1750
sg5099
(dp5366
I1745
S"        requires = self['requires']"
p5367
sI1746
S'        if requires:'
p5368
sI1747
S'            if not isinstance(requires, (list, tuple)):'
p5369
sI1748
S'                requires = [requires]'
p5370
sI1749
S'            for validator in requires:'
p5371
sI1750
S'                (value, errors) = validator(value)'
p5372
sI1751
S'                if not errors is None:'
p5373
sI1752
S'                    self.vars[name] = value'
p5374
sI1753
S'                    self.errors[name] = errors'
p5375
sI1754
S'                    break'
p5376
ssg5111
S'(self=<gluon.html.INPUT object>)'
p5377
sg5113
S'_validate'
p5378
sasS'pyver'
p5379
S'Python 2.7.3: /usr/bin/python'
p5380
sS'session'
p5381
g57
(g58
g59
NtRp5382
(dp5383
g62
(dp5384
sg64
(lp5385
g57
(g66
g59
NtRp5386
(dp5387
g62
(dp5388
g70
I5
ssg71
Nsg64
(lp5389
g57
(g73
g59
NtRp5390
(dp5391
g62
(dp5392
sg71
g5386
sg64
(lp5393
g57
(g78
g59
NtRp5394
(dp5395
g62
(dp5396
g82
g83
ssg71
g5390
sg64
(lp5397
S'auth'
p5398
asbag57
(g78
g59
NtRp5399
(dp5400
g62
(dp5401
g89
g90
ssg71
g5390
sg64
(lp5402
S':'
asbag57
(g78
g59
NtRp5403
(dp5404
g62
(dp5405
sg71
g5390
sg64
(lp5406
g57
(g58
g59
NtRp5407
(dp5408
g62
(dp5409
g70
I5
ssg71
g5403
sg64
(lp5410
g57
(g66
g59
NtRp5411
(dp5412
g62
(dp5413
g70
I4
ssg71
Nsg64
(lp5414
g57
(g73
g59
NtRp5415
(dp5416
g62
(dp5417
sg71
g5411
sg64
(lp5418
g57
(g78
g59
NtRp5419
(dp5420
g62
(dp5421
g82
g83
ssg71
g5415
sg64
(lp5422
S'expiration'
p5423
asbag57
(g78
g59
NtRp5424
(dp5425
g62
(dp5426
g89
g90
ssg71
g5415
sg64
(lp5427
S':'
asbag57
(g78
g59
NtRp5428
(dp5429
g62
(dp5430
sg71
g5415
sg64
(lp5431
g57
(g58
g59
NtRp5432
(dp5433
g62
(dp5434
g70
I4
ssg71
g5428
sg64
(lp5435
S'3600'
p5436
asbasbasbag57
(g73
g59
NtRp5437
(dp5438
g62
(dp5439
sg71
g5411
sg64
(lp5440
g57
(g78
g59
NtRp5441
(dp5442
g62
(dp5443
g82
g83
ssg71
g5437
sg64
(lp5444
S'hmac_key'
p5445
asbag57
(g78
g59
NtRp5446
(dp5447
g62
(dp5448
g89
g90
ssg71
g5437
sg64
(lp5449
S':'
asbag57
(g78
g59
NtRp5450
(dp5451
g62
(dp5452
sg71
g5437
sg64
(lp5453
g57
(g58
g59
NtRp5454
(dp5455
g62
(dp5456
g70
I4
ssg71
g5450
sg64
(lp5457
S'b200a33d-ea05-4660-8824-95cd7308c931'
p5458
asbasbasbag57
(g73
g59
NtRp5459
(dp5460
g62
(dp5461
sg71
g5411
sg64
(lp5462
g57
(g78
g59
NtRp5463
(dp5464
g62
(dp5465
g82
g83
ssg71
g5459
sg64
(lp5466
S'last_visit'
p5467
asbag57
(g78
g59
NtRp5468
(dp5469
g62
(dp5470
g89
g90
ssg71
g5459
sg64
(lp5471
S':'
asbag57
(g78
g59
NtRp5472
(dp5473
g62
(dp5474
sg71
g5459
sg64
(lp5475
g57
(g58
g59
NtRp5476
(dp5477
g62
(dp5478
g70
I4
ssg71
g5472
sg64
(lp5479
S'datetime.datetime(2013, 2, 5, 10, 16, 36, 394116)'
p5480
asbasbasbag57
(g73
g59
NtRp5481
(dp5482
g62
(dp5483
sg71
g5411
sg64
(lp5484
g57
(g78
g59
NtRp5485
(dp5486
g62
(dp5487
g82
g83
ssg71
g5481
sg64
(lp5488
S'remember'
p5489
asbag57
(g78
g59
NtRp5490
(dp5491
g62
(dp5492
g89
g90
ssg71
g5481
sg64
(lp5493
S':'
asbag57
(g78
g59
NtRp5494
(dp5495
g62
(dp5496
sg71
g5481
sg64
(lp5497
g57
(g58
g59
NtRp5498
(dp5499
g62
(dp5500
g70
I4
ssg71
g5494
sg64
(lp5501
g100
asbasbasbag57
(g73
g59
NtRp5502
(dp5503
g62
(dp5504
sg71
g5411
sg64
(lp5505
g57
(g78
g59
NtRp5506
(dp5507
g62
(dp5508
g82
g83
ssg71
g5502
sg64
(lp5509
S'user'
p5510
asbag57
(g78
g59
NtRp5511
(dp5512
g62
(dp5513
g89
g90
ssg71
g5502
sg64
(lp5514
S':'
asbag57
(g78
g59
NtRp5515
(dp5516
g62
(dp5517
sg71
g5502
sg64
(lp5518
g57
(g58
g59
NtRp5519
(dp5520
g62
(dp5521
g70
I4
ssg71
g5515
sg64
(lp5522
g57
(g66
g59
NtRp5523
(dp5524
g62
(dp5525
g70
I3
ssg71
Nsg64
(lp5526
g57
(g73
g59
NtRp5527
(dp5528
g62
(dp5529
sg71
g5523
sg64
(lp5530
g57
(g78
g59
NtRp5531
(dp5532
g62
(dp5533
g82
g83
ssg71
g5527
sg64
(lp5534
S'bio'
p5535
asbag57
(g78
g59
NtRp5536
(dp5537
g62
(dp5538
g89
g90
ssg71
g5527
sg64
(lp5539
S':'
asbag57
(g78
g59
NtRp5540
(dp5541
g62
(dp5542
sg71
g5527
sg64
(lp5543
g57
(g58
g59
NtRp5544
(dp5545
g62
(dp5546
g70
I3
ssg71
g5540
sg64
(lp5547
S'None'
p5548
asbasbasbag57
(g73
g59
NtRp5549
(dp5550
g62
(dp5551
sg71
g5523
sg64
(lp5552
g57
(g78
g59
NtRp5553
(dp5554
g62
(dp5555
g82
g83
ssg71
g5549
sg64
(lp5556
S'email'
p5557
asbag57
(g78
g59
NtRp5558
(dp5559
g62
(dp5560
g89
g90
ssg71
g5549
sg64
(lp5561
S':'
asbag57
(g78
g59
NtRp5562
(dp5563
g62
(dp5564
sg71
g5549
sg64
(lp5565
g57
(g58
g59
NtRp5566
(dp5567
g62
(dp5568
g70
I3
ssg71
g5562
sg64
(lp5569
S'fernando@ad2.com.br'
p5570
asbasbasbag57
(g73
g59
NtRp5571
(dp5572
g62
(dp5573
sg71
g5523
sg64
(lp5574
g57
(g78
g59
NtRp5575
(dp5576
g62
(dp5577
g82
g83
ssg71
g5571
sg64
(lp5578
S'first_name'
p5579
asbag57
(g78
g59
NtRp5580
(dp5581
g62
(dp5582
g89
g90
ssg71
g5571
sg64
(lp5583
S':'
asbag57
(g78
g59
NtRp5584
(dp5585
g62
(dp5586
sg71
g5571
sg64
(lp5587
g57
(g58
g59
NtRp5588
(dp5589
g62
(dp5590
g70
I3
ssg71
g5584
sg64
(lp5591
S'Dend'
p5592
asbasbasbag57
(g73
g59
NtRp5593
(dp5594
g62
(dp5595
sg71
g5523
sg64
(lp5596
g57
(g78
g59
NtRp5597
(dp5598
g62
(dp5599
g82
g83
ssg71
g5593
sg64
(lp5600
S'gender'
p5601
asbag57
(g78
g59
NtRp5602
(dp5603
g62
(dp5604
g89
g90
ssg71
g5593
sg64
(lp5605
S':'
asbag57
(g78
g59
NtRp5606
(dp5607
g62
(dp5608
sg71
g5593
sg64
(lp5609
g57
(g58
g59
NtRp5610
(dp5611
g62
(dp5612
g70
I3
ssg71
g5606
sg64
(lp5613
S'masculino'
p5614
asbasbasbag57
(g73
g59
NtRp5615
(dp5616
g62
(dp5617
sg71
g5523
sg64
(lp5618
g57
(g78
g59
NtRp5619
(dp5620
g62
(dp5621
g82
g83
ssg71
g5615
sg64
(lp5622
S'id'
p5623
asbag57
(g78
g59
NtRp5624
(dp5625
g62
(dp5626
g89
g90
ssg71
g5615
sg64
(lp5627
S':'
asbag57
(g78
g59
NtRp5628
(dp5629
g62
(dp5630
sg71
g5615
sg64
(lp5631
g57
(g58
g59
NtRp5632
(dp5633
g62
(dp5634
g70
I3
ssg71
g5628
sg64
(lp5635
S'5'
asbasbasbag57
(g73
g59
NtRp5636
(dp5637
g62
(dp5638
sg71
g5523
sg64
(lp5639
g57
(g78
g59
NtRp5640
(dp5641
g62
(dp5642
g82
g83
ssg71
g5636
sg64
(lp5643
S'last_name'
p5644
asbag57
(g78
g59
NtRp5645
(dp5646
g62
(dp5647
g89
g90
ssg71
g5636
sg64
(lp5648
S':'
asbag57
(g78
g59
NtRp5649
(dp5650
g62
(dp5651
sg71
g5636
sg64
(lp5652
g57
(g58
g59
NtRp5653
(dp5654
g62
(dp5655
g70
I3
ssg71
g5649
sg64
(lp5656
S'delkson'
p5657
asbasbasbag57
(g73
g59
NtRp5658
(dp5659
g62
(dp5660
sg71
g5523
sg64
(lp5661
g57
(g78
g59
NtRp5662
(dp5663
g62
(dp5664
g82
g83
ssg71
g5658
sg64
(lp5665
S'photo'
p5666
asbag57
(g78
g59
NtRp5667
(dp5668
g62
(dp5669
g89
g90
ssg71
g5658
sg64
(lp5670
S':'
asbag57
(g78
g59
NtRp5671
(dp5672
g62
(dp5673
sg71
g5658
sg64
(lp5674
g57
(g58
g59
NtRp5675
(dp5676
g62
(dp5677
g70
I3
ssg71
g5671
sg64
(lp5678
S'auth_user.photo.852c1e9d624a7670.746563686e6f6c6f676965735f7068702e706e67.png'
p5679
asbasbasbag57
(g73
g59
NtRp5680
(dp5681
g62
(dp5682
sg71
g5523
sg64
(lp5683
g57
(g78
g59
NtRp5684
(dp5685
g62
(dp5686
g82
g83
ssg71
g5680
sg64
(lp5687
S'registration_id'
p5688
asbag57
(g78
g59
NtRp5689
(dp5690
g62
(dp5691
g89
g90
ssg71
g5680
sg64
(lp5692
S':'
asbag57
(g78
g59
NtRp5693
(dp5694
g62
(dp5695
sg71
g5680
sg64
(lp5696
g57
(g58
g59
NtRp5697
(dp5698
g62
(dp5699
g70
I3
ssg71
g5693
sg64
(lp5700
S''
asbasbasbag57
(g73
g59
NtRp5701
(dp5702
g62
(dp5703
sg71
g5523
sg64
(lp5704
g57
(g78
g59
NtRp5705
(dp5706
g62
(dp5707
g82
g83
ssg71
g5701
sg64
(lp5708
S'registration_key'
p5709
asbag57
(g78
g59
NtRp5710
(dp5711
g62
(dp5712
g89
g90
ssg71
g5701
sg64
(lp5713
S':'
asbag57
(g78
g59
NtRp5714
(dp5715
g62
(dp5716
sg71
g5701
sg64
(lp5717
g57
(g58
g59
NtRp5718
(dp5719
g62
(dp5720
g70
I3
ssg71
g5714
sg64
(lp5721
S''
asbasbasbag57
(g73
g59
NtRp5722
(dp5723
g62
(dp5724
sg71
g5523
sg64
(lp5725
g57
(g78
g59
NtRp5726
(dp5727
g62
(dp5728
g82
g83
ssg71
g5722
sg64
(lp5729
S'reset_password_key'
p5730
asbag57
(g78
g59
NtRp5731
(dp5732
g62
(dp5733
g89
g90
ssg71
g5722
sg64
(lp5734
S':'
asbag57
(g78
g59
NtRp5735
(dp5736
g62
(dp5737
sg71
g5722
sg64
(lp5738
g57
(g58
g59
NtRp5739
(dp5740
g62
(dp5741
g70
I3
ssg71
g5735
sg64
(lp5742
S''
asbasbasbasbasbasbasbag57
(g73
g59
NtRp5743
(dp5744
g62
(dp5745
sg71
g5411
sg64
(lp5746
g57
(g78
g59
NtRp5747
(dp5748
g62
(dp5749
g82
g83
ssg71
g5743
sg64
(lp5750
S'user_groups'
p5751
asbag57
(g78
g59
NtRp5752
(dp5753
g62
(dp5754
g89
g90
ssg71
g5743
sg64
(lp5755
S':'
asbag57
(g78
g59
NtRp5756
(dp5757
g62
(dp5758
sg71
g5743
sg64
(lp5759
g57
(g58
g59
NtRp5760
(dp5761
g62
(dp5762
g70
I4
ssg71
g5756
sg64
(lp5763
g57
(g66
g59
NtRp5764
(dp5765
g62
(dp5766
g70
I3
ssg71
Nsg64
(lp5767
g57
(g73
g59
NtRp5768
(dp5769
g62
(dp5770
sg71
g5764
sg64
(lp5771
g57
(g78
g59
NtRp5772
(dp5773
g62
(dp5774
g82
g83
ssg71
g5768
sg64
(lp5775
S'5'
asbag57
(g78
g59
NtRp5776
(dp5777
g62
(dp5778
g89
g90
ssg71
g5768
sg64
(lp5779
S':'
asbag57
(g78
g59
NtRp5780
(dp5781
g62
(dp5782
sg71
g5768
sg64
(lp5783
g57
(g58
g59
NtRp5784
(dp5785
g62
(dp5786
g70
I3
ssg71
g5780
sg64
(lp5787
S'user_5'
p5788
asbasbasbag57
(g73
g59
NtRp5789
(dp5790
g62
(dp5791
sg71
g5764
sg64
(lp5792
g57
(g78
g59
NtRp5793
(dp5794
g62
(dp5795
g82
g83
ssg71
g5789
sg64
(lp5796
S'7'
asbag57
(g78
g59
NtRp5797
(dp5798
g62
(dp5799
g89
g90
ssg71
g5789
sg64
(lp5800
S':'
asbag57
(g78
g59
NtRp5801
(dp5802
g62
(dp5803
sg71
g5789
sg64
(lp5804
g57
(g58
g59
NtRp5805
(dp5806
g62
(dp5807
g70
I3
ssg71
g5801
sg64
(lp5808
S'admin'
p5809
asbasbasbasbasbasbasbasbasbasbasbag57
(g73
g59
NtRp5810
(dp5811
g62
(dp5812
sg71
g5386
sg64
(lp5813
g57
(g78
g59
NtRp5814
(dp5815
g62
(dp5816
g82
g83
ssg71
g5810
sg64
(lp5817
S'flash'
p5818
asbag57
(g78
g59
NtRp5819
(dp5820
g62
(dp5821
g89
g90
ssg71
g5810
sg64
(lp5822
S':'
asbag57
(g78
g59
NtRp5823
(dp5824
g62
(dp5825
sg71
g5810
sg64
(lp5826
g57
(g58
g59
NtRp5827
(dp5828
g62
(dp5829
g70
I5
ssg71
g5823
sg64
(lp5830
S'None'
p5831
asbasbasbasbasbsS'etype'
p5832
S"<type 'exceptions.TypeError'>"
p5833
sS'date'
p5834
S'Tue Feb  5 10:21:22 2013'
p5835
sS'response'
p5836
g57
(g58
g59
NtRp5837
(dp5838
g62
(dp5839
sg64
(lp5840
g57
(g66
g59
NtRp5841
(dp5842
g62
(dp5843
g70
I5
ssg71
Nsg64
(lp5844
g57
(g73
g59
NtRp5845
(dp5846
g62
(dp5847
sg71
g5841
sg64
(lp5848
g57
(g78
g59
NtRp5849
(dp5850
g62
(dp5851
g82
g83
ssg71
g5845
sg64
(lp5852
g155
asbag57
(g78
g59
NtRp5853
(dp5854
g62
(dp5855
g89
g90
ssg71
g5845
sg64
(lp5856
S':'
asbag57
(g78
g59
NtRp5857
(dp5858
g62
(dp5859
sg71
g5845
sg64
(lp5860
g57
(g58
g59
NtRp5861
(dp5862
g62
(dp5863
g70
I5
ssg71
g5857
sg64
(lp5864
S'<cStringIO.StringO object at 0x7ff36c7c8650>'
p5865
asbasbasbag57
(g73
g59
NtRp5866
(dp5867
g62
(dp5868
sg71
g5841
sg64
(lp5869
g57
(g78
g59
NtRp5870
(dp5871
g62
(dp5872
g82
g83
ssg71
g5866
sg64
(lp5873
g243
asbag57
(g78
g59
NtRp5874
(dp5875
g62
(dp5876
g89
g90
ssg71
g5866
sg64
(lp5877
S':'
asbag57
(g78
g59
NtRp5878
(dp5879
g62
(dp5880
sg71
g5866
sg64
(lp5881
g57
(g58
g59
NtRp5882
(dp5883
g62
(dp5884
g70
I5
ssg71
g5878
sg64
(lp5885
g57
(g66
g59
NtRp5886
(dp5887
g62
(dp5888
g70
I4
ssg71
Nsg64
(lp5889
g57
(g73
g59
NtRp5890
(dp5891
g62
(dp5892
sg71
g5886
sg64
(lp5893
g57
(g78
g59
NtRp5894
(dp5895
g62
(dp5896
g82
g83
ssg71
g5890
sg64
(lp5897
S'session_id_projeto'
p5898
asbag57
(g78
g59
NtRp5899
(dp5900
g62
(dp5901
g89
g90
ssg71
g5890
sg64
(lp5902
S':'
asbag57
(g78
g59
NtRp5903
(dp5904
g62
(dp5905
sg71
g5890
sg64
(lp5906
g57
(g58
g59
NtRp5907
(dp5908
g62
(dp5909
g70
I4
ssg71
g5903
sg64
(lp5910
g1775
ag57
(g66
g59
NtRp5911
(dp5912
g62
(dp5913
g70
I3
ssg71
Nsg64
(lp5914
g57
(g73
g59
NtRp5915
(dp5916
g62
(dp5917
sg71
g5911
sg64
(lp5918
g57
(g78
g59
NtRp5919
(dp5920
g62
(dp5921
g82
g83
ssg71
g5915
sg64
(lp5922
g294
asbag57
(g78
g59
NtRp5923
(dp5924
g62
(dp5925
g89
g90
ssg71
g5915
sg64
(lp5926
S':'
asbag57
(g78
g59
NtRp5927
(dp5928
g62
(dp5929
sg71
g5915
sg64
(lp5930
g57
(g58
g59
NtRp5931
(dp5932
g62
(dp5933
g70
I3
ssg71
g5927
sg64
(lp5934
S''
asbasbasbag57
(g73
g59
NtRp5935
(dp5936
g62
(dp5937
sg71
g5911
sg64
(lp5938
g57
(g78
g59
NtRp5939
(dp5940
g62
(dp5941
g82
g83
ssg71
g5935
sg64
(lp5942
g315
asbag57
(g78
g59
NtRp5943
(dp5944
g62
(dp5945
g89
g90
ssg71
g5935
sg64
(lp5946
S':'
asbag57
(g78
g59
NtRp5947
(dp5948
g62
(dp5949
sg71
g5935
sg64
(lp5950
g57
(g58
g59
NtRp5951
(dp5952
g62
(dp5953
g70
I3
ssg71
g5947
sg64
(lp5954
S''
asbasbasbag57
(g73
g59
NtRp5955
(dp5956
g62
(dp5957
sg71
g5911
sg64
(lp5958
g57
(g78
g59
NtRp5959
(dp5960
g62
(dp5961
g82
g83
ssg71
g5955
sg64
(lp5962
g336
asbag57
(g78
g59
NtRp5963
(dp5964
g62
(dp5965
g89
g90
ssg71
g5955
sg64
(lp5966
S':'
asbag57
(g78
g59
NtRp5967
(dp5968
g62
(dp5969
sg71
g5955
sg64
(lp5970
g57
(g58
g59
NtRp5971
(dp5972
g62
(dp5973
g70
I3
ssg71
g5967
sg64
(lp5974
S''
asbasbasbag57
(g73
g59
NtRp5975
(dp5976
g62
(dp5977
sg71
g5911
sg64
(lp5978
g57
(g78
g59
NtRp5979
(dp5980
g62
(dp5981
g82
g83
ssg71
g5975
sg64
(lp5982
g357
asbag57
(g78
g59
NtRp5983
(dp5984
g62
(dp5985
g89
g90
ssg71
g5975
sg64
(lp5986
S':'
asbag57
(g78
g59
NtRp5987
(dp5988
g62
(dp5989
sg71
g5975
sg64
(lp5990
g57
(g58
g59
NtRp5991
(dp5992
g62
(dp5993
g70
I3
ssg71
g5987
sg64
(lp5994
S''
asbasbasbag57
(g73
g59
NtRp5995
(dp5996
g62
(dp5997
sg71
g5911
sg64
(lp5998
g57
(g78
g59
NtRp5999
(dp6000
g62
(dp6001
g82
g83
ssg71
g5995
sg64
(lp6002
g378
asbag57
(g78
g59
NtRp6003
(dp6004
g62
(dp6005
g89
g90
ssg71
g5995
sg64
(lp6006
S':'
asbag57
(g78
g59
NtRp6007
(dp6008
g62
(dp6009
sg71
g5995
sg64
(lp6010
g57
(g58
g59
NtRp6011
(dp6012
g62
(dp6013
g70
I3
ssg71
g6007
sg64
(lp6014
S''
asbasbasbag57
(g73
g59
NtRp6015
(dp6016
g62
(dp6017
sg71
g5911
sg64
(lp6018
g57
(g78
g59
NtRp6019
(dp6020
g62
(dp6021
g82
g83
ssg71
g6015
sg64
(lp6022
g399
asbag57
(g78
g59
NtRp6023
(dp6024
g62
(dp6025
g89
g90
ssg71
g6015
sg64
(lp6026
S':'
asbag57
(g78
g59
NtRp6027
(dp6028
g62
(dp6029
sg71
g6015
sg64
(lp6030
g57
(g58
g59
NtRp6031
(dp6032
g62
(dp6033
g70
I3
ssg71
g6027
sg64
(lp6034
S'/'
asbasbasbag57
(g73
g59
NtRp6035
(dp6036
g62
(dp6037
sg71
g5911
sg64
(lp6038
g57
(g78
g59
NtRp6039
(dp6040
g62
(dp6041
g82
g83
ssg71
g6035
sg64
(lp6042
g420
asbag57
(g78
g59
NtRp6043
(dp6044
g62
(dp6045
g89
g90
ssg71
g6035
sg64
(lp6046
S':'
asbag57
(g78
g59
NtRp6047
(dp6048
g62
(dp6049
sg71
g6035
sg64
(lp6050
g57
(g58
g59
NtRp6051
(dp6052
g62
(dp6053
g70
I3
ssg71
g6047
sg64
(lp6054
S''
asbasbasbag57
(g73
g59
NtRp6055
(dp6056
g62
(dp6057
sg71
g5911
sg64
(lp6058
g57
(g78
g59
NtRp6059
(dp6060
g62
(dp6061
g82
g83
ssg71
g6055
sg64
(lp6062
g441
asbag57
(g78
g59
NtRp6063
(dp6064
g62
(dp6065
g89
g90
ssg71
g6055
sg64
(lp6066
S':'
asbag57
(g78
g59
NtRp6067
(dp6068
g62
(dp6069
sg71
g6055
sg64
(lp6070
g57
(g58
g59
NtRp6071
(dp6072
g62
(dp6073
g70
I3
ssg71
g6067
sg64
(lp6074
S''
asbasbasbasbasbasbasbasbasbasbasbag57
(g73
g59
NtRp6075
(dp6076
g62
(dp6077
sg71
g5841
sg64
(lp6078
g57
(g78
g59
NtRp6079
(dp6080
g62
(dp6081
g82
g83
ssg71
g6075
sg64
(lp6082
S'delimiters'
p6083
asbag57
(g78
g59
NtRp6084
(dp6085
g62
(dp6086
g89
g90
ssg71
g6075
sg64
(lp6087
S':'
asbag57
(g78
g59
NtRp6088
(dp6089
g62
(dp6090
sg71
g6075
sg64
(lp6091
g57
(g58
g59
NtRp6092
(dp6093
g62
(dp6094
g70
I5
ssg71
g6088
sg64
(lp6095
g57
(g66
g59
NtRp6096
(dp6097
g62
(dp6098
g70
I4
ssg71
Nsg64
(lp6099
g57
(g73
g59
NtRp6100
(dp6101
g62
(dp6102
sg71
g6096
sg64
(lp6103
g57
(g78
g59
NtRp6104
(dp6105
g62
(dp6106
sg71
g6100
sg64
(lp6107
g57
(g58
g59
NtRp6108
(dp6109
g62
(dp6110
g70
I4
ssg71
g6104
sg64
(lp6111
S'{{'
p6112
asbasbasbag57
(g73
g59
NtRp6113
(dp6114
g62
(dp6115
sg71
g6096
sg64
(lp6116
g57
(g78
g59
NtRp6117
(dp6118
g62
(dp6119
sg71
g6113
sg64
(lp6120
g57
(g58
g59
NtRp6121
(dp6122
g62
(dp6123
g70
I4
ssg71
g6117
sg64
(lp6124
S'}}'
p6125
asbasbasbasbasbasbasbag57
(g73
g59
NtRp6126
(dp6127
g62
(dp6128
sg71
g5841
sg64
(lp6129
g57
(g78
g59
NtRp6130
(dp6131
g62
(dp6132
g82
g83
ssg71
g6126
sg64
(lp6133
S'files'
p6134
asbag57
(g78
g59
NtRp6135
(dp6136
g62
(dp6137
g89
g90
ssg71
g6126
sg64
(lp6138
S':'
asbag57
(g78
g59
NtRp6139
(dp6140
g62
(dp6141
sg71
g6126
sg64
(lp6142
g57
(g58
g59
NtRp6143
(dp6144
g62
(dp6145
g70
I5
ssg71
g6139
sg64
(lp6146
g57
(g66
g59
NtRp6147
(dp6148
g62
(dp6149
g70
I4
ssg71
Nsg64
(lp6150
sbasbasbasbag57
(g73
g59
NtRp6151
(dp6152
g62
(dp6153
sg71
g5841
sg64
(lp6154
g57
(g78
g59
NtRp6155
(dp6156
g62
(dp6157
g82
g83
ssg71
g6151
sg64
(lp6158
S'flash'
p6159
asbag57
(g78
g59
NtRp6160
(dp6161
g62
(dp6162
g89
g90
ssg71
g6151
sg64
(lp6163
S':'
asbag57
(g78
g59
NtRp6164
(dp6165
g62
(dp6166
sg71
g6151
sg64
(lp6167
g57
(g58
g59
NtRp6168
(dp6169
g62
(dp6170
g70
I5
ssg71
g6164
sg64
(lp6171
S''
asbasbasbag57
(g73
g59
NtRp6172
(dp6173
g62
(dp6174
sg71
g5841
sg64
(lp6175
g57
(g78
g59
NtRp6176
(dp6177
g62
(dp6178
g82
g83
ssg71
g6172
sg64
(lp6179
S'generic_patterns'
p6180
asbag57
(g78
g59
NtRp6181
(dp6182
g62
(dp6183
g89
g90
ssg71
g6172
sg64
(lp6184
S':'
asbag57
(g78
g59
NtRp6185
(dp6186
g62
(dp6187
sg71
g6172
sg64
(lp6188
g57
(g58
g59
NtRp6189
(dp6190
g62
(dp6191
g70
I5
ssg71
g6185
sg64
(lp6192
g57
(g66
g59
NtRp6193
(dp6194
g62
(dp6195
g70
I4
ssg71
Nsg64
(lp6196
g57
(g73
g59
NtRp6197
(dp6198
g62
(dp6199
sg71
g6193
sg64
(lp6200
g57
(g78
g59
NtRp6201
(dp6202
g62
(dp6203
sg71
g6197
sg64
(lp6204
g57
(g58
g59
NtRp6205
(dp6206
g62
(dp6207
g70
I4
ssg71
g6201
sg64
(lp6208
S'*'
asbasbasbasbasbasbasbag57
(g73
g59
NtRp6209
(dp6210
g62
(dp6211
sg71
g5841
sg64
(lp6212
g57
(g78
g59
NtRp6213
(dp6214
g62
(dp6215
g82
g83
ssg71
g6209
sg64
(lp6216
S'headers'
p6217
asbag57
(g78
g59
NtRp6218
(dp6219
g62
(dp6220
g89
g90
ssg71
g6209
sg64
(lp6221
S':'
asbag57
(g78
g59
NtRp6222
(dp6223
g62
(dp6224
sg71
g6209
sg64
(lp6225
g57
(g58
g59
NtRp6226
(dp6227
g62
(dp6228
g70
I5
ssg71
g6222
sg64
(lp6229
g57
(g66
g59
NtRp6230
(dp6231
g62
(dp6232
g70
I4
ssg71
Nsg64
(lp6233
g57
(g73
g59
NtRp6234
(dp6235
g62
(dp6236
sg71
g6230
sg64
(lp6237
g57
(g78
g59
NtRp6238
(dp6239
g62
(dp6240
g82
g83
ssg71
g6234
sg64
(lp6241
S'X-Powered-By'
p6242
asbag57
(g78
g59
NtRp6243
(dp6244
g62
(dp6245
g89
g90
ssg71
g6234
sg64
(lp6246
S':'
asbag57
(g78
g59
NtRp6247
(dp6248
g62
(dp6249
sg71
g6234
sg64
(lp6250
g57
(g58
g59
NtRp6251
(dp6252
g62
(dp6253
g70
I4
ssg71
g6247
sg64
(lp6254
S'web2py'
p6255
asbasbasbasbasbasbasbag57
(g73
g59
NtRp6256
(dp6257
g62
(dp6258
sg71
g5841
sg64
(lp6259
g57
(g78
g59
NtRp6260
(dp6261
g62
(dp6262
g82
g83
ssg71
g6256
sg64
(lp6263
S'menu'
p6264
asbag57
(g78
g59
NtRp6265
(dp6266
g62
(dp6267
g89
g90
ssg71
g6256
sg64
(lp6268
S':'
asbag57
(g78
g59
NtRp6269
(dp6270
g62
(dp6271
sg71
g6256
sg64
(lp6272
g57
(g58
g59
NtRp6273
(dp6274
g62
(dp6275
g70
I5
ssg71
g6269
sg64
(lp6276
g57
(g66
g59
NtRp6277
(dp6278
g62
(dp6279
g70
I4
ssg71
Nsg64
(lp6280
sbasbasbasbag57
(g73
g59
NtRp6281
(dp6282
g62
(dp6283
sg71
g5841
sg64
(lp6284
g57
(g78
g59
NtRp6285
(dp6286
g62
(dp6287
g82
g83
ssg71
g6281
sg64
(lp6288
S'meta'
p6289
asbag57
(g78
g59
NtRp6290
(dp6291
g62
(dp6292
g89
g90
ssg71
g6281
sg64
(lp6293
S':'
asbag57
(g78
g59
NtRp6294
(dp6295
g62
(dp6296
sg71
g6281
sg64
(lp6297
g57
(g58
g59
NtRp6298
(dp6299
g62
(dp6300
g70
I5
ssg71
g6294
sg64
(lp6301
g57
(g66
g59
NtRp6302
(dp6303
g62
(dp6304
g70
I4
ssg71
Nsg64
(lp6305
g57
(g73
g59
NtRp6306
(dp6307
g62
(dp6308
sg71
g6302
sg64
(lp6309
g57
(g78
g59
NtRp6310
(dp6311
g62
(dp6312
g82
g83
ssg71
g6306
sg64
(lp6313
S'description'
p6314
asbag57
(g78
g59
NtRp6315
(dp6316
g62
(dp6317
g89
g90
ssg71
g6306
sg64
(lp6318
S':'
asbag57
(g78
g59
NtRp6319
(dp6320
g62
(dp6321
sg71
g6306
sg64
(lp6322
g57
(g58
g59
NtRp6323
(dp6324
g62
(dp6325
g70
I4
ssg71
g6319
sg64
(lp6326
S'blog do shedon'
p6327
asbasbasbag57
(g73
g59
NtRp6328
(dp6329
g62
(dp6330
sg71
g6302
sg64
(lp6331
g57
(g78
g59
NtRp6332
(dp6333
g62
(dp6334
g82
g83
ssg71
g6328
sg64
(lp6335
S'keywords'
p6336
asbag57
(g78
g59
NtRp6337
(dp6338
g62
(dp6339
g89
g90
ssg71
g6328
sg64
(lp6340
S':'
asbag57
(g78
g59
NtRp6341
(dp6342
g62
(dp6343
sg71
g6328
sg64
(lp6344
g57
(g58
g59
NtRp6345
(dp6346
g62
(dp6347
g70
I4
ssg71
g6341
sg64
(lp6348
S'chave, outra, e utra'
p6349
asbasbasbasbasbasbasbag57
(g73
g59
NtRp6350
(dp6351
g62
(dp6352
sg71
g5841
sg64
(lp6353
g57
(g78
g59
NtRp6354
(dp6355
g62
(dp6356
g82
g83
ssg71
g6350
sg64
(lp6357
S'models_to_run'
p6358
asbag57
(g78
g59
NtRp6359
(dp6360
g62
(dp6361
g89
g90
ssg71
g6350
sg64
(lp6362
S':'
asbag57
(g78
g59
NtRp6363
(dp6364
g62
(dp6365
sg71
g6350
sg64
(lp6366
g57
(g58
g59
NtRp6367
(dp6368
g62
(dp6369
g70
I5
ssg71
g6363
sg64
(lp6370
g57
(g66
g59
NtRp6371
(dp6372
g62
(dp6373
g70
I4
ssg71
Nsg64
(lp6374
g57
(g73
g59
NtRp6375
(dp6376
g62
(dp6377
sg71
g6371
sg64
(lp6378
g57
(g78
g59
NtRp6379
(dp6380
g62
(dp6381
sg71
g6375
sg64
(lp6382
g57
(g58
g59
NtRp6383
(dp6384
g62
(dp6385
g70
I4
ssg71
g6379
sg64
(lp6386
S'^\\w+\\.py$'
p6387
asbasbasbag57
(g73
g59
NtRp6388
(dp6389
g62
(dp6390
sg71
g6371
sg64
(lp6391
g57
(g78
g59
NtRp6392
(dp6393
g62
(dp6394
sg71
g6388
sg64
(lp6395
g57
(g58
g59
NtRp6396
(dp6397
g62
(dp6398
g70
I4
ssg71
g6392
sg64
(lp6399
S'^post/\\w+\\.py$'
p6400
asbasbasbag57
(g73
g59
NtRp6401
(dp6402
g62
(dp6403
sg71
g6371
sg64
(lp6404
g57
(g78
g59
NtRp6405
(dp6406
g62
(dp6407
sg71
g6401
sg64
(lp6408
g57
(g58
g59
NtRp6409
(dp6410
g62
(dp6411
g70
I4
ssg71
g6405
sg64
(lp6412
S'^post/add/\\w+\\.py$'
p6413
asbasbasbasbasbasbasbag57
(g73
g59
NtRp6414
(dp6415
g62
(dp6416
sg71
g5841
sg64
(lp6417
g57
(g78
g59
NtRp6418
(dp6419
g62
(dp6420
g82
g83
ssg71
g6414
sg64
(lp6421
S'postprocessing'
p6422
asbag57
(g78
g59
NtRp6423
(dp6424
g62
(dp6425
g89
g90
ssg71
g6414
sg64
(lp6426
S':'
asbag57
(g78
g59
NtRp6427
(dp6428
g62
(dp6429
sg71
g6414
sg64
(lp6430
g57
(g58
g59
NtRp6431
(dp6432
g62
(dp6433
g70
I5
ssg71
g6427
sg64
(lp6434
g57
(g66
g59
NtRp6435
(dp6436
g62
(dp6437
g70
I4
ssg71
Nsg64
(lp6438
sbasbasbasbag57
(g73
g59
NtRp6439
(dp6440
g62
(dp6441
sg71
g5841
sg64
(lp6442
g57
(g78
g59
NtRp6443
(dp6444
g62
(dp6445
g82
g83
ssg71
g6439
sg64
(lp6446
S'session_cookie_expires'
p6447
asbag57
(g78
g59
NtRp6448
(dp6449
g62
(dp6450
g89
g90
ssg71
g6439
sg64
(lp6451
S':'
asbag57
(g78
g59
NtRp6452
(dp6453
g62
(dp6454
sg71
g6439
sg64
(lp6455
g57
(g58
g59
NtRp6456
(dp6457
g62
(dp6458
g70
I5
ssg71
g6452
sg64
(lp6459
S'None'
p6460
asbasbasbag57
(g73
g59
NtRp6461
(dp6462
g62
(dp6463
sg71
g5841
sg64
(lp6464
g57
(g78
g59
NtRp6465
(dp6466
g62
(dp6467
g82
g83
ssg71
g6461
sg64
(lp6468
S'session_data_name'
p6469
asbag57
(g78
g59
NtRp6470
(dp6471
g62
(dp6472
g89
g90
ssg71
g6461
sg64
(lp6473
S':'
asbag57
(g78
g59
NtRp6474
(dp6475
g62
(dp6476
sg71
g6461
sg64
(lp6477
g57
(g58
g59
NtRp6478
(dp6479
g62
(dp6480
g70
I5
ssg71
g6474
sg64
(lp6481
S'session_data_projeto'
p6482
asbasbasbag57
(g73
g59
NtRp6483
(dp6484
g62
(dp6485
sg71
g5841
sg64
(lp6486
g57
(g78
g59
NtRp6487
(dp6488
g62
(dp6489
g82
g83
ssg71
g6483
sg64
(lp6490
S'session_file'
p6491
asbag57
(g78
g59
NtRp6492
(dp6493
g62
(dp6494
g89
g90
ssg71
g6483
sg64
(lp6495
S':'
asbag57
(g78
g59
NtRp6496
(dp6497
g62
(dp6498
sg71
g6483
sg64
(lp6499
g57
(g58
g59
NtRp6500
(dp6501
g62
(dp6502
g70
I5
ssg71
g6496
sg64
(lp6503
S"<open file '/var/www/web2py_curso/applications/projeto/sessions/127.0.0.1-a8d6ff4e-868b-4aa2-bd9e-521d75a87c41', mode 'rb+' at 0x7ff37c53fae0>"
p6504
asbasbasbag57
(g73
g59
NtRp6505
(dp6506
g62
(dp6507
sg71
g5841
sg64
(lp6508
g57
(g78
g59
NtRp6509
(dp6510
g62
(dp6511
g82
g83
ssg71
g6505
sg64
(lp6512
S'session_filename'
p6513
asbag57
(g78
g59
NtRp6514
(dp6515
g62
(dp6516
g89
g90
ssg71
g6505
sg64
(lp6517
S':'
asbag57
(g78
g59
NtRp6518
(dp6519
g62
(dp6520
sg71
g6505
sg64
(lp6521
g57
(g58
g59
NtRp6522
(dp6523
g62
(dp6524
g70
I5
ssg71
g6518
sg64
(lp6525
S'/var/www/web2py_curso/applications/projeto/sessions/127.0.0.1-a8d6ff4e-868b-4aa2-bd9e-521d75a87c41'
p6526
asbasbasbag57
(g73
g59
NtRp6527
(dp6528
g62
(dp6529
sg71
g5841
sg64
(lp6530
g57
(g78
g59
NtRp6531
(dp6532
g62
(dp6533
g82
g83
ssg71
g6527
sg64
(lp6534
S'session_id'
p6535
asbag57
(g78
g59
NtRp6536
(dp6537
g62
(dp6538
g89
g90
ssg71
g6527
sg64
(lp6539
S':'
asbag57
(g78
g59
NtRp6540
(dp6541
g62
(dp6542
sg71
g6527
sg64
(lp6543
g57
(g58
g59
NtRp6544
(dp6545
g62
(dp6546
g70
I5
ssg71
g6540
sg64
(lp6547
g1775
asbasbasbag57
(g73
g59
NtRp6548
(dp6549
g62
(dp6550
sg71
g5841
sg64
(lp6551
g57
(g78
g59
NtRp6552
(dp6553
g62
(dp6554
g82
g83
ssg71
g6548
sg64
(lp6555
S'session_id_name'
p6556
asbag57
(g78
g59
NtRp6557
(dp6558
g62
(dp6559
g89
g90
ssg71
g6548
sg64
(lp6560
S':'
asbag57
(g78
g59
NtRp6561
(dp6562
g62
(dp6563
sg71
g6548
sg64
(lp6564
g57
(g58
g59
NtRp6565
(dp6566
g62
(dp6567
g70
I5
ssg71
g6561
sg64
(lp6568
g5898
asbasbasbag57
(g73
g59
NtRp6569
(dp6570
g62
(dp6571
sg71
g5841
sg64
(lp6572
g57
(g78
g59
NtRp6573
(dp6574
g62
(dp6575
g82
g83
ssg71
g6569
sg64
(lp6576
S'session_locked'
p6577
asbag57
(g78
g59
NtRp6578
(dp6579
g62
(dp6580
g89
g90
ssg71
g6569
sg64
(lp6581
S':'
asbag57
(g78
g59
NtRp6582
(dp6583
g62
(dp6584
sg71
g6569
sg64
(lp6585
g57
(g58
g59
NtRp6586
(dp6587
g62
(dp6588
g70
I5
ssg71
g6582
sg64
(lp6589
g3243
asbasbasbag57
(g73
g59
NtRp6590
(dp6591
g62
(dp6592
sg71
g5841
sg64
(lp6593
g57
(g78
g59
NtRp6594
(dp6595
g62
(dp6596
g82
g83
ssg71
g6590
sg64
(lp6597
S'session_new'
p6598
asbag57
(g78
g59
NtRp6599
(dp6600
g62
(dp6601
g89
g90
ssg71
g6590
sg64
(lp6602
S':'
asbag57
(g78
g59
NtRp6603
(dp6604
g62
(dp6605
sg71
g6590
sg64
(lp6606
g57
(g58
g59
NtRp6607
(dp6608
g62
(dp6609
g70
I5
ssg71
g6603
sg64
(lp6610
g100
asbasbasbag57
(g73
g59
NtRp6611
(dp6612
g62
(dp6613
sg71
g5841
sg64
(lp6614
g57
(g78
g59
NtRp6615
(dp6616
g62
(dp6617
g82
g83
ssg71
g6611
sg64
(lp6618
S'session_storage_type'
p6619
asbag57
(g78
g59
NtRp6620
(dp6621
g62
(dp6622
g89
g90
ssg71
g6611
sg64
(lp6623
S':'
asbag57
(g78
g59
NtRp6624
(dp6625
g62
(dp6626
sg71
g6611
sg64
(lp6627
g57
(g58
g59
NtRp6628
(dp6629
g62
(dp6630
g70
I5
ssg71
g6624
sg64
(lp6631
g5090
asbasbasbag57
(g73
g59
NtRp6632
(dp6633
g62
(dp6634
sg71
g5841
sg64
(lp6635
g57
(g78
g59
NtRp6636
(dp6637
g62
(dp6638
g82
g83
ssg71
g6632
sg64
(lp6639
S'status'
p6640
asbag57
(g78
g59
NtRp6641
(dp6642
g62
(dp6643
g89
g90
ssg71
g6632
sg64
(lp6644
S':'
asbag57
(g78
g59
NtRp6645
(dp6646
g62
(dp6647
sg71
g6632
sg64
(lp6648
g57
(g58
g59
NtRp6649
(dp6650
g62
(dp6651
g70
I5
ssg71
g6645
sg64
(lp6652
S'200'
p6653
asbasbasbag57
(g73
g59
NtRp6654
(dp6655
g62
(dp6656
sg71
g5841
sg64
(lp6657
g57
(g78
g59
NtRp6658
(dp6659
g62
(dp6660
g82
g83
ssg71
g6654
sg64
(lp6661
S'subtitle'
p6662
asbag57
(g78
g59
NtRp6663
(dp6664
g62
(dp6665
g89
g90
ssg71
g6654
sg64
(lp6666
S':'
asbag57
(g78
g59
NtRp6667
(dp6668
g62
(dp6669
sg71
g6654
sg64
(lp6670
g57
(g58
g59
NtRp6671
(dp6672
g62
(dp6673
g70
I5
ssg71
g6667
sg64
(lp6674
S'O blog do sheldon'
p6675
asbasbasbag57
(g73
g59
NtRp6676
(dp6677
g62
(dp6678
sg71
g5841
sg64
(lp6679
g57
(g78
g59
NtRp6680
(dp6681
g62
(dp6682
g82
g83
ssg71
g6676
sg64
(lp6683
S'title'
p6684
asbag57
(g78
g59
NtRp6685
(dp6686
g62
(dp6687
g89
g90
ssg71
g6676
sg64
(lp6688
S':'
asbag57
(g78
g59
NtRp6689
(dp6690
g62
(dp6691
sg71
g6676
sg64
(lp6692
g57
(g58
g59
NtRp6693
(dp6694
g62
(dp6695
g70
I5
ssg71
g6689
sg64
(lp6696
S'Meu site magnifico'
p6697
asbasbasbag57
(g73
g59
NtRp6698
(dp6699
g62
(dp6700
sg71
g5841
sg64
(lp6701
g57
(g78
g59
NtRp6702
(dp6703
g62
(dp6704
g82
g83
ssg71
g6698
sg64
(lp6705
S'view'
p6706
asbag57
(g78
g59
NtRp6707
(dp6708
g62
(dp6709
g89
g90
ssg71
g6698
sg64
(lp6710
S':'
asbag57
(g78
g59
NtRp6711
(dp6712
g62
(dp6713
sg71
g6698
sg64
(lp6714
g57
(g58
g59
NtRp6715
(dp6716
g62
(dp6717
g70
I5
ssg71
g6711
sg64
(lp6718
S'post/add.html'
p6719
asbasbasbasbasbsS'locals'
p6720
(dp6721
S'name'
p6722
S"'created_by'"
p6723
sS'self'
p6724
S'<gluon.html.INPUT object>'
p6725
sS'value'
p6726
S"''"
p6727
sS'validator'
p6728
S'<DAL uri="sqlite://projeto.sqlite">'
p6729
sS'request_vars_get'
p6730
S'<built-in method get of Storage object>'
p6731
sS'requires'
p6732
S'(<DAL uri="sqlite://projeto.sqlite">, \'auth_user.id\', \'%(first_name)s\')'
p6733
sssS'traceback'
p6734
S'Traceback (most recent call last):\n  File "/var/www/web2py_curso/gluon/restricted.py", line 212, in restricted\n    exec ccode in environment\n  File "/var/www/web2py_curso/applications/projeto/controllers/post.py", line 25, in <module>\n  File "/var/www/web2py_curso/gluon/globals.py", line 193, in <lambda>\n    self._caller = lambda f: f()\n  File "/var/www/web2py_curso/gluon/tools.py", line 2929, in f\n    return action(*a, **b)\n  File "/var/www/web2py_curso/applications/projeto/controllers/post.py", line 15, in add\n    if form.process().accepted:\n  File "/var/www/web2py_curso/gluon/html.py", line 2179, in process\n    self.validate(**kwargs)\n  File "/var/www/web2py_curso/gluon/html.py", line 2118, in validate\n    if self.accepts(**kwargs):\n  File "/var/www/web2py_curso/gluon/sqlhtml.py", line 1291, in accepts\n    **kwargs\n  File "/var/www/web2py_curso/gluon/html.py", line 2001, in accepts\n    status = self._traverse(status, hideerror)\n  File "/var/www/web2py_curso/gluon/html.py", line 847, in _traverse\n    newstatus = c._traverse(status, hideerror) and newstatus\n  File "/var/www/web2py_curso/gluon/html.py", line 847, in _traverse\n    newstatus = c._traverse(status, hideerror) and newstatus\n  File "/var/www/web2py_curso/gluon/html.py", line 847, in _traverse\n    newstatus = c._traverse(status, hideerror) and newstatus\n  File "/var/www/web2py_curso/gluon/html.py", line 847, in _traverse\n    newstatus = c._traverse(status, hideerror) and newstatus\n  File "/var/www/web2py_curso/gluon/html.py", line 854, in _traverse\n    newstatus = self._validate()\n  File "/var/www/web2py_curso/gluon/html.py", line 1750, in _validate\n    (value, errors) = validator(value)\nTypeError: \'Set\' object is not iterable\n'
p6735
s.