(dp1
S'output'
p2
S"<type 'exceptions.IndentationError'> expected an indented block (initial.py, line 4)"
p3
sS'layer'
p4
S'/var/www/web2py_curso/applications/projeto/controllers/initial.py'
p5
sS'code'
p6
S'# coding: utf-8\n\ndef home():\nposts = db(db.post).select()\n\tprint posts\n\tresponse.title = "Titulo home"\n\tnome = "fernando"\n\treturn dict(posts=posts, nome=nome)\n\n\ndef contact():\n\treturn "form"\n\ndef about():\n\treturn "sobre"\n\ndef user():\n\tif request.args(0) == \'register\':\n        \tdb.auth_user.bio.writable = db.auth_user.bio.readable = False\n\treturn dict(user=auth())\n\ndef register():\n\treturn auth.register()\n\ndef login():\n        return auth.login()\n\ndef account():\n    return dict(register=auth.register(),\n                login=auth.login())\n\t\ndef download():\n\treturn response.download(request, db)\n\n\n\n\n\ndef exemplo():\n#\treturn "teste"\n\treturn response.render("default/teste.html", nome="deld", sobrenome="vieira", lista=["item1", "item2", "item3"])\n\ndef teste1():\n\tprint "Action index"\n\tprint request.args\n\tprint request.vars \t\n\tprint request.post_vars #somente entradas de formul\xc3\xa1rio\n    \tprint request.get_vars  #somente entradas de url\n    \t#nome = request.vars[\'nome\']\n        mensagem = "Bem Vindo"\n        form = "<form action=\'\' method=\'POST\'><input name=\'nome\' id=\'nome\'/><input type=\'Submit\'></form><br>"\n        if \'nome\' in request.vars:\n\t\tform = "<p>Bem vindo %(nome)s</p>" % request.vars + form\t\t\n\t\t#mensagem = mensagem + " usu\xc3\xa1rio %(nome)s" % request.vars\t#mostrando variavel da url\n        \t#mensagem = mensagem + " usu\xc3\xa1rio %s" %str(nome)\t\t\t#mostrando uma variavel local    \n\treturn form\n\ndef teste2():\n\treturn "<form><label>Nome</label><input /></form><br><a href=\'http://www.w3schools.com\'>Visit W3Schools</a>"\n\t#return dict(nome="fernando")\n\t#return response.render("teste.html", dict(nome="fernando"))\n\ndef soma(x, y):\n\treturn x + y\n\n \n\nresponse._vars=response._caller(home)\n'
p7
sS'snapshot'
p8
(dp9
S'exception'
p10
(dp11
S'__getslice__'
p12
S"<method-wrapper '__getslice__' of exceptions.IndentationError object>"
p13
sS'text'
p14
S"'posts = db(db.post).select()\\n'"
p15
sS'__str__'
p16
S"<method-wrapper '__str__' of exceptions.IndentationError object>"
p17
sS'__reduce__'
p18
S'<built-in method __reduce__ of exceptions.IndentationError object>'
p19
sS'__dict__'
p20
S'{}'
p21
sS'__sizeof__'
p22
S'<built-in method __sizeof__ of exceptions.IndentationError object>'
p23
sS'__init__'
p24
S"<method-wrapper '__init__' of exceptions.IndentationError object>"
p25
sS'__setattr__'
p26
S"<method-wrapper '__setattr__' of exceptions.IndentationError object>"
p27
sS'__reduce_ex__'
p28
S'<built-in method __reduce_ex__ of exceptions.IndentationError object>'
p29
sS'__new__'
p30
S'<built-in method __new__ of type object>'
p31
sS'__format__'
p32
S'<built-in method __format__ of exceptions.IndentationError object>'
p33
sS'__class__'
p34
S"<type 'exceptions.IndentationError'>"
p35
sS'filename'
p36
S"'/var/www/web2py_curso/applications/projeto/controllers/initial.py'"
p37
sS'lineno'
p38
S'4'
sS'msg'
p39
S"'expected an indented block'"
p40
sS'__doc__'
p41
S"'Improper indentation.'"
p42
sS'__getitem__'
p43
S"<method-wrapper '__getitem__' of exceptions.IndentationError object>"
p44
sS'__setstate__'
p45
S'<built-in method __setstate__ of exceptions.IndentationError object>'
p46
sS'__getattribute__'
p47
S"<method-wrapper '__getattribute__' of exceptions.IndentationError object>"
p48
sS'print_file_and_line'
p49
S'None'
p50
sS'args'
p51
S"('expected an indented block', ('/var/www/web2py_curso/applications/projeto/controllers/initial.py', 4, 5, 'posts = db(db.post).select()\\n'))"
p52
sS'__subclasshook__'
p53
S'<built-in method __subclasshook__ of type object>'
p54
sS'offset'
p55
S'5'
sS'__unicode__'
p56
S'<built-in method __unicode__ of exceptions.IndentationError object>'
p57
sS'__delattr__'
p58
S"<method-wrapper '__delattr__' of exceptions.IndentationError object>"
p59
sS'__repr__'
p60
S"<method-wrapper '__repr__' of exceptions.IndentationError object>"
p61
sS'__hash__'
p62
S"<method-wrapper '__hash__' of exceptions.IndentationError object>"
p63
ssS'evalue'
p64
S'expected an indented block (initial.py, line 4)'
p65
sS'request'
p66
ccopy_reg
_reconstructor
p67
(cgluon.html
BEAUTIFY
p68
c__builtin__
object
p69
NtRp70
(dp71
S'attributes'
p72
(dp73
sS'components'
p74
(lp75
g67
(cgluon.html
TABLE
p76
g69
NtRp77
(dp78
g72
(dp79
S'level'
p80
I5
ssS'parent'
p81
Nsg74
(lp82
g67
(cgluon.html
TR
p83
g69
NtRp84
(dp85
g72
(dp86
sg81
g77
sg74
(lp87
g67
(cgluon.html
TD
p88
g69
NtRp89
(dp90
g72
(dp91
S'_style'
p92
S'font-weight:bold;vertical-align:top'
p93
ssg81
g84
sg74
(lp94
S'ajax'
p95
asbag67
(g88
g69
NtRp96
(dp97
g72
(dp98
S'_valign'
p99
S'top'
p100
ssg81
g84
sg74
(lp101
S':'
asbag67
(g88
g69
NtRp102
(dp103
g72
(dp104
sg81
g84
sg74
(lp105
g67
(g68
g69
NtRp106
(dp107
g72
(dp108
g80
I5
ssg81
g102
sg74
(lp109
S'False'
p110
asbasbasbag67
(g83
g69
NtRp111
(dp112
g72
(dp113
sg81
g77
sg74
(lp114
g67
(g88
g69
NtRp115
(dp116
g72
(dp117
g92
g93
ssg81
g111
sg74
(lp118
S'application'
p119
asbag67
(g88
g69
NtRp120
(dp121
g72
(dp122
g99
g100
ssg81
g111
sg74
(lp123
S':'
asbag67
(g88
g69
NtRp124
(dp125
g72
(dp126
sg81
g111
sg74
(lp127
g67
(g68
g69
NtRp128
(dp129
g72
(dp130
g80
I5
ssg81
g124
sg74
(lp131
S'projeto'
p132
asbasbasbag67
(g83
g69
NtRp133
(dp134
g72
(dp135
sg81
g77
sg74
(lp136
g67
(g88
g69
NtRp137
(dp138
g72
(dp139
g92
g93
ssg81
g133
sg74
(lp140
g51
asbag67
(g88
g69
NtRp141
(dp142
g72
(dp143
g99
g100
ssg81
g133
sg74
(lp144
S':'
asbag67
(g88
g69
NtRp145
(dp146
g72
(dp147
sg81
g133
sg74
(lp148
g67
(g68
g69
NtRp149
(dp150
g72
(dp151
g80
I5
ssg81
g145
sg74
(lp152
g67
(g76
g69
NtRp153
(dp154
g72
(dp155
g80
I4
ssg81
Nsg74
(lp156
sbasbasbasbag67
(g83
g69
NtRp157
(dp158
g72
(dp159
sg81
g77
sg74
(lp160
g67
(g88
g69
NtRp161
(dp162
g72
(dp163
g92
g93
ssg81
g157
sg74
(lp164
S'body'
p165
asbag67
(g88
g69
NtRp166
(dp167
g72
(dp168
g99
g100
ssg81
g157
sg74
(lp169
S':'
asbag67
(g88
g69
NtRp170
(dp171
g72
(dp172
sg81
g157
sg74
(lp173
g67
(g68
g69
NtRp174
(dp175
g72
(dp176
g80
I5
ssg81
g170
sg74
(lp177
S'<cStringIO.StringO object at 0x7fe5d43297d8>'
p178
asbasbasbag67
(g83
g69
NtRp179
(dp180
g72
(dp181
sg81
g77
sg74
(lp182
g67
(g88
g69
NtRp183
(dp184
g72
(dp185
g92
g93
ssg81
g179
sg74
(lp186
S'cid'
p187
asbag67
(g88
g69
NtRp188
(dp189
g72
(dp190
g99
g100
ssg81
g179
sg74
(lp191
S':'
asbag67
(g88
g69
NtRp192
(dp193
g72
(dp194
sg81
g179
sg74
(lp195
g67
(g68
g69
NtRp196
(dp197
g72
(dp198
g80
I5
ssg81
g192
sg74
(lp199
S'None'
p200
asbasbasbag67
(g83
g69
NtRp201
(dp202
g72
(dp203
sg81
g77
sg74
(lp204
g67
(g88
g69
NtRp205
(dp206
g72
(dp207
g92
g93
ssg81
g201
sg74
(lp208
S'client'
p209
asbag67
(g88
g69
NtRp210
(dp211
g72
(dp212
g99
g100
ssg81
g201
sg74
(lp213
S':'
asbag67
(g88
g69
NtRp214
(dp215
g72
(dp216
sg81
g201
sg74
(lp217
g67
(g68
g69
NtRp218
(dp219
g72
(dp220
g80
I5
ssg81
g214
sg74
(lp221
S'127.0.0.1'
p222
asbasbasbag67
(g83
g69
NtRp223
(dp224
g72
(dp225
sg81
g77
sg74
(lp226
g67
(g88
g69
NtRp227
(dp228
g72
(dp229
g92
g93
ssg81
g223
sg74
(lp230
S'controller'
p231
asbag67
(g88
g69
NtRp232
(dp233
g72
(dp234
g99
g100
ssg81
g223
sg74
(lp235
S':'
asbag67
(g88
g69
NtRp236
(dp237
g72
(dp238
sg81
g223
sg74
(lp239
g67
(g68
g69
NtRp240
(dp241
g72
(dp242
g80
I5
ssg81
g236
sg74
(lp243
S'initial'
p244
asbasbasbag67
(g83
g69
NtRp245
(dp246
g72
(dp247
sg81
g77
sg74
(lp248
g67
(g88
g69
NtRp249
(dp250
g72
(dp251
g92
g93
ssg81
g245
sg74
(lp252
S'cookies'
p253
asbag67
(g88
g69
NtRp254
(dp255
g72
(dp256
g99
g100
ssg81
g245
sg74
(lp257
S':'
asbag67
(g88
g69
NtRp258
(dp259
g72
(dp260
sg81
g245
sg74
(lp261
g67
(g68
g69
NtRp262
(dp263
g72
(dp264
g80
I5
ssg81
g258
sg74
(lp265
g67
(g76
g69
NtRp266
(dp267
g72
(dp268
g80
I4
ssg81
Nsg74
(lp269
g67
(g83
g69
NtRp270
(dp271
g72
(dp272
sg81
g266
sg74
(lp273
g67
(g88
g69
NtRp274
(dp275
g72
(dp276
g92
g93
ssg81
g270
sg74
(lp277
S'session_id_admin'
p278
asbag67
(g88
g69
NtRp279
(dp280
g72
(dp281
g99
g100
ssg81
g270
sg74
(lp282
S':'
asbag67
(g88
g69
NtRp283
(dp284
g72
(dp285
sg81
g270
sg74
(lp286
g67
(g68
g69
NtRp287
(dp288
g72
(dp289
g80
I4
ssg81
g283
sg74
(lp290
S'127.0.0.1-9640a29f-86a5-4471-9025-77da26554f56'
p291
ag67
(g76
g69
NtRp292
(dp293
g72
(dp294
g80
I3
ssg81
Nsg74
(lp295
g67
(g83
g69
NtRp296
(dp297
g72
(dp298
sg81
g292
sg74
(lp299
g67
(g88
g69
NtRp300
(dp301
g72
(dp302
g92
g93
ssg81
g296
sg74
(lp303
S'comment'
p304
asbag67
(g88
g69
NtRp305
(dp306
g72
(dp307
g99
g100
ssg81
g296
sg74
(lp308
S':'
asbag67
(g88
g69
NtRp309
(dp310
g72
(dp311
sg81
g296
sg74
(lp312
g67
(g68
g69
NtRp313
(dp314
g72
(dp315
g80
I3
ssg81
g309
sg74
(lp316
S''
asbasbasbag67
(g83
g69
NtRp317
(dp318
g72
(dp319
sg81
g292
sg74
(lp320
g67
(g88
g69
NtRp321
(dp322
g72
(dp323
g92
g93
ssg81
g317
sg74
(lp324
S'domain'
p325
asbag67
(g88
g69
NtRp326
(dp327
g72
(dp328
g99
g100
ssg81
g317
sg74
(lp329
S':'
asbag67
(g88
g69
NtRp330
(dp331
g72
(dp332
sg81
g317
sg74
(lp333
g67
(g68
g69
NtRp334
(dp335
g72
(dp336
g80
I3
ssg81
g330
sg74
(lp337
S''
asbasbasbag67
(g83
g69
NtRp338
(dp339
g72
(dp340
sg81
g292
sg74
(lp341
g67
(g88
g69
NtRp342
(dp343
g72
(dp344
g92
g93
ssg81
g338
sg74
(lp345
S'expires'
p346
asbag67
(g88
g69
NtRp347
(dp348
g72
(dp349
g99
g100
ssg81
g338
sg74
(lp350
S':'
asbag67
(g88
g69
NtRp351
(dp352
g72
(dp353
sg81
g338
sg74
(lp354
g67
(g68
g69
NtRp355
(dp356
g72
(dp357
g80
I3
ssg81
g351
sg74
(lp358
S''
asbasbasbag67
(g83
g69
NtRp359
(dp360
g72
(dp361
sg81
g292
sg74
(lp362
g67
(g88
g69
NtRp363
(dp364
g72
(dp365
g92
g93
ssg81
g359
sg74
(lp366
S'httponly'
p367
asbag67
(g88
g69
NtRp368
(dp369
g72
(dp370
g99
g100
ssg81
g359
sg74
(lp371
S':'
asbag67
(g88
g69
NtRp372
(dp373
g72
(dp374
sg81
g359
sg74
(lp375
g67
(g68
g69
NtRp376
(dp377
g72
(dp378
g80
I3
ssg81
g372
sg74
(lp379
S''
asbasbasbag67
(g83
g69
NtRp380
(dp381
g72
(dp382
sg81
g292
sg74
(lp383
g67
(g88
g69
NtRp384
(dp385
g72
(dp386
g92
g93
ssg81
g380
sg74
(lp387
S'max-age'
p388
asbag67
(g88
g69
NtRp389
(dp390
g72
(dp391
g99
g100
ssg81
g380
sg74
(lp392
S':'
asbag67
(g88
g69
NtRp393
(dp394
g72
(dp395
sg81
g380
sg74
(lp396
g67
(g68
g69
NtRp397
(dp398
g72
(dp399
g80
I3
ssg81
g393
sg74
(lp400
S''
asbasbasbag67
(g83
g69
NtRp401
(dp402
g72
(dp403
sg81
g292
sg74
(lp404
g67
(g88
g69
NtRp405
(dp406
g72
(dp407
g92
g93
ssg81
g401
sg74
(lp408
S'path'
p409
asbag67
(g88
g69
NtRp410
(dp411
g72
(dp412
g99
g100
ssg81
g401
sg74
(lp413
S':'
asbag67
(g88
g69
NtRp414
(dp415
g72
(dp416
sg81
g401
sg74
(lp417
g67
(g68
g69
NtRp418
(dp419
g72
(dp420
g80
I3
ssg81
g414
sg74
(lp421
S''
asbasbasbag67
(g83
g69
NtRp422
(dp423
g72
(dp424
sg81
g292
sg74
(lp425
g67
(g88
g69
NtRp426
(dp427
g72
(dp428
g92
g93
ssg81
g422
sg74
(lp429
S'secure'
p430
asbag67
(g88
g69
NtRp431
(dp432
g72
(dp433
g99
g100
ssg81
g422
sg74
(lp434
S':'
asbag67
(g88
g69
NtRp435
(dp436
g72
(dp437
sg81
g422
sg74
(lp438
g67
(g68
g69
NtRp439
(dp440
g72
(dp441
g80
I3
ssg81
g435
sg74
(lp442
S''
asbasbasbag67
(g83
g69
NtRp443
(dp444
g72
(dp445
sg81
g292
sg74
(lp446
g67
(g88
g69
NtRp447
(dp448
g72
(dp449
g92
g93
ssg81
g443
sg74
(lp450
S'version'
p451
asbag67
(g88
g69
NtRp452
(dp453
g72
(dp454
g99
g100
ssg81
g443
sg74
(lp455
S':'
asbag67
(g88
g69
NtRp456
(dp457
g72
(dp458
sg81
g443
sg74
(lp459
g67
(g68
g69
NtRp460
(dp461
g72
(dp462
g80
I3
ssg81
g456
sg74
(lp463
S''
asbasbasbasbasbasbasbag67
(g83
g69
NtRp464
(dp465
g72
(dp466
sg81
g266
sg74
(lp467
g67
(g88
g69
NtRp468
(dp469
g72
(dp470
g92
g93
ssg81
g464
sg74
(lp471
S'session_id_projeto'
p472
asbag67
(g88
g69
NtRp473
(dp474
g72
(dp475
g99
g100
ssg81
g464
sg74
(lp476
S':'
asbag67
(g88
g69
NtRp477
(dp478
g72
(dp479
sg81
g464
sg74
(lp480
g67
(g68
g69
NtRp481
(dp482
g72
(dp483
g80
I4
ssg81
g477
sg74
(lp484
S'127.0.0.1-71851f1a-a738-4589-a6cd-6594e5094ab6'
p485
ag67
(g76
g69
NtRp486
(dp487
g72
(dp488
g80
I3
ssg81
Nsg74
(lp489
g67
(g83
g69
NtRp490
(dp491
g72
(dp492
sg81
g486
sg74
(lp493
g67
(g88
g69
NtRp494
(dp495
g72
(dp496
g92
g93
ssg81
g490
sg74
(lp497
g304
asbag67
(g88
g69
NtRp498
(dp499
g72
(dp500
g99
g100
ssg81
g490
sg74
(lp501
S':'
asbag67
(g88
g69
NtRp502
(dp503
g72
(dp504
sg81
g490
sg74
(lp505
g67
(g68
g69
NtRp506
(dp507
g72
(dp508
g80
I3
ssg81
g502
sg74
(lp509
S''
asbasbasbag67
(g83
g69
NtRp510
(dp511
g72
(dp512
sg81
g486
sg74
(lp513
g67
(g88
g69
NtRp514
(dp515
g72
(dp516
g92
g93
ssg81
g510
sg74
(lp517
g325
asbag67
(g88
g69
NtRp518
(dp519
g72
(dp520
g99
g100
ssg81
g510
sg74
(lp521
S':'
asbag67
(g88
g69
NtRp522
(dp523
g72
(dp524
sg81
g510
sg74
(lp525
g67
(g68
g69
NtRp526
(dp527
g72
(dp528
g80
I3
ssg81
g522
sg74
(lp529
S''
asbasbasbag67
(g83
g69
NtRp530
(dp531
g72
(dp532
sg81
g486
sg74
(lp533
g67
(g88
g69
NtRp534
(dp535
g72
(dp536
g92
g93
ssg81
g530
sg74
(lp537
g346
asbag67
(g88
g69
NtRp538
(dp539
g72
(dp540
g99
g100
ssg81
g530
sg74
(lp541
S':'
asbag67
(g88
g69
NtRp542
(dp543
g72
(dp544
sg81
g530
sg74
(lp545
g67
(g68
g69
NtRp546
(dp547
g72
(dp548
g80
I3
ssg81
g542
sg74
(lp549
S''
asbasbasbag67
(g83
g69
NtRp550
(dp551
g72
(dp552
sg81
g486
sg74
(lp553
g67
(g88
g69
NtRp554
(dp555
g72
(dp556
g92
g93
ssg81
g550
sg74
(lp557
g367
asbag67
(g88
g69
NtRp558
(dp559
g72
(dp560
g99
g100
ssg81
g550
sg74
(lp561
S':'
asbag67
(g88
g69
NtRp562
(dp563
g72
(dp564
sg81
g550
sg74
(lp565
g67
(g68
g69
NtRp566
(dp567
g72
(dp568
g80
I3
ssg81
g562
sg74
(lp569
S''
asbasbasbag67
(g83
g69
NtRp570
(dp571
g72
(dp572
sg81
g486
sg74
(lp573
g67
(g88
g69
NtRp574
(dp575
g72
(dp576
g92
g93
ssg81
g570
sg74
(lp577
g388
asbag67
(g88
g69
NtRp578
(dp579
g72
(dp580
g99
g100
ssg81
g570
sg74
(lp581
S':'
asbag67
(g88
g69
NtRp582
(dp583
g72
(dp584
sg81
g570
sg74
(lp585
g67
(g68
g69
NtRp586
(dp587
g72
(dp588
g80
I3
ssg81
g582
sg74
(lp589
S''
asbasbasbag67
(g83
g69
NtRp590
(dp591
g72
(dp592
sg81
g486
sg74
(lp593
g67
(g88
g69
NtRp594
(dp595
g72
(dp596
g92
g93
ssg81
g590
sg74
(lp597
g409
asbag67
(g88
g69
NtRp598
(dp599
g72
(dp600
g99
g100
ssg81
g590
sg74
(lp601
S':'
asbag67
(g88
g69
NtRp602
(dp603
g72
(dp604
sg81
g590
sg74
(lp605
g67
(g68
g69
NtRp606
(dp607
g72
(dp608
g80
I3
ssg81
g602
sg74
(lp609
S''
asbasbasbag67
(g83
g69
NtRp610
(dp611
g72
(dp612
sg81
g486
sg74
(lp613
g67
(g88
g69
NtRp614
(dp615
g72
(dp616
g92
g93
ssg81
g610
sg74
(lp617
g430
asbag67
(g88
g69
NtRp618
(dp619
g72
(dp620
g99
g100
ssg81
g610
sg74
(lp621
S':'
asbag67
(g88
g69
NtRp622
(dp623
g72
(dp624
sg81
g610
sg74
(lp625
g67
(g68
g69
NtRp626
(dp627
g72
(dp628
g80
I3
ssg81
g622
sg74
(lp629
S''
asbasbasbag67
(g83
g69
NtRp630
(dp631
g72
(dp632
sg81
g486
sg74
(lp633
g67
(g88
g69
NtRp634
(dp635
g72
(dp636
g92
g93
ssg81
g630
sg74
(lp637
g451
asbag67
(g88
g69
NtRp638
(dp639
g72
(dp640
g99
g100
ssg81
g630
sg74
(lp641
S':'
asbag67
(g88
g69
NtRp642
(dp643
g72
(dp644
sg81
g630
sg74
(lp645
g67
(g68
g69
NtRp646
(dp647
g72
(dp648
g80
I3
ssg81
g642
sg74
(lp649
S''
asbasbasbasbasbasbasbasbasbasbasbag67
(g83
g69
NtRp650
(dp651
g72
(dp652
sg81
g77
sg74
(lp653
g67
(g88
g69
NtRp654
(dp655
g72
(dp656
g92
g93
ssg81
g650
sg74
(lp657
S'env'
p658
asbag67
(g88
g69
NtRp659
(dp660
g72
(dp661
g99
g100
ssg81
g650
sg74
(lp662
S':'
asbag67
(g88
g69
NtRp663
(dp664
g72
(dp665
sg81
g650
sg74
(lp666
g67
(g68
g69
NtRp667
(dp668
g72
(dp669
g80
I5
ssg81
g663
sg74
(lp670
g67
(g76
g69
NtRp671
(dp672
g72
(dp673
g80
I4
ssg81
Nsg74
(lp674
g67
(g83
g69
NtRp675
(dp676
g72
(dp677
sg81
g671
sg74
(lp678
g67
(g88
g69
NtRp679
(dp680
g72
(dp681
g92
g93
ssg81
g675
sg74
(lp682
S'app_folders'
p683
asbag67
(g88
g69
NtRp684
(dp685
g72
(dp686
g99
g100
ssg81
g675
sg74
(lp687
S':'
asbag67
(g88
g69
NtRp688
(dp689
g72
(dp690
sg81
g675
sg74
(lp691
g67
(g68
g69
NtRp692
(dp693
g72
(dp694
g80
I4
ssg81
g688
sg74
(lp695
S"set(['/var/www/web2py_curso/applications/projeto/'])"
p696
asbasbasbag67
(g83
g69
NtRp697
(dp698
g72
(dp699
sg81
g671
sg74
(lp700
g67
(g88
g69
NtRp701
(dp702
g72
(dp703
g92
g93
ssg81
g697
sg74
(lp704
S'applications_parent'
p705
asbag67
(g88
g69
NtRp706
(dp707
g72
(dp708
g99
g100
ssg81
g697
sg74
(lp709
S':'
asbag67
(g88
g69
NtRp710
(dp711
g72
(dp712
sg81
g697
sg74
(lp713
g67
(g68
g69
NtRp714
(dp715
g72
(dp716
g80
I4
ssg81
g710
sg74
(lp717
S'/var/www/web2py_curso'
p718
asbasbasbag67
(g83
g69
NtRp719
(dp720
g72
(dp721
sg81
g671
sg74
(lp722
g67
(g88
g69
NtRp723
(dp724
g72
(dp725
g92
g93
ssg81
g719
sg74
(lp726
S'cmd_args'
p727
asbag67
(g88
g69
NtRp728
(dp729
g72
(dp730
g99
g100
ssg81
g719
sg74
(lp731
S':'
asbag67
(g88
g69
NtRp732
(dp733
g72
(dp734
sg81
g719
sg74
(lp735
g67
(g68
g69
NtRp736
(dp737
g72
(dp738
g80
I4
ssg81
g732
sg74
(lp739
g67
(g76
g69
NtRp740
(dp741
g72
(dp742
g80
I3
ssg81
Nsg74
(lp743
sbasbasbasbag67
(g83
g69
NtRp744
(dp745
g72
(dp746
sg81
g671
sg74
(lp747
g67
(g88
g69
NtRp748
(dp749
g72
(dp750
g92
g93
ssg81
g744
sg74
(lp751
S'cmd_options'
p752
asbag67
(g88
g69
NtRp753
(dp754
g72
(dp755
g99
g100
ssg81
g744
sg74
(lp756
S':'
asbag67
(g88
g69
NtRp757
(dp758
g72
(dp759
sg81
g744
sg74
(lp760
g67
(g68
g69
NtRp761
(dp762
g72
(dp763
g80
I4
ssg81
g757
sg74
(lp764
S"<Values at 0x3476a28: {'verbose': False, 'ip': '127.0.0.1', 'with_scheduler': False, 'ips': [], 'shutdown_timeout': 5, 'taskbar': False, 'port': 8000, 'maxthreads': None, 'softcron': False, 'server_name': 'fernando-pc', 'bpython': False, 'nogui': False, 'pid_filename': 'httpserver.pid', 'extcron': False, 'runcron': False, 'run_system_tests': False, 'test': None, 'folder': '/var/www/web2py_curso', 'config': '', 'minthreads': None, 'winservice': '', 'shell': None, 'run': '', 'log_filename': 'httpserver.log', 'debuglevel': 30, 'args': [''], 'socket_timeout': 5, 'ssl_ca_certificate': None, 'scheduler': None, 'profiler_filename': None, 'ssl_private_key': '', 'scheduler_groups': None, 'password': '123456', 'request_queue_size': 5, 'ssl_certificate': '', 'cronjob': False, 'numthreads': None, 'quiet': False, 'interfaces': None, 'import_models': False, 'timeout': 10, 'plain': False, 'nobanner': False}>"
p765
asbasbasbag67
(g83
g69
NtRp766
(dp767
g72
(dp768
sg81
g671
sg74
(lp769
g67
(g88
g69
NtRp770
(dp771
g72
(dp772
g92
g93
ssg81
g766
sg74
(lp773
S'db_sessions'
p774
asbag67
(g88
g69
NtRp775
(dp776
g72
(dp777
g99
g100
ssg81
g766
sg74
(lp778
S':'
asbag67
(g88
g69
NtRp779
(dp780
g72
(dp781
sg81
g766
sg74
(lp782
g67
(g68
g69
NtRp783
(dp784
g72
(dp785
g80
I4
ssg81
g779
sg74
(lp786
S'set([])'
p787
asbasbasbag67
(g83
g69
NtRp788
(dp789
g72
(dp790
sg81
g671
sg74
(lp791
g67
(g88
g69
NtRp792
(dp793
g72
(dp794
g92
g93
ssg81
g788
sg74
(lp795
S'debugging'
p796
asbag67
(g88
g69
NtRp797
(dp798
g72
(dp799
g99
g100
ssg81
g788
sg74
(lp800
S':'
asbag67
(g88
g69
NtRp801
(dp802
g72
(dp803
sg81
g788
sg74
(lp804
g67
(g68
g69
NtRp805
(dp806
g72
(dp807
g80
I4
ssg81
g801
sg74
(lp808
g110
asbasbasbag67
(g83
g69
NtRp809
(dp810
g72
(dp811
sg81
g671
sg74
(lp812
g67
(g88
g69
NtRp813
(dp814
g72
(dp815
g92
g93
ssg81
g809
sg74
(lp816
S'gluon_parent'
p817
asbag67
(g88
g69
NtRp818
(dp819
g72
(dp820
g99
g100
ssg81
g809
sg74
(lp821
S':'
asbag67
(g88
g69
NtRp822
(dp823
g72
(dp824
sg81
g809
sg74
(lp825
g67
(g68
g69
NtRp826
(dp827
g72
(dp828
g80
I4
ssg81
g822
sg74
(lp829
S'/var/www/web2py_curso'
p830
asbasbasbag67
(g83
g69
NtRp831
(dp832
g72
(dp833
sg81
g671
sg74
(lp834
g67
(g88
g69
NtRp835
(dp836
g72
(dp837
g92
g93
ssg81
g831
sg74
(lp838
S'http_accept'
p839
asbag67
(g88
g69
NtRp840
(dp841
g72
(dp842
g99
g100
ssg81
g831
sg74
(lp843
S':'
asbag67
(g88
g69
NtRp844
(dp845
g72
(dp846
sg81
g831
sg74
(lp847
g67
(g68
g69
NtRp848
(dp849
g72
(dp850
g80
I4
ssg81
g844
sg74
(lp851
S'text/html,application/xhtml+xml,application/xml;q=0.9,*/*;q=0.8'
p852
asbasbasbag67
(g83
g69
NtRp853
(dp854
g72
(dp855
sg81
g671
sg74
(lp856
g67
(g88
g69
NtRp857
(dp858
g72
(dp859
g92
g93
ssg81
g853
sg74
(lp860
S'http_accept_charset'
p861
asbag67
(g88
g69
NtRp862
(dp863
g72
(dp864
g99
g100
ssg81
g853
sg74
(lp865
S':'
asbag67
(g88
g69
NtRp866
(dp867
g72
(dp868
sg81
g853
sg74
(lp869
g67
(g68
g69
NtRp870
(dp871
g72
(dp872
g80
I4
ssg81
g866
sg74
(lp873
S'ISO-8859-1,utf-8;q=0.7,*;q=0.3'
p874
asbasbasbag67
(g83
g69
NtRp875
(dp876
g72
(dp877
sg81
g671
sg74
(lp878
g67
(g88
g69
NtRp879
(dp880
g72
(dp881
g92
g93
ssg81
g875
sg74
(lp882
S'http_accept_encoding'
p883
asbag67
(g88
g69
NtRp884
(dp885
g72
(dp886
g99
g100
ssg81
g875
sg74
(lp887
S':'
asbag67
(g88
g69
NtRp888
(dp889
g72
(dp890
sg81
g875
sg74
(lp891
g67
(g68
g69
NtRp892
(dp893
g72
(dp894
g80
I4
ssg81
g888
sg74
(lp895
S'gzip,deflate,sdch'
p896
asbasbasbag67
(g83
g69
NtRp897
(dp898
g72
(dp899
sg81
g671
sg74
(lp900
g67
(g88
g69
NtRp901
(dp902
g72
(dp903
g92
g93
ssg81
g897
sg74
(lp904
S'http_accept_language'
p905
asbag67
(g88
g69
NtRp906
(dp907
g72
(dp908
g99
g100
ssg81
g897
sg74
(lp909
S':'
asbag67
(g88
g69
NtRp910
(dp911
g72
(dp912
sg81
g897
sg74
(lp913
g67
(g68
g69
NtRp914
(dp915
g72
(dp916
g80
I4
ssg81
g910
sg74
(lp917
S'pt-BR,pt;q=0.8,en-US;q=0.6,en;q=0.4'
p918
asbasbasbag67
(g83
g69
NtRp919
(dp920
g72
(dp921
sg81
g671
sg74
(lp922
g67
(g88
g69
NtRp923
(dp924
g72
(dp925
g92
g93
ssg81
g919
sg74
(lp926
S'http_cache_control'
p927
asbag67
(g88
g69
NtRp928
(dp929
g72
(dp930
g99
g100
ssg81
g919
sg74
(lp931
S':'
asbag67
(g88
g69
NtRp932
(dp933
g72
(dp934
sg81
g919
sg74
(lp935
g67
(g68
g69
NtRp936
(dp937
g72
(dp938
g80
I4
ssg81
g932
sg74
(lp939
S'max-age=0'
p940
asbasbasbag67
(g83
g69
NtRp941
(dp942
g72
(dp943
sg81
g671
sg74
(lp944
g67
(g88
g69
NtRp945
(dp946
g72
(dp947
g92
g93
ssg81
g941
sg74
(lp948
S'http_connection'
p949
asbag67
(g88
g69
NtRp950
(dp951
g72
(dp952
g99
g100
ssg81
g941
sg74
(lp953
S':'
asbag67
(g88
g69
NtRp954
(dp955
g72
(dp956
sg81
g941
sg74
(lp957
g67
(g68
g69
NtRp958
(dp959
g72
(dp960
g80
I4
ssg81
g954
sg74
(lp961
S'keep-alive'
p962
asbasbasbag67
(g83
g69
NtRp963
(dp964
g72
(dp965
sg81
g671
sg74
(lp966
g67
(g88
g69
NtRp967
(dp968
g72
(dp969
g92
g93
ssg81
g963
sg74
(lp970
S'http_cookie'
p971
asbag67
(g88
g69
NtRp972
(dp973
g72
(dp974
g99
g100
ssg81
g963
sg74
(lp975
S':'
asbag67
(g88
g69
NtRp976
(dp977
g72
(dp978
sg81
g963
sg74
(lp979
g67
(g68
g69
NtRp980
(dp981
g72
(dp982
g80
I4
ssg81
g976
sg74
(lp983
S'session_id_admin=127.0.0.1-9640a29f-86a5-4471-9025-77da26554f56; session_id_projeto=127.0.0.1-71851f1a-a738-4589-a6cd-6594e5094ab6'
p984
asbasbasbag67
(g83
g69
NtRp985
(dp986
g72
(dp987
sg81
g671
sg74
(lp988
g67
(g88
g69
NtRp989
(dp990
g72
(dp991
g92
g93
ssg81
g985
sg74
(lp992
S'http_host'
p993
asbag67
(g88
g69
NtRp994
(dp995
g72
(dp996
g99
g100
ssg81
g985
sg74
(lp997
S':'
asbag67
(g88
g69
NtRp998
(dp999
g72
(dp1000
sg81
g985
sg74
(lp1001
g67
(g68
g69
NtRp1002
(dp1003
g72
(dp1004
g80
I4
ssg81
g998
sg74
(lp1005
S'127.0.0.1:8000'
p1006
asbasbasbag67
(g83
g69
NtRp1007
(dp1008
g72
(dp1009
sg81
g671
sg74
(lp1010
g67
(g88
g69
NtRp1011
(dp1012
g72
(dp1013
g92
g93
ssg81
g1007
sg74
(lp1014
S'http_user_agent'
p1015
asbag67
(g88
g69
NtRp1016
(dp1017
g72
(dp1018
g99
g100
ssg81
g1007
sg74
(lp1019
S':'
asbag67
(g88
g69
NtRp1020
(dp1021
g72
(dp1022
sg81
g1007
sg74
(lp1023
g67
(g68
g69
NtRp1024
(dp1025
g72
(dp1026
g80
I4
ssg81
g1020
sg74
(lp1027
S'Mozilla/5.0 (X11; Linux x86_64) AppleWebKit/536.11 (KHTML, like Gecko) Ubuntu/12.04 Chromium/20.0.1132.47 Chrome/20.0.1132.47 Safari/536.11'
p1028
asbasbasbag67
(g83
g69
NtRp1029
(dp1030
g72
(dp1031
sg81
g671
sg74
(lp1032
g67
(g88
g69
NtRp1033
(dp1034
g72
(dp1035
g92
g93
ssg81
g1029
sg74
(lp1036
S'is_jython'
p1037
asbag67
(g88
g69
NtRp1038
(dp1039
g72
(dp1040
g99
g100
ssg81
g1029
sg74
(lp1041
S':'
asbag67
(g88
g69
NtRp1042
(dp1043
g72
(dp1044
sg81
g1029
sg74
(lp1045
g67
(g68
g69
NtRp1046
(dp1047
g72
(dp1048
g80
I4
ssg81
g1042
sg74
(lp1049
g110
asbasbasbag67
(g83
g69
NtRp1050
(dp1051
g72
(dp1052
sg81
g671
sg74
(lp1053
g67
(g88
g69
NtRp1054
(dp1055
g72
(dp1056
g92
g93
ssg81
g1050
sg74
(lp1057
S'is_pypy'
p1058
asbag67
(g88
g69
NtRp1059
(dp1060
g72
(dp1061
g99
g100
ssg81
g1050
sg74
(lp1062
S':'
asbag67
(g88
g69
NtRp1063
(dp1064
g72
(dp1065
sg81
g1050
sg74
(lp1066
g67
(g68
g69
NtRp1067
(dp1068
g72
(dp1069
g80
I4
ssg81
g1063
sg74
(lp1070
g110
asbasbasbag67
(g83
g69
NtRp1071
(dp1072
g72
(dp1073
sg81
g671
sg74
(lp1074
g67
(g88
g69
NtRp1075
(dp1076
g72
(dp1077
g92
g93
ssg81
g1071
sg74
(lp1078
S'local_hosts'
p1079
asbag67
(g88
g69
NtRp1080
(dp1081
g72
(dp1082
g99
g100
ssg81
g1071
sg74
(lp1083
S':'
asbag67
(g88
g69
NtRp1084
(dp1085
g72
(dp1086
sg81
g1071
sg74
(lp1087
g67
(g68
g69
NtRp1088
(dp1089
g72
(dp1090
g80
I4
ssg81
g1084
sg74
(lp1091
g67
(g76
g69
NtRp1092
(dp1093
g72
(dp1094
g80
I3
ssg81
Nsg74
(lp1095
g67
(g83
g69
NtRp1096
(dp1097
g72
(dp1098
sg81
g1092
sg74
(lp1099
g67
(g88
g69
NtRp1100
(dp1101
g72
(dp1102
sg81
g1096
sg74
(lp1103
g67
(g68
g69
NtRp1104
(dp1105
g72
(dp1106
g80
I3
ssg81
g1100
sg74
(lp1107
S'::1'
p1108
asbasbasbag67
(g83
g69
NtRp1109
(dp1110
g72
(dp1111
sg81
g1092
sg74
(lp1112
g67
(g88
g69
NtRp1113
(dp1114
g72
(dp1115
sg81
g1109
sg74
(lp1116
g67
(g68
g69
NtRp1117
(dp1118
g72
(dp1119
g80
I3
ssg81
g1113
sg74
(lp1120
S'127.0.1.1'
p1121
asbasbasbag67
(g83
g69
NtRp1122
(dp1123
g72
(dp1124
sg81
g1092
sg74
(lp1125
g67
(g88
g69
NtRp1126
(dp1127
g72
(dp1128
sg81
g1122
sg74
(lp1129
g67
(g68
g69
NtRp1130
(dp1131
g72
(dp1132
g80
I3
ssg81
g1126
sg74
(lp1133
S'fernando-pc'
p1134
asbasbasbag67
(g83
g69
NtRp1135
(dp1136
g72
(dp1137
sg81
g1092
sg74
(lp1138
g67
(g88
g69
NtRp1139
(dp1140
g72
(dp1141
sg81
g1135
sg74
(lp1142
g67
(g68
g69
NtRp1143
(dp1144
g72
(dp1145
g80
I3
ssg81
g1139
sg74
(lp1146
S'::ffff:127.0.0.1'
p1147
asbasbasbag67
(g83
g69
NtRp1148
(dp1149
g72
(dp1150
sg81
g1092
sg74
(lp1151
g67
(g88
g69
NtRp1152
(dp1153
g72
(dp1154
sg81
g1148
sg74
(lp1155
g67
(g68
g69
NtRp1156
(dp1157
g72
(dp1158
g80
I3
ssg81
g1152
sg74
(lp1159
S'127.0.0.1'
p1160
asbasbasbasbasbasbasbag67
(g83
g69
NtRp1161
(dp1162
g72
(dp1163
sg81
g671
sg74
(lp1164
g67
(g88
g69
NtRp1165
(dp1166
g72
(dp1167
g92
g93
ssg81
g1161
sg74
(lp1168
S'path_info'
p1169
asbag67
(g88
g69
NtRp1170
(dp1171
g72
(dp1172
g99
g100
ssg81
g1161
sg74
(lp1173
S':'
asbag67
(g88
g69
NtRp1174
(dp1175
g72
(dp1176
sg81
g1161
sg74
(lp1177
g67
(g68
g69
NtRp1178
(dp1179
g72
(dp1180
g80
I4
ssg81
g1174
sg74
(lp1181
S'/'
asbasbasbag67
(g83
g69
NtRp1182
(dp1183
g72
(dp1184
sg81
g671
sg74
(lp1185
g67
(g88
g69
NtRp1186
(dp1187
g72
(dp1188
g92
g93
ssg81
g1182
sg74
(lp1189
S'query_string'
p1190
asbag67
(g88
g69
NtRp1191
(dp1192
g72
(dp1193
g99
g100
ssg81
g1182
sg74
(lp1194
S':'
asbag67
(g88
g69
NtRp1195
(dp1196
g72
(dp1197
sg81
g1182
sg74
(lp1198
g67
(g68
g69
NtRp1199
(dp1200
g72
(dp1201
g80
I4
ssg81
g1195
sg74
(lp1202
S''
asbasbasbag67
(g83
g69
NtRp1203
(dp1204
g72
(dp1205
sg81
g671
sg74
(lp1206
g67
(g88
g69
NtRp1207
(dp1208
g72
(dp1209
g92
g93
ssg81
g1203
sg74
(lp1210
S'remote_addr'
p1211
asbag67
(g88
g69
NtRp1212
(dp1213
g72
(dp1214
g99
g100
ssg81
g1203
sg74
(lp1215
S':'
asbag67
(g88
g69
NtRp1216
(dp1217
g72
(dp1218
sg81
g1203
sg74
(lp1219
g67
(g68
g69
NtRp1220
(dp1221
g72
(dp1222
g80
I4
ssg81
g1216
sg74
(lp1223
g222
asbasbasbag67
(g83
g69
NtRp1224
(dp1225
g72
(dp1226
sg81
g671
sg74
(lp1227
g67
(g88
g69
NtRp1228
(dp1229
g72
(dp1230
g92
g93
ssg81
g1224
sg74
(lp1231
S'remote_port'
p1232
asbag67
(g88
g69
NtRp1233
(dp1234
g72
(dp1235
g99
g100
ssg81
g1224
sg74
(lp1236
S':'
asbag67
(g88
g69
NtRp1237
(dp1238
g72
(dp1239
sg81
g1224
sg74
(lp1240
g67
(g68
g69
NtRp1241
(dp1242
g72
(dp1243
g80
I4
ssg81
g1237
sg74
(lp1244
S'46983'
p1245
asbasbasbag67
(g83
g69
NtRp1246
(dp1247
g72
(dp1248
sg81
g671
sg74
(lp1249
g67
(g88
g69
NtRp1250
(dp1251
g72
(dp1252
g92
g93
ssg81
g1246
sg74
(lp1253
S'request_method'
p1254
asbag67
(g88
g69
NtRp1255
(dp1256
g72
(dp1257
g99
g100
ssg81
g1246
sg74
(lp1258
S':'
asbag67
(g88
g69
NtRp1259
(dp1260
g72
(dp1261
sg81
g1246
sg74
(lp1262
g67
(g68
g69
NtRp1263
(dp1264
g72
(dp1265
g80
I4
ssg81
g1259
sg74
(lp1266
S'GET'
p1267
asbasbasbag67
(g83
g69
NtRp1268
(dp1269
g72
(dp1270
sg81
g671
sg74
(lp1271
g67
(g88
g69
NtRp1272
(dp1273
g72
(dp1274
g92
g93
ssg81
g1268
sg74
(lp1275
S'request_uri'
p1276
asbag67
(g88
g69
NtRp1277
(dp1278
g72
(dp1279
g99
g100
ssg81
g1268
sg74
(lp1280
S':'
asbag67
(g88
g69
NtRp1281
(dp1282
g72
(dp1283
sg81
g1268
sg74
(lp1284
g67
(g68
g69
NtRp1285
(dp1286
g72
(dp1287
g80
I4
ssg81
g1281
sg74
(lp1288
S'/projeto/initial/home'
p1289
asbasbasbag67
(g83
g69
NtRp1290
(dp1291
g72
(dp1292
sg81
g671
sg74
(lp1293
g67
(g88
g69
NtRp1294
(dp1295
g72
(dp1296
g92
g93
ssg81
g1290
sg74
(lp1297
S'script_name'
p1298
asbag67
(g88
g69
NtRp1299
(dp1300
g72
(dp1301
g99
g100
ssg81
g1290
sg74
(lp1302
S':'
asbag67
(g88
g69
NtRp1303
(dp1304
g72
(dp1305
sg81
g1290
sg74
(lp1306
g67
(g68
g69
NtRp1307
(dp1308
g72
(dp1309
g80
I4
ssg81
g1303
sg74
(lp1310
S''
asbasbasbag67
(g83
g69
NtRp1311
(dp1312
g72
(dp1313
sg81
g671
sg74
(lp1314
g67
(g88
g69
NtRp1315
(dp1316
g72
(dp1317
g92
g93
ssg81
g1311
sg74
(lp1318
S'server_name'
p1319
asbag67
(g88
g69
NtRp1320
(dp1321
g72
(dp1322
g99
g100
ssg81
g1311
sg74
(lp1323
S':'
asbag67
(g88
g69
NtRp1324
(dp1325
g72
(dp1326
sg81
g1311
sg74
(lp1327
g67
(g68
g69
NtRp1328
(dp1329
g72
(dp1330
g80
I4
ssg81
g1324
sg74
(lp1331
S'fernando-pc'
p1332
asbasbasbag67
(g83
g69
NtRp1333
(dp1334
g72
(dp1335
sg81
g671
sg74
(lp1336
g67
(g88
g69
NtRp1337
(dp1338
g72
(dp1339
g92
g93
ssg81
g1333
sg74
(lp1340
S'server_port'
p1341
asbag67
(g88
g69
NtRp1342
(dp1343
g72
(dp1344
g99
g100
ssg81
g1333
sg74
(lp1345
S':'
asbag67
(g88
g69
NtRp1346
(dp1347
g72
(dp1348
sg81
g1333
sg74
(lp1349
g67
(g68
g69
NtRp1350
(dp1351
g72
(dp1352
g80
I4
ssg81
g1346
sg74
(lp1353
S'8000'
p1354
asbasbasbag67
(g83
g69
NtRp1355
(dp1356
g72
(dp1357
sg81
g671
sg74
(lp1358
g67
(g88
g69
NtRp1359
(dp1360
g72
(dp1361
g92
g93
ssg81
g1355
sg74
(lp1362
S'server_protocol'
p1363
asbag67
(g88
g69
NtRp1364
(dp1365
g72
(dp1366
g99
g100
ssg81
g1355
sg74
(lp1367
S':'
asbag67
(g88
g69
NtRp1368
(dp1369
g72
(dp1370
sg81
g1355
sg74
(lp1371
g67
(g68
g69
NtRp1372
(dp1373
g72
(dp1374
g80
I4
ssg81
g1368
sg74
(lp1375
S'HTTP/1.1'
p1376
asbasbasbag67
(g83
g69
NtRp1377
(dp1378
g72
(dp1379
sg81
g671
sg74
(lp1380
g67
(g88
g69
NtRp1381
(dp1382
g72
(dp1383
g92
g93
ssg81
g1377
sg74
(lp1384
S'server_software'
p1385
asbag67
(g88
g69
NtRp1386
(dp1387
g72
(dp1388
g99
g100
ssg81
g1377
sg74
(lp1389
S':'
asbag67
(g88
g69
NtRp1390
(dp1391
g72
(dp1392
sg81
g1377
sg74
(lp1393
g67
(g68
g69
NtRp1394
(dp1395
g72
(dp1396
g80
I4
ssg81
g1390
sg74
(lp1397
S'Rocket 1.2.6'
p1398
asbasbasbag67
(g83
g69
NtRp1399
(dp1400
g72
(dp1401
sg81
g671
sg74
(lp1402
g67
(g88
g69
NtRp1403
(dp1404
g72
(dp1405
g92
g93
ssg81
g1399
sg74
(lp1406
S'web2py_original_uri'
p1407
asbag67
(g88
g69
NtRp1408
(dp1409
g72
(dp1410
g99
g100
ssg81
g1399
sg74
(lp1411
S':'
asbag67
(g88
g69
NtRp1412
(dp1413
g72
(dp1414
sg81
g1399
sg74
(lp1415
g67
(g68
g69
NtRp1416
(dp1417
g72
(dp1418
g80
I4
ssg81
g1412
sg74
(lp1419
S'/'
asbasbasbag67
(g83
g69
NtRp1420
(dp1421
g72
(dp1422
sg81
g671
sg74
(lp1423
g67
(g88
g69
NtRp1424
(dp1425
g72
(dp1426
g92
g93
ssg81
g1420
sg74
(lp1427
S'web2py_path'
p1428
asbag67
(g88
g69
NtRp1429
(dp1430
g72
(dp1431
g99
g100
ssg81
g1420
sg74
(lp1432
S':'
asbag67
(g88
g69
NtRp1433
(dp1434
g72
(dp1435
sg81
g1420
sg74
(lp1436
g67
(g68
g69
NtRp1437
(dp1438
g72
(dp1439
g80
I4
ssg81
g1433
sg74
(lp1440
g718
asbasbasbag67
(g83
g69
NtRp1441
(dp1442
g72
(dp1443
sg81
g671
sg74
(lp1444
g67
(g88
g69
NtRp1445
(dp1446
g72
(dp1447
g92
g93
ssg81
g1441
sg74
(lp1448
S'web2py_version'
p1449
asbag67
(g88
g69
NtRp1450
(dp1451
g72
(dp1452
g99
g100
ssg81
g1441
sg74
(lp1453
S':'
asbag67
(g88
g69
NtRp1454
(dp1455
g72
(dp1456
sg81
g1441
sg74
(lp1457
g67
(g68
g69
NtRp1458
(dp1459
g72
(dp1460
g80
I4
ssg81
g1454
sg74
(lp1461
g67
(g76
g69
NtRp1462
(dp1463
g72
(dp1464
g80
I3
ssg81
Nsg74
(lp1465
g67
(g83
g69
NtRp1466
(dp1467
g72
(dp1468
sg81
g1462
sg74
(lp1469
g67
(g88
g69
NtRp1470
(dp1471
g72
(dp1472
sg81
g1466
sg74
(lp1473
g67
(g68
g69
NtRp1474
(dp1475
g72
(dp1476
g80
I3
ssg81
g1470
sg74
(lp1477
S'2'
asbasbasbag67
(g83
g69
NtRp1478
(dp1479
g72
(dp1480
sg81
g1462
sg74
(lp1481
g67
(g88
g69
NtRp1482
(dp1483
g72
(dp1484
sg81
g1478
sg74
(lp1485
g67
(g68
g69
NtRp1486
(dp1487
g72
(dp1488
g80
I3
ssg81
g1482
sg74
(lp1489
S'3'
asbasbasbag67
(g83
g69
NtRp1490
(dp1491
g72
(dp1492
sg81
g1462
sg74
(lp1493
g67
(g88
g69
NtRp1494
(dp1495
g72
(dp1496
sg81
g1490
sg74
(lp1497
g67
(g68
g69
NtRp1498
(dp1499
g72
(dp1500
g80
I3
ssg81
g1494
sg74
(lp1501
S'2'
asbasbasbag67
(g83
g69
NtRp1502
(dp1503
g72
(dp1504
sg81
g1462
sg74
(lp1505
g67
(g88
g69
NtRp1506
(dp1507
g72
(dp1508
sg81
g1502
sg74
(lp1509
g67
(g68
g69
NtRp1510
(dp1511
g72
(dp1512
g80
I3
ssg81
g1506
sg74
(lp1513
S'datetime.datetime(2012, 12, 17, 15, 3, 30)'
p1514
asbasbasbag67
(g83
g69
NtRp1515
(dp1516
g72
(dp1517
sg81
g1462
sg74
(lp1518
g67
(g88
g69
NtRp1519
(dp1520
g72
(dp1521
sg81
g1515
sg74
(lp1522
g67
(g68
g69
NtRp1523
(dp1524
g72
(dp1525
g80
I3
ssg81
g1519
sg74
(lp1526
S'stable'
p1527
asbasbasbasbasbasbasbag67
(g83
g69
NtRp1528
(dp1529
g72
(dp1530
sg81
g671
sg74
(lp1531
g67
(g88
g69
NtRp1532
(dp1533
g72
(dp1534
g92
g93
ssg81
g1528
sg74
(lp1535
S'wsgi_errors'
p1536
asbag67
(g88
g69
NtRp1537
(dp1538
g72
(dp1539
g99
g100
ssg81
g1528
sg74
(lp1540
S':'
asbag67
(g88
g69
NtRp1541
(dp1542
g72
(dp1543
sg81
g1528
sg74
(lp1544
g67
(g68
g69
NtRp1545
(dp1546
g72
(dp1547
g80
I4
ssg81
g1541
sg74
(lp1548
S"<open file '<stderr>', mode 'w' at 0x7fe5e28a2270>"
p1549
asbasbasbag67
(g83
g69
NtRp1550
(dp1551
g72
(dp1552
sg81
g671
sg74
(lp1553
g67
(g88
g69
NtRp1554
(dp1555
g72
(dp1556
g92
g93
ssg81
g1550
sg74
(lp1557
S'wsgi_file_wrapper'
p1558
asbag67
(g88
g69
NtRp1559
(dp1560
g72
(dp1561
g99
g100
ssg81
g1550
sg74
(lp1562
S':'
asbag67
(g88
g69
NtRp1563
(dp1564
g72
(dp1565
sg81
g1550
sg74
(lp1566
g67
(g68
g69
NtRp1567
(dp1568
g72
(dp1569
g80
I4
ssg81
g1563
sg74
(lp1570
S'<class wsgiref.util.FileWrapper at 0x33c4808>'
p1571
asbasbasbag67
(g83
g69
NtRp1572
(dp1573
g72
(dp1574
sg81
g671
sg74
(lp1575
g67
(g88
g69
NtRp1576
(dp1577
g72
(dp1578
g92
g93
ssg81
g1572
sg74
(lp1579
S'wsgi_input'
p1580
asbag67
(g88
g69
NtRp1581
(dp1582
g72
(dp1583
g99
g100
ssg81
g1572
sg74
(lp1584
S':'
asbag67
(g88
g69
NtRp1585
(dp1586
g72
(dp1587
sg81
g1572
sg74
(lp1588
g67
(g68
g69
NtRp1589
(dp1590
g72
(dp1591
g80
I4
ssg81
g1585
sg74
(lp1592
S'<socket._fileobject object at 0x7fe5cc18a8d0>'
p1593
asbasbasbag67
(g83
g69
NtRp1594
(dp1595
g72
(dp1596
sg81
g671
sg74
(lp1597
g67
(g88
g69
NtRp1598
(dp1599
g72
(dp1600
g92
g93
ssg81
g1594
sg74
(lp1601
S'wsgi_multiprocess'
p1602
asbag67
(g88
g69
NtRp1603
(dp1604
g72
(dp1605
g99
g100
ssg81
g1594
sg74
(lp1606
S':'
asbag67
(g88
g69
NtRp1607
(dp1608
g72
(dp1609
sg81
g1594
sg74
(lp1610
g67
(g68
g69
NtRp1611
(dp1612
g72
(dp1613
g80
I4
ssg81
g1607
sg74
(lp1614
g110
asbasbasbag67
(g83
g69
NtRp1615
(dp1616
g72
(dp1617
sg81
g671
sg74
(lp1618
g67
(g88
g69
NtRp1619
(dp1620
g72
(dp1621
g92
g93
ssg81
g1615
sg74
(lp1622
S'wsgi_multithread'
p1623
asbag67
(g88
g69
NtRp1624
(dp1625
g72
(dp1626
g99
g100
ssg81
g1615
sg74
(lp1627
S':'
asbag67
(g88
g69
NtRp1628
(dp1629
g72
(dp1630
sg81
g1615
sg74
(lp1631
g67
(g68
g69
NtRp1632
(dp1633
g72
(dp1634
g80
I4
ssg81
g1628
sg74
(lp1635
S'True'
p1636
asbasbasbag67
(g83
g69
NtRp1637
(dp1638
g72
(dp1639
sg81
g671
sg74
(lp1640
g67
(g88
g69
NtRp1641
(dp1642
g72
(dp1643
g92
g93
ssg81
g1637
sg74
(lp1644
S'wsgi_run_once'
p1645
asbag67
(g88
g69
NtRp1646
(dp1647
g72
(dp1648
g99
g100
ssg81
g1637
sg74
(lp1649
S':'
asbag67
(g88
g69
NtRp1650
(dp1651
g72
(dp1652
sg81
g1637
sg74
(lp1653
g67
(g68
g69
NtRp1654
(dp1655
g72
(dp1656
g80
I4
ssg81
g1650
sg74
(lp1657
g110
asbasbasbag67
(g83
g69
NtRp1658
(dp1659
g72
(dp1660
sg81
g671
sg74
(lp1661
g67
(g88
g69
NtRp1662
(dp1663
g72
(dp1664
g92
g93
ssg81
g1658
sg74
(lp1665
S'wsgi_url_scheme'
p1666
asbag67
(g88
g69
NtRp1667
(dp1668
g72
(dp1669
g99
g100
ssg81
g1658
sg74
(lp1670
S':'
asbag67
(g88
g69
NtRp1671
(dp1672
g72
(dp1673
sg81
g1658
sg74
(lp1674
g67
(g68
g69
NtRp1675
(dp1676
g72
(dp1677
g80
I4
ssg81
g1671
sg74
(lp1678
S'http'
p1679
asbasbasbag67
(g83
g69
NtRp1680
(dp1681
g72
(dp1682
sg81
g671
sg74
(lp1683
g67
(g88
g69
NtRp1684
(dp1685
g72
(dp1686
g92
g93
ssg81
g1680
sg74
(lp1687
S'wsgi_version'
p1688
asbag67
(g88
g69
NtRp1689
(dp1690
g72
(dp1691
g99
g100
ssg81
g1680
sg74
(lp1692
S':'
asbag67
(g88
g69
NtRp1693
(dp1694
g72
(dp1695
sg81
g1680
sg74
(lp1696
g67
(g68
g69
NtRp1697
(dp1698
g72
(dp1699
g80
I4
ssg81
g1693
sg74
(lp1700
g67
(g76
g69
NtRp1701
(dp1702
g72
(dp1703
g80
I3
ssg81
Nsg74
(lp1704
g67
(g83
g69
NtRp1705
(dp1706
g72
(dp1707
sg81
g1701
sg74
(lp1708
g67
(g88
g69
NtRp1709
(dp1710
g72
(dp1711
sg81
g1705
sg74
(lp1712
g67
(g68
g69
NtRp1713
(dp1714
g72
(dp1715
g80
I3
ssg81
g1709
sg74
(lp1716
S'1'
asbasbasbag67
(g83
g69
NtRp1717
(dp1718
g72
(dp1719
sg81
g1701
sg74
(lp1720
g67
(g88
g69
NtRp1721
(dp1722
g72
(dp1723
sg81
g1717
sg74
(lp1724
g67
(g68
g69
NtRp1725
(dp1726
g72
(dp1727
g80
I3
ssg81
g1721
sg74
(lp1728
S'0'
asbasbasbasbasbasbasbasbasbasbasbag67
(g83
g69
NtRp1729
(dp1730
g72
(dp1731
sg81
g77
sg74
(lp1732
g67
(g88
g69
NtRp1733
(dp1734
g72
(dp1735
g92
g93
ssg81
g1729
sg74
(lp1736
S'extension'
p1737
asbag67
(g88
g69
NtRp1738
(dp1739
g72
(dp1740
g99
g100
ssg81
g1729
sg74
(lp1741
S':'
asbag67
(g88
g69
NtRp1742
(dp1743
g72
(dp1744
sg81
g1729
sg74
(lp1745
g67
(g68
g69
NtRp1746
(dp1747
g72
(dp1748
g80
I5
ssg81
g1742
sg74
(lp1749
S'html'
p1750
asbasbasbag67
(g83
g69
NtRp1751
(dp1752
g72
(dp1753
sg81
g77
sg74
(lp1754
g67
(g88
g69
NtRp1755
(dp1756
g72
(dp1757
g92
g93
ssg81
g1751
sg74
(lp1758
S'folder'
p1759
asbag67
(g88
g69
NtRp1760
(dp1761
g72
(dp1762
g99
g100
ssg81
g1751
sg74
(lp1763
S':'
asbag67
(g88
g69
NtRp1764
(dp1765
g72
(dp1766
sg81
g1751
sg74
(lp1767
g67
(g68
g69
NtRp1768
(dp1769
g72
(dp1770
g80
I5
ssg81
g1764
sg74
(lp1771
S'/var/www/web2py_curso/applications/projeto/'
p1772
asbasbasbag67
(g83
g69
NtRp1773
(dp1774
g72
(dp1775
sg81
g77
sg74
(lp1776
g67
(g88
g69
NtRp1777
(dp1778
g72
(dp1779
g92
g93
ssg81
g1773
sg74
(lp1780
S'function'
p1781
asbag67
(g88
g69
NtRp1782
(dp1783
g72
(dp1784
g99
g100
ssg81
g1773
sg74
(lp1785
S':'
asbag67
(g88
g69
NtRp1786
(dp1787
g72
(dp1788
sg81
g1773
sg74
(lp1789
g67
(g68
g69
NtRp1790
(dp1791
g72
(dp1792
g80
I5
ssg81
g1786
sg74
(lp1793
S'home'
p1794
asbasbasbag67
(g83
g69
NtRp1795
(dp1796
g72
(dp1797
sg81
g77
sg74
(lp1798
g67
(g88
g69
NtRp1799
(dp1800
g72
(dp1801
g92
g93
ssg81
g1795
sg74
(lp1802
S'get_vars'
p1803
asbag67
(g88
g69
NtRp1804
(dp1805
g72
(dp1806
g99
g100
ssg81
g1795
sg74
(lp1807
S':'
asbag67
(g88
g69
NtRp1808
(dp1809
g72
(dp1810
sg81
g1795
sg74
(lp1811
g67
(g68
g69
NtRp1812
(dp1813
g72
(dp1814
g80
I5
ssg81
g1808
sg74
(lp1815
g67
(g76
g69
NtRp1816
(dp1817
g72
(dp1818
g80
I4
ssg81
Nsg74
(lp1819
sbasbasbasbag67
(g83
g69
NtRp1820
(dp1821
g72
(dp1822
sg81
g77
sg74
(lp1823
g67
(g88
g69
NtRp1824
(dp1825
g72
(dp1826
g92
g93
ssg81
g1820
sg74
(lp1827
S'global_settings'
p1828
asbag67
(g88
g69
NtRp1829
(dp1830
g72
(dp1831
g99
g100
ssg81
g1820
sg74
(lp1832
S':'
asbag67
(g88
g69
NtRp1833
(dp1834
g72
(dp1835
sg81
g1820
sg74
(lp1836
g67
(g68
g69
NtRp1837
(dp1838
g72
(dp1839
g80
I5
ssg81
g1833
sg74
(lp1840
g67
(g76
g69
NtRp1841
(dp1842
g72
(dp1843
g80
I4
ssg81
Nsg74
(lp1844
g67
(g83
g69
NtRp1845
(dp1846
g72
(dp1847
sg81
g1841
sg74
(lp1848
g67
(g88
g69
NtRp1849
(dp1850
g72
(dp1851
g92
g93
ssg81
g1845
sg74
(lp1852
g683
asbag67
(g88
g69
NtRp1853
(dp1854
g72
(dp1855
g99
g100
ssg81
g1845
sg74
(lp1856
S':'
asbag67
(g88
g69
NtRp1857
(dp1858
g72
(dp1859
sg81
g1845
sg74
(lp1860
g67
(g68
g69
NtRp1861
(dp1862
g72
(dp1863
g80
I4
ssg81
g1857
sg74
(lp1864
S"set(['/var/www/web2py_curso/applications/projeto/'])"
p1865
asbasbasbag67
(g83
g69
NtRp1866
(dp1867
g72
(dp1868
sg81
g1841
sg74
(lp1869
g67
(g88
g69
NtRp1870
(dp1871
g72
(dp1872
g92
g93
ssg81
g1866
sg74
(lp1873
g705
asbag67
(g88
g69
NtRp1874
(dp1875
g72
(dp1876
g99
g100
ssg81
g1866
sg74
(lp1877
S':'
asbag67
(g88
g69
NtRp1878
(dp1879
g72
(dp1880
sg81
g1866
sg74
(lp1881
g67
(g68
g69
NtRp1882
(dp1883
g72
(dp1884
g80
I4
ssg81
g1878
sg74
(lp1885
g718
asbasbasbag67
(g83
g69
NtRp1886
(dp1887
g72
(dp1888
sg81
g1841
sg74
(lp1889
g67
(g88
g69
NtRp1890
(dp1891
g72
(dp1892
g92
g93
ssg81
g1886
sg74
(lp1893
g727
asbag67
(g88
g69
NtRp1894
(dp1895
g72
(dp1896
g99
g100
ssg81
g1886
sg74
(lp1897
S':'
asbag67
(g88
g69
NtRp1898
(dp1899
g72
(dp1900
sg81
g1886
sg74
(lp1901
g67
(g68
g69
NtRp1902
(dp1903
g72
(dp1904
g80
I4
ssg81
g1898
sg74
(lp1905
g67
(g76
g69
NtRp1906
(dp1907
g72
(dp1908
g80
I3
ssg81
Nsg74
(lp1909
sbasbasbasbag67
(g83
g69
NtRp1910
(dp1911
g72
(dp1912
sg81
g1841
sg74
(lp1913
g67
(g88
g69
NtRp1914
(dp1915
g72
(dp1916
g92
g93
ssg81
g1910
sg74
(lp1917
g752
asbag67
(g88
g69
NtRp1918
(dp1919
g72
(dp1920
g99
g100
ssg81
g1910
sg74
(lp1921
S':'
asbag67
(g88
g69
NtRp1922
(dp1923
g72
(dp1924
sg81
g1910
sg74
(lp1925
g67
(g68
g69
NtRp1926
(dp1927
g72
(dp1928
g80
I4
ssg81
g1922
sg74
(lp1929
S"<Values at 0x3476a28: {'verbose': False, 'ip': '127.0.0.1', 'with_scheduler': False, 'ips': [], 'shutdown_timeout': 5, 'taskbar': False, 'port': 8000, 'maxthreads': None, 'softcron': False, 'server_name': 'fernando-pc', 'bpython': False, 'nogui': False, 'pid_filename': 'httpserver.pid', 'extcron': False, 'runcron': False, 'run_system_tests': False, 'test': None, 'folder': '/var/www/web2py_curso', 'config': '', 'minthreads': None, 'winservice': '', 'shell': None, 'run': '', 'log_filename': 'httpserver.log', 'debuglevel': 30, 'args': [''], 'socket_timeout': 5, 'ssl_ca_certificate': None, 'scheduler': None, 'profiler_filename': None, 'ssl_private_key': '', 'scheduler_groups': None, 'password': '123456', 'request_queue_size': 5, 'ssl_certificate': '', 'cronjob': False, 'numthreads': None, 'quiet': False, 'interfaces': None, 'import_models': False, 'timeout': 10, 'plain': False, 'nobanner': False}>"
p1930
asbasbasbag67
(g83
g69
NtRp1931
(dp1932
g72
(dp1933
sg81
g1841
sg74
(lp1934
g67
(g88
g69
NtRp1935
(dp1936
g72
(dp1937
g92
g93
ssg81
g1931
sg74
(lp1938
g774
asbag67
(g88
g69
NtRp1939
(dp1940
g72
(dp1941
g99
g100
ssg81
g1931
sg74
(lp1942
S':'
asbag67
(g88
g69
NtRp1943
(dp1944
g72
(dp1945
sg81
g1931
sg74
(lp1946
g67
(g68
g69
NtRp1947
(dp1948
g72
(dp1949
g80
I4
ssg81
g1943
sg74
(lp1950
S'set([])'
p1951
asbasbasbag67
(g83
g69
NtRp1952
(dp1953
g72
(dp1954
sg81
g1841
sg74
(lp1955
g67
(g88
g69
NtRp1956
(dp1957
g72
(dp1958
g92
g93
ssg81
g1952
sg74
(lp1959
g796
asbag67
(g88
g69
NtRp1960
(dp1961
g72
(dp1962
g99
g100
ssg81
g1952
sg74
(lp1963
S':'
asbag67
(g88
g69
NtRp1964
(dp1965
g72
(dp1966
sg81
g1952
sg74
(lp1967
g67
(g68
g69
NtRp1968
(dp1969
g72
(dp1970
g80
I4
ssg81
g1964
sg74
(lp1971
g110
asbasbasbag67
(g83
g69
NtRp1972
(dp1973
g72
(dp1974
sg81
g1841
sg74
(lp1975
g67
(g88
g69
NtRp1976
(dp1977
g72
(dp1978
g92
g93
ssg81
g1972
sg74
(lp1979
g817
asbag67
(g88
g69
NtRp1980
(dp1981
g72
(dp1982
g99
g100
ssg81
g1972
sg74
(lp1983
S':'
asbag67
(g88
g69
NtRp1984
(dp1985
g72
(dp1986
sg81
g1972
sg74
(lp1987
g67
(g68
g69
NtRp1988
(dp1989
g72
(dp1990
g80
I4
ssg81
g1984
sg74
(lp1991
g830
asbasbasbag67
(g83
g69
NtRp1992
(dp1993
g72
(dp1994
sg81
g1841
sg74
(lp1995
g67
(g88
g69
NtRp1996
(dp1997
g72
(dp1998
g92
g93
ssg81
g1992
sg74
(lp1999
g1037
asbag67
(g88
g69
NtRp2000
(dp2001
g72
(dp2002
g99
g100
ssg81
g1992
sg74
(lp2003
S':'
asbag67
(g88
g69
NtRp2004
(dp2005
g72
(dp2006
sg81
g1992
sg74
(lp2007
g67
(g68
g69
NtRp2008
(dp2009
g72
(dp2010
g80
I4
ssg81
g2004
sg74
(lp2011
g110
asbasbasbag67
(g83
g69
NtRp2012
(dp2013
g72
(dp2014
sg81
g1841
sg74
(lp2015
g67
(g88
g69
NtRp2016
(dp2017
g72
(dp2018
g92
g93
ssg81
g2012
sg74
(lp2019
g1058
asbag67
(g88
g69
NtRp2020
(dp2021
g72
(dp2022
g99
g100
ssg81
g2012
sg74
(lp2023
S':'
asbag67
(g88
g69
NtRp2024
(dp2025
g72
(dp2026
sg81
g2012
sg74
(lp2027
g67
(g68
g69
NtRp2028
(dp2029
g72
(dp2030
g80
I4
ssg81
g2024
sg74
(lp2031
g110
asbasbasbag67
(g83
g69
NtRp2032
(dp2033
g72
(dp2034
sg81
g1841
sg74
(lp2035
g67
(g88
g69
NtRp2036
(dp2037
g72
(dp2038
g92
g93
ssg81
g2032
sg74
(lp2039
g1079
asbag67
(g88
g69
NtRp2040
(dp2041
g72
(dp2042
g99
g100
ssg81
g2032
sg74
(lp2043
S':'
asbag67
(g88
g69
NtRp2044
(dp2045
g72
(dp2046
sg81
g2032
sg74
(lp2047
g67
(g68
g69
NtRp2048
(dp2049
g72
(dp2050
g80
I4
ssg81
g2044
sg74
(lp2051
g67
(g76
g69
NtRp2052
(dp2053
g72
(dp2054
g80
I3
ssg81
Nsg74
(lp2055
g67
(g83
g69
NtRp2056
(dp2057
g72
(dp2058
sg81
g2052
sg74
(lp2059
g67
(g88
g69
NtRp2060
(dp2061
g72
(dp2062
sg81
g2056
sg74
(lp2063
g67
(g68
g69
NtRp2064
(dp2065
g72
(dp2066
g80
I3
ssg81
g2060
sg74
(lp2067
g1108
asbasbasbag67
(g83
g69
NtRp2068
(dp2069
g72
(dp2070
sg81
g2052
sg74
(lp2071
g67
(g88
g69
NtRp2072
(dp2073
g72
(dp2074
sg81
g2068
sg74
(lp2075
g67
(g68
g69
NtRp2076
(dp2077
g72
(dp2078
g80
I3
ssg81
g2072
sg74
(lp2079
g1121
asbasbasbag67
(g83
g69
NtRp2080
(dp2081
g72
(dp2082
sg81
g2052
sg74
(lp2083
g67
(g88
g69
NtRp2084
(dp2085
g72
(dp2086
sg81
g2080
sg74
(lp2087
g67
(g68
g69
NtRp2088
(dp2089
g72
(dp2090
g80
I3
ssg81
g2084
sg74
(lp2091
g1134
asbasbasbag67
(g83
g69
NtRp2092
(dp2093
g72
(dp2094
sg81
g2052
sg74
(lp2095
g67
(g88
g69
NtRp2096
(dp2097
g72
(dp2098
sg81
g2092
sg74
(lp2099
g67
(g68
g69
NtRp2100
(dp2101
g72
(dp2102
g80
I3
ssg81
g2096
sg74
(lp2103
g1147
asbasbasbag67
(g83
g69
NtRp2104
(dp2105
g72
(dp2106
sg81
g2052
sg74
(lp2107
g67
(g88
g69
NtRp2108
(dp2109
g72
(dp2110
sg81
g2104
sg74
(lp2111
g67
(g68
g69
NtRp2112
(dp2113
g72
(dp2114
g80
I3
ssg81
g2108
sg74
(lp2115
g1160
asbasbasbasbasbasbasbag67
(g83
g69
NtRp2116
(dp2117
g72
(dp2118
sg81
g1841
sg74
(lp2119
g67
(g88
g69
NtRp2120
(dp2121
g72
(dp2122
g92
g93
ssg81
g2116
sg74
(lp2123
g1449
asbag67
(g88
g69
NtRp2124
(dp2125
g72
(dp2126
g99
g100
ssg81
g2116
sg74
(lp2127
S':'
asbag67
(g88
g69
NtRp2128
(dp2129
g72
(dp2130
sg81
g2116
sg74
(lp2131
g67
(g68
g69
NtRp2132
(dp2133
g72
(dp2134
g80
I4
ssg81
g2128
sg74
(lp2135
g67
(g76
g69
NtRp2136
(dp2137
g72
(dp2138
g80
I3
ssg81
Nsg74
(lp2139
g67
(g83
g69
NtRp2140
(dp2141
g72
(dp2142
sg81
g2136
sg74
(lp2143
g67
(g88
g69
NtRp2144
(dp2145
g72
(dp2146
sg81
g2140
sg74
(lp2147
g67
(g68
g69
NtRp2148
(dp2149
g72
(dp2150
g80
I3
ssg81
g2144
sg74
(lp2151
S'2'
asbasbasbag67
(g83
g69
NtRp2152
(dp2153
g72
(dp2154
sg81
g2136
sg74
(lp2155
g67
(g88
g69
NtRp2156
(dp2157
g72
(dp2158
sg81
g2152
sg74
(lp2159
g67
(g68
g69
NtRp2160
(dp2161
g72
(dp2162
g80
I3
ssg81
g2156
sg74
(lp2163
S'3'
asbasbasbag67
(g83
g69
NtRp2164
(dp2165
g72
(dp2166
sg81
g2136
sg74
(lp2167
g67
(g88
g69
NtRp2168
(dp2169
g72
(dp2170
sg81
g2164
sg74
(lp2171
g67
(g68
g69
NtRp2172
(dp2173
g72
(dp2174
g80
I3
ssg81
g2168
sg74
(lp2175
S'2'
asbasbasbag67
(g83
g69
NtRp2176
(dp2177
g72
(dp2178
sg81
g2136
sg74
(lp2179
g67
(g88
g69
NtRp2180
(dp2181
g72
(dp2182
sg81
g2176
sg74
(lp2183
g67
(g68
g69
NtRp2184
(dp2185
g72
(dp2186
g80
I3
ssg81
g2180
sg74
(lp2187
S'datetime.datetime(2012, 12, 17, 15, 3, 30)'
p2188
asbasbasbag67
(g83
g69
NtRp2189
(dp2190
g72
(dp2191
sg81
g2136
sg74
(lp2192
g67
(g88
g69
NtRp2193
(dp2194
g72
(dp2195
sg81
g2189
sg74
(lp2196
g67
(g68
g69
NtRp2197
(dp2198
g72
(dp2199
g80
I3
ssg81
g2193
sg74
(lp2200
g1527
asbasbasbasbasbasbasbasbasbasbasbag67
(g83
g69
NtRp2201
(dp2202
g72
(dp2203
sg81
g77
sg74
(lp2204
g67
(g88
g69
NtRp2205
(dp2206
g72
(dp2207
g92
g93
ssg81
g2201
sg74
(lp2208
S'is_https'
p2209
asbag67
(g88
g69
NtRp2210
(dp2211
g72
(dp2212
g99
g100
ssg81
g2201
sg74
(lp2213
S':'
asbag67
(g88
g69
NtRp2214
(dp2215
g72
(dp2216
sg81
g2201
sg74
(lp2217
g67
(g68
g69
NtRp2218
(dp2219
g72
(dp2220
g80
I5
ssg81
g2214
sg74
(lp2221
g110
asbasbasbag67
(g83
g69
NtRp2222
(dp2223
g72
(dp2224
sg81
g77
sg74
(lp2225
g67
(g88
g69
NtRp2226
(dp2227
g72
(dp2228
g92
g93
ssg81
g2222
sg74
(lp2229
S'is_local'
p2230
asbag67
(g88
g69
NtRp2231
(dp2232
g72
(dp2233
g99
g100
ssg81
g2222
sg74
(lp2234
S':'
asbag67
(g88
g69
NtRp2235
(dp2236
g72
(dp2237
sg81
g2222
sg74
(lp2238
g67
(g68
g69
NtRp2239
(dp2240
g72
(dp2241
g80
I5
ssg81
g2235
sg74
(lp2242
g1636
asbasbasbag67
(g83
g69
NtRp2243
(dp2244
g72
(dp2245
sg81
g77
sg74
(lp2246
g67
(g88
g69
NtRp2247
(dp2248
g72
(dp2249
g92
g93
ssg81
g2243
sg74
(lp2250
S'is_restful'
p2251
asbag67
(g88
g69
NtRp2252
(dp2253
g72
(dp2254
g99
g100
ssg81
g2243
sg74
(lp2255
S':'
asbag67
(g88
g69
NtRp2256
(dp2257
g72
(dp2258
sg81
g2243
sg74
(lp2259
g67
(g68
g69
NtRp2260
(dp2261
g72
(dp2262
g80
I5
ssg81
g2256
sg74
(lp2263
g110
asbasbasbag67
(g83
g69
NtRp2264
(dp2265
g72
(dp2266
sg81
g77
sg74
(lp2267
g67
(g88
g69
NtRp2268
(dp2269
g72
(dp2270
g92
g93
ssg81
g2264
sg74
(lp2271
S'now'
p2272
asbag67
(g88
g69
NtRp2273
(dp2274
g72
(dp2275
g99
g100
ssg81
g2264
sg74
(lp2276
S':'
asbag67
(g88
g69
NtRp2277
(dp2278
g72
(dp2279
sg81
g2264
sg74
(lp2280
g67
(g68
g69
NtRp2281
(dp2282
g72
(dp2283
g80
I5
ssg81
g2277
sg74
(lp2284
S'datetime.datetime(2013, 2, 2, 21, 51, 34, 792780)'
p2285
asbasbasbag67
(g83
g69
NtRp2286
(dp2287
g72
(dp2288
sg81
g77
sg74
(lp2289
g67
(g88
g69
NtRp2290
(dp2291
g72
(dp2292
g92
g93
ssg81
g2286
sg74
(lp2293
S'post_vars'
p2294
asbag67
(g88
g69
NtRp2295
(dp2296
g72
(dp2297
g99
g100
ssg81
g2286
sg74
(lp2298
S':'
asbag67
(g88
g69
NtRp2299
(dp2300
g72
(dp2301
sg81
g2286
sg74
(lp2302
g67
(g68
g69
NtRp2303
(dp2304
g72
(dp2305
g80
I5
ssg81
g2299
sg74
(lp2306
g67
(g76
g69
NtRp2307
(dp2308
g72
(dp2309
g80
I4
ssg81
Nsg74
(lp2310
sbasbasbasbag67
(g83
g69
NtRp2311
(dp2312
g72
(dp2313
sg81
g77
sg74
(lp2314
g67
(g88
g69
NtRp2315
(dp2316
g72
(dp2317
g92
g93
ssg81
g2311
sg74
(lp2318
S'url'
p2319
asbag67
(g88
g69
NtRp2320
(dp2321
g72
(dp2322
g99
g100
ssg81
g2311
sg74
(lp2323
S':'
asbag67
(g88
g69
NtRp2324
(dp2325
g72
(dp2326
sg81
g2311
sg74
(lp2327
g67
(g68
g69
NtRp2328
(dp2329
g72
(dp2330
g80
I5
ssg81
g2324
sg74
(lp2331
S'/'
asbasbasbag67
(g83
g69
NtRp2332
(dp2333
g72
(dp2334
sg81
g77
sg74
(lp2335
g67
(g88
g69
NtRp2336
(dp2337
g72
(dp2338
g92
g93
ssg81
g2332
sg74
(lp2339
S'utcnow'
p2340
asbag67
(g88
g69
NtRp2341
(dp2342
g72
(dp2343
g99
g100
ssg81
g2332
sg74
(lp2344
S':'
asbag67
(g88
g69
NtRp2345
(dp2346
g72
(dp2347
sg81
g2332
sg74
(lp2348
g67
(g68
g69
NtRp2349
(dp2350
g72
(dp2351
g80
I5
ssg81
g2345
sg74
(lp2352
S'datetime.datetime(2013, 2, 2, 23, 51, 34, 792805)'
p2353
asbasbasbag67
(g83
g69
NtRp2354
(dp2355
g72
(dp2356
sg81
g77
sg74
(lp2357
g67
(g88
g69
NtRp2358
(dp2359
g72
(dp2360
g92
g93
ssg81
g2354
sg74
(lp2361
S'uuid'
p2362
asbag67
(g88
g69
NtRp2363
(dp2364
g72
(dp2365
g99
g100
ssg81
g2354
sg74
(lp2366
S':'
asbag67
(g88
g69
NtRp2367
(dp2368
g72
(dp2369
sg81
g2354
sg74
(lp2370
g67
(g68
g69
NtRp2371
(dp2372
g72
(dp2373
g80
I5
ssg81
g2367
sg74
(lp2374
S'projeto/127.0.0.1.2013-02-02.21-51-34.7677f0e8-a5b1-4753-802b-4ca02cc09198'
p2375
asbasbasbag67
(g83
g69
NtRp2376
(dp2377
g72
(dp2378
sg81
g77
sg74
(lp2379
g67
(g88
g69
NtRp2380
(dp2381
g72
(dp2382
g92
g93
ssg81
g2376
sg74
(lp2383
S'vars'
p2384
asbag67
(g88
g69
NtRp2385
(dp2386
g72
(dp2387
g99
g100
ssg81
g2376
sg74
(lp2388
S':'
asbag67
(g88
g69
NtRp2389
(dp2390
g72
(dp2391
sg81
g2376
sg74
(lp2392
g67
(g68
g69
NtRp2393
(dp2394
g72
(dp2395
g80
I5
ssg81
g2389
sg74
(lp2396
g67
(g76
g69
NtRp2397
(dp2398
g72
(dp2399
g80
I4
ssg81
Nsg74
(lp2400
sbasbasbasbag67
(g83
g69
NtRp2401
(dp2402
g72
(dp2403
sg81
g77
sg74
(lp2404
g67
(g88
g69
NtRp2405
(dp2406
g72
(dp2407
g92
g93
ssg81
g2401
sg74
(lp2408
S'wsgi'
p2409
asbag67
(g88
g69
NtRp2410
(dp2411
g72
(dp2412
g99
g100
ssg81
g2401
sg74
(lp2413
S':'
asbag67
(g88
g69
NtRp2414
(dp2415
g72
(dp2416
sg81
g2401
sg74
(lp2417
g67
(g68
g69
NtRp2418
(dp2419
g72
(dp2420
g80
I5
ssg81
g2414
sg74
(lp2421
g67
(g76
g69
NtRp2422
(dp2423
g72
(dp2424
g80
I4
ssg81
Nsg74
(lp2425
g67
(g83
g69
NtRp2426
(dp2427
g72
(dp2428
sg81
g2422
sg74
(lp2429
g67
(g88
g69
NtRp2430
(dp2431
g72
(dp2432
g92
g93
ssg81
g2426
sg74
(lp2433
S'environ'
p2434
asbag67
(g88
g69
NtRp2435
(dp2436
g72
(dp2437
g99
g100
ssg81
g2426
sg74
(lp2438
S':'
asbag67
(g88
g69
NtRp2439
(dp2440
g72
(dp2441
sg81
g2426
sg74
(lp2442
g67
(g68
g69
NtRp2443
(dp2444
g72
(dp2445
g80
I4
ssg81
g2439
sg74
(lp2446
g67
(g76
g69
NtRp2447
(dp2448
g72
(dp2449
g80
I3
ssg81
Nsg74
(lp2450
g67
(g83
g69
NtRp2451
(dp2452
g72
(dp2453
sg81
g2447
sg74
(lp2454
g67
(g88
g69
NtRp2455
(dp2456
g72
(dp2457
g92
g93
ssg81
g2451
sg74
(lp2458
S'HTTP_ACCEPT'
p2459
asbag67
(g88
g69
NtRp2460
(dp2461
g72
(dp2462
g99
g100
ssg81
g2451
sg74
(lp2463
S':'
asbag67
(g88
g69
NtRp2464
(dp2465
g72
(dp2466
sg81
g2451
sg74
(lp2467
g67
(g68
g69
NtRp2468
(dp2469
g72
(dp2470
g80
I3
ssg81
g2464
sg74
(lp2471
g852
asbasbasbag67
(g83
g69
NtRp2472
(dp2473
g72
(dp2474
sg81
g2447
sg74
(lp2475
g67
(g88
g69
NtRp2476
(dp2477
g72
(dp2478
g92
g93
ssg81
g2472
sg74
(lp2479
S'HTTP_ACCEPT_CHARSET'
p2480
asbag67
(g88
g69
NtRp2481
(dp2482
g72
(dp2483
g99
g100
ssg81
g2472
sg74
(lp2484
S':'
asbag67
(g88
g69
NtRp2485
(dp2486
g72
(dp2487
sg81
g2472
sg74
(lp2488
g67
(g68
g69
NtRp2489
(dp2490
g72
(dp2491
g80
I3
ssg81
g2485
sg74
(lp2492
g874
asbasbasbag67
(g83
g69
NtRp2493
(dp2494
g72
(dp2495
sg81
g2447
sg74
(lp2496
g67
(g88
g69
NtRp2497
(dp2498
g72
(dp2499
g92
g93
ssg81
g2493
sg74
(lp2500
S'HTTP_ACCEPT_ENCODING'
p2501
asbag67
(g88
g69
NtRp2502
(dp2503
g72
(dp2504
g99
g100
ssg81
g2493
sg74
(lp2505
S':'
asbag67
(g88
g69
NtRp2506
(dp2507
g72
(dp2508
sg81
g2493
sg74
(lp2509
g67
(g68
g69
NtRp2510
(dp2511
g72
(dp2512
g80
I3
ssg81
g2506
sg74
(lp2513
g896
asbasbasbag67
(g83
g69
NtRp2514
(dp2515
g72
(dp2516
sg81
g2447
sg74
(lp2517
g67
(g88
g69
NtRp2518
(dp2519
g72
(dp2520
g92
g93
ssg81
g2514
sg74
(lp2521
S'HTTP_ACCEPT_LANGUAGE'
p2522
asbag67
(g88
g69
NtRp2523
(dp2524
g72
(dp2525
g99
g100
ssg81
g2514
sg74
(lp2526
S':'
asbag67
(g88
g69
NtRp2527
(dp2528
g72
(dp2529
sg81
g2514
sg74
(lp2530
g67
(g68
g69
NtRp2531
(dp2532
g72
(dp2533
g80
I3
ssg81
g2527
sg74
(lp2534
g918
asbasbasbag67
(g83
g69
NtRp2535
(dp2536
g72
(dp2537
sg81
g2447
sg74
(lp2538
g67
(g88
g69
NtRp2539
(dp2540
g72
(dp2541
g92
g93
ssg81
g2535
sg74
(lp2542
S'HTTP_CACHE_CONTROL'
p2543
asbag67
(g88
g69
NtRp2544
(dp2545
g72
(dp2546
g99
g100
ssg81
g2535
sg74
(lp2547
S':'
asbag67
(g88
g69
NtRp2548
(dp2549
g72
(dp2550
sg81
g2535
sg74
(lp2551
g67
(g68
g69
NtRp2552
(dp2553
g72
(dp2554
g80
I3
ssg81
g2548
sg74
(lp2555
g940
asbasbasbag67
(g83
g69
NtRp2556
(dp2557
g72
(dp2558
sg81
g2447
sg74
(lp2559
g67
(g88
g69
NtRp2560
(dp2561
g72
(dp2562
g92
g93
ssg81
g2556
sg74
(lp2563
S'HTTP_CONNECTION'
p2564
asbag67
(g88
g69
NtRp2565
(dp2566
g72
(dp2567
g99
g100
ssg81
g2556
sg74
(lp2568
S':'
asbag67
(g88
g69
NtRp2569
(dp2570
g72
(dp2571
sg81
g2556
sg74
(lp2572
g67
(g68
g69
NtRp2573
(dp2574
g72
(dp2575
g80
I3
ssg81
g2569
sg74
(lp2576
g962
asbasbasbag67
(g83
g69
NtRp2577
(dp2578
g72
(dp2579
sg81
g2447
sg74
(lp2580
g67
(g88
g69
NtRp2581
(dp2582
g72
(dp2583
g92
g93
ssg81
g2577
sg74
(lp2584
S'HTTP_COOKIE'
p2585
asbag67
(g88
g69
NtRp2586
(dp2587
g72
(dp2588
g99
g100
ssg81
g2577
sg74
(lp2589
S':'
asbag67
(g88
g69
NtRp2590
(dp2591
g72
(dp2592
sg81
g2577
sg74
(lp2593
g67
(g68
g69
NtRp2594
(dp2595
g72
(dp2596
g80
I3
ssg81
g2590
sg74
(lp2597
g984
asbasbasbag67
(g83
g69
NtRp2598
(dp2599
g72
(dp2600
sg81
g2447
sg74
(lp2601
g67
(g88
g69
NtRp2602
(dp2603
g72
(dp2604
g92
g93
ssg81
g2598
sg74
(lp2605
S'HTTP_HOST'
p2606
asbag67
(g88
g69
NtRp2607
(dp2608
g72
(dp2609
g99
g100
ssg81
g2598
sg74
(lp2610
S':'
asbag67
(g88
g69
NtRp2611
(dp2612
g72
(dp2613
sg81
g2598
sg74
(lp2614
g67
(g68
g69
NtRp2615
(dp2616
g72
(dp2617
g80
I3
ssg81
g2611
sg74
(lp2618
g1006
asbasbasbag67
(g83
g69
NtRp2619
(dp2620
g72
(dp2621
sg81
g2447
sg74
(lp2622
g67
(g88
g69
NtRp2623
(dp2624
g72
(dp2625
g92
g93
ssg81
g2619
sg74
(lp2626
S'HTTP_USER_AGENT'
p2627
asbag67
(g88
g69
NtRp2628
(dp2629
g72
(dp2630
g99
g100
ssg81
g2619
sg74
(lp2631
S':'
asbag67
(g88
g69
NtRp2632
(dp2633
g72
(dp2634
sg81
g2619
sg74
(lp2635
g67
(g68
g69
NtRp2636
(dp2637
g72
(dp2638
g80
I3
ssg81
g2632
sg74
(lp2639
g1028
asbasbasbag67
(g83
g69
NtRp2640
(dp2641
g72
(dp2642
sg81
g2447
sg74
(lp2643
g67
(g88
g69
NtRp2644
(dp2645
g72
(dp2646
g92
g93
ssg81
g2640
sg74
(lp2647
S'PATH_INFO'
p2648
asbag67
(g88
g69
NtRp2649
(dp2650
g72
(dp2651
g99
g100
ssg81
g2640
sg74
(lp2652
S':'
asbag67
(g88
g69
NtRp2653
(dp2654
g72
(dp2655
sg81
g2640
sg74
(lp2656
g67
(g68
g69
NtRp2657
(dp2658
g72
(dp2659
g80
I3
ssg81
g2653
sg74
(lp2660
S'/'
asbasbasbag67
(g83
g69
NtRp2661
(dp2662
g72
(dp2663
sg81
g2447
sg74
(lp2664
g67
(g88
g69
NtRp2665
(dp2666
g72
(dp2667
g92
g93
ssg81
g2661
sg74
(lp2668
S'QUERY_STRING'
p2669
asbag67
(g88
g69
NtRp2670
(dp2671
g72
(dp2672
g99
g100
ssg81
g2661
sg74
(lp2673
S':'
asbag67
(g88
g69
NtRp2674
(dp2675
g72
(dp2676
sg81
g2661
sg74
(lp2677
g67
(g68
g69
NtRp2678
(dp2679
g72
(dp2680
g80
I3
ssg81
g2674
sg74
(lp2681
S''
asbasbasbag67
(g83
g69
NtRp2682
(dp2683
g72
(dp2684
sg81
g2447
sg74
(lp2685
g67
(g88
g69
NtRp2686
(dp2687
g72
(dp2688
g92
g93
ssg81
g2682
sg74
(lp2689
S'REMOTE_ADDR'
p2690
asbag67
(g88
g69
NtRp2691
(dp2692
g72
(dp2693
g99
g100
ssg81
g2682
sg74
(lp2694
S':'
asbag67
(g88
g69
NtRp2695
(dp2696
g72
(dp2697
sg81
g2682
sg74
(lp2698
g67
(g68
g69
NtRp2699
(dp2700
g72
(dp2701
g80
I3
ssg81
g2695
sg74
(lp2702
g222
asbasbasbag67
(g83
g69
NtRp2703
(dp2704
g72
(dp2705
sg81
g2447
sg74
(lp2706
g67
(g88
g69
NtRp2707
(dp2708
g72
(dp2709
g92
g93
ssg81
g2703
sg74
(lp2710
S'REMOTE_PORT'
p2711
asbag67
(g88
g69
NtRp2712
(dp2713
g72
(dp2714
g99
g100
ssg81
g2703
sg74
(lp2715
S':'
asbag67
(g88
g69
NtRp2716
(dp2717
g72
(dp2718
sg81
g2703
sg74
(lp2719
g67
(g68
g69
NtRp2720
(dp2721
g72
(dp2722
g80
I3
ssg81
g2716
sg74
(lp2723
g1245
asbasbasbag67
(g83
g69
NtRp2724
(dp2725
g72
(dp2726
sg81
g2447
sg74
(lp2727
g67
(g88
g69
NtRp2728
(dp2729
g72
(dp2730
g92
g93
ssg81
g2724
sg74
(lp2731
S'REQUEST_METHOD'
p2732
asbag67
(g88
g69
NtRp2733
(dp2734
g72
(dp2735
g99
g100
ssg81
g2724
sg74
(lp2736
S':'
asbag67
(g88
g69
NtRp2737
(dp2738
g72
(dp2739
sg81
g2724
sg74
(lp2740
g67
(g68
g69
NtRp2741
(dp2742
g72
(dp2743
g80
I3
ssg81
g2737
sg74
(lp2744
g1267
asbasbasbag67
(g83
g69
NtRp2745
(dp2746
g72
(dp2747
sg81
g2447
sg74
(lp2748
g67
(g88
g69
NtRp2749
(dp2750
g72
(dp2751
g92
g93
ssg81
g2745
sg74
(lp2752
S'REQUEST_URI'
p2753
asbag67
(g88
g69
NtRp2754
(dp2755
g72
(dp2756
g99
g100
ssg81
g2745
sg74
(lp2757
S':'
asbag67
(g88
g69
NtRp2758
(dp2759
g72
(dp2760
sg81
g2745
sg74
(lp2761
g67
(g68
g69
NtRp2762
(dp2763
g72
(dp2764
g80
I3
ssg81
g2758
sg74
(lp2765
g1289
asbasbasbag67
(g83
g69
NtRp2766
(dp2767
g72
(dp2768
sg81
g2447
sg74
(lp2769
g67
(g88
g69
NtRp2770
(dp2771
g72
(dp2772
g92
g93
ssg81
g2766
sg74
(lp2773
S'SCRIPT_NAME'
p2774
asbag67
(g88
g69
NtRp2775
(dp2776
g72
(dp2777
g99
g100
ssg81
g2766
sg74
(lp2778
S':'
asbag67
(g88
g69
NtRp2779
(dp2780
g72
(dp2781
sg81
g2766
sg74
(lp2782
g67
(g68
g69
NtRp2783
(dp2784
g72
(dp2785
g80
I3
ssg81
g2779
sg74
(lp2786
S''
asbasbasbag67
(g83
g69
NtRp2787
(dp2788
g72
(dp2789
sg81
g2447
sg74
(lp2790
g67
(g88
g69
NtRp2791
(dp2792
g72
(dp2793
g92
g93
ssg81
g2787
sg74
(lp2794
S'SERVER_NAME'
p2795
asbag67
(g88
g69
NtRp2796
(dp2797
g72
(dp2798
g99
g100
ssg81
g2787
sg74
(lp2799
S':'
asbag67
(g88
g69
NtRp2800
(dp2801
g72
(dp2802
sg81
g2787
sg74
(lp2803
g67
(g68
g69
NtRp2804
(dp2805
g72
(dp2806
g80
I3
ssg81
g2800
sg74
(lp2807
g1332
asbasbasbag67
(g83
g69
NtRp2808
(dp2809
g72
(dp2810
sg81
g2447
sg74
(lp2811
g67
(g88
g69
NtRp2812
(dp2813
g72
(dp2814
g92
g93
ssg81
g2808
sg74
(lp2815
S'SERVER_PORT'
p2816
asbag67
(g88
g69
NtRp2817
(dp2818
g72
(dp2819
g99
g100
ssg81
g2808
sg74
(lp2820
S':'
asbag67
(g88
g69
NtRp2821
(dp2822
g72
(dp2823
sg81
g2808
sg74
(lp2824
g67
(g68
g69
NtRp2825
(dp2826
g72
(dp2827
g80
I3
ssg81
g2821
sg74
(lp2828
g1354
asbasbasbag67
(g83
g69
NtRp2829
(dp2830
g72
(dp2831
sg81
g2447
sg74
(lp2832
g67
(g88
g69
NtRp2833
(dp2834
g72
(dp2835
g92
g93
ssg81
g2829
sg74
(lp2836
S'SERVER_PROTOCOL'
p2837
asbag67
(g88
g69
NtRp2838
(dp2839
g72
(dp2840
g99
g100
ssg81
g2829
sg74
(lp2841
S':'
asbag67
(g88
g69
NtRp2842
(dp2843
g72
(dp2844
sg81
g2829
sg74
(lp2845
g67
(g68
g69
NtRp2846
(dp2847
g72
(dp2848
g80
I3
ssg81
g2842
sg74
(lp2849
g1376
asbasbasbag67
(g83
g69
NtRp2850
(dp2851
g72
(dp2852
sg81
g2447
sg74
(lp2853
g67
(g88
g69
NtRp2854
(dp2855
g72
(dp2856
g92
g93
ssg81
g2850
sg74
(lp2857
S'SERVER_SOFTWARE'
p2858
asbag67
(g88
g69
NtRp2859
(dp2860
g72
(dp2861
g99
g100
ssg81
g2850
sg74
(lp2862
S':'
asbag67
(g88
g69
NtRp2863
(dp2864
g72
(dp2865
sg81
g2850
sg74
(lp2866
g67
(g68
g69
NtRp2867
(dp2868
g72
(dp2869
g80
I3
ssg81
g2863
sg74
(lp2870
g1398
asbasbasbag67
(g83
g69
NtRp2871
(dp2872
g72
(dp2873
sg81
g2447
sg74
(lp2874
g67
(g88
g69
NtRp2875
(dp2876
g72
(dp2877
g92
g93
ssg81
g2871
sg74
(lp2878
S'WEB2PY_ORIGINAL_URI'
p2879
asbag67
(g88
g69
NtRp2880
(dp2881
g72
(dp2882
g99
g100
ssg81
g2871
sg74
(lp2883
S':'
asbag67
(g88
g69
NtRp2884
(dp2885
g72
(dp2886
sg81
g2871
sg74
(lp2887
g67
(g68
g69
NtRp2888
(dp2889
g72
(dp2890
g80
I3
ssg81
g2884
sg74
(lp2891
S'/'
asbasbasbag67
(g83
g69
NtRp2892
(dp2893
g72
(dp2894
sg81
g2447
sg74
(lp2895
g67
(g88
g69
NtRp2896
(dp2897
g72
(dp2898
g92
g93
ssg81
g2892
sg74
(lp2899
S'wsgi.errors'
p2900
asbag67
(g88
g69
NtRp2901
(dp2902
g72
(dp2903
g99
g100
ssg81
g2892
sg74
(lp2904
S':'
asbag67
(g88
g69
NtRp2905
(dp2906
g72
(dp2907
sg81
g2892
sg74
(lp2908
g67
(g68
g69
NtRp2909
(dp2910
g72
(dp2911
g80
I3
ssg81
g2905
sg74
(lp2912
S"<open file '<stderr>', mode 'w' at 0x7fe5e28a2270>"
p2913
asbasbasbag67
(g83
g69
NtRp2914
(dp2915
g72
(dp2916
sg81
g2447
sg74
(lp2917
g67
(g88
g69
NtRp2918
(dp2919
g72
(dp2920
g92
g93
ssg81
g2914
sg74
(lp2921
S'wsgi.file_wrapper'
p2922
asbag67
(g88
g69
NtRp2923
(dp2924
g72
(dp2925
g99
g100
ssg81
g2914
sg74
(lp2926
S':'
asbag67
(g88
g69
NtRp2927
(dp2928
g72
(dp2929
sg81
g2914
sg74
(lp2930
g67
(g68
g69
NtRp2931
(dp2932
g72
(dp2933
g80
I3
ssg81
g2927
sg74
(lp2934
S'<class wsgiref.util.FileWrapper at 0x33c4808>'
p2935
asbasbasbag67
(g83
g69
NtRp2936
(dp2937
g72
(dp2938
sg81
g2447
sg74
(lp2939
g67
(g88
g69
NtRp2940
(dp2941
g72
(dp2942
g92
g93
ssg81
g2936
sg74
(lp2943
S'wsgi.input'
p2944
asbag67
(g88
g69
NtRp2945
(dp2946
g72
(dp2947
g99
g100
ssg81
g2936
sg74
(lp2948
S':'
asbag67
(g88
g69
NtRp2949
(dp2950
g72
(dp2951
sg81
g2936
sg74
(lp2952
g67
(g68
g69
NtRp2953
(dp2954
g72
(dp2955
g80
I3
ssg81
g2949
sg74
(lp2956
S'<cStringIO.StringO object at 0x7fe5d43297d8>'
p2957
asbasbasbag67
(g83
g69
NtRp2958
(dp2959
g72
(dp2960
sg81
g2447
sg74
(lp2961
g67
(g88
g69
NtRp2962
(dp2963
g72
(dp2964
g92
g93
ssg81
g2958
sg74
(lp2965
S'wsgi.multiprocess'
p2966
asbag67
(g88
g69
NtRp2967
(dp2968
g72
(dp2969
g99
g100
ssg81
g2958
sg74
(lp2970
S':'
asbag67
(g88
g69
NtRp2971
(dp2972
g72
(dp2973
sg81
g2958
sg74
(lp2974
g67
(g68
g69
NtRp2975
(dp2976
g72
(dp2977
g80
I3
ssg81
g2971
sg74
(lp2978
g110
asbasbasbag67
(g83
g69
NtRp2979
(dp2980
g72
(dp2981
sg81
g2447
sg74
(lp2982
g67
(g88
g69
NtRp2983
(dp2984
g72
(dp2985
g92
g93
ssg81
g2979
sg74
(lp2986
S'wsgi.multithread'
p2987
asbag67
(g88
g69
NtRp2988
(dp2989
g72
(dp2990
g99
g100
ssg81
g2979
sg74
(lp2991
S':'
asbag67
(g88
g69
NtRp2992
(dp2993
g72
(dp2994
sg81
g2979
sg74
(lp2995
g67
(g68
g69
NtRp2996
(dp2997
g72
(dp2998
g80
I3
ssg81
g2992
sg74
(lp2999
g1636
asbasbasbag67
(g83
g69
NtRp3000
(dp3001
g72
(dp3002
sg81
g2447
sg74
(lp3003
g67
(g88
g69
NtRp3004
(dp3005
g72
(dp3006
g92
g93
ssg81
g3000
sg74
(lp3007
S'wsgi.run_once'
p3008
asbag67
(g88
g69
NtRp3009
(dp3010
g72
(dp3011
g99
g100
ssg81
g3000
sg74
(lp3012
S':'
asbag67
(g88
g69
NtRp3013
(dp3014
g72
(dp3015
sg81
g3000
sg74
(lp3016
g67
(g68
g69
NtRp3017
(dp3018
g72
(dp3019
g80
I3
ssg81
g3013
sg74
(lp3020
g110
asbasbasbag67
(g83
g69
NtRp3021
(dp3022
g72
(dp3023
sg81
g2447
sg74
(lp3024
g67
(g88
g69
NtRp3025
(dp3026
g72
(dp3027
g92
g93
ssg81
g3021
sg74
(lp3028
S'wsgi.url_scheme'
p3029
asbag67
(g88
g69
NtRp3030
(dp3031
g72
(dp3032
g99
g100
ssg81
g3021
sg74
(lp3033
S':'
asbag67
(g88
g69
NtRp3034
(dp3035
g72
(dp3036
sg81
g3021
sg74
(lp3037
g67
(g68
g69
NtRp3038
(dp3039
g72
(dp3040
g80
I3
ssg81
g3034
sg74
(lp3041
g1679
asbasbasbag67
(g83
g69
NtRp3042
(dp3043
g72
(dp3044
sg81
g2447
sg74
(lp3045
g67
(g88
g69
NtRp3046
(dp3047
g72
(dp3048
g92
g93
ssg81
g3042
sg74
(lp3049
S'wsgi.version'
p3050
asbag67
(g88
g69
NtRp3051
(dp3052
g72
(dp3053
g99
g100
ssg81
g3042
sg74
(lp3054
S':'
asbag67
(g88
g69
NtRp3055
(dp3056
g72
(dp3057
sg81
g3042
sg74
(lp3058
g67
(g68
g69
NtRp3059
(dp3060
g72
(dp3061
g80
I3
ssg81
g3055
sg74
(lp3062
S'1'
asbasbasbasbasbasbasbasbasbasbasbasbasbsS'frames'
p3063
(lp3064
(dp3065
S'file'
p3066
S'/var/www/web2py_curso/gluon/restricted.py'
p3067
sS'dump'
p3068
(dp3069
S'code'
p3070
S"'# coding: utf-8\\n\\ndef home():\\nposts = db(db.post)... x + y\\n\\n \\n\\nresponse._vars=response._caller(home)\\n'"
p3071
sS'layer'
p3072
S"'/var/www/web2py_curso/applications/projeto/controllers/initial.py'"
p3073
sS'global compile2'
p3074
S'<function compile2>'
p3075
sS'ccode'
p3076
S'undefined'
p3077
ssS'lnum'
p3078
I211
sS'lines'
p3079
(dp3080
I206
S"    environment['__name__'] = '__restricted__'"
p3081
sI207
S'    try:'
p3082
sI208
S'        if isinstance(code, types.CodeType):'
p3083
sI209
S'            ccode = code'
p3084
sI210
S'        else:'
p3085
sI211
S'            ccode = compile2(code, layer)'
p3086
sI212
S'        exec ccode in environment'
p3087
sI213
S'    except HTTP:'
p3088
sI214
S'        raise'
p3089
sI215
S'    except RestrictedError:'
p3090
ssS'call'
p3091
S"(code='# coding: utf-8\\n\\ndef home():\\nposts = db(db.post)... x + y\\n\\n \\n\\nresponse._vars=response._caller(home)\\n', environment={'A': <class 'gluon.html.A'>, 'Auth': <class 'gluon.tools.Auth'>, 'B': <class 'gluon.html.B'>, 'BEAUTIFY': <class 'gluon.html.BEAUTIFY'>, 'BODY': <class 'gluon.html.BODY'>, 'BR': <class 'gluon.html.BR'>, 'BUTTON': <class 'gluon.html.BUTTON'>, 'Blog': <Table blog (id,title,description)>, 'CAT': <class 'gluon.html.CAT'>, 'CENTER': <class 'gluon.html.CENTER'>, ...}, layer='/var/www/web2py_curso/applications/projeto/controllers/initial.py')"
p3092
sS'func'
p3093
S'restricted'
p3094
sa(dp3095
g3066
S'/var/www/web2py_curso/gluon/restricted.py'
p3096
sg3068
(dp3097
S'builtincompile'
p3098
S'<built-in function compile>'
p3099
sS'code'
p3100
S"'# coding: utf-8\\n\\ndef home():\\nposts = db(db.post)... x + y\\n\\n \\n\\nresponse._vars=response._caller(home)\\n'"
p3101
sS'code.rstrip'
p3102
S'<built-in method rstrip of str object>'
p3103
sS').replace'
p3104
g3077
sS'layer'
p3105
S"'/var/www/web2py_curso/applications/projeto/controllers/initial.py'"
p3106
ssg3078
I194
sg3079
(dp3107
I192
S"    The +'\\n' is necessary else compile fails when code ends in a comment."
p3108
sI193
S'    """'
p3109
sI194
S"    return compile(code.rstrip().replace('\\r\\n', '\\n') + '\\n', layer, 'exec')"
p3110
sI195
S''
sI196
S''
sI197
S"def restricted(code, environment=None, layer='Unknown'):"
p3111
sI198
S'    """'
p3112
sI189
S''
sI190
S'def compile2(code, layer):'
p3113
sI191
S'    """'
p3114
ssg3091
S"(code='# coding: utf-8\\n\\ndef home():\\nposts = db(db.post)... x + y\\n\\n \\n\\nresponse._vars=response._caller(home)\\n', layer='/var/www/web2py_curso/applications/projeto/controllers/initial.py')"
p3115
sg3093
S'compile2'
p3116
sasS'pyver'
p3117
S'Python 2.7.3: /usr/bin/python'
p3118
sS'session'
p3119
g67
(g68
g69
NtRp3120
(dp3121
g72
(dp3122
sg74
(lp3123
g67
(g76
g69
NtRp3124
(dp3125
g72
(dp3126
g80
I5
ssg81
Nsg74
(lp3127
g67
(g83
g69
NtRp3128
(dp3129
g72
(dp3130
sg81
g3124
sg74
(lp3131
g67
(g88
g69
NtRp3132
(dp3133
g72
(dp3134
g92
g93
ssg81
g3128
sg74
(lp3135
S'auth'
p3136
asbag67
(g88
g69
NtRp3137
(dp3138
g72
(dp3139
g99
g100
ssg81
g3128
sg74
(lp3140
S':'
asbag67
(g88
g69
NtRp3141
(dp3142
g72
(dp3143
sg81
g3128
sg74
(lp3144
g67
(g68
g69
NtRp3145
(dp3146
g72
(dp3147
g80
I5
ssg81
g3141
sg74
(lp3148
g67
(g76
g69
NtRp3149
(dp3150
g72
(dp3151
g80
I4
ssg81
Nsg74
(lp3152
g67
(g83
g69
NtRp3153
(dp3154
g72
(dp3155
sg81
g3149
sg74
(lp3156
g67
(g88
g69
NtRp3157
(dp3158
g72
(dp3159
g92
g93
ssg81
g3153
sg74
(lp3160
S'expiration'
p3161
asbag67
(g88
g69
NtRp3162
(dp3163
g72
(dp3164
g99
g100
ssg81
g3153
sg74
(lp3165
S':'
asbag67
(g88
g69
NtRp3166
(dp3167
g72
(dp3168
sg81
g3153
sg74
(lp3169
g67
(g68
g69
NtRp3170
(dp3171
g72
(dp3172
g80
I4
ssg81
g3166
sg74
(lp3173
S'3600'
p3174
asbasbasbag67
(g83
g69
NtRp3175
(dp3176
g72
(dp3177
sg81
g3149
sg74
(lp3178
g67
(g88
g69
NtRp3179
(dp3180
g72
(dp3181
g92
g93
ssg81
g3175
sg74
(lp3182
S'hmac_key'
p3183
asbag67
(g88
g69
NtRp3184
(dp3185
g72
(dp3186
g99
g100
ssg81
g3175
sg74
(lp3187
S':'
asbag67
(g88
g69
NtRp3188
(dp3189
g72
(dp3190
sg81
g3175
sg74
(lp3191
g67
(g68
g69
NtRp3192
(dp3193
g72
(dp3194
g80
I4
ssg81
g3188
sg74
(lp3195
S'f2fe6488-3b2b-47f7-b59b-636fa5c1979d'
p3196
asbasbasbag67
(g83
g69
NtRp3197
(dp3198
g72
(dp3199
sg81
g3149
sg74
(lp3200
g67
(g88
g69
NtRp3201
(dp3202
g72
(dp3203
g92
g93
ssg81
g3197
sg74
(lp3204
S'last_visit'
p3205
asbag67
(g88
g69
NtRp3206
(dp3207
g72
(dp3208
g99
g100
ssg81
g3197
sg74
(lp3209
S':'
asbag67
(g88
g69
NtRp3210
(dp3211
g72
(dp3212
sg81
g3197
sg74
(lp3213
g67
(g68
g69
NtRp3214
(dp3215
g72
(dp3216
g80
I4
ssg81
g3210
sg74
(lp3217
S'datetime.datetime(2013, 2, 2, 21, 51, 34, 792780)'
p3218
asbasbasbag67
(g83
g69
NtRp3219
(dp3220
g72
(dp3221
sg81
g3149
sg74
(lp3222
g67
(g88
g69
NtRp3223
(dp3224
g72
(dp3225
g92
g93
ssg81
g3219
sg74
(lp3226
S'remember'
p3227
asbag67
(g88
g69
NtRp3228
(dp3229
g72
(dp3230
g99
g100
ssg81
g3219
sg74
(lp3231
S':'
asbag67
(g88
g69
NtRp3232
(dp3233
g72
(dp3234
sg81
g3219
sg74
(lp3235
g67
(g68
g69
NtRp3236
(dp3237
g72
(dp3238
g80
I4
ssg81
g3232
sg74
(lp3239
g110
asbasbasbag67
(g83
g69
NtRp3240
(dp3241
g72
(dp3242
sg81
g3149
sg74
(lp3243
g67
(g88
g69
NtRp3244
(dp3245
g72
(dp3246
g92
g93
ssg81
g3240
sg74
(lp3247
S'user'
p3248
asbag67
(g88
g69
NtRp3249
(dp3250
g72
(dp3251
g99
g100
ssg81
g3240
sg74
(lp3252
S':'
asbag67
(g88
g69
NtRp3253
(dp3254
g72
(dp3255
sg81
g3240
sg74
(lp3256
g67
(g68
g69
NtRp3257
(dp3258
g72
(dp3259
g80
I4
ssg81
g3253
sg74
(lp3260
g67
(g76
g69
NtRp3261
(dp3262
g72
(dp3263
g80
I3
ssg81
Nsg74
(lp3264
g67
(g83
g69
NtRp3265
(dp3266
g72
(dp3267
sg81
g3261
sg74
(lp3268
g67
(g88
g69
NtRp3269
(dp3270
g72
(dp3271
g92
g93
ssg81
g3265
sg74
(lp3272
S'bio'
p3273
asbag67
(g88
g69
NtRp3274
(dp3275
g72
(dp3276
g99
g100
ssg81
g3265
sg74
(lp3277
S':'
asbag67
(g88
g69
NtRp3278
(dp3279
g72
(dp3280
sg81
g3265
sg74
(lp3281
g67
(g68
g69
NtRp3282
(dp3283
g72
(dp3284
g80
I3
ssg81
g3278
sg74
(lp3285
S'None'
p3286
asbasbasbag67
(g83
g69
NtRp3287
(dp3288
g72
(dp3289
sg81
g3261
sg74
(lp3290
g67
(g88
g69
NtRp3291
(dp3292
g72
(dp3293
g92
g93
ssg81
g3287
sg74
(lp3294
S'email'
p3295
asbag67
(g88
g69
NtRp3296
(dp3297
g72
(dp3298
g99
g100
ssg81
g3287
sg74
(lp3299
S':'
asbag67
(g88
g69
NtRp3300
(dp3301
g72
(dp3302
sg81
g3287
sg74
(lp3303
g67
(g68
g69
NtRp3304
(dp3305
g72
(dp3306
g80
I3
ssg81
g3300
sg74
(lp3307
S'fernando@ad2.com.br'
p3308
asbasbasbag67
(g83
g69
NtRp3309
(dp3310
g72
(dp3311
sg81
g3261
sg74
(lp3312
g67
(g88
g69
NtRp3313
(dp3314
g72
(dp3315
g92
g93
ssg81
g3309
sg74
(lp3316
S'first_name'
p3317
asbag67
(g88
g69
NtRp3318
(dp3319
g72
(dp3320
g99
g100
ssg81
g3309
sg74
(lp3321
S':'
asbag67
(g88
g69
NtRp3322
(dp3323
g72
(dp3324
sg81
g3309
sg74
(lp3325
g67
(g68
g69
NtRp3326
(dp3327
g72
(dp3328
g80
I3
ssg81
g3322
sg74
(lp3329
S'Dend'
p3330
asbasbasbag67
(g83
g69
NtRp3331
(dp3332
g72
(dp3333
sg81
g3261
sg74
(lp3334
g67
(g88
g69
NtRp3335
(dp3336
g72
(dp3337
g92
g93
ssg81
g3331
sg74
(lp3338
S'gender'
p3339
asbag67
(g88
g69
NtRp3340
(dp3341
g72
(dp3342
g99
g100
ssg81
g3331
sg74
(lp3343
S':'
asbag67
(g88
g69
NtRp3344
(dp3345
g72
(dp3346
sg81
g3331
sg74
(lp3347
g67
(g68
g69
NtRp3348
(dp3349
g72
(dp3350
g80
I3
ssg81
g3344
sg74
(lp3351
S'masculino'
p3352
asbasbasbag67
(g83
g69
NtRp3353
(dp3354
g72
(dp3355
sg81
g3261
sg74
(lp3356
g67
(g88
g69
NtRp3357
(dp3358
g72
(dp3359
g92
g93
ssg81
g3353
sg74
(lp3360
S'id'
p3361
asbag67
(g88
g69
NtRp3362
(dp3363
g72
(dp3364
g99
g100
ssg81
g3353
sg74
(lp3365
S':'
asbag67
(g88
g69
NtRp3366
(dp3367
g72
(dp3368
sg81
g3353
sg74
(lp3369
g67
(g68
g69
NtRp3370
(dp3371
g72
(dp3372
g80
I3
ssg81
g3366
sg74
(lp3373
S'5'
asbasbasbag67
(g83
g69
NtRp3374
(dp3375
g72
(dp3376
sg81
g3261
sg74
(lp3377
g67
(g88
g69
NtRp3378
(dp3379
g72
(dp3380
g92
g93
ssg81
g3374
sg74
(lp3381
S'last_name'
p3382
asbag67
(g88
g69
NtRp3383
(dp3384
g72
(dp3385
g99
g100
ssg81
g3374
sg74
(lp3386
S':'
asbag67
(g88
g69
NtRp3387
(dp3388
g72
(dp3389
sg81
g3374
sg74
(lp3390
g67
(g68
g69
NtRp3391
(dp3392
g72
(dp3393
g80
I3
ssg81
g3387
sg74
(lp3394
S'delkson'
p3395
asbasbasbag67
(g83
g69
NtRp3396
(dp3397
g72
(dp3398
sg81
g3261
sg74
(lp3399
g67
(g88
g69
NtRp3400
(dp3401
g72
(dp3402
g92
g93
ssg81
g3396
sg74
(lp3403
S'photo'
p3404
asbag67
(g88
g69
NtRp3405
(dp3406
g72
(dp3407
g99
g100
ssg81
g3396
sg74
(lp3408
S':'
asbag67
(g88
g69
NtRp3409
(dp3410
g72
(dp3411
sg81
g3396
sg74
(lp3412
g67
(g68
g69
NtRp3413
(dp3414
g72
(dp3415
g80
I3
ssg81
g3409
sg74
(lp3416
S'auth_user.photo.852c1e9d624a7670.746563686e6f6c6f676965735f7068702e706e67.png'
p3417
asbasbasbag67
(g83
g69
NtRp3418
(dp3419
g72
(dp3420
sg81
g3261
sg74
(lp3421
g67
(g88
g69
NtRp3422
(dp3423
g72
(dp3424
g92
g93
ssg81
g3418
sg74
(lp3425
S'registration_id'
p3426
asbag67
(g88
g69
NtRp3427
(dp3428
g72
(dp3429
g99
g100
ssg81
g3418
sg74
(lp3430
S':'
asbag67
(g88
g69
NtRp3431
(dp3432
g72
(dp3433
sg81
g3418
sg74
(lp3434
g67
(g68
g69
NtRp3435
(dp3436
g72
(dp3437
g80
I3
ssg81
g3431
sg74
(lp3438
S''
asbasbasbag67
(g83
g69
NtRp3439
(dp3440
g72
(dp3441
sg81
g3261
sg74
(lp3442
g67
(g88
g69
NtRp3443
(dp3444
g72
(dp3445
g92
g93
ssg81
g3439
sg74
(lp3446
S'registration_key'
p3447
asbag67
(g88
g69
NtRp3448
(dp3449
g72
(dp3450
g99
g100
ssg81
g3439
sg74
(lp3451
S':'
asbag67
(g88
g69
NtRp3452
(dp3453
g72
(dp3454
sg81
g3439
sg74
(lp3455
g67
(g68
g69
NtRp3456
(dp3457
g72
(dp3458
g80
I3
ssg81
g3452
sg74
(lp3459
S''
asbasbasbag67
(g83
g69
NtRp3460
(dp3461
g72
(dp3462
sg81
g3261
sg74
(lp3463
g67
(g88
g69
NtRp3464
(dp3465
g72
(dp3466
g92
g93
ssg81
g3460
sg74
(lp3467
S'reset_password_key'
p3468
asbag67
(g88
g69
NtRp3469
(dp3470
g72
(dp3471
g99
g100
ssg81
g3460
sg74
(lp3472
S':'
asbag67
(g88
g69
NtRp3473
(dp3474
g72
(dp3475
sg81
g3460
sg74
(lp3476
g67
(g68
g69
NtRp3477
(dp3478
g72
(dp3479
g80
I3
ssg81
g3473
sg74
(lp3480
S''
asbasbasbasbasbasbasbag67
(g83
g69
NtRp3481
(dp3482
g72
(dp3483
sg81
g3149
sg74
(lp3484
g67
(g88
g69
NtRp3485
(dp3486
g72
(dp3487
g92
g93
ssg81
g3481
sg74
(lp3488
S'user_groups'
p3489
asbag67
(g88
g69
NtRp3490
(dp3491
g72
(dp3492
g99
g100
ssg81
g3481
sg74
(lp3493
S':'
asbag67
(g88
g69
NtRp3494
(dp3495
g72
(dp3496
sg81
g3481
sg74
(lp3497
g67
(g68
g69
NtRp3498
(dp3499
g72
(dp3500
g80
I4
ssg81
g3494
sg74
(lp3501
g67
(g76
g69
NtRp3502
(dp3503
g72
(dp3504
g80
I3
ssg81
Nsg74
(lp3505
g67
(g83
g69
NtRp3506
(dp3507
g72
(dp3508
sg81
g3502
sg74
(lp3509
g67
(g88
g69
NtRp3510
(dp3511
g72
(dp3512
g92
g93
ssg81
g3506
sg74
(lp3513
S'5'
asbag67
(g88
g69
NtRp3514
(dp3515
g72
(dp3516
g99
g100
ssg81
g3506
sg74
(lp3517
S':'
asbag67
(g88
g69
NtRp3518
(dp3519
g72
(dp3520
sg81
g3506
sg74
(lp3521
g67
(g68
g69
NtRp3522
(dp3523
g72
(dp3524
g80
I3
ssg81
g3518
sg74
(lp3525
S'user_5'
p3526
asbasbasbasbasbasbasbasbasbasbasbag67
(g83
g69
NtRp3527
(dp3528
g72
(dp3529
sg81
g3124
sg74
(lp3530
g67
(g88
g69
NtRp3531
(dp3532
g72
(dp3533
g92
g93
ssg81
g3527
sg74
(lp3534
S'flash'
p3535
asbag67
(g88
g69
NtRp3536
(dp3537
g72
(dp3538
g99
g100
ssg81
g3527
sg74
(lp3539
S':'
asbag67
(g88
g69
NtRp3540
(dp3541
g72
(dp3542
sg81
g3527
sg74
(lp3543
g67
(g68
g69
NtRp3544
(dp3545
g72
(dp3546
g80
I5
ssg81
g3540
sg74
(lp3547
S'None'
p3548
asbasbasbasbasbsS'etype'
p3549
S"<type 'exceptions.IndentationError'>"
p3550
sS'date'
p3551
S'Sat Feb  2 21:51:34 2013'
p3552
sS'response'
p3553
g67
(g68
g69
NtRp3554
(dp3555
g72
(dp3556
sg74
(lp3557
g67
(g76
g69
NtRp3558
(dp3559
g72
(dp3560
g80
I5
ssg81
Nsg74
(lp3561
g67
(g83
g69
NtRp3562
(dp3563
g72
(dp3564
sg81
g3558
sg74
(lp3565
g67
(g88
g69
NtRp3566
(dp3567
g72
(dp3568
g92
g93
ssg81
g3562
sg74
(lp3569
g165
asbag67
(g88
g69
NtRp3570
(dp3571
g72
(dp3572
g99
g100
ssg81
g3562
sg74
(lp3573
S':'
asbag67
(g88
g69
NtRp3574
(dp3575
g72
(dp3576
sg81
g3562
sg74
(lp3577
g67
(g68
g69
NtRp3578
(dp3579
g72
(dp3580
g80
I5
ssg81
g3574
sg74
(lp3581
S'<cStringIO.StringO object at 0x7fe5cc1a5bc8>'
p3582
asbasbasbag67
(g83
g69
NtRp3583
(dp3584
g72
(dp3585
sg81
g3558
sg74
(lp3586
g67
(g88
g69
NtRp3587
(dp3588
g72
(dp3589
g92
g93
ssg81
g3583
sg74
(lp3590
g253
asbag67
(g88
g69
NtRp3591
(dp3592
g72
(dp3593
g99
g100
ssg81
g3583
sg74
(lp3594
S':'
asbag67
(g88
g69
NtRp3595
(dp3596
g72
(dp3597
sg81
g3583
sg74
(lp3598
g67
(g68
g69
NtRp3599
(dp3600
g72
(dp3601
g80
I5
ssg81
g3595
sg74
(lp3602
g67
(g76
g69
NtRp3603
(dp3604
g72
(dp3605
g80
I4
ssg81
Nsg74
(lp3606
g67
(g83
g69
NtRp3607
(dp3608
g72
(dp3609
sg81
g3603
sg74
(lp3610
g67
(g88
g69
NtRp3611
(dp3612
g72
(dp3613
g92
g93
ssg81
g3607
sg74
(lp3614
S'session_id_projeto'
p3615
asbag67
(g88
g69
NtRp3616
(dp3617
g72
(dp3618
g99
g100
ssg81
g3607
sg74
(lp3619
S':'
asbag67
(g88
g69
NtRp3620
(dp3621
g72
(dp3622
sg81
g3607
sg74
(lp3623
g67
(g68
g69
NtRp3624
(dp3625
g72
(dp3626
g80
I4
ssg81
g3620
sg74
(lp3627
g485
ag67
(g76
g69
NtRp3628
(dp3629
g72
(dp3630
g80
I3
ssg81
Nsg74
(lp3631
g67
(g83
g69
NtRp3632
(dp3633
g72
(dp3634
sg81
g3628
sg74
(lp3635
g67
(g88
g69
NtRp3636
(dp3637
g72
(dp3638
g92
g93
ssg81
g3632
sg74
(lp3639
g304
asbag67
(g88
g69
NtRp3640
(dp3641
g72
(dp3642
g99
g100
ssg81
g3632
sg74
(lp3643
S':'
asbag67
(g88
g69
NtRp3644
(dp3645
g72
(dp3646
sg81
g3632
sg74
(lp3647
g67
(g68
g69
NtRp3648
(dp3649
g72
(dp3650
g80
I3
ssg81
g3644
sg74
(lp3651
S''
asbasbasbag67
(g83
g69
NtRp3652
(dp3653
g72
(dp3654
sg81
g3628
sg74
(lp3655
g67
(g88
g69
NtRp3656
(dp3657
g72
(dp3658
g92
g93
ssg81
g3652
sg74
(lp3659
g325
asbag67
(g88
g69
NtRp3660
(dp3661
g72
(dp3662
g99
g100
ssg81
g3652
sg74
(lp3663
S':'
asbag67
(g88
g69
NtRp3664
(dp3665
g72
(dp3666
sg81
g3652
sg74
(lp3667
g67
(g68
g69
NtRp3668
(dp3669
g72
(dp3670
g80
I3
ssg81
g3664
sg74
(lp3671
S''
asbasbasbag67
(g83
g69
NtRp3672
(dp3673
g72
(dp3674
sg81
g3628
sg74
(lp3675
g67
(g88
g69
NtRp3676
(dp3677
g72
(dp3678
g92
g93
ssg81
g3672
sg74
(lp3679
g346
asbag67
(g88
g69
NtRp3680
(dp3681
g72
(dp3682
g99
g100
ssg81
g3672
sg74
(lp3683
S':'
asbag67
(g88
g69
NtRp3684
(dp3685
g72
(dp3686
sg81
g3672
sg74
(lp3687
g67
(g68
g69
NtRp3688
(dp3689
g72
(dp3690
g80
I3
ssg81
g3684
sg74
(lp3691
S''
asbasbasbag67
(g83
g69
NtRp3692
(dp3693
g72
(dp3694
sg81
g3628
sg74
(lp3695
g67
(g88
g69
NtRp3696
(dp3697
g72
(dp3698
g92
g93
ssg81
g3692
sg74
(lp3699
g367
asbag67
(g88
g69
NtRp3700
(dp3701
g72
(dp3702
g99
g100
ssg81
g3692
sg74
(lp3703
S':'
asbag67
(g88
g69
NtRp3704
(dp3705
g72
(dp3706
sg81
g3692
sg74
(lp3707
g67
(g68
g69
NtRp3708
(dp3709
g72
(dp3710
g80
I3
ssg81
g3704
sg74
(lp3711
S''
asbasbasbag67
(g83
g69
NtRp3712
(dp3713
g72
(dp3714
sg81
g3628
sg74
(lp3715
g67
(g88
g69
NtRp3716
(dp3717
g72
(dp3718
g92
g93
ssg81
g3712
sg74
(lp3719
g388
asbag67
(g88
g69
NtRp3720
(dp3721
g72
(dp3722
g99
g100
ssg81
g3712
sg74
(lp3723
S':'
asbag67
(g88
g69
NtRp3724
(dp3725
g72
(dp3726
sg81
g3712
sg74
(lp3727
g67
(g68
g69
NtRp3728
(dp3729
g72
(dp3730
g80
I3
ssg81
g3724
sg74
(lp3731
S''
asbasbasbag67
(g83
g69
NtRp3732
(dp3733
g72
(dp3734
sg81
g3628
sg74
(lp3735
g67
(g88
g69
NtRp3736
(dp3737
g72
(dp3738
g92
g93
ssg81
g3732
sg74
(lp3739
g409
asbag67
(g88
g69
NtRp3740
(dp3741
g72
(dp3742
g99
g100
ssg81
g3732
sg74
(lp3743
S':'
asbag67
(g88
g69
NtRp3744
(dp3745
g72
(dp3746
sg81
g3732
sg74
(lp3747
g67
(g68
g69
NtRp3748
(dp3749
g72
(dp3750
g80
I3
ssg81
g3744
sg74
(lp3751
S'/'
asbasbasbag67
(g83
g69
NtRp3752
(dp3753
g72
(dp3754
sg81
g3628
sg74
(lp3755
g67
(g88
g69
NtRp3756
(dp3757
g72
(dp3758
g92
g93
ssg81
g3752
sg74
(lp3759
g430
asbag67
(g88
g69
NtRp3760
(dp3761
g72
(dp3762
g99
g100
ssg81
g3752
sg74
(lp3763
S':'
asbag67
(g88
g69
NtRp3764
(dp3765
g72
(dp3766
sg81
g3752
sg74
(lp3767
g67
(g68
g69
NtRp3768
(dp3769
g72
(dp3770
g80
I3
ssg81
g3764
sg74
(lp3771
S''
asbasbasbag67
(g83
g69
NtRp3772
(dp3773
g72
(dp3774
sg81
g3628
sg74
(lp3775
g67
(g88
g69
NtRp3776
(dp3777
g72
(dp3778
g92
g93
ssg81
g3772
sg74
(lp3779
g451
asbag67
(g88
g69
NtRp3780
(dp3781
g72
(dp3782
g99
g100
ssg81
g3772
sg74
(lp3783
S':'
asbag67
(g88
g69
NtRp3784
(dp3785
g72
(dp3786
sg81
g3772
sg74
(lp3787
g67
(g68
g69
NtRp3788
(dp3789
g72
(dp3790
g80
I3
ssg81
g3784
sg74
(lp3791
S''
asbasbasbasbasbasbasbasbasbasbasbag67
(g83
g69
NtRp3792
(dp3793
g72
(dp3794
sg81
g3558
sg74
(lp3795
g67
(g88
g69
NtRp3796
(dp3797
g72
(dp3798
g92
g93
ssg81
g3792
sg74
(lp3799
S'delimiters'
p3800
asbag67
(g88
g69
NtRp3801
(dp3802
g72
(dp3803
g99
g100
ssg81
g3792
sg74
(lp3804
S':'
asbag67
(g88
g69
NtRp3805
(dp3806
g72
(dp3807
sg81
g3792
sg74
(lp3808
g67
(g68
g69
NtRp3809
(dp3810
g72
(dp3811
g80
I5
ssg81
g3805
sg74
(lp3812
g67
(g76
g69
NtRp3813
(dp3814
g72
(dp3815
g80
I4
ssg81
Nsg74
(lp3816
g67
(g83
g69
NtRp3817
(dp3818
g72
(dp3819
sg81
g3813
sg74
(lp3820
g67
(g88
g69
NtRp3821
(dp3822
g72
(dp3823
sg81
g3817
sg74
(lp3824
g67
(g68
g69
NtRp3825
(dp3826
g72
(dp3827
g80
I4
ssg81
g3821
sg74
(lp3828
S'{{'
p3829
asbasbasbag67
(g83
g69
NtRp3830
(dp3831
g72
(dp3832
sg81
g3813
sg74
(lp3833
g67
(g88
g69
NtRp3834
(dp3835
g72
(dp3836
sg81
g3830
sg74
(lp3837
g67
(g68
g69
NtRp3838
(dp3839
g72
(dp3840
g80
I4
ssg81
g3834
sg74
(lp3841
S'}}'
p3842
asbasbasbasbasbasbasbag67
(g83
g69
NtRp3843
(dp3844
g72
(dp3845
sg81
g3558
sg74
(lp3846
g67
(g88
g69
NtRp3847
(dp3848
g72
(dp3849
g92
g93
ssg81
g3843
sg74
(lp3850
S'files'
p3851
asbag67
(g88
g69
NtRp3852
(dp3853
g72
(dp3854
g99
g100
ssg81
g3843
sg74
(lp3855
S':'
asbag67
(g88
g69
NtRp3856
(dp3857
g72
(dp3858
sg81
g3843
sg74
(lp3859
g67
(g68
g69
NtRp3860
(dp3861
g72
(dp3862
g80
I5
ssg81
g3856
sg74
(lp3863
g67
(g76
g69
NtRp3864
(dp3865
g72
(dp3866
g80
I4
ssg81
Nsg74
(lp3867
sbasbasbasbag67
(g83
g69
NtRp3868
(dp3869
g72
(dp3870
sg81
g3558
sg74
(lp3871
g67
(g88
g69
NtRp3872
(dp3873
g72
(dp3874
g92
g93
ssg81
g3868
sg74
(lp3875
S'flash'
p3876
asbag67
(g88
g69
NtRp3877
(dp3878
g72
(dp3879
g99
g100
ssg81
g3868
sg74
(lp3880
S':'
asbag67
(g88
g69
NtRp3881
(dp3882
g72
(dp3883
sg81
g3868
sg74
(lp3884
g67
(g68
g69
NtRp3885
(dp3886
g72
(dp3887
g80
I5
ssg81
g3881
sg74
(lp3888
S''
asbasbasbag67
(g83
g69
NtRp3889
(dp3890
g72
(dp3891
sg81
g3558
sg74
(lp3892
g67
(g88
g69
NtRp3893
(dp3894
g72
(dp3895
g92
g93
ssg81
g3889
sg74
(lp3896
S'generic_patterns'
p3897
asbag67
(g88
g69
NtRp3898
(dp3899
g72
(dp3900
g99
g100
ssg81
g3889
sg74
(lp3901
S':'
asbag67
(g88
g69
NtRp3902
(dp3903
g72
(dp3904
sg81
g3889
sg74
(lp3905
g67
(g68
g69
NtRp3906
(dp3907
g72
(dp3908
g80
I5
ssg81
g3902
sg74
(lp3909
g67
(g76
g69
NtRp3910
(dp3911
g72
(dp3912
g80
I4
ssg81
Nsg74
(lp3913
g67
(g83
g69
NtRp3914
(dp3915
g72
(dp3916
sg81
g3910
sg74
(lp3917
g67
(g88
g69
NtRp3918
(dp3919
g72
(dp3920
sg81
g3914
sg74
(lp3921
g67
(g68
g69
NtRp3922
(dp3923
g72
(dp3924
g80
I4
ssg81
g3918
sg74
(lp3925
S'*'
asbasbasbasbasbasbasbag67
(g83
g69
NtRp3926
(dp3927
g72
(dp3928
sg81
g3558
sg74
(lp3929
g67
(g88
g69
NtRp3930
(dp3931
g72
(dp3932
g92
g93
ssg81
g3926
sg74
(lp3933
S'headers'
p3934
asbag67
(g88
g69
NtRp3935
(dp3936
g72
(dp3937
g99
g100
ssg81
g3926
sg74
(lp3938
S':'
asbag67
(g88
g69
NtRp3939
(dp3940
g72
(dp3941
sg81
g3926
sg74
(lp3942
g67
(g68
g69
NtRp3943
(dp3944
g72
(dp3945
g80
I5
ssg81
g3939
sg74
(lp3946
g67
(g76
g69
NtRp3947
(dp3948
g72
(dp3949
g80
I4
ssg81
Nsg74
(lp3950
g67
(g83
g69
NtRp3951
(dp3952
g72
(dp3953
sg81
g3947
sg74
(lp3954
g67
(g88
g69
NtRp3955
(dp3956
g72
(dp3957
g92
g93
ssg81
g3951
sg74
(lp3958
S'X-Powered-By'
p3959
asbag67
(g88
g69
NtRp3960
(dp3961
g72
(dp3962
g99
g100
ssg81
g3951
sg74
(lp3963
S':'
asbag67
(g88
g69
NtRp3964
(dp3965
g72
(dp3966
sg81
g3951
sg74
(lp3967
g67
(g68
g69
NtRp3968
(dp3969
g72
(dp3970
g80
I4
ssg81
g3964
sg74
(lp3971
S'web2py'
p3972
asbasbasbasbasbasbasbag67
(g83
g69
NtRp3973
(dp3974
g72
(dp3975
sg81
g3558
sg74
(lp3976
g67
(g88
g69
NtRp3977
(dp3978
g72
(dp3979
g92
g93
ssg81
g3973
sg74
(lp3980
S'menu'
p3981
asbag67
(g88
g69
NtRp3982
(dp3983
g72
(dp3984
g99
g100
ssg81
g3973
sg74
(lp3985
S':'
asbag67
(g88
g69
NtRp3986
(dp3987
g72
(dp3988
sg81
g3973
sg74
(lp3989
g67
(g68
g69
NtRp3990
(dp3991
g72
(dp3992
g80
I5
ssg81
g3986
sg74
(lp3993
g67
(g76
g69
NtRp3994
(dp3995
g72
(dp3996
g80
I4
ssg81
Nsg74
(lp3997
sbasbasbasbag67
(g83
g69
NtRp3998
(dp3999
g72
(dp4000
sg81
g3558
sg74
(lp4001
g67
(g88
g69
NtRp4002
(dp4003
g72
(dp4004
g92
g93
ssg81
g3998
sg74
(lp4005
S'meta'
p4006
asbag67
(g88
g69
NtRp4007
(dp4008
g72
(dp4009
g99
g100
ssg81
g3998
sg74
(lp4010
S':'
asbag67
(g88
g69
NtRp4011
(dp4012
g72
(dp4013
sg81
g3998
sg74
(lp4014
g67
(g68
g69
NtRp4015
(dp4016
g72
(dp4017
g80
I5
ssg81
g4011
sg74
(lp4018
g67
(g76
g69
NtRp4019
(dp4020
g72
(dp4021
g80
I4
ssg81
Nsg74
(lp4022
g67
(g83
g69
NtRp4023
(dp4024
g72
(dp4025
sg81
g4019
sg74
(lp4026
g67
(g88
g69
NtRp4027
(dp4028
g72
(dp4029
g92
g93
ssg81
g4023
sg74
(lp4030
S'description'
p4031
asbag67
(g88
g69
NtRp4032
(dp4033
g72
(dp4034
g99
g100
ssg81
g4023
sg74
(lp4035
S':'
asbag67
(g88
g69
NtRp4036
(dp4037
g72
(dp4038
sg81
g4023
sg74
(lp4039
g67
(g68
g69
NtRp4040
(dp4041
g72
(dp4042
g80
I4
ssg81
g4036
sg74
(lp4043
S'blog do shedon'
p4044
asbasbasbag67
(g83
g69
NtRp4045
(dp4046
g72
(dp4047
sg81
g4019
sg74
(lp4048
g67
(g88
g69
NtRp4049
(dp4050
g72
(dp4051
g92
g93
ssg81
g4045
sg74
(lp4052
S'keywords'
p4053
asbag67
(g88
g69
NtRp4054
(dp4055
g72
(dp4056
g99
g100
ssg81
g4045
sg74
(lp4057
S':'
asbag67
(g88
g69
NtRp4058
(dp4059
g72
(dp4060
sg81
g4045
sg74
(lp4061
g67
(g68
g69
NtRp4062
(dp4063
g72
(dp4064
g80
I4
ssg81
g4058
sg74
(lp4065
S'chave, outra, e utra'
p4066
asbasbasbasbasbasbasbag67
(g83
g69
NtRp4067
(dp4068
g72
(dp4069
sg81
g3558
sg74
(lp4070
g67
(g88
g69
NtRp4071
(dp4072
g72
(dp4073
g92
g93
ssg81
g4067
sg74
(lp4074
S'models_to_run'
p4075
asbag67
(g88
g69
NtRp4076
(dp4077
g72
(dp4078
g99
g100
ssg81
g4067
sg74
(lp4079
S':'
asbag67
(g88
g69
NtRp4080
(dp4081
g72
(dp4082
sg81
g4067
sg74
(lp4083
g67
(g68
g69
NtRp4084
(dp4085
g72
(dp4086
g80
I5
ssg81
g4080
sg74
(lp4087
g67
(g76
g69
NtRp4088
(dp4089
g72
(dp4090
g80
I4
ssg81
Nsg74
(lp4091
g67
(g83
g69
NtRp4092
(dp4093
g72
(dp4094
sg81
g4088
sg74
(lp4095
g67
(g88
g69
NtRp4096
(dp4097
g72
(dp4098
sg81
g4092
sg74
(lp4099
g67
(g68
g69
NtRp4100
(dp4101
g72
(dp4102
g80
I4
ssg81
g4096
sg74
(lp4103
S'^\\w+\\.py$'
p4104
asbasbasbag67
(g83
g69
NtRp4105
(dp4106
g72
(dp4107
sg81
g4088
sg74
(lp4108
g67
(g88
g69
NtRp4109
(dp4110
g72
(dp4111
sg81
g4105
sg74
(lp4112
g67
(g68
g69
NtRp4113
(dp4114
g72
(dp4115
g80
I4
ssg81
g4109
sg74
(lp4116
S'^initial/\\w+\\.py$'
p4117
asbasbasbag67
(g83
g69
NtRp4118
(dp4119
g72
(dp4120
sg81
g4088
sg74
(lp4121
g67
(g88
g69
NtRp4122
(dp4123
g72
(dp4124
sg81
g4118
sg74
(lp4125
g67
(g68
g69
NtRp4126
(dp4127
g72
(dp4128
g80
I4
ssg81
g4122
sg74
(lp4129
S'^initial/home/\\w+\\.py$'
p4130
asbasbasbasbasbasbasbag67
(g83
g69
NtRp4131
(dp4132
g72
(dp4133
sg81
g3558
sg74
(lp4134
g67
(g88
g69
NtRp4135
(dp4136
g72
(dp4137
g92
g93
ssg81
g4131
sg74
(lp4138
S'postprocessing'
p4139
asbag67
(g88
g69
NtRp4140
(dp4141
g72
(dp4142
g99
g100
ssg81
g4131
sg74
(lp4143
S':'
asbag67
(g88
g69
NtRp4144
(dp4145
g72
(dp4146
sg81
g4131
sg74
(lp4147
g67
(g68
g69
NtRp4148
(dp4149
g72
(dp4150
g80
I5
ssg81
g4144
sg74
(lp4151
g67
(g76
g69
NtRp4152
(dp4153
g72
(dp4154
g80
I4
ssg81
Nsg74
(lp4155
sbasbasbasbag67
(g83
g69
NtRp4156
(dp4157
g72
(dp4158
sg81
g3558
sg74
(lp4159
g67
(g88
g69
NtRp4160
(dp4161
g72
(dp4162
g92
g93
ssg81
g4156
sg74
(lp4163
S'session_cookie_expires'
p4164
asbag67
(g88
g69
NtRp4165
(dp4166
g72
(dp4167
g99
g100
ssg81
g4156
sg74
(lp4168
S':'
asbag67
(g88
g69
NtRp4169
(dp4170
g72
(dp4171
sg81
g4156
sg74
(lp4172
g67
(g68
g69
NtRp4173
(dp4174
g72
(dp4175
g80
I5
ssg81
g4169
sg74
(lp4176
S'None'
p4177
asbasbasbag67
(g83
g69
NtRp4178
(dp4179
g72
(dp4180
sg81
g3558
sg74
(lp4181
g67
(g88
g69
NtRp4182
(dp4183
g72
(dp4184
g92
g93
ssg81
g4178
sg74
(lp4185
S'session_data_name'
p4186
asbag67
(g88
g69
NtRp4187
(dp4188
g72
(dp4189
g99
g100
ssg81
g4178
sg74
(lp4190
S':'
asbag67
(g88
g69
NtRp4191
(dp4192
g72
(dp4193
sg81
g4178
sg74
(lp4194
g67
(g68
g69
NtRp4195
(dp4196
g72
(dp4197
g80
I5
ssg81
g4191
sg74
(lp4198
S'session_data_projeto'
p4199
asbasbasbag67
(g83
g69
NtRp4200
(dp4201
g72
(dp4202
sg81
g3558
sg74
(lp4203
g67
(g88
g69
NtRp4204
(dp4205
g72
(dp4206
g92
g93
ssg81
g4200
sg74
(lp4207
S'session_file'
p4208
asbag67
(g88
g69
NtRp4209
(dp4210
g72
(dp4211
g99
g100
ssg81
g4200
sg74
(lp4212
S':'
asbag67
(g88
g69
NtRp4213
(dp4214
g72
(dp4215
sg81
g4200
sg74
(lp4216
g67
(g68
g69
NtRp4217
(dp4218
g72
(dp4219
g80
I5
ssg81
g4213
sg74
(lp4220
S"<open file '/var/www/web2py_curso/applications/projeto/sessions/127.0.0.1-71851f1a-a738-4589-a6cd-6594e5094ab6', mode 'rb+' at 0x7fe5d434aa50>"
p4221
asbasbasbag67
(g83
g69
NtRp4222
(dp4223
g72
(dp4224
sg81
g3558
sg74
(lp4225
g67
(g88
g69
NtRp4226
(dp4227
g72
(dp4228
g92
g93
ssg81
g4222
sg74
(lp4229
S'session_filename'
p4230
asbag67
(g88
g69
NtRp4231
(dp4232
g72
(dp4233
g99
g100
ssg81
g4222
sg74
(lp4234
S':'
asbag67
(g88
g69
NtRp4235
(dp4236
g72
(dp4237
sg81
g4222
sg74
(lp4238
g67
(g68
g69
NtRp4239
(dp4240
g72
(dp4241
g80
I5
ssg81
g4235
sg74
(lp4242
S'/var/www/web2py_curso/applications/projeto/sessions/127.0.0.1-71851f1a-a738-4589-a6cd-6594e5094ab6'
p4243
asbasbasbag67
(g83
g69
NtRp4244
(dp4245
g72
(dp4246
sg81
g3558
sg74
(lp4247
g67
(g88
g69
NtRp4248
(dp4249
g72
(dp4250
g92
g93
ssg81
g4244
sg74
(lp4251
S'session_id'
p4252
asbag67
(g88
g69
NtRp4253
(dp4254
g72
(dp4255
g99
g100
ssg81
g4244
sg74
(lp4256
S':'
asbag67
(g88
g69
NtRp4257
(dp4258
g72
(dp4259
sg81
g4244
sg74
(lp4260
g67
(g68
g69
NtRp4261
(dp4262
g72
(dp4263
g80
I5
ssg81
g4257
sg74
(lp4264
g485
asbasbasbag67
(g83
g69
NtRp4265
(dp4266
g72
(dp4267
sg81
g3558
sg74
(lp4268
g67
(g88
g69
NtRp4269
(dp4270
g72
(dp4271
g92
g93
ssg81
g4265
sg74
(lp4272
S'session_id_name'
p4273
asbag67
(g88
g69
NtRp4274
(dp4275
g72
(dp4276
g99
g100
ssg81
g4265
sg74
(lp4277
S':'
asbag67
(g88
g69
NtRp4278
(dp4279
g72
(dp4280
sg81
g4265
sg74
(lp4281
g67
(g68
g69
NtRp4282
(dp4283
g72
(dp4284
g80
I5
ssg81
g4278
sg74
(lp4285
g3615
asbasbasbag67
(g83
g69
NtRp4286
(dp4287
g72
(dp4288
sg81
g3558
sg74
(lp4289
g67
(g88
g69
NtRp4290
(dp4291
g72
(dp4292
g92
g93
ssg81
g4286
sg74
(lp4293
S'session_locked'
p4294
asbag67
(g88
g69
NtRp4295
(dp4296
g72
(dp4297
g99
g100
ssg81
g4286
sg74
(lp4298
S':'
asbag67
(g88
g69
NtRp4299
(dp4300
g72
(dp4301
sg81
g4286
sg74
(lp4302
g67
(g68
g69
NtRp4303
(dp4304
g72
(dp4305
g80
I5
ssg81
g4299
sg74
(lp4306
g1636
asbasbasbag67
(g83
g69
NtRp4307
(dp4308
g72
(dp4309
sg81
g3558
sg74
(lp4310
g67
(g88
g69
NtRp4311
(dp4312
g72
(dp4313
g92
g93
ssg81
g4307
sg74
(lp4314
S'session_new'
p4315
asbag67
(g88
g69
NtRp4316
(dp4317
g72
(dp4318
g99
g100
ssg81
g4307
sg74
(lp4319
S':'
asbag67
(g88
g69
NtRp4320
(dp4321
g72
(dp4322
sg81
g4307
sg74
(lp4323
g67
(g68
g69
NtRp4324
(dp4325
g72
(dp4326
g80
I5
ssg81
g4320
sg74
(lp4327
g110
asbasbasbag67
(g83
g69
NtRp4328
(dp4329
g72
(dp4330
sg81
g3558
sg74
(lp4331
g67
(g88
g69
NtRp4332
(dp4333
g72
(dp4334
g92
g93
ssg81
g4328
sg74
(lp4335
S'session_storage_type'
p4336
asbag67
(g88
g69
NtRp4337
(dp4338
g72
(dp4339
g99
g100
ssg81
g4328
sg74
(lp4340
S':'
asbag67
(g88
g69
NtRp4341
(dp4342
g72
(dp4343
sg81
g4328
sg74
(lp4344
g67
(g68
g69
NtRp4345
(dp4346
g72
(dp4347
g80
I5
ssg81
g4341
sg74
(lp4348
g3066
asbasbasbag67
(g83
g69
NtRp4349
(dp4350
g72
(dp4351
sg81
g3558
sg74
(lp4352
g67
(g88
g69
NtRp4353
(dp4354
g72
(dp4355
g92
g93
ssg81
g4349
sg74
(lp4356
S'status'
p4357
asbag67
(g88
g69
NtRp4358
(dp4359
g72
(dp4360
g99
g100
ssg81
g4349
sg74
(lp4361
S':'
asbag67
(g88
g69
NtRp4362
(dp4363
g72
(dp4364
sg81
g4349
sg74
(lp4365
g67
(g68
g69
NtRp4366
(dp4367
g72
(dp4368
g80
I5
ssg81
g4362
sg74
(lp4369
S'200'
p4370
asbasbasbag67
(g83
g69
NtRp4371
(dp4372
g72
(dp4373
sg81
g3558
sg74
(lp4374
g67
(g88
g69
NtRp4375
(dp4376
g72
(dp4377
g92
g93
ssg81
g4371
sg74
(lp4378
S'subtitle'
p4379
asbag67
(g88
g69
NtRp4380
(dp4381
g72
(dp4382
g99
g100
ssg81
g4371
sg74
(lp4383
S':'
asbag67
(g88
g69
NtRp4384
(dp4385
g72
(dp4386
sg81
g4371
sg74
(lp4387
g67
(g68
g69
NtRp4388
(dp4389
g72
(dp4390
g80
I5
ssg81
g4384
sg74
(lp4391
S'O blog do sheldon'
p4392
asbasbasbag67
(g83
g69
NtRp4393
(dp4394
g72
(dp4395
sg81
g3558
sg74
(lp4396
g67
(g88
g69
NtRp4397
(dp4398
g72
(dp4399
g92
g93
ssg81
g4393
sg74
(lp4400
S'title'
p4401
asbag67
(g88
g69
NtRp4402
(dp4403
g72
(dp4404
g99
g100
ssg81
g4393
sg74
(lp4405
S':'
asbag67
(g88
g69
NtRp4406
(dp4407
g72
(dp4408
sg81
g4393
sg74
(lp4409
g67
(g68
g69
NtRp4410
(dp4411
g72
(dp4412
g80
I5
ssg81
g4406
sg74
(lp4413
S'Meu site magnifico'
p4414
asbasbasbag67
(g83
g69
NtRp4415
(dp4416
g72
(dp4417
sg81
g3558
sg74
(lp4418
g67
(g88
g69
NtRp4419
(dp4420
g72
(dp4421
g92
g93
ssg81
g4415
sg74
(lp4422
S'view'
p4423
asbag67
(g88
g69
NtRp4424
(dp4425
g72
(dp4426
g99
g100
ssg81
g4415
sg74
(lp4427
S':'
asbag67
(g88
g69
NtRp4428
(dp4429
g72
(dp4430
sg81
g4415
sg74
(lp4431
g67
(g68
g69
NtRp4432
(dp4433
g72
(dp4434
g80
I5
ssg81
g4428
sg74
(lp4435
S'initial/home.html'
p4436
asbasbasbasbasbsS'locals'
p4437
(dp4438
g4
S"'/var/www/web2py_curso/applications/projeto/controllers/initial.py'"
p4439
sg6
S"'# coding: utf-8\\n\\ndef home():\\nposts = db(db.post)... x + y\\n\\n \\n\\nresponse._vars=response._caller(home)\\n'"
p4440
sssS'traceback'
p4441
S'Traceback (most recent call last):\n  File "/var/www/web2py_curso/gluon/restricted.py", line 211, in restricted\n    ccode = compile2(code, layer)\n  File "/var/www/web2py_curso/gluon/restricted.py", line 194, in compile2\n    return compile(code.rstrip().replace(\'\\r\\n\', \'\\n\') + \'\\n\', layer, \'exec\')\n  File "/var/www/web2py_curso/applications/projeto/controllers/initial.py", line 4\n    posts = db(db.post).select()\n        ^\nIndentationError: expected an indented block\n'
p4442
s.