(dp1
S'output'
p2
S"<type 'exceptions.IndentationError'> expected an indented block (initial.py, line 4)"
p3
sS'layer'
p4
S'/var/www/web2py_curso/applications/projeto/controllers/initial.py'
p5
sS'code'
p6
S'# coding: utf-8\n\ndef home():\nposts = db(db.post).select();\n\tprint posts\n\tresponse.title = "Titulo home"\n\tnome = "fernando"\n\treturn dict(posts=posts, nome=nome)\n\t\n\t\n\n\ndef contact():\n\treturn "form"\n\ndef about():\n\treturn "sobre"\n\ndef user():\n\tif request.args(0) == \'register\':\n        \tdb.auth_user.bio.writable = db.auth_user.bio.readable = False\n\treturn dict(user=auth())\n\ndef register():\n\treturn auth.register()\n\ndef login():\n        return auth.login()\n\ndef account():\n    return dict(register=auth.register(),\n                login=auth.login())\n\t\ndef download():\n\treturn response.download(request, db)\n\n\n\n\n\ndef exemplo():\n#\treturn "teste"\n\treturn response.render("default/teste.html", nome="deld", sobrenome="vieira", lista=["item1", "item2", "item3"])\n\ndef teste1():\n\tprint "Action index"\n\tprint request.args\n\tprint request.vars \t\n\tprint request.post_vars #somente entradas de formul\xc3\xa1rio\n    \tprint request.get_vars  #somente entradas de url\n    \t#nome = request.vars[\'nome\']\n        mensagem = "Bem Vindo"\n        form = "<form action=\'\' method=\'POST\'><input name=\'nome\' id=\'nome\'/><input type=\'Submit\'></form><br>"\n        if \'nome\' in request.vars:\n\t\tform = "<p>Bem vindo %(nome)s</p>" % request.vars + form\t\t\n\t\t#mensagem = mensagem + " usu\xc3\xa1rio %(nome)s" % request.vars\t#mostrando variavel da url\n        \t#mensagem = mensagem + " usu\xc3\xa1rio %s" %str(nome)\t\t\t#mostrando uma variavel local    \n\treturn form\n\ndef teste2():\n\treturn "<form><label>Nome</label><input /></form><br><a href=\'http://www.w3schools.com\'>Visit W3Schools</a>"\n\t#return dict(nome="fernando")\n\t#return response.render("teste.html", dict(nome="fernando"))\n\ndef soma(x, y):\n\treturn x + y\n\n \n\nresponse._vars=response._caller(home)\n'
p7
sS'snapshot'
p8
(dp9
S'exception'
p10
(dp11
S'__getslice__'
p12
S"<method-wrapper '__getslice__' of exceptions.IndentationError object>"
p13
sS'text'
p14
S"'posts = db(db.post).select();\\n'"
p15
sS'__str__'
p16
S"<method-wrapper '__str__' of exceptions.IndentationError object>"
p17
sS'__reduce__'
p18
S'<built-in method __reduce__ of exceptions.IndentationError object>'
p19
sS'__dict__'
p20
S'{}'
p21
sS'__sizeof__'
p22
S'<built-in method __sizeof__ of exceptions.IndentationError object>'
p23
sS'__init__'
p24
S"<method-wrapper '__init__' of exceptions.IndentationError object>"
p25
sS'__setattr__'
p26
S"<method-wrapper '__setattr__' of exceptions.IndentationError object>"
p27
sS'__reduce_ex__'
p28
S'<built-in method __reduce_ex__ of exceptions.IndentationError object>'
p29
sS'__new__'
p30
S'<built-in method __new__ of type object>'
p31
sS'__format__'
p32
S'<built-in method __format__ of exceptions.IndentationError object>'
p33
sS'__class__'
p34
S"<type 'exceptions.IndentationError'>"
p35
sS'filename'
p36
S"'/var/www/web2py_curso/applications/projeto/controllers/initial.py'"
p37
sS'lineno'
p38
S'4'
sS'msg'
p39
S"'expected an indented block'"
p40
sS'__doc__'
p41
S"'Improper indentation.'"
p42
sS'__getitem__'
p43
S"<method-wrapper '__getitem__' of exceptions.IndentationError object>"
p44
sS'__setstate__'
p45
S'<built-in method __setstate__ of exceptions.IndentationError object>'
p46
sS'__getattribute__'
p47
S"<method-wrapper '__getattribute__' of exceptions.IndentationError object>"
p48
sS'print_file_and_line'
p49
S'None'
p50
sS'args'
p51
S"('expected an indented block', ('/var/www/web2py_curso/applications/projeto/controllers/initial.py', 4, 5, 'posts = db(db.post).select();\\n'))"
p52
sS'__subclasshook__'
p53
S'<built-in method __subclasshook__ of type object>'
p54
sS'offset'
p55
S'5'
sS'__unicode__'
p56
S'<built-in method __unicode__ of exceptions.IndentationError object>'
p57
sS'__delattr__'
p58
S"<method-wrapper '__delattr__' of exceptions.IndentationError object>"
p59
sS'__repr__'
p60
S"<method-wrapper '__repr__' of exceptions.IndentationError object>"
p61
sS'__hash__'
p62
S"<method-wrapper '__hash__' of exceptions.IndentationError object>"
p63
ssS'evalue'
p64
S'expected an indented block (initial.py, line 4)'
p65
sS'request'
p66
ccopy_reg
_reconstructor
p67
(cgluon.html
BEAUTIFY
p68
c__builtin__
object
p69
NtRp70
(dp71
S'attributes'
p72
(dp73
sS'components'
p74
(lp75
g67
(cgluon.html
TABLE
p76
g69
NtRp77
(dp78
g72
(dp79
S'level'
p80
I5
ssS'parent'
p81
Nsg74
(lp82
g67
(cgluon.html
TR
p83
g69
NtRp84
(dp85
g72
(dp86
sg81
g77
sg74
(lp87
g67
(cgluon.html
TD
p88
g69
NtRp89
(dp90
g72
(dp91
S'_style'
p92
S'font-weight:bold;vertical-align:top'
p93
ssg81
g84
sg74
(lp94
S'ajax'
p95
asbag67
(g88
g69
NtRp96
(dp97
g72
(dp98
S'_valign'
p99
S'top'
p100
ssg81
g84
sg74
(lp101
S':'
asbag67
(g88
g69
NtRp102
(dp103
g72
(dp104
sg81
g84
sg74
(lp105
g67
(g68
g69
NtRp106
(dp107
g72
(dp108
g80
I5
ssg81
g102
sg74
(lp109
S'False'
p110
asbasbasbag67
(g83
g69
NtRp111
(dp112
g72
(dp113
sg81
g77
sg74
(lp114
g67
(g88
g69
NtRp115
(dp116
g72
(dp117
g92
g93
ssg81
g111
sg74
(lp118
S'application'
p119
asbag67
(g88
g69
NtRp120
(dp121
g72
(dp122
g99
g100
ssg81
g111
sg74
(lp123
S':'
asbag67
(g88
g69
NtRp124
(dp125
g72
(dp126
sg81
g111
sg74
(lp127
g67
(g68
g69
NtRp128
(dp129
g72
(dp130
g80
I5
ssg81
g124
sg74
(lp131
S'projeto'
p132
asbasbasbag67
(g83
g69
NtRp133
(dp134
g72
(dp135
sg81
g77
sg74
(lp136
g67
(g88
g69
NtRp137
(dp138
g72
(dp139
g92
g93
ssg81
g133
sg74
(lp140
g51
asbag67
(g88
g69
NtRp141
(dp142
g72
(dp143
g99
g100
ssg81
g133
sg74
(lp144
S':'
asbag67
(g88
g69
NtRp145
(dp146
g72
(dp147
sg81
g133
sg74
(lp148
g67
(g68
g69
NtRp149
(dp150
g72
(dp151
g80
I5
ssg81
g145
sg74
(lp152
g67
(g76
g69
NtRp153
(dp154
g72
(dp155
g80
I4
ssg81
Nsg74
(lp156
sbasbasbasbag67
(g83
g69
NtRp157
(dp158
g72
(dp159
sg81
g77
sg74
(lp160
g67
(g88
g69
NtRp161
(dp162
g72
(dp163
g92
g93
ssg81
g157
sg74
(lp164
S'body'
p165
asbag67
(g88
g69
NtRp166
(dp167
g72
(dp168
g99
g100
ssg81
g157
sg74
(lp169
S':'
asbag67
(g88
g69
NtRp170
(dp171
g72
(dp172
sg81
g157
sg74
(lp173
g67
(g68
g69
NtRp174
(dp175
g72
(dp176
g80
I5
ssg81
g170
sg74
(lp177
S'<cStringIO.StringO object at 0x7fe5d435d9d0>'
p178
asbasbasbag67
(g83
g69
NtRp179
(dp180
g72
(dp181
sg81
g77
sg74
(lp182
g67
(g88
g69
NtRp183
(dp184
g72
(dp185
g92
g93
ssg81
g179
sg74
(lp186
S'cid'
p187
asbag67
(g88
g69
NtRp188
(dp189
g72
(dp190
g99
g100
ssg81
g179
sg74
(lp191
S':'
asbag67
(g88
g69
NtRp192
(dp193
g72
(dp194
sg81
g179
sg74
(lp195
g67
(g68
g69
NtRp196
(dp197
g72
(dp198
g80
I5
ssg81
g192
sg74
(lp199
S'None'
p200
asbasbasbag67
(g83
g69
NtRp201
(dp202
g72
(dp203
sg81
g77
sg74
(lp204
g67
(g88
g69
NtRp205
(dp206
g72
(dp207
g92
g93
ssg81
g201
sg74
(lp208
S'client'
p209
asbag67
(g88
g69
NtRp210
(dp211
g72
(dp212
g99
g100
ssg81
g201
sg74
(lp213
S':'
asbag67
(g88
g69
NtRp214
(dp215
g72
(dp216
sg81
g201
sg74
(lp217
g67
(g68
g69
NtRp218
(dp219
g72
(dp220
g80
I5
ssg81
g214
sg74
(lp221
S'127.0.0.1'
p222
asbasbasbag67
(g83
g69
NtRp223
(dp224
g72
(dp225
sg81
g77
sg74
(lp226
g67
(g88
g69
NtRp227
(dp228
g72
(dp229
g92
g93
ssg81
g223
sg74
(lp230
S'controller'
p231
asbag67
(g88
g69
NtRp232
(dp233
g72
(dp234
g99
g100
ssg81
g223
sg74
(lp235
S':'
asbag67
(g88
g69
NtRp236
(dp237
g72
(dp238
sg81
g223
sg74
(lp239
g67
(g68
g69
NtRp240
(dp241
g72
(dp242
g80
I5
ssg81
g236
sg74
(lp243
S'initial'
p244
asbasbasbag67
(g83
g69
NtRp245
(dp246
g72
(dp247
sg81
g77
sg74
(lp248
g67
(g88
g69
NtRp249
(dp250
g72
(dp251
g92
g93
ssg81
g245
sg74
(lp252
S'cookies'
p253
asbag67
(g88
g69
NtRp254
(dp255
g72
(dp256
g99
g100
ssg81
g245
sg74
(lp257
S':'
asbag67
(g88
g69
NtRp258
(dp259
g72
(dp260
sg81
g245
sg74
(lp261
g67
(g68
g69
NtRp262
(dp263
g72
(dp264
g80
I5
ssg81
g258
sg74
(lp265
g67
(g76
g69
NtRp266
(dp267
g72
(dp268
g80
I4
ssg81
Nsg74
(lp269
g67
(g83
g69
NtRp270
(dp271
g72
(dp272
sg81
g266
sg74
(lp273
g67
(g88
g69
NtRp274
(dp275
g72
(dp276
g92
g93
ssg81
g270
sg74
(lp277
S'session_id_admin'
p278
asbag67
(g88
g69
NtRp279
(dp280
g72
(dp281
g99
g100
ssg81
g270
sg74
(lp282
S':'
asbag67
(g88
g69
NtRp283
(dp284
g72
(dp285
sg81
g270
sg74
(lp286
g67
(g68
g69
NtRp287
(dp288
g72
(dp289
g80
I4
ssg81
g283
sg74
(lp290
S'127.0.0.1-9640a29f-86a5-4471-9025-77da26554f56'
p291
ag67
(g76
g69
NtRp292
(dp293
g72
(dp294
g80
I3
ssg81
Nsg74
(lp295
g67
(g83
g69
NtRp296
(dp297
g72
(dp298
sg81
g292
sg74
(lp299
g67
(g88
g69
NtRp300
(dp301
g72
(dp302
g92
g93
ssg81
g296
sg74
(lp303
S'comment'
p304
asbag67
(g88
g69
NtRp305
(dp306
g72
(dp307
g99
g100
ssg81
g296
sg74
(lp308
S':'
asbag67
(g88
g69
NtRp309
(dp310
g72
(dp311
sg81
g296
sg74
(lp312
g67
(g68
g69
NtRp313
(dp314
g72
(dp315
g80
I3
ssg81
g309
sg74
(lp316
S''
asbasbasbag67
(g83
g69
NtRp317
(dp318
g72
(dp319
sg81
g292
sg74
(lp320
g67
(g88
g69
NtRp321
(dp322
g72
(dp323
g92
g93
ssg81
g317
sg74
(lp324
S'domain'
p325
asbag67
(g88
g69
NtRp326
(dp327
g72
(dp328
g99
g100
ssg81
g317
sg74
(lp329
S':'
asbag67
(g88
g69
NtRp330
(dp331
g72
(dp332
sg81
g317
sg74
(lp333
g67
(g68
g69
NtRp334
(dp335
g72
(dp336
g80
I3
ssg81
g330
sg74
(lp337
S''
asbasbasbag67
(g83
g69
NtRp338
(dp339
g72
(dp340
sg81
g292
sg74
(lp341
g67
(g88
g69
NtRp342
(dp343
g72
(dp344
g92
g93
ssg81
g338
sg74
(lp345
S'expires'
p346
asbag67
(g88
g69
NtRp347
(dp348
g72
(dp349
g99
g100
ssg81
g338
sg74
(lp350
S':'
asbag67
(g88
g69
NtRp351
(dp352
g72
(dp353
sg81
g338
sg74
(lp354
g67
(g68
g69
NtRp355
(dp356
g72
(dp357
g80
I3
ssg81
g351
sg74
(lp358
S''
asbasbasbag67
(g83
g69
NtRp359
(dp360
g72
(dp361
sg81
g292
sg74
(lp362
g67
(g88
g69
NtRp363
(dp364
g72
(dp365
g92
g93
ssg81
g359
sg74
(lp366
S'httponly'
p367
asbag67
(g88
g69
NtRp368
(dp369
g72
(dp370
g99
g100
ssg81
g359
sg74
(lp371
S':'
asbag67
(g88
g69
NtRp372
(dp373
g72
(dp374
sg81
g359
sg74
(lp375
g67
(g68
g69
NtRp376
(dp377
g72
(dp378
g80
I3
ssg81
g372
sg74
(lp379
S''
asbasbasbag67
(g83
g69
NtRp380
(dp381
g72
(dp382
sg81
g292
sg74
(lp383
g67
(g88
g69
NtRp384
(dp385
g72
(dp386
g92
g93
ssg81
g380
sg74
(lp387
S'max-age'
p388
asbag67
(g88
g69
NtRp389
(dp390
g72
(dp391
g99
g100
ssg81
g380
sg74
(lp392
S':'
asbag67
(g88
g69
NtRp393
(dp394
g72
(dp395
sg81
g380
sg74
(lp396
g67
(g68
g69
NtRp397
(dp398
g72
(dp399
g80
I3
ssg81
g393
sg74
(lp400
S''
asbasbasbag67
(g83
g69
NtRp401
(dp402
g72
(dp403
sg81
g292
sg74
(lp404
g67
(g88
g69
NtRp405
(dp406
g72
(dp407
g92
g93
ssg81
g401
sg74
(lp408
S'path'
p409
asbag67
(g88
g69
NtRp410
(dp411
g72
(dp412
g99
g100
ssg81
g401
sg74
(lp413
S':'
asbag67
(g88
g69
NtRp414
(dp415
g72
(dp416
sg81
g401
sg74
(lp417
g67
(g68
g69
NtRp418
(dp419
g72
(dp420
g80
I3
ssg81
g414
sg74
(lp421
S''
asbasbasbag67
(g83
g69
NtRp422
(dp423
g72
(dp424
sg81
g292
sg74
(lp425
g67
(g88
g69
NtRp426
(dp427
g72
(dp428
g92
g93
ssg81
g422
sg74
(lp429
S'secure'
p430
asbag67
(g88
g69
NtRp431
(dp432
g72
(dp433
g99
g100
ssg81
g422
sg74
(lp434
S':'
asbag67
(g88
g69
NtRp435
(dp436
g72
(dp437
sg81
g422
sg74
(lp438
g67
(g68
g69
NtRp439
(dp440
g72
(dp441
g80
I3
ssg81
g435
sg74
(lp442
S''
asbasbasbag67
(g83
g69
NtRp443
(dp444
g72
(dp445
sg81
g292
sg74
(lp446
g67
(g88
g69
NtRp447
(dp448
g72
(dp449
g92
g93
ssg81
g443
sg74
(lp450
S'version'
p451
asbag67
(g88
g69
NtRp452
(dp453
g72
(dp454
g99
g100
ssg81
g443
sg74
(lp455
S':'
asbag67
(g88
g69
NtRp456
(dp457
g72
(dp458
sg81
g443
sg74
(lp459
g67
(g68
g69
NtRp460
(dp461
g72
(dp462
g80
I3
ssg81
g456
sg74
(lp463
S''
asbasbasbasbasbasbasbag67
(g83
g69
NtRp464
(dp465
g72
(dp466
sg81
g266
sg74
(lp467
g67
(g88
g69
NtRp468
(dp469
g72
(dp470
g92
g93
ssg81
g464
sg74
(lp471
S'session_id_projeto'
p472
asbag67
(g88
g69
NtRp473
(dp474
g72
(dp475
g99
g100
ssg81
g464
sg74
(lp476
S':'
asbag67
(g88
g69
NtRp477
(dp478
g72
(dp479
sg81
g464
sg74
(lp480
g67
(g68
g69
NtRp481
(dp482
g72
(dp483
g80
I4
ssg81
g477
sg74
(lp484
S'127.0.0.1-71851f1a-a738-4589-a6cd-6594e5094ab6'
p485
ag67
(g76
g69
NtRp486
(dp487
g72
(dp488
g80
I3
ssg81
Nsg74
(lp489
g67
(g83
g69
NtRp490
(dp491
g72
(dp492
sg81
g486
sg74
(lp493
g67
(g88
g69
NtRp494
(dp495
g72
(dp496
g92
g93
ssg81
g490
sg74
(lp497
g304
asbag67
(g88
g69
NtRp498
(dp499
g72
(dp500
g99
g100
ssg81
g490
sg74
(lp501
S':'
asbag67
(g88
g69
NtRp502
(dp503
g72
(dp504
sg81
g490
sg74
(lp505
g67
(g68
g69
NtRp506
(dp507
g72
(dp508
g80
I3
ssg81
g502
sg74
(lp509
S''
asbasbasbag67
(g83
g69
NtRp510
(dp511
g72
(dp512
sg81
g486
sg74
(lp513
g67
(g88
g69
NtRp514
(dp515
g72
(dp516
g92
g93
ssg81
g510
sg74
(lp517
g325
asbag67
(g88
g69
NtRp518
(dp519
g72
(dp520
g99
g100
ssg81
g510
sg74
(lp521
S':'
asbag67
(g88
g69
NtRp522
(dp523
g72
(dp524
sg81
g510
sg74
(lp525
g67
(g68
g69
NtRp526
(dp527
g72
(dp528
g80
I3
ssg81
g522
sg74
(lp529
S''
asbasbasbag67
(g83
g69
NtRp530
(dp531
g72
(dp532
sg81
g486
sg74
(lp533
g67
(g88
g69
NtRp534
(dp535
g72
(dp536
g92
g93
ssg81
g530
sg74
(lp537
g346
asbag67
(g88
g69
NtRp538
(dp539
g72
(dp540
g99
g100
ssg81
g530
sg74
(lp541
S':'
asbag67
(g88
g69
NtRp542
(dp543
g72
(dp544
sg81
g530
sg74
(lp545
g67
(g68
g69
NtRp546
(dp547
g72
(dp548
g80
I3
ssg81
g542
sg74
(lp549
S''
asbasbasbag67
(g83
g69
NtRp550
(dp551
g72
(dp552
sg81
g486
sg74
(lp553
g67
(g88
g69
NtRp554
(dp555
g72
(dp556
g92
g93
ssg81
g550
sg74
(lp557
g367
asbag67
(g88
g69
NtRp558
(dp559
g72
(dp560
g99
g100
ssg81
g550
sg74
(lp561
S':'
asbag67
(g88
g69
NtRp562
(dp563
g72
(dp564
sg81
g550
sg74
(lp565
g67
(g68
g69
NtRp566
(dp567
g72
(dp568
g80
I3
ssg81
g562
sg74
(lp569
S''
asbasbasbag67
(g83
g69
NtRp570
(dp571
g72
(dp572
sg81
g486
sg74
(lp573
g67
(g88
g69
NtRp574
(dp575
g72
(dp576
g92
g93
ssg81
g570
sg74
(lp577
g388
asbag67
(g88
g69
NtRp578
(dp579
g72
(dp580
g99
g100
ssg81
g570
sg74
(lp581
S':'
asbag67
(g88
g69
NtRp582
(dp583
g72
(dp584
sg81
g570
sg74
(lp585
g67
(g68
g69
NtRp586
(dp587
g72
(dp588
g80
I3
ssg81
g582
sg74
(lp589
S''
asbasbasbag67
(g83
g69
NtRp590
(dp591
g72
(dp592
sg81
g486
sg74
(lp593
g67
(g88
g69
NtRp594
(dp595
g72
(dp596
g92
g93
ssg81
g590
sg74
(lp597
g409
asbag67
(g88
g69
NtRp598
(dp599
g72
(dp600
g99
g100
ssg81
g590
sg74
(lp601
S':'
asbag67
(g88
g69
NtRp602
(dp603
g72
(dp604
sg81
g590
sg74
(lp605
g67
(g68
g69
NtRp606
(dp607
g72
(dp608
g80
I3
ssg81
g602
sg74
(lp609
S''
asbasbasbag67
(g83
g69
NtRp610
(dp611
g72
(dp612
sg81
g486
sg74
(lp613
g67
(g88
g69
NtRp614
(dp615
g72
(dp616
g92
g93
ssg81
g610
sg74
(lp617
g430
asbag67
(g88
g69
NtRp618
(dp619
g72
(dp620
g99
g100
ssg81
g610
sg74
(lp621
S':'
asbag67
(g88
g69
NtRp622
(dp623
g72
(dp624
sg81
g610
sg74
(lp625
g67
(g68
g69
NtRp626
(dp627
g72
(dp628
g80
I3
ssg81
g622
sg74
(lp629
S''
asbasbasbag67
(g83
g69
NtRp630
(dp631
g72
(dp632
sg81
g486
sg74
(lp633
g67
(g88
g69
NtRp634
(dp635
g72
(dp636
g92
g93
ssg81
g630
sg74
(lp637
g451
asbag67
(g88
g69
NtRp638
(dp639
g72
(dp640
g99
g100
ssg81
g630
sg74
(lp641
S':'
asbag67
(g88
g69
NtRp642
(dp643
g72
(dp644
sg81
g630
sg74
(lp645
g67
(g68
g69
NtRp646
(dp647
g72
(dp648
g80
I3
ssg81
g642
sg74
(lp649
S''
asbasbasbasbasbasbasbasbasbasbasbag67
(g83
g69
NtRp650
(dp651
g72
(dp652
sg81
g77
sg74
(lp653
g67
(g88
g69
NtRp654
(dp655
g72
(dp656
g92
g93
ssg81
g650
sg74
(lp657
S'env'
p658
asbag67
(g88
g69
NtRp659
(dp660
g72
(dp661
g99
g100
ssg81
g650
sg74
(lp662
S':'
asbag67
(g88
g69
NtRp663
(dp664
g72
(dp665
sg81
g650
sg74
(lp666
g67
(g68
g69
NtRp667
(dp668
g72
(dp669
g80
I5
ssg81
g663
sg74
(lp670
g67
(g76
g69
NtRp671
(dp672
g72
(dp673
g80
I4
ssg81
Nsg74
(lp674
g67
(g83
g69
NtRp675
(dp676
g72
(dp677
sg81
g671
sg74
(lp678
g67
(g88
g69
NtRp679
(dp680
g72
(dp681
g92
g93
ssg81
g675
sg74
(lp682
S'app_folders'
p683
asbag67
(g88
g69
NtRp684
(dp685
g72
(dp686
g99
g100
ssg81
g675
sg74
(lp687
S':'
asbag67
(g88
g69
NtRp688
(dp689
g72
(dp690
sg81
g675
sg74
(lp691
g67
(g68
g69
NtRp692
(dp693
g72
(dp694
g80
I4
ssg81
g688
sg74
(lp695
S"set(['/var/www/web2py_curso/applications/projeto/'])"
p696
asbasbasbag67
(g83
g69
NtRp697
(dp698
g72
(dp699
sg81
g671
sg74
(lp700
g67
(g88
g69
NtRp701
(dp702
g72
(dp703
g92
g93
ssg81
g697
sg74
(lp704
S'applications_parent'
p705
asbag67
(g88
g69
NtRp706
(dp707
g72
(dp708
g99
g100
ssg81
g697
sg74
(lp709
S':'
asbag67
(g88
g69
NtRp710
(dp711
g72
(dp712
sg81
g697
sg74
(lp713
g67
(g68
g69
NtRp714
(dp715
g72
(dp716
g80
I4
ssg81
g710
sg74
(lp717
S'/var/www/web2py_curso'
p718
asbasbasbag67
(g83
g69
NtRp719
(dp720
g72
(dp721
sg81
g671
sg74
(lp722
g67
(g88
g69
NtRp723
(dp724
g72
(dp725
g92
g93
ssg81
g719
sg74
(lp726
S'cmd_args'
p727
asbag67
(g88
g69
NtRp728
(dp729
g72
(dp730
g99
g100
ssg81
g719
sg74
(lp731
S':'
asbag67
(g88
g69
NtRp732
(dp733
g72
(dp734
sg81
g719
sg74
(lp735
g67
(g68
g69
NtRp736
(dp737
g72
(dp738
g80
I4
ssg81
g732
sg74
(lp739
g67
(g76
g69
NtRp740
(dp741
g72
(dp742
g80
I3
ssg81
Nsg74
(lp743
sbasbasbasbag67
(g83
g69
NtRp744
(dp745
g72
(dp746
sg81
g671
sg74
(lp747
g67
(g88
g69
NtRp748
(dp749
g72
(dp750
g92
g93
ssg81
g744
sg74
(lp751
S'cmd_options'
p752
asbag67
(g88
g69
NtRp753
(dp754
g72
(dp755
g99
g100
ssg81
g744
sg74
(lp756
S':'
asbag67
(g88
g69
NtRp757
(dp758
g72
(dp759
sg81
g744
sg74
(lp760
g67
(g68
g69
NtRp761
(dp762
g72
(dp763
g80
I4
ssg81
g757
sg74
(lp764
S"<Values at 0x3476a28: {'verbose': False, 'ip': '127.0.0.1', 'with_scheduler': False, 'ips': [], 'shutdown_timeout': 5, 'taskbar': False, 'port': 8000, 'maxthreads': None, 'softcron': False, 'server_name': 'fernando-pc', 'bpython': False, 'nogui': False, 'pid_filename': 'httpserver.pid', 'extcron': False, 'runcron': False, 'run_system_tests': False, 'test': None, 'folder': '/var/www/web2py_curso', 'config': '', 'minthreads': None, 'winservice': '', 'shell': None, 'run': '', 'log_filename': 'httpserver.log', 'debuglevel': 30, 'args': [''], 'socket_timeout': 5, 'ssl_ca_certificate': None, 'scheduler': None, 'profiler_filename': None, 'ssl_private_key': '', 'scheduler_groups': None, 'password': '123456', 'request_queue_size': 5, 'ssl_certificate': '', 'cronjob': False, 'numthreads': None, 'quiet': False, 'interfaces': None, 'import_models': False, 'timeout': 10, 'plain': False, 'nobanner': False}>"
p765
asbasbasbag67
(g83
g69
NtRp766
(dp767
g72
(dp768
sg81
g671
sg74
(lp769
g67
(g88
g69
NtRp770
(dp771
g72
(dp772
g92
g93
ssg81
g766
sg74
(lp773
S'db_sessions'
p774
asbag67
(g88
g69
NtRp775
(dp776
g72
(dp777
g99
g100
ssg81
g766
sg74
(lp778
S':'
asbag67
(g88
g69
NtRp779
(dp780
g72
(dp781
sg81
g766
sg74
(lp782
g67
(g68
g69
NtRp783
(dp784
g72
(dp785
g80
I4
ssg81
g779
sg74
(lp786
S'set([])'
p787
asbasbasbag67
(g83
g69
NtRp788
(dp789
g72
(dp790
sg81
g671
sg74
(lp791
g67
(g88
g69
NtRp792
(dp793
g72
(dp794
g92
g93
ssg81
g788
sg74
(lp795
S'debugging'
p796
asbag67
(g88
g69
NtRp797
(dp798
g72
(dp799
g99
g100
ssg81
g788
sg74
(lp800
S':'
asbag67
(g88
g69
NtRp801
(dp802
g72
(dp803
sg81
g788
sg74
(lp804
g67
(g68
g69
NtRp805
(dp806
g72
(dp807
g80
I4
ssg81
g801
sg74
(lp808
g110
asbasbasbag67
(g83
g69
NtRp809
(dp810
g72
(dp811
sg81
g671
sg74
(lp812
g67
(g88
g69
NtRp813
(dp814
g72
(dp815
g92
g93
ssg81
g809
sg74
(lp816
S'gluon_parent'
p817
asbag67
(g88
g69
NtRp818
(dp819
g72
(dp820
g99
g100
ssg81
g809
sg74
(lp821
S':'
asbag67
(g88
g69
NtRp822
(dp823
g72
(dp824
sg81
g809
sg74
(lp825
g67
(g68
g69
NtRp826
(dp827
g72
(dp828
g80
I4
ssg81
g822
sg74
(lp829
S'/var/www/web2py_curso'
p830
asbasbasbag67
(g83
g69
NtRp831
(dp832
g72
(dp833
sg81
g671
sg74
(lp834
g67
(g88
g69
NtRp835
(dp836
g72
(dp837
g92
g93
ssg81
g831
sg74
(lp838
S'http_accept'
p839
asbag67
(g88
g69
NtRp840
(dp841
g72
(dp842
g99
g100
ssg81
g831
sg74
(lp843
S':'
asbag67
(g88
g69
NtRp844
(dp845
g72
(dp846
sg81
g831
sg74
(lp847
g67
(g68
g69
NtRp848
(dp849
g72
(dp850
g80
I4
ssg81
g844
sg74
(lp851
S'text/html,application/xhtml+xml,application/xml;q=0.9,*/*;q=0.8'
p852
asbasbasbag67
(g83
g69
NtRp853
(dp854
g72
(dp855
sg81
g671
sg74
(lp856
g67
(g88
g69
NtRp857
(dp858
g72
(dp859
g92
g93
ssg81
g853
sg74
(lp860
S'http_accept_charset'
p861
asbag67
(g88
g69
NtRp862
(dp863
g72
(dp864
g99
g100
ssg81
g853
sg74
(lp865
S':'
asbag67
(g88
g69
NtRp866
(dp867
g72
(dp868
sg81
g853
sg74
(lp869
g67
(g68
g69
NtRp870
(dp871
g72
(dp872
g80
I4
ssg81
g866
sg74
(lp873
S'ISO-8859-1,utf-8;q=0.7,*;q=0.3'
p874
asbasbasbag67
(g83
g69
NtRp875
(dp876
g72
(dp877
sg81
g671
sg74
(lp878
g67
(g88
g69
NtRp879
(dp880
g72
(dp881
g92
g93
ssg81
g875
sg74
(lp882
S'http_accept_encoding'
p883
asbag67
(g88
g69
NtRp884
(dp885
g72
(dp886
g99
g100
ssg81
g875
sg74
(lp887
S':'
asbag67
(g88
g69
NtRp888
(dp889
g72
(dp890
sg81
g875
sg74
(lp891
g67
(g68
g69
NtRp892
(dp893
g72
(dp894
g80
I4
ssg81
g888
sg74
(lp895
S'gzip,deflate,sdch'
p896
asbasbasbag67
(g83
g69
NtRp897
(dp898
g72
(dp899
sg81
g671
sg74
(lp900
g67
(g88
g69
NtRp901
(dp902
g72
(dp903
g92
g93
ssg81
g897
sg74
(lp904
S'http_accept_language'
p905
asbag67
(g88
g69
NtRp906
(dp907
g72
(dp908
g99
g100
ssg81
g897
sg74
(lp909
S':'
asbag67
(g88
g69
NtRp910
(dp911
g72
(dp912
sg81
g897
sg74
(lp913
g67
(g68
g69
NtRp914
(dp915
g72
(dp916
g80
I4
ssg81
g910
sg74
(lp917
S'pt-BR,pt;q=0.8,en-US;q=0.6,en;q=0.4'
p918
asbasbasbag67
(g83
g69
NtRp919
(dp920
g72
(dp921
sg81
g671
sg74
(lp922
g67
(g88
g69
NtRp923
(dp924
g72
(dp925
g92
g93
ssg81
g919
sg74
(lp926
S'http_connection'
p927
asbag67
(g88
g69
NtRp928
(dp929
g72
(dp930
g99
g100
ssg81
g919
sg74
(lp931
S':'
asbag67
(g88
g69
NtRp932
(dp933
g72
(dp934
sg81
g919
sg74
(lp935
g67
(g68
g69
NtRp936
(dp937
g72
(dp938
g80
I4
ssg81
g932
sg74
(lp939
S'keep-alive'
p940
asbasbasbag67
(g83
g69
NtRp941
(dp942
g72
(dp943
sg81
g671
sg74
(lp944
g67
(g88
g69
NtRp945
(dp946
g72
(dp947
g92
g93
ssg81
g941
sg74
(lp948
S'http_cookie'
p949
asbag67
(g88
g69
NtRp950
(dp951
g72
(dp952
g99
g100
ssg81
g941
sg74
(lp953
S':'
asbag67
(g88
g69
NtRp954
(dp955
g72
(dp956
sg81
g941
sg74
(lp957
g67
(g68
g69
NtRp958
(dp959
g72
(dp960
g80
I4
ssg81
g954
sg74
(lp961
S'session_id_admin=127.0.0.1-9640a29f-86a5-4471-9025-77da26554f56; session_id_projeto=127.0.0.1-71851f1a-a738-4589-a6cd-6594e5094ab6'
p962
asbasbasbag67
(g83
g69
NtRp963
(dp964
g72
(dp965
sg81
g671
sg74
(lp966
g67
(g88
g69
NtRp967
(dp968
g72
(dp969
g92
g93
ssg81
g963
sg74
(lp970
S'http_host'
p971
asbag67
(g88
g69
NtRp972
(dp973
g72
(dp974
g99
g100
ssg81
g963
sg74
(lp975
S':'
asbag67
(g88
g69
NtRp976
(dp977
g72
(dp978
sg81
g963
sg74
(lp979
g67
(g68
g69
NtRp980
(dp981
g72
(dp982
g80
I4
ssg81
g976
sg74
(lp983
S'127.0.0.1:8000'
p984
asbasbasbag67
(g83
g69
NtRp985
(dp986
g72
(dp987
sg81
g671
sg74
(lp988
g67
(g88
g69
NtRp989
(dp990
g72
(dp991
g92
g93
ssg81
g985
sg74
(lp992
S'http_user_agent'
p993
asbag67
(g88
g69
NtRp994
(dp995
g72
(dp996
g99
g100
ssg81
g985
sg74
(lp997
S':'
asbag67
(g88
g69
NtRp998
(dp999
g72
(dp1000
sg81
g985
sg74
(lp1001
g67
(g68
g69
NtRp1002
(dp1003
g72
(dp1004
g80
I4
ssg81
g998
sg74
(lp1005
S'Mozilla/5.0 (X11; Linux x86_64) AppleWebKit/536.11 (KHTML, like Gecko) Ubuntu/12.04 Chromium/20.0.1132.47 Chrome/20.0.1132.47 Safari/536.11'
p1006
asbasbasbag67
(g83
g69
NtRp1007
(dp1008
g72
(dp1009
sg81
g671
sg74
(lp1010
g67
(g88
g69
NtRp1011
(dp1012
g72
(dp1013
g92
g93
ssg81
g1007
sg74
(lp1014
S'is_jython'
p1015
asbag67
(g88
g69
NtRp1016
(dp1017
g72
(dp1018
g99
g100
ssg81
g1007
sg74
(lp1019
S':'
asbag67
(g88
g69
NtRp1020
(dp1021
g72
(dp1022
sg81
g1007
sg74
(lp1023
g67
(g68
g69
NtRp1024
(dp1025
g72
(dp1026
g80
I4
ssg81
g1020
sg74
(lp1027
g110
asbasbasbag67
(g83
g69
NtRp1028
(dp1029
g72
(dp1030
sg81
g671
sg74
(lp1031
g67
(g88
g69
NtRp1032
(dp1033
g72
(dp1034
g92
g93
ssg81
g1028
sg74
(lp1035
S'is_pypy'
p1036
asbag67
(g88
g69
NtRp1037
(dp1038
g72
(dp1039
g99
g100
ssg81
g1028
sg74
(lp1040
S':'
asbag67
(g88
g69
NtRp1041
(dp1042
g72
(dp1043
sg81
g1028
sg74
(lp1044
g67
(g68
g69
NtRp1045
(dp1046
g72
(dp1047
g80
I4
ssg81
g1041
sg74
(lp1048
g110
asbasbasbag67
(g83
g69
NtRp1049
(dp1050
g72
(dp1051
sg81
g671
sg74
(lp1052
g67
(g88
g69
NtRp1053
(dp1054
g72
(dp1055
g92
g93
ssg81
g1049
sg74
(lp1056
S'local_hosts'
p1057
asbag67
(g88
g69
NtRp1058
(dp1059
g72
(dp1060
g99
g100
ssg81
g1049
sg74
(lp1061
S':'
asbag67
(g88
g69
NtRp1062
(dp1063
g72
(dp1064
sg81
g1049
sg74
(lp1065
g67
(g68
g69
NtRp1066
(dp1067
g72
(dp1068
g80
I4
ssg81
g1062
sg74
(lp1069
g67
(g76
g69
NtRp1070
(dp1071
g72
(dp1072
g80
I3
ssg81
Nsg74
(lp1073
g67
(g83
g69
NtRp1074
(dp1075
g72
(dp1076
sg81
g1070
sg74
(lp1077
g67
(g88
g69
NtRp1078
(dp1079
g72
(dp1080
sg81
g1074
sg74
(lp1081
g67
(g68
g69
NtRp1082
(dp1083
g72
(dp1084
g80
I3
ssg81
g1078
sg74
(lp1085
S'::1'
p1086
asbasbasbag67
(g83
g69
NtRp1087
(dp1088
g72
(dp1089
sg81
g1070
sg74
(lp1090
g67
(g88
g69
NtRp1091
(dp1092
g72
(dp1093
sg81
g1087
sg74
(lp1094
g67
(g68
g69
NtRp1095
(dp1096
g72
(dp1097
g80
I3
ssg81
g1091
sg74
(lp1098
S'127.0.1.1'
p1099
asbasbasbag67
(g83
g69
NtRp1100
(dp1101
g72
(dp1102
sg81
g1070
sg74
(lp1103
g67
(g88
g69
NtRp1104
(dp1105
g72
(dp1106
sg81
g1100
sg74
(lp1107
g67
(g68
g69
NtRp1108
(dp1109
g72
(dp1110
g80
I3
ssg81
g1104
sg74
(lp1111
S'fernando-pc'
p1112
asbasbasbag67
(g83
g69
NtRp1113
(dp1114
g72
(dp1115
sg81
g1070
sg74
(lp1116
g67
(g88
g69
NtRp1117
(dp1118
g72
(dp1119
sg81
g1113
sg74
(lp1120
g67
(g68
g69
NtRp1121
(dp1122
g72
(dp1123
g80
I3
ssg81
g1117
sg74
(lp1124
S'::ffff:127.0.0.1'
p1125
asbasbasbag67
(g83
g69
NtRp1126
(dp1127
g72
(dp1128
sg81
g1070
sg74
(lp1129
g67
(g88
g69
NtRp1130
(dp1131
g72
(dp1132
sg81
g1126
sg74
(lp1133
g67
(g68
g69
NtRp1134
(dp1135
g72
(dp1136
g80
I3
ssg81
g1130
sg74
(lp1137
S'127.0.0.1'
p1138
asbasbasbasbasbasbasbag67
(g83
g69
NtRp1139
(dp1140
g72
(dp1141
sg81
g671
sg74
(lp1142
g67
(g88
g69
NtRp1143
(dp1144
g72
(dp1145
g92
g93
ssg81
g1139
sg74
(lp1146
S'path_info'
p1147
asbag67
(g88
g69
NtRp1148
(dp1149
g72
(dp1150
g99
g100
ssg81
g1139
sg74
(lp1151
S':'
asbag67
(g88
g69
NtRp1152
(dp1153
g72
(dp1154
sg81
g1139
sg74
(lp1155
g67
(g68
g69
NtRp1156
(dp1157
g72
(dp1158
g80
I4
ssg81
g1152
sg74
(lp1159
S'/'
asbasbasbag67
(g83
g69
NtRp1160
(dp1161
g72
(dp1162
sg81
g671
sg74
(lp1163
g67
(g88
g69
NtRp1164
(dp1165
g72
(dp1166
g92
g93
ssg81
g1160
sg74
(lp1167
S'query_string'
p1168
asbag67
(g88
g69
NtRp1169
(dp1170
g72
(dp1171
g99
g100
ssg81
g1160
sg74
(lp1172
S':'
asbag67
(g88
g69
NtRp1173
(dp1174
g72
(dp1175
sg81
g1160
sg74
(lp1176
g67
(g68
g69
NtRp1177
(dp1178
g72
(dp1179
g80
I4
ssg81
g1173
sg74
(lp1180
S''
asbasbasbag67
(g83
g69
NtRp1181
(dp1182
g72
(dp1183
sg81
g671
sg74
(lp1184
g67
(g88
g69
NtRp1185
(dp1186
g72
(dp1187
g92
g93
ssg81
g1181
sg74
(lp1188
S'remote_addr'
p1189
asbag67
(g88
g69
NtRp1190
(dp1191
g72
(dp1192
g99
g100
ssg81
g1181
sg74
(lp1193
S':'
asbag67
(g88
g69
NtRp1194
(dp1195
g72
(dp1196
sg81
g1181
sg74
(lp1197
g67
(g68
g69
NtRp1198
(dp1199
g72
(dp1200
g80
I4
ssg81
g1194
sg74
(lp1201
g222
asbasbasbag67
(g83
g69
NtRp1202
(dp1203
g72
(dp1204
sg81
g671
sg74
(lp1205
g67
(g88
g69
NtRp1206
(dp1207
g72
(dp1208
g92
g93
ssg81
g1202
sg74
(lp1209
S'remote_port'
p1210
asbag67
(g88
g69
NtRp1211
(dp1212
g72
(dp1213
g99
g100
ssg81
g1202
sg74
(lp1214
S':'
asbag67
(g88
g69
NtRp1215
(dp1216
g72
(dp1217
sg81
g1202
sg74
(lp1218
g67
(g68
g69
NtRp1219
(dp1220
g72
(dp1221
g80
I4
ssg81
g1215
sg74
(lp1222
S'47010'
p1223
asbasbasbag67
(g83
g69
NtRp1224
(dp1225
g72
(dp1226
sg81
g671
sg74
(lp1227
g67
(g88
g69
NtRp1228
(dp1229
g72
(dp1230
g92
g93
ssg81
g1224
sg74
(lp1231
S'request_method'
p1232
asbag67
(g88
g69
NtRp1233
(dp1234
g72
(dp1235
g99
g100
ssg81
g1224
sg74
(lp1236
S':'
asbag67
(g88
g69
NtRp1237
(dp1238
g72
(dp1239
sg81
g1224
sg74
(lp1240
g67
(g68
g69
NtRp1241
(dp1242
g72
(dp1243
g80
I4
ssg81
g1237
sg74
(lp1244
S'GET'
p1245
asbasbasbag67
(g83
g69
NtRp1246
(dp1247
g72
(dp1248
sg81
g671
sg74
(lp1249
g67
(g88
g69
NtRp1250
(dp1251
g72
(dp1252
g92
g93
ssg81
g1246
sg74
(lp1253
S'request_uri'
p1254
asbag67
(g88
g69
NtRp1255
(dp1256
g72
(dp1257
g99
g100
ssg81
g1246
sg74
(lp1258
S':'
asbag67
(g88
g69
NtRp1259
(dp1260
g72
(dp1261
sg81
g1246
sg74
(lp1262
g67
(g68
g69
NtRp1263
(dp1264
g72
(dp1265
g80
I4
ssg81
g1259
sg74
(lp1266
S'/projeto/initial/home'
p1267
asbasbasbag67
(g83
g69
NtRp1268
(dp1269
g72
(dp1270
sg81
g671
sg74
(lp1271
g67
(g88
g69
NtRp1272
(dp1273
g72
(dp1274
g92
g93
ssg81
g1268
sg74
(lp1275
S'script_name'
p1276
asbag67
(g88
g69
NtRp1277
(dp1278
g72
(dp1279
g99
g100
ssg81
g1268
sg74
(lp1280
S':'
asbag67
(g88
g69
NtRp1281
(dp1282
g72
(dp1283
sg81
g1268
sg74
(lp1284
g67
(g68
g69
NtRp1285
(dp1286
g72
(dp1287
g80
I4
ssg81
g1281
sg74
(lp1288
S''
asbasbasbag67
(g83
g69
NtRp1289
(dp1290
g72
(dp1291
sg81
g671
sg74
(lp1292
g67
(g88
g69
NtRp1293
(dp1294
g72
(dp1295
g92
g93
ssg81
g1289
sg74
(lp1296
S'server_name'
p1297
asbag67
(g88
g69
NtRp1298
(dp1299
g72
(dp1300
g99
g100
ssg81
g1289
sg74
(lp1301
S':'
asbag67
(g88
g69
NtRp1302
(dp1303
g72
(dp1304
sg81
g1289
sg74
(lp1305
g67
(g68
g69
NtRp1306
(dp1307
g72
(dp1308
g80
I4
ssg81
g1302
sg74
(lp1309
S'fernando-pc'
p1310
asbasbasbag67
(g83
g69
NtRp1311
(dp1312
g72
(dp1313
sg81
g671
sg74
(lp1314
g67
(g88
g69
NtRp1315
(dp1316
g72
(dp1317
g92
g93
ssg81
g1311
sg74
(lp1318
S'server_port'
p1319
asbag67
(g88
g69
NtRp1320
(dp1321
g72
(dp1322
g99
g100
ssg81
g1311
sg74
(lp1323
S':'
asbag67
(g88
g69
NtRp1324
(dp1325
g72
(dp1326
sg81
g1311
sg74
(lp1327
g67
(g68
g69
NtRp1328
(dp1329
g72
(dp1330
g80
I4
ssg81
g1324
sg74
(lp1331
S'8000'
p1332
asbasbasbag67
(g83
g69
NtRp1333
(dp1334
g72
(dp1335
sg81
g671
sg74
(lp1336
g67
(g88
g69
NtRp1337
(dp1338
g72
(dp1339
g92
g93
ssg81
g1333
sg74
(lp1340
S'server_protocol'
p1341
asbag67
(g88
g69
NtRp1342
(dp1343
g72
(dp1344
g99
g100
ssg81
g1333
sg74
(lp1345
S':'
asbag67
(g88
g69
NtRp1346
(dp1347
g72
(dp1348
sg81
g1333
sg74
(lp1349
g67
(g68
g69
NtRp1350
(dp1351
g72
(dp1352
g80
I4
ssg81
g1346
sg74
(lp1353
S'HTTP/1.1'
p1354
asbasbasbag67
(g83
g69
NtRp1355
(dp1356
g72
(dp1357
sg81
g671
sg74
(lp1358
g67
(g88
g69
NtRp1359
(dp1360
g72
(dp1361
g92
g93
ssg81
g1355
sg74
(lp1362
S'server_software'
p1363
asbag67
(g88
g69
NtRp1364
(dp1365
g72
(dp1366
g99
g100
ssg81
g1355
sg74
(lp1367
S':'
asbag67
(g88
g69
NtRp1368
(dp1369
g72
(dp1370
sg81
g1355
sg74
(lp1371
g67
(g68
g69
NtRp1372
(dp1373
g72
(dp1374
g80
I4
ssg81
g1368
sg74
(lp1375
S'Rocket 1.2.6'
p1376
asbasbasbag67
(g83
g69
NtRp1377
(dp1378
g72
(dp1379
sg81
g671
sg74
(lp1380
g67
(g88
g69
NtRp1381
(dp1382
g72
(dp1383
g92
g93
ssg81
g1377
sg74
(lp1384
S'web2py_original_uri'
p1385
asbag67
(g88
g69
NtRp1386
(dp1387
g72
(dp1388
g99
g100
ssg81
g1377
sg74
(lp1389
S':'
asbag67
(g88
g69
NtRp1390
(dp1391
g72
(dp1392
sg81
g1377
sg74
(lp1393
g67
(g68
g69
NtRp1394
(dp1395
g72
(dp1396
g80
I4
ssg81
g1390
sg74
(lp1397
S'/'
asbasbasbag67
(g83
g69
NtRp1398
(dp1399
g72
(dp1400
sg81
g671
sg74
(lp1401
g67
(g88
g69
NtRp1402
(dp1403
g72
(dp1404
g92
g93
ssg81
g1398
sg74
(lp1405
S'web2py_path'
p1406
asbag67
(g88
g69
NtRp1407
(dp1408
g72
(dp1409
g99
g100
ssg81
g1398
sg74
(lp1410
S':'
asbag67
(g88
g69
NtRp1411
(dp1412
g72
(dp1413
sg81
g1398
sg74
(lp1414
g67
(g68
g69
NtRp1415
(dp1416
g72
(dp1417
g80
I4
ssg81
g1411
sg74
(lp1418
g718
asbasbasbag67
(g83
g69
NtRp1419
(dp1420
g72
(dp1421
sg81
g671
sg74
(lp1422
g67
(g88
g69
NtRp1423
(dp1424
g72
(dp1425
g92
g93
ssg81
g1419
sg74
(lp1426
S'web2py_version'
p1427
asbag67
(g88
g69
NtRp1428
(dp1429
g72
(dp1430
g99
g100
ssg81
g1419
sg74
(lp1431
S':'
asbag67
(g88
g69
NtRp1432
(dp1433
g72
(dp1434
sg81
g1419
sg74
(lp1435
g67
(g68
g69
NtRp1436
(dp1437
g72
(dp1438
g80
I4
ssg81
g1432
sg74
(lp1439
g67
(g76
g69
NtRp1440
(dp1441
g72
(dp1442
g80
I3
ssg81
Nsg74
(lp1443
g67
(g83
g69
NtRp1444
(dp1445
g72
(dp1446
sg81
g1440
sg74
(lp1447
g67
(g88
g69
NtRp1448
(dp1449
g72
(dp1450
sg81
g1444
sg74
(lp1451
g67
(g68
g69
NtRp1452
(dp1453
g72
(dp1454
g80
I3
ssg81
g1448
sg74
(lp1455
S'2'
asbasbasbag67
(g83
g69
NtRp1456
(dp1457
g72
(dp1458
sg81
g1440
sg74
(lp1459
g67
(g88
g69
NtRp1460
(dp1461
g72
(dp1462
sg81
g1456
sg74
(lp1463
g67
(g68
g69
NtRp1464
(dp1465
g72
(dp1466
g80
I3
ssg81
g1460
sg74
(lp1467
S'3'
asbasbasbag67
(g83
g69
NtRp1468
(dp1469
g72
(dp1470
sg81
g1440
sg74
(lp1471
g67
(g88
g69
NtRp1472
(dp1473
g72
(dp1474
sg81
g1468
sg74
(lp1475
g67
(g68
g69
NtRp1476
(dp1477
g72
(dp1478
g80
I3
ssg81
g1472
sg74
(lp1479
S'2'
asbasbasbag67
(g83
g69
NtRp1480
(dp1481
g72
(dp1482
sg81
g1440
sg74
(lp1483
g67
(g88
g69
NtRp1484
(dp1485
g72
(dp1486
sg81
g1480
sg74
(lp1487
g67
(g68
g69
NtRp1488
(dp1489
g72
(dp1490
g80
I3
ssg81
g1484
sg74
(lp1491
S'datetime.datetime(2012, 12, 17, 15, 3, 30)'
p1492
asbasbasbag67
(g83
g69
NtRp1493
(dp1494
g72
(dp1495
sg81
g1440
sg74
(lp1496
g67
(g88
g69
NtRp1497
(dp1498
g72
(dp1499
sg81
g1493
sg74
(lp1500
g67
(g68
g69
NtRp1501
(dp1502
g72
(dp1503
g80
I3
ssg81
g1497
sg74
(lp1504
S'stable'
p1505
asbasbasbasbasbasbasbag67
(g83
g69
NtRp1506
(dp1507
g72
(dp1508
sg81
g671
sg74
(lp1509
g67
(g88
g69
NtRp1510
(dp1511
g72
(dp1512
g92
g93
ssg81
g1506
sg74
(lp1513
S'wsgi_errors'
p1514
asbag67
(g88
g69
NtRp1515
(dp1516
g72
(dp1517
g99
g100
ssg81
g1506
sg74
(lp1518
S':'
asbag67
(g88
g69
NtRp1519
(dp1520
g72
(dp1521
sg81
g1506
sg74
(lp1522
g67
(g68
g69
NtRp1523
(dp1524
g72
(dp1525
g80
I4
ssg81
g1519
sg74
(lp1526
S"<open file '<stderr>', mode 'w' at 0x7fe5e28a2270>"
p1527
asbasbasbag67
(g83
g69
NtRp1528
(dp1529
g72
(dp1530
sg81
g671
sg74
(lp1531
g67
(g88
g69
NtRp1532
(dp1533
g72
(dp1534
g92
g93
ssg81
g1528
sg74
(lp1535
S'wsgi_file_wrapper'
p1536
asbag67
(g88
g69
NtRp1537
(dp1538
g72
(dp1539
g99
g100
ssg81
g1528
sg74
(lp1540
S':'
asbag67
(g88
g69
NtRp1541
(dp1542
g72
(dp1543
sg81
g1528
sg74
(lp1544
g67
(g68
g69
NtRp1545
(dp1546
g72
(dp1547
g80
I4
ssg81
g1541
sg74
(lp1548
S'<class wsgiref.util.FileWrapper at 0x33c4808>'
p1549
asbasbasbag67
(g83
g69
NtRp1550
(dp1551
g72
(dp1552
sg81
g671
sg74
(lp1553
g67
(g88
g69
NtRp1554
(dp1555
g72
(dp1556
g92
g93
ssg81
g1550
sg74
(lp1557
S'wsgi_input'
p1558
asbag67
(g88
g69
NtRp1559
(dp1560
g72
(dp1561
g99
g100
ssg81
g1550
sg74
(lp1562
S':'
asbag67
(g88
g69
NtRp1563
(dp1564
g72
(dp1565
sg81
g1550
sg74
(lp1566
g67
(g68
g69
NtRp1567
(dp1568
g72
(dp1569
g80
I4
ssg81
g1563
sg74
(lp1570
S'<socket._fileobject object at 0x7fe5cc18a150>'
p1571
asbasbasbag67
(g83
g69
NtRp1572
(dp1573
g72
(dp1574
sg81
g671
sg74
(lp1575
g67
(g88
g69
NtRp1576
(dp1577
g72
(dp1578
g92
g93
ssg81
g1572
sg74
(lp1579
S'wsgi_multiprocess'
p1580
asbag67
(g88
g69
NtRp1581
(dp1582
g72
(dp1583
g99
g100
ssg81
g1572
sg74
(lp1584
S':'
asbag67
(g88
g69
NtRp1585
(dp1586
g72
(dp1587
sg81
g1572
sg74
(lp1588
g67
(g68
g69
NtRp1589
(dp1590
g72
(dp1591
g80
I4
ssg81
g1585
sg74
(lp1592
g110
asbasbasbag67
(g83
g69
NtRp1593
(dp1594
g72
(dp1595
sg81
g671
sg74
(lp1596
g67
(g88
g69
NtRp1597
(dp1598
g72
(dp1599
g92
g93
ssg81
g1593
sg74
(lp1600
S'wsgi_multithread'
p1601
asbag67
(g88
g69
NtRp1602
(dp1603
g72
(dp1604
g99
g100
ssg81
g1593
sg74
(lp1605
S':'
asbag67
(g88
g69
NtRp1606
(dp1607
g72
(dp1608
sg81
g1593
sg74
(lp1609
g67
(g68
g69
NtRp1610
(dp1611
g72
(dp1612
g80
I4
ssg81
g1606
sg74
(lp1613
S'True'
p1614
asbasbasbag67
(g83
g69
NtRp1615
(dp1616
g72
(dp1617
sg81
g671
sg74
(lp1618
g67
(g88
g69
NtRp1619
(dp1620
g72
(dp1621
g92
g93
ssg81
g1615
sg74
(lp1622
S'wsgi_run_once'
p1623
asbag67
(g88
g69
NtRp1624
(dp1625
g72
(dp1626
g99
g100
ssg81
g1615
sg74
(lp1627
S':'
asbag67
(g88
g69
NtRp1628
(dp1629
g72
(dp1630
sg81
g1615
sg74
(lp1631
g67
(g68
g69
NtRp1632
(dp1633
g72
(dp1634
g80
I4
ssg81
g1628
sg74
(lp1635
g110
asbasbasbag67
(g83
g69
NtRp1636
(dp1637
g72
(dp1638
sg81
g671
sg74
(lp1639
g67
(g88
g69
NtRp1640
(dp1641
g72
(dp1642
g92
g93
ssg81
g1636
sg74
(lp1643
S'wsgi_url_scheme'
p1644
asbag67
(g88
g69
NtRp1645
(dp1646
g72
(dp1647
g99
g100
ssg81
g1636
sg74
(lp1648
S':'
asbag67
(g88
g69
NtRp1649
(dp1650
g72
(dp1651
sg81
g1636
sg74
(lp1652
g67
(g68
g69
NtRp1653
(dp1654
g72
(dp1655
g80
I4
ssg81
g1649
sg74
(lp1656
S'http'
p1657
asbasbasbag67
(g83
g69
NtRp1658
(dp1659
g72
(dp1660
sg81
g671
sg74
(lp1661
g67
(g88
g69
NtRp1662
(dp1663
g72
(dp1664
g92
g93
ssg81
g1658
sg74
(lp1665
S'wsgi_version'
p1666
asbag67
(g88
g69
NtRp1667
(dp1668
g72
(dp1669
g99
g100
ssg81
g1658
sg74
(lp1670
S':'
asbag67
(g88
g69
NtRp1671
(dp1672
g72
(dp1673
sg81
g1658
sg74
(lp1674
g67
(g68
g69
NtRp1675
(dp1676
g72
(dp1677
g80
I4
ssg81
g1671
sg74
(lp1678
g67
(g76
g69
NtRp1679
(dp1680
g72
(dp1681
g80
I3
ssg81
Nsg74
(lp1682
g67
(g83
g69
NtRp1683
(dp1684
g72
(dp1685
sg81
g1679
sg74
(lp1686
g67
(g88
g69
NtRp1687
(dp1688
g72
(dp1689
sg81
g1683
sg74
(lp1690
g67
(g68
g69
NtRp1691
(dp1692
g72
(dp1693
g80
I3
ssg81
g1687
sg74
(lp1694
S'1'
asbasbasbag67
(g83
g69
NtRp1695
(dp1696
g72
(dp1697
sg81
g1679
sg74
(lp1698
g67
(g88
g69
NtRp1699
(dp1700
g72
(dp1701
sg81
g1695
sg74
(lp1702
g67
(g68
g69
NtRp1703
(dp1704
g72
(dp1705
g80
I3
ssg81
g1699
sg74
(lp1706
S'0'
asbasbasbasbasbasbasbasbasbasbasbag67
(g83
g69
NtRp1707
(dp1708
g72
(dp1709
sg81
g77
sg74
(lp1710
g67
(g88
g69
NtRp1711
(dp1712
g72
(dp1713
g92
g93
ssg81
g1707
sg74
(lp1714
S'extension'
p1715
asbag67
(g88
g69
NtRp1716
(dp1717
g72
(dp1718
g99
g100
ssg81
g1707
sg74
(lp1719
S':'
asbag67
(g88
g69
NtRp1720
(dp1721
g72
(dp1722
sg81
g1707
sg74
(lp1723
g67
(g68
g69
NtRp1724
(dp1725
g72
(dp1726
g80
I5
ssg81
g1720
sg74
(lp1727
S'html'
p1728
asbasbasbag67
(g83
g69
NtRp1729
(dp1730
g72
(dp1731
sg81
g77
sg74
(lp1732
g67
(g88
g69
NtRp1733
(dp1734
g72
(dp1735
g92
g93
ssg81
g1729
sg74
(lp1736
S'folder'
p1737
asbag67
(g88
g69
NtRp1738
(dp1739
g72
(dp1740
g99
g100
ssg81
g1729
sg74
(lp1741
S':'
asbag67
(g88
g69
NtRp1742
(dp1743
g72
(dp1744
sg81
g1729
sg74
(lp1745
g67
(g68
g69
NtRp1746
(dp1747
g72
(dp1748
g80
I5
ssg81
g1742
sg74
(lp1749
S'/var/www/web2py_curso/applications/projeto/'
p1750
asbasbasbag67
(g83
g69
NtRp1751
(dp1752
g72
(dp1753
sg81
g77
sg74
(lp1754
g67
(g88
g69
NtRp1755
(dp1756
g72
(dp1757
g92
g93
ssg81
g1751
sg74
(lp1758
S'function'
p1759
asbag67
(g88
g69
NtRp1760
(dp1761
g72
(dp1762
g99
g100
ssg81
g1751
sg74
(lp1763
S':'
asbag67
(g88
g69
NtRp1764
(dp1765
g72
(dp1766
sg81
g1751
sg74
(lp1767
g67
(g68
g69
NtRp1768
(dp1769
g72
(dp1770
g80
I5
ssg81
g1764
sg74
(lp1771
S'home'
p1772
asbasbasbag67
(g83
g69
NtRp1773
(dp1774
g72
(dp1775
sg81
g77
sg74
(lp1776
g67
(g88
g69
NtRp1777
(dp1778
g72
(dp1779
g92
g93
ssg81
g1773
sg74
(lp1780
S'get_vars'
p1781
asbag67
(g88
g69
NtRp1782
(dp1783
g72
(dp1784
g99
g100
ssg81
g1773
sg74
(lp1785
S':'
asbag67
(g88
g69
NtRp1786
(dp1787
g72
(dp1788
sg81
g1773
sg74
(lp1789
g67
(g68
g69
NtRp1790
(dp1791
g72
(dp1792
g80
I5
ssg81
g1786
sg74
(lp1793
g67
(g76
g69
NtRp1794
(dp1795
g72
(dp1796
g80
I4
ssg81
Nsg74
(lp1797
sbasbasbasbag67
(g83
g69
NtRp1798
(dp1799
g72
(dp1800
sg81
g77
sg74
(lp1801
g67
(g88
g69
NtRp1802
(dp1803
g72
(dp1804
g92
g93
ssg81
g1798
sg74
(lp1805
S'global_settings'
p1806
asbag67
(g88
g69
NtRp1807
(dp1808
g72
(dp1809
g99
g100
ssg81
g1798
sg74
(lp1810
S':'
asbag67
(g88
g69
NtRp1811
(dp1812
g72
(dp1813
sg81
g1798
sg74
(lp1814
g67
(g68
g69
NtRp1815
(dp1816
g72
(dp1817
g80
I5
ssg81
g1811
sg74
(lp1818
g67
(g76
g69
NtRp1819
(dp1820
g72
(dp1821
g80
I4
ssg81
Nsg74
(lp1822
g67
(g83
g69
NtRp1823
(dp1824
g72
(dp1825
sg81
g1819
sg74
(lp1826
g67
(g88
g69
NtRp1827
(dp1828
g72
(dp1829
g92
g93
ssg81
g1823
sg74
(lp1830
g683
asbag67
(g88
g69
NtRp1831
(dp1832
g72
(dp1833
g99
g100
ssg81
g1823
sg74
(lp1834
S':'
asbag67
(g88
g69
NtRp1835
(dp1836
g72
(dp1837
sg81
g1823
sg74
(lp1838
g67
(g68
g69
NtRp1839
(dp1840
g72
(dp1841
g80
I4
ssg81
g1835
sg74
(lp1842
S"set(['/var/www/web2py_curso/applications/projeto/'])"
p1843
asbasbasbag67
(g83
g69
NtRp1844
(dp1845
g72
(dp1846
sg81
g1819
sg74
(lp1847
g67
(g88
g69
NtRp1848
(dp1849
g72
(dp1850
g92
g93
ssg81
g1844
sg74
(lp1851
g705
asbag67
(g88
g69
NtRp1852
(dp1853
g72
(dp1854
g99
g100
ssg81
g1844
sg74
(lp1855
S':'
asbag67
(g88
g69
NtRp1856
(dp1857
g72
(dp1858
sg81
g1844
sg74
(lp1859
g67
(g68
g69
NtRp1860
(dp1861
g72
(dp1862
g80
I4
ssg81
g1856
sg74
(lp1863
g718
asbasbasbag67
(g83
g69
NtRp1864
(dp1865
g72
(dp1866
sg81
g1819
sg74
(lp1867
g67
(g88
g69
NtRp1868
(dp1869
g72
(dp1870
g92
g93
ssg81
g1864
sg74
(lp1871
g727
asbag67
(g88
g69
NtRp1872
(dp1873
g72
(dp1874
g99
g100
ssg81
g1864
sg74
(lp1875
S':'
asbag67
(g88
g69
NtRp1876
(dp1877
g72
(dp1878
sg81
g1864
sg74
(lp1879
g67
(g68
g69
NtRp1880
(dp1881
g72
(dp1882
g80
I4
ssg81
g1876
sg74
(lp1883
g67
(g76
g69
NtRp1884
(dp1885
g72
(dp1886
g80
I3
ssg81
Nsg74
(lp1887
sbasbasbasbag67
(g83
g69
NtRp1888
(dp1889
g72
(dp1890
sg81
g1819
sg74
(lp1891
g67
(g88
g69
NtRp1892
(dp1893
g72
(dp1894
g92
g93
ssg81
g1888
sg74
(lp1895
g752
asbag67
(g88
g69
NtRp1896
(dp1897
g72
(dp1898
g99
g100
ssg81
g1888
sg74
(lp1899
S':'
asbag67
(g88
g69
NtRp1900
(dp1901
g72
(dp1902
sg81
g1888
sg74
(lp1903
g67
(g68
g69
NtRp1904
(dp1905
g72
(dp1906
g80
I4
ssg81
g1900
sg74
(lp1907
S"<Values at 0x3476a28: {'verbose': False, 'ip': '127.0.0.1', 'with_scheduler': False, 'ips': [], 'shutdown_timeout': 5, 'taskbar': False, 'port': 8000, 'maxthreads': None, 'softcron': False, 'server_name': 'fernando-pc', 'bpython': False, 'nogui': False, 'pid_filename': 'httpserver.pid', 'extcron': False, 'runcron': False, 'run_system_tests': False, 'test': None, 'folder': '/var/www/web2py_curso', 'config': '', 'minthreads': None, 'winservice': '', 'shell': None, 'run': '', 'log_filename': 'httpserver.log', 'debuglevel': 30, 'args': [''], 'socket_timeout': 5, 'ssl_ca_certificate': None, 'scheduler': None, 'profiler_filename': None, 'ssl_private_key': '', 'scheduler_groups': None, 'password': '123456', 'request_queue_size': 5, 'ssl_certificate': '', 'cronjob': False, 'numthreads': None, 'quiet': False, 'interfaces': None, 'import_models': False, 'timeout': 10, 'plain': False, 'nobanner': False}>"
p1908
asbasbasbag67
(g83
g69
NtRp1909
(dp1910
g72
(dp1911
sg81
g1819
sg74
(lp1912
g67
(g88
g69
NtRp1913
(dp1914
g72
(dp1915
g92
g93
ssg81
g1909
sg74
(lp1916
g774
asbag67
(g88
g69
NtRp1917
(dp1918
g72
(dp1919
g99
g100
ssg81
g1909
sg74
(lp1920
S':'
asbag67
(g88
g69
NtRp1921
(dp1922
g72
(dp1923
sg81
g1909
sg74
(lp1924
g67
(g68
g69
NtRp1925
(dp1926
g72
(dp1927
g80
I4
ssg81
g1921
sg74
(lp1928
S'set([])'
p1929
asbasbasbag67
(g83
g69
NtRp1930
(dp1931
g72
(dp1932
sg81
g1819
sg74
(lp1933
g67
(g88
g69
NtRp1934
(dp1935
g72
(dp1936
g92
g93
ssg81
g1930
sg74
(lp1937
g796
asbag67
(g88
g69
NtRp1938
(dp1939
g72
(dp1940
g99
g100
ssg81
g1930
sg74
(lp1941
S':'
asbag67
(g88
g69
NtRp1942
(dp1943
g72
(dp1944
sg81
g1930
sg74
(lp1945
g67
(g68
g69
NtRp1946
(dp1947
g72
(dp1948
g80
I4
ssg81
g1942
sg74
(lp1949
g110
asbasbasbag67
(g83
g69
NtRp1950
(dp1951
g72
(dp1952
sg81
g1819
sg74
(lp1953
g67
(g88
g69
NtRp1954
(dp1955
g72
(dp1956
g92
g93
ssg81
g1950
sg74
(lp1957
g817
asbag67
(g88
g69
NtRp1958
(dp1959
g72
(dp1960
g99
g100
ssg81
g1950
sg74
(lp1961
S':'
asbag67
(g88
g69
NtRp1962
(dp1963
g72
(dp1964
sg81
g1950
sg74
(lp1965
g67
(g68
g69
NtRp1966
(dp1967
g72
(dp1968
g80
I4
ssg81
g1962
sg74
(lp1969
g830
asbasbasbag67
(g83
g69
NtRp1970
(dp1971
g72
(dp1972
sg81
g1819
sg74
(lp1973
g67
(g88
g69
NtRp1974
(dp1975
g72
(dp1976
g92
g93
ssg81
g1970
sg74
(lp1977
g1015
asbag67
(g88
g69
NtRp1978
(dp1979
g72
(dp1980
g99
g100
ssg81
g1970
sg74
(lp1981
S':'
asbag67
(g88
g69
NtRp1982
(dp1983
g72
(dp1984
sg81
g1970
sg74
(lp1985
g67
(g68
g69
NtRp1986
(dp1987
g72
(dp1988
g80
I4
ssg81
g1982
sg74
(lp1989
g110
asbasbasbag67
(g83
g69
NtRp1990
(dp1991
g72
(dp1992
sg81
g1819
sg74
(lp1993
g67
(g88
g69
NtRp1994
(dp1995
g72
(dp1996
g92
g93
ssg81
g1990
sg74
(lp1997
g1036
asbag67
(g88
g69
NtRp1998
(dp1999
g72
(dp2000
g99
g100
ssg81
g1990
sg74
(lp2001
S':'
asbag67
(g88
g69
NtRp2002
(dp2003
g72
(dp2004
sg81
g1990
sg74
(lp2005
g67
(g68
g69
NtRp2006
(dp2007
g72
(dp2008
g80
I4
ssg81
g2002
sg74
(lp2009
g110
asbasbasbag67
(g83
g69
NtRp2010
(dp2011
g72
(dp2012
sg81
g1819
sg74
(lp2013
g67
(g88
g69
NtRp2014
(dp2015
g72
(dp2016
g92
g93
ssg81
g2010
sg74
(lp2017
g1057
asbag67
(g88
g69
NtRp2018
(dp2019
g72
(dp2020
g99
g100
ssg81
g2010
sg74
(lp2021
S':'
asbag67
(g88
g69
NtRp2022
(dp2023
g72
(dp2024
sg81
g2010
sg74
(lp2025
g67
(g68
g69
NtRp2026
(dp2027
g72
(dp2028
g80
I4
ssg81
g2022
sg74
(lp2029
g67
(g76
g69
NtRp2030
(dp2031
g72
(dp2032
g80
I3
ssg81
Nsg74
(lp2033
g67
(g83
g69
NtRp2034
(dp2035
g72
(dp2036
sg81
g2030
sg74
(lp2037
g67
(g88
g69
NtRp2038
(dp2039
g72
(dp2040
sg81
g2034
sg74
(lp2041
g67
(g68
g69
NtRp2042
(dp2043
g72
(dp2044
g80
I3
ssg81
g2038
sg74
(lp2045
g1086
asbasbasbag67
(g83
g69
NtRp2046
(dp2047
g72
(dp2048
sg81
g2030
sg74
(lp2049
g67
(g88
g69
NtRp2050
(dp2051
g72
(dp2052
sg81
g2046
sg74
(lp2053
g67
(g68
g69
NtRp2054
(dp2055
g72
(dp2056
g80
I3
ssg81
g2050
sg74
(lp2057
g1099
asbasbasbag67
(g83
g69
NtRp2058
(dp2059
g72
(dp2060
sg81
g2030
sg74
(lp2061
g67
(g88
g69
NtRp2062
(dp2063
g72
(dp2064
sg81
g2058
sg74
(lp2065
g67
(g68
g69
NtRp2066
(dp2067
g72
(dp2068
g80
I3
ssg81
g2062
sg74
(lp2069
g1112
asbasbasbag67
(g83
g69
NtRp2070
(dp2071
g72
(dp2072
sg81
g2030
sg74
(lp2073
g67
(g88
g69
NtRp2074
(dp2075
g72
(dp2076
sg81
g2070
sg74
(lp2077
g67
(g68
g69
NtRp2078
(dp2079
g72
(dp2080
g80
I3
ssg81
g2074
sg74
(lp2081
g1125
asbasbasbag67
(g83
g69
NtRp2082
(dp2083
g72
(dp2084
sg81
g2030
sg74
(lp2085
g67
(g88
g69
NtRp2086
(dp2087
g72
(dp2088
sg81
g2082
sg74
(lp2089
g67
(g68
g69
NtRp2090
(dp2091
g72
(dp2092
g80
I3
ssg81
g2086
sg74
(lp2093
g1138
asbasbasbasbasbasbasbag67
(g83
g69
NtRp2094
(dp2095
g72
(dp2096
sg81
g1819
sg74
(lp2097
g67
(g88
g69
NtRp2098
(dp2099
g72
(dp2100
g92
g93
ssg81
g2094
sg74
(lp2101
g1427
asbag67
(g88
g69
NtRp2102
(dp2103
g72
(dp2104
g99
g100
ssg81
g2094
sg74
(lp2105
S':'
asbag67
(g88
g69
NtRp2106
(dp2107
g72
(dp2108
sg81
g2094
sg74
(lp2109
g67
(g68
g69
NtRp2110
(dp2111
g72
(dp2112
g80
I4
ssg81
g2106
sg74
(lp2113
g67
(g76
g69
NtRp2114
(dp2115
g72
(dp2116
g80
I3
ssg81
Nsg74
(lp2117
g67
(g83
g69
NtRp2118
(dp2119
g72
(dp2120
sg81
g2114
sg74
(lp2121
g67
(g88
g69
NtRp2122
(dp2123
g72
(dp2124
sg81
g2118
sg74
(lp2125
g67
(g68
g69
NtRp2126
(dp2127
g72
(dp2128
g80
I3
ssg81
g2122
sg74
(lp2129
S'2'
asbasbasbag67
(g83
g69
NtRp2130
(dp2131
g72
(dp2132
sg81
g2114
sg74
(lp2133
g67
(g88
g69
NtRp2134
(dp2135
g72
(dp2136
sg81
g2130
sg74
(lp2137
g67
(g68
g69
NtRp2138
(dp2139
g72
(dp2140
g80
I3
ssg81
g2134
sg74
(lp2141
S'3'
asbasbasbag67
(g83
g69
NtRp2142
(dp2143
g72
(dp2144
sg81
g2114
sg74
(lp2145
g67
(g88
g69
NtRp2146
(dp2147
g72
(dp2148
sg81
g2142
sg74
(lp2149
g67
(g68
g69
NtRp2150
(dp2151
g72
(dp2152
g80
I3
ssg81
g2146
sg74
(lp2153
S'2'
asbasbasbag67
(g83
g69
NtRp2154
(dp2155
g72
(dp2156
sg81
g2114
sg74
(lp2157
g67
(g88
g69
NtRp2158
(dp2159
g72
(dp2160
sg81
g2154
sg74
(lp2161
g67
(g68
g69
NtRp2162
(dp2163
g72
(dp2164
g80
I3
ssg81
g2158
sg74
(lp2165
S'datetime.datetime(2012, 12, 17, 15, 3, 30)'
p2166
asbasbasbag67
(g83
g69
NtRp2167
(dp2168
g72
(dp2169
sg81
g2114
sg74
(lp2170
g67
(g88
g69
NtRp2171
(dp2172
g72
(dp2173
sg81
g2167
sg74
(lp2174
g67
(g68
g69
NtRp2175
(dp2176
g72
(dp2177
g80
I3
ssg81
g2171
sg74
(lp2178
g1505
asbasbasbasbasbasbasbasbasbasbasbag67
(g83
g69
NtRp2179
(dp2180
g72
(dp2181
sg81
g77
sg74
(lp2182
g67
(g88
g69
NtRp2183
(dp2184
g72
(dp2185
g92
g93
ssg81
g2179
sg74
(lp2186
S'is_https'
p2187
asbag67
(g88
g69
NtRp2188
(dp2189
g72
(dp2190
g99
g100
ssg81
g2179
sg74
(lp2191
S':'
asbag67
(g88
g69
NtRp2192
(dp2193
g72
(dp2194
sg81
g2179
sg74
(lp2195
g67
(g68
g69
NtRp2196
(dp2197
g72
(dp2198
g80
I5
ssg81
g2192
sg74
(lp2199
g110
asbasbasbag67
(g83
g69
NtRp2200
(dp2201
g72
(dp2202
sg81
g77
sg74
(lp2203
g67
(g88
g69
NtRp2204
(dp2205
g72
(dp2206
g92
g93
ssg81
g2200
sg74
(lp2207
S'is_local'
p2208
asbag67
(g88
g69
NtRp2209
(dp2210
g72
(dp2211
g99
g100
ssg81
g2200
sg74
(lp2212
S':'
asbag67
(g88
g69
NtRp2213
(dp2214
g72
(dp2215
sg81
g2200
sg74
(lp2216
g67
(g68
g69
NtRp2217
(dp2218
g72
(dp2219
g80
I5
ssg81
g2213
sg74
(lp2220
g1614
asbasbasbag67
(g83
g69
NtRp2221
(dp2222
g72
(dp2223
sg81
g77
sg74
(lp2224
g67
(g88
g69
NtRp2225
(dp2226
g72
(dp2227
g92
g93
ssg81
g2221
sg74
(lp2228
S'is_restful'
p2229
asbag67
(g88
g69
NtRp2230
(dp2231
g72
(dp2232
g99
g100
ssg81
g2221
sg74
(lp2233
S':'
asbag67
(g88
g69
NtRp2234
(dp2235
g72
(dp2236
sg81
g2221
sg74
(lp2237
g67
(g68
g69
NtRp2238
(dp2239
g72
(dp2240
g80
I5
ssg81
g2234
sg74
(lp2241
g110
asbasbasbag67
(g83
g69
NtRp2242
(dp2243
g72
(dp2244
sg81
g77
sg74
(lp2245
g67
(g88
g69
NtRp2246
(dp2247
g72
(dp2248
g92
g93
ssg81
g2242
sg74
(lp2249
S'now'
p2250
asbag67
(g88
g69
NtRp2251
(dp2252
g72
(dp2253
g99
g100
ssg81
g2242
sg74
(lp2254
S':'
asbag67
(g88
g69
NtRp2255
(dp2256
g72
(dp2257
sg81
g2242
sg74
(lp2258
g67
(g68
g69
NtRp2259
(dp2260
g72
(dp2261
g80
I5
ssg81
g2255
sg74
(lp2262
S'datetime.datetime(2013, 2, 2, 21, 54, 9, 880357)'
p2263
asbasbasbag67
(g83
g69
NtRp2264
(dp2265
g72
(dp2266
sg81
g77
sg74
(lp2267
g67
(g88
g69
NtRp2268
(dp2269
g72
(dp2270
g92
g93
ssg81
g2264
sg74
(lp2271
S'post_vars'
p2272
asbag67
(g88
g69
NtRp2273
(dp2274
g72
(dp2275
g99
g100
ssg81
g2264
sg74
(lp2276
S':'
asbag67
(g88
g69
NtRp2277
(dp2278
g72
(dp2279
sg81
g2264
sg74
(lp2280
g67
(g68
g69
NtRp2281
(dp2282
g72
(dp2283
g80
I5
ssg81
g2277
sg74
(lp2284
g67
(g76
g69
NtRp2285
(dp2286
g72
(dp2287
g80
I4
ssg81
Nsg74
(lp2288
sbasbasbasbag67
(g83
g69
NtRp2289
(dp2290
g72
(dp2291
sg81
g77
sg74
(lp2292
g67
(g88
g69
NtRp2293
(dp2294
g72
(dp2295
g92
g93
ssg81
g2289
sg74
(lp2296
S'url'
p2297
asbag67
(g88
g69
NtRp2298
(dp2299
g72
(dp2300
g99
g100
ssg81
g2289
sg74
(lp2301
S':'
asbag67
(g88
g69
NtRp2302
(dp2303
g72
(dp2304
sg81
g2289
sg74
(lp2305
g67
(g68
g69
NtRp2306
(dp2307
g72
(dp2308
g80
I5
ssg81
g2302
sg74
(lp2309
S'/'
asbasbasbag67
(g83
g69
NtRp2310
(dp2311
g72
(dp2312
sg81
g77
sg74
(lp2313
g67
(g88
g69
NtRp2314
(dp2315
g72
(dp2316
g92
g93
ssg81
g2310
sg74
(lp2317
S'utcnow'
p2318
asbag67
(g88
g69
NtRp2319
(dp2320
g72
(dp2321
g99
g100
ssg81
g2310
sg74
(lp2322
S':'
asbag67
(g88
g69
NtRp2323
(dp2324
g72
(dp2325
sg81
g2310
sg74
(lp2326
g67
(g68
g69
NtRp2327
(dp2328
g72
(dp2329
g80
I5
ssg81
g2323
sg74
(lp2330
S'datetime.datetime(2013, 2, 2, 23, 54, 9, 880385)'
p2331
asbasbasbag67
(g83
g69
NtRp2332
(dp2333
g72
(dp2334
sg81
g77
sg74
(lp2335
g67
(g88
g69
NtRp2336
(dp2337
g72
(dp2338
g92
g93
ssg81
g2332
sg74
(lp2339
S'uuid'
p2340
asbag67
(g88
g69
NtRp2341
(dp2342
g72
(dp2343
g99
g100
ssg81
g2332
sg74
(lp2344
S':'
asbag67
(g88
g69
NtRp2345
(dp2346
g72
(dp2347
sg81
g2332
sg74
(lp2348
g67
(g68
g69
NtRp2349
(dp2350
g72
(dp2351
g80
I5
ssg81
g2345
sg74
(lp2352
S'projeto/127.0.0.1.2013-02-02.21-54-09.d8915a4e-a573-4969-9a67-0cd1d61bdd3a'
p2353
asbasbasbag67
(g83
g69
NtRp2354
(dp2355
g72
(dp2356
sg81
g77
sg74
(lp2357
g67
(g88
g69
NtRp2358
(dp2359
g72
(dp2360
g92
g93
ssg81
g2354
sg74
(lp2361
S'vars'
p2362
asbag67
(g88
g69
NtRp2363
(dp2364
g72
(dp2365
g99
g100
ssg81
g2354
sg74
(lp2366
S':'
asbag67
(g88
g69
NtRp2367
(dp2368
g72
(dp2369
sg81
g2354
sg74
(lp2370
g67
(g68
g69
NtRp2371
(dp2372
g72
(dp2373
g80
I5
ssg81
g2367
sg74
(lp2374
g67
(g76
g69
NtRp2375
(dp2376
g72
(dp2377
g80
I4
ssg81
Nsg74
(lp2378
sbasbasbasbag67
(g83
g69
NtRp2379
(dp2380
g72
(dp2381
sg81
g77
sg74
(lp2382
g67
(g88
g69
NtRp2383
(dp2384
g72
(dp2385
g92
g93
ssg81
g2379
sg74
(lp2386
S'wsgi'
p2387
asbag67
(g88
g69
NtRp2388
(dp2389
g72
(dp2390
g99
g100
ssg81
g2379
sg74
(lp2391
S':'
asbag67
(g88
g69
NtRp2392
(dp2393
g72
(dp2394
sg81
g2379
sg74
(lp2395
g67
(g68
g69
NtRp2396
(dp2397
g72
(dp2398
g80
I5
ssg81
g2392
sg74
(lp2399
g67
(g76
g69
NtRp2400
(dp2401
g72
(dp2402
g80
I4
ssg81
Nsg74
(lp2403
g67
(g83
g69
NtRp2404
(dp2405
g72
(dp2406
sg81
g2400
sg74
(lp2407
g67
(g88
g69
NtRp2408
(dp2409
g72
(dp2410
g92
g93
ssg81
g2404
sg74
(lp2411
S'environ'
p2412
asbag67
(g88
g69
NtRp2413
(dp2414
g72
(dp2415
g99
g100
ssg81
g2404
sg74
(lp2416
S':'
asbag67
(g88
g69
NtRp2417
(dp2418
g72
(dp2419
sg81
g2404
sg74
(lp2420
g67
(g68
g69
NtRp2421
(dp2422
g72
(dp2423
g80
I4
ssg81
g2417
sg74
(lp2424
g67
(g76
g69
NtRp2425
(dp2426
g72
(dp2427
g80
I3
ssg81
Nsg74
(lp2428
g67
(g83
g69
NtRp2429
(dp2430
g72
(dp2431
sg81
g2425
sg74
(lp2432
g67
(g88
g69
NtRp2433
(dp2434
g72
(dp2435
g92
g93
ssg81
g2429
sg74
(lp2436
S'HTTP_ACCEPT'
p2437
asbag67
(g88
g69
NtRp2438
(dp2439
g72
(dp2440
g99
g100
ssg81
g2429
sg74
(lp2441
S':'
asbag67
(g88
g69
NtRp2442
(dp2443
g72
(dp2444
sg81
g2429
sg74
(lp2445
g67
(g68
g69
NtRp2446
(dp2447
g72
(dp2448
g80
I3
ssg81
g2442
sg74
(lp2449
g852
asbasbasbag67
(g83
g69
NtRp2450
(dp2451
g72
(dp2452
sg81
g2425
sg74
(lp2453
g67
(g88
g69
NtRp2454
(dp2455
g72
(dp2456
g92
g93
ssg81
g2450
sg74
(lp2457
S'HTTP_ACCEPT_CHARSET'
p2458
asbag67
(g88
g69
NtRp2459
(dp2460
g72
(dp2461
g99
g100
ssg81
g2450
sg74
(lp2462
S':'
asbag67
(g88
g69
NtRp2463
(dp2464
g72
(dp2465
sg81
g2450
sg74
(lp2466
g67
(g68
g69
NtRp2467
(dp2468
g72
(dp2469
g80
I3
ssg81
g2463
sg74
(lp2470
g874
asbasbasbag67
(g83
g69
NtRp2471
(dp2472
g72
(dp2473
sg81
g2425
sg74
(lp2474
g67
(g88
g69
NtRp2475
(dp2476
g72
(dp2477
g92
g93
ssg81
g2471
sg74
(lp2478
S'HTTP_ACCEPT_ENCODING'
p2479
asbag67
(g88
g69
NtRp2480
(dp2481
g72
(dp2482
g99
g100
ssg81
g2471
sg74
(lp2483
S':'
asbag67
(g88
g69
NtRp2484
(dp2485
g72
(dp2486
sg81
g2471
sg74
(lp2487
g67
(g68
g69
NtRp2488
(dp2489
g72
(dp2490
g80
I3
ssg81
g2484
sg74
(lp2491
g896
asbasbasbag67
(g83
g69
NtRp2492
(dp2493
g72
(dp2494
sg81
g2425
sg74
(lp2495
g67
(g88
g69
NtRp2496
(dp2497
g72
(dp2498
g92
g93
ssg81
g2492
sg74
(lp2499
S'HTTP_ACCEPT_LANGUAGE'
p2500
asbag67
(g88
g69
NtRp2501
(dp2502
g72
(dp2503
g99
g100
ssg81
g2492
sg74
(lp2504
S':'
asbag67
(g88
g69
NtRp2505
(dp2506
g72
(dp2507
sg81
g2492
sg74
(lp2508
g67
(g68
g69
NtRp2509
(dp2510
g72
(dp2511
g80
I3
ssg81
g2505
sg74
(lp2512
g918
asbasbasbag67
(g83
g69
NtRp2513
(dp2514
g72
(dp2515
sg81
g2425
sg74
(lp2516
g67
(g88
g69
NtRp2517
(dp2518
g72
(dp2519
g92
g93
ssg81
g2513
sg74
(lp2520
S'HTTP_CONNECTION'
p2521
asbag67
(g88
g69
NtRp2522
(dp2523
g72
(dp2524
g99
g100
ssg81
g2513
sg74
(lp2525
S':'
asbag67
(g88
g69
NtRp2526
(dp2527
g72
(dp2528
sg81
g2513
sg74
(lp2529
g67
(g68
g69
NtRp2530
(dp2531
g72
(dp2532
g80
I3
ssg81
g2526
sg74
(lp2533
g940
asbasbasbag67
(g83
g69
NtRp2534
(dp2535
g72
(dp2536
sg81
g2425
sg74
(lp2537
g67
(g88
g69
NtRp2538
(dp2539
g72
(dp2540
g92
g93
ssg81
g2534
sg74
(lp2541
S'HTTP_COOKIE'
p2542
asbag67
(g88
g69
NtRp2543
(dp2544
g72
(dp2545
g99
g100
ssg81
g2534
sg74
(lp2546
S':'
asbag67
(g88
g69
NtRp2547
(dp2548
g72
(dp2549
sg81
g2534
sg74
(lp2550
g67
(g68
g69
NtRp2551
(dp2552
g72
(dp2553
g80
I3
ssg81
g2547
sg74
(lp2554
g962
asbasbasbag67
(g83
g69
NtRp2555
(dp2556
g72
(dp2557
sg81
g2425
sg74
(lp2558
g67
(g88
g69
NtRp2559
(dp2560
g72
(dp2561
g92
g93
ssg81
g2555
sg74
(lp2562
S'HTTP_HOST'
p2563
asbag67
(g88
g69
NtRp2564
(dp2565
g72
(dp2566
g99
g100
ssg81
g2555
sg74
(lp2567
S':'
asbag67
(g88
g69
NtRp2568
(dp2569
g72
(dp2570
sg81
g2555
sg74
(lp2571
g67
(g68
g69
NtRp2572
(dp2573
g72
(dp2574
g80
I3
ssg81
g2568
sg74
(lp2575
g984
asbasbasbag67
(g83
g69
NtRp2576
(dp2577
g72
(dp2578
sg81
g2425
sg74
(lp2579
g67
(g88
g69
NtRp2580
(dp2581
g72
(dp2582
g92
g93
ssg81
g2576
sg74
(lp2583
S'HTTP_USER_AGENT'
p2584
asbag67
(g88
g69
NtRp2585
(dp2586
g72
(dp2587
g99
g100
ssg81
g2576
sg74
(lp2588
S':'
asbag67
(g88
g69
NtRp2589
(dp2590
g72
(dp2591
sg81
g2576
sg74
(lp2592
g67
(g68
g69
NtRp2593
(dp2594
g72
(dp2595
g80
I3
ssg81
g2589
sg74
(lp2596
g1006
asbasbasbag67
(g83
g69
NtRp2597
(dp2598
g72
(dp2599
sg81
g2425
sg74
(lp2600
g67
(g88
g69
NtRp2601
(dp2602
g72
(dp2603
g92
g93
ssg81
g2597
sg74
(lp2604
S'PATH_INFO'
p2605
asbag67
(g88
g69
NtRp2606
(dp2607
g72
(dp2608
g99
g100
ssg81
g2597
sg74
(lp2609
S':'
asbag67
(g88
g69
NtRp2610
(dp2611
g72
(dp2612
sg81
g2597
sg74
(lp2613
g67
(g68
g69
NtRp2614
(dp2615
g72
(dp2616
g80
I3
ssg81
g2610
sg74
(lp2617
S'/'
asbasbasbag67
(g83
g69
NtRp2618
(dp2619
g72
(dp2620
sg81
g2425
sg74
(lp2621
g67
(g88
g69
NtRp2622
(dp2623
g72
(dp2624
g92
g93
ssg81
g2618
sg74
(lp2625
S'QUERY_STRING'
p2626
asbag67
(g88
g69
NtRp2627
(dp2628
g72
(dp2629
g99
g100
ssg81
g2618
sg74
(lp2630
S':'
asbag67
(g88
g69
NtRp2631
(dp2632
g72
(dp2633
sg81
g2618
sg74
(lp2634
g67
(g68
g69
NtRp2635
(dp2636
g72
(dp2637
g80
I3
ssg81
g2631
sg74
(lp2638
S''
asbasbasbag67
(g83
g69
NtRp2639
(dp2640
g72
(dp2641
sg81
g2425
sg74
(lp2642
g67
(g88
g69
NtRp2643
(dp2644
g72
(dp2645
g92
g93
ssg81
g2639
sg74
(lp2646
S'REMOTE_ADDR'
p2647
asbag67
(g88
g69
NtRp2648
(dp2649
g72
(dp2650
g99
g100
ssg81
g2639
sg74
(lp2651
S':'
asbag67
(g88
g69
NtRp2652
(dp2653
g72
(dp2654
sg81
g2639
sg74
(lp2655
g67
(g68
g69
NtRp2656
(dp2657
g72
(dp2658
g80
I3
ssg81
g2652
sg74
(lp2659
g222
asbasbasbag67
(g83
g69
NtRp2660
(dp2661
g72
(dp2662
sg81
g2425
sg74
(lp2663
g67
(g88
g69
NtRp2664
(dp2665
g72
(dp2666
g92
g93
ssg81
g2660
sg74
(lp2667
S'REMOTE_PORT'
p2668
asbag67
(g88
g69
NtRp2669
(dp2670
g72
(dp2671
g99
g100
ssg81
g2660
sg74
(lp2672
S':'
asbag67
(g88
g69
NtRp2673
(dp2674
g72
(dp2675
sg81
g2660
sg74
(lp2676
g67
(g68
g69
NtRp2677
(dp2678
g72
(dp2679
g80
I3
ssg81
g2673
sg74
(lp2680
g1223
asbasbasbag67
(g83
g69
NtRp2681
(dp2682
g72
(dp2683
sg81
g2425
sg74
(lp2684
g67
(g88
g69
NtRp2685
(dp2686
g72
(dp2687
g92
g93
ssg81
g2681
sg74
(lp2688
S'REQUEST_METHOD'
p2689
asbag67
(g88
g69
NtRp2690
(dp2691
g72
(dp2692
g99
g100
ssg81
g2681
sg74
(lp2693
S':'
asbag67
(g88
g69
NtRp2694
(dp2695
g72
(dp2696
sg81
g2681
sg74
(lp2697
g67
(g68
g69
NtRp2698
(dp2699
g72
(dp2700
g80
I3
ssg81
g2694
sg74
(lp2701
g1245
asbasbasbag67
(g83
g69
NtRp2702
(dp2703
g72
(dp2704
sg81
g2425
sg74
(lp2705
g67
(g88
g69
NtRp2706
(dp2707
g72
(dp2708
g92
g93
ssg81
g2702
sg74
(lp2709
S'REQUEST_URI'
p2710
asbag67
(g88
g69
NtRp2711
(dp2712
g72
(dp2713
g99
g100
ssg81
g2702
sg74
(lp2714
S':'
asbag67
(g88
g69
NtRp2715
(dp2716
g72
(dp2717
sg81
g2702
sg74
(lp2718
g67
(g68
g69
NtRp2719
(dp2720
g72
(dp2721
g80
I3
ssg81
g2715
sg74
(lp2722
g1267
asbasbasbag67
(g83
g69
NtRp2723
(dp2724
g72
(dp2725
sg81
g2425
sg74
(lp2726
g67
(g88
g69
NtRp2727
(dp2728
g72
(dp2729
g92
g93
ssg81
g2723
sg74
(lp2730
S'SCRIPT_NAME'
p2731
asbag67
(g88
g69
NtRp2732
(dp2733
g72
(dp2734
g99
g100
ssg81
g2723
sg74
(lp2735
S':'
asbag67
(g88
g69
NtRp2736
(dp2737
g72
(dp2738
sg81
g2723
sg74
(lp2739
g67
(g68
g69
NtRp2740
(dp2741
g72
(dp2742
g80
I3
ssg81
g2736
sg74
(lp2743
S''
asbasbasbag67
(g83
g69
NtRp2744
(dp2745
g72
(dp2746
sg81
g2425
sg74
(lp2747
g67
(g88
g69
NtRp2748
(dp2749
g72
(dp2750
g92
g93
ssg81
g2744
sg74
(lp2751
S'SERVER_NAME'
p2752
asbag67
(g88
g69
NtRp2753
(dp2754
g72
(dp2755
g99
g100
ssg81
g2744
sg74
(lp2756
S':'
asbag67
(g88
g69
NtRp2757
(dp2758
g72
(dp2759
sg81
g2744
sg74
(lp2760
g67
(g68
g69
NtRp2761
(dp2762
g72
(dp2763
g80
I3
ssg81
g2757
sg74
(lp2764
g1310
asbasbasbag67
(g83
g69
NtRp2765
(dp2766
g72
(dp2767
sg81
g2425
sg74
(lp2768
g67
(g88
g69
NtRp2769
(dp2770
g72
(dp2771
g92
g93
ssg81
g2765
sg74
(lp2772
S'SERVER_PORT'
p2773
asbag67
(g88
g69
NtRp2774
(dp2775
g72
(dp2776
g99
g100
ssg81
g2765
sg74
(lp2777
S':'
asbag67
(g88
g69
NtRp2778
(dp2779
g72
(dp2780
sg81
g2765
sg74
(lp2781
g67
(g68
g69
NtRp2782
(dp2783
g72
(dp2784
g80
I3
ssg81
g2778
sg74
(lp2785
g1332
asbasbasbag67
(g83
g69
NtRp2786
(dp2787
g72
(dp2788
sg81
g2425
sg74
(lp2789
g67
(g88
g69
NtRp2790
(dp2791
g72
(dp2792
g92
g93
ssg81
g2786
sg74
(lp2793
S'SERVER_PROTOCOL'
p2794
asbag67
(g88
g69
NtRp2795
(dp2796
g72
(dp2797
g99
g100
ssg81
g2786
sg74
(lp2798
S':'
asbag67
(g88
g69
NtRp2799
(dp2800
g72
(dp2801
sg81
g2786
sg74
(lp2802
g67
(g68
g69
NtRp2803
(dp2804
g72
(dp2805
g80
I3
ssg81
g2799
sg74
(lp2806
g1354
asbasbasbag67
(g83
g69
NtRp2807
(dp2808
g72
(dp2809
sg81
g2425
sg74
(lp2810
g67
(g88
g69
NtRp2811
(dp2812
g72
(dp2813
g92
g93
ssg81
g2807
sg74
(lp2814
S'SERVER_SOFTWARE'
p2815
asbag67
(g88
g69
NtRp2816
(dp2817
g72
(dp2818
g99
g100
ssg81
g2807
sg74
(lp2819
S':'
asbag67
(g88
g69
NtRp2820
(dp2821
g72
(dp2822
sg81
g2807
sg74
(lp2823
g67
(g68
g69
NtRp2824
(dp2825
g72
(dp2826
g80
I3
ssg81
g2820
sg74
(lp2827
g1376
asbasbasbag67
(g83
g69
NtRp2828
(dp2829
g72
(dp2830
sg81
g2425
sg74
(lp2831
g67
(g88
g69
NtRp2832
(dp2833
g72
(dp2834
g92
g93
ssg81
g2828
sg74
(lp2835
S'WEB2PY_ORIGINAL_URI'
p2836
asbag67
(g88
g69
NtRp2837
(dp2838
g72
(dp2839
g99
g100
ssg81
g2828
sg74
(lp2840
S':'
asbag67
(g88
g69
NtRp2841
(dp2842
g72
(dp2843
sg81
g2828
sg74
(lp2844
g67
(g68
g69
NtRp2845
(dp2846
g72
(dp2847
g80
I3
ssg81
g2841
sg74
(lp2848
S'/'
asbasbasbag67
(g83
g69
NtRp2849
(dp2850
g72
(dp2851
sg81
g2425
sg74
(lp2852
g67
(g88
g69
NtRp2853
(dp2854
g72
(dp2855
g92
g93
ssg81
g2849
sg74
(lp2856
S'wsgi.errors'
p2857
asbag67
(g88
g69
NtRp2858
(dp2859
g72
(dp2860
g99
g100
ssg81
g2849
sg74
(lp2861
S':'
asbag67
(g88
g69
NtRp2862
(dp2863
g72
(dp2864
sg81
g2849
sg74
(lp2865
g67
(g68
g69
NtRp2866
(dp2867
g72
(dp2868
g80
I3
ssg81
g2862
sg74
(lp2869
S"<open file '<stderr>', mode 'w' at 0x7fe5e28a2270>"
p2870
asbasbasbag67
(g83
g69
NtRp2871
(dp2872
g72
(dp2873
sg81
g2425
sg74
(lp2874
g67
(g88
g69
NtRp2875
(dp2876
g72
(dp2877
g92
g93
ssg81
g2871
sg74
(lp2878
S'wsgi.file_wrapper'
p2879
asbag67
(g88
g69
NtRp2880
(dp2881
g72
(dp2882
g99
g100
ssg81
g2871
sg74
(lp2883
S':'
asbag67
(g88
g69
NtRp2884
(dp2885
g72
(dp2886
sg81
g2871
sg74
(lp2887
g67
(g68
g69
NtRp2888
(dp2889
g72
(dp2890
g80
I3
ssg81
g2884
sg74
(lp2891
S'<class wsgiref.util.FileWrapper at 0x33c4808>'
p2892
asbasbasbag67
(g83
g69
NtRp2893
(dp2894
g72
(dp2895
sg81
g2425
sg74
(lp2896
g67
(g88
g69
NtRp2897
(dp2898
g72
(dp2899
g92
g93
ssg81
g2893
sg74
(lp2900
S'wsgi.input'
p2901
asbag67
(g88
g69
NtRp2902
(dp2903
g72
(dp2904
g99
g100
ssg81
g2893
sg74
(lp2905
S':'
asbag67
(g88
g69
NtRp2906
(dp2907
g72
(dp2908
sg81
g2893
sg74
(lp2909
g67
(g68
g69
NtRp2910
(dp2911
g72
(dp2912
g80
I3
ssg81
g2906
sg74
(lp2913
S'<cStringIO.StringO object at 0x7fe5d435d9d0>'
p2914
asbasbasbag67
(g83
g69
NtRp2915
(dp2916
g72
(dp2917
sg81
g2425
sg74
(lp2918
g67
(g88
g69
NtRp2919
(dp2920
g72
(dp2921
g92
g93
ssg81
g2915
sg74
(lp2922
S'wsgi.multiprocess'
p2923
asbag67
(g88
g69
NtRp2924
(dp2925
g72
(dp2926
g99
g100
ssg81
g2915
sg74
(lp2927
S':'
asbag67
(g88
g69
NtRp2928
(dp2929
g72
(dp2930
sg81
g2915
sg74
(lp2931
g67
(g68
g69
NtRp2932
(dp2933
g72
(dp2934
g80
I3
ssg81
g2928
sg74
(lp2935
g110
asbasbasbag67
(g83
g69
NtRp2936
(dp2937
g72
(dp2938
sg81
g2425
sg74
(lp2939
g67
(g88
g69
NtRp2940
(dp2941
g72
(dp2942
g92
g93
ssg81
g2936
sg74
(lp2943
S'wsgi.multithread'
p2944
asbag67
(g88
g69
NtRp2945
(dp2946
g72
(dp2947
g99
g100
ssg81
g2936
sg74
(lp2948
S':'
asbag67
(g88
g69
NtRp2949
(dp2950
g72
(dp2951
sg81
g2936
sg74
(lp2952
g67
(g68
g69
NtRp2953
(dp2954
g72
(dp2955
g80
I3
ssg81
g2949
sg74
(lp2956
g1614
asbasbasbag67
(g83
g69
NtRp2957
(dp2958
g72
(dp2959
sg81
g2425
sg74
(lp2960
g67
(g88
g69
NtRp2961
(dp2962
g72
(dp2963
g92
g93
ssg81
g2957
sg74
(lp2964
S'wsgi.run_once'
p2965
asbag67
(g88
g69
NtRp2966
(dp2967
g72
(dp2968
g99
g100
ssg81
g2957
sg74
(lp2969
S':'
asbag67
(g88
g69
NtRp2970
(dp2971
g72
(dp2972
sg81
g2957
sg74
(lp2973
g67
(g68
g69
NtRp2974
(dp2975
g72
(dp2976
g80
I3
ssg81
g2970
sg74
(lp2977
g110
asbasbasbag67
(g83
g69
NtRp2978
(dp2979
g72
(dp2980
sg81
g2425
sg74
(lp2981
g67
(g88
g69
NtRp2982
(dp2983
g72
(dp2984
g92
g93
ssg81
g2978
sg74
(lp2985
S'wsgi.url_scheme'
p2986
asbag67
(g88
g69
NtRp2987
(dp2988
g72
(dp2989
g99
g100
ssg81
g2978
sg74
(lp2990
S':'
asbag67
(g88
g69
NtRp2991
(dp2992
g72
(dp2993
sg81
g2978
sg74
(lp2994
g67
(g68
g69
NtRp2995
(dp2996
g72
(dp2997
g80
I3
ssg81
g2991
sg74
(lp2998
g1657
asbasbasbag67
(g83
g69
NtRp2999
(dp3000
g72
(dp3001
sg81
g2425
sg74
(lp3002
g67
(g88
g69
NtRp3003
(dp3004
g72
(dp3005
g92
g93
ssg81
g2999
sg74
(lp3006
S'wsgi.version'
p3007
asbag67
(g88
g69
NtRp3008
(dp3009
g72
(dp3010
g99
g100
ssg81
g2999
sg74
(lp3011
S':'
asbag67
(g88
g69
NtRp3012
(dp3013
g72
(dp3014
sg81
g2999
sg74
(lp3015
g67
(g68
g69
NtRp3016
(dp3017
g72
(dp3018
g80
I3
ssg81
g3012
sg74
(lp3019
S'1'
asbasbasbasbasbasbasbasbasbasbasbasbasbsS'frames'
p3020
(lp3021
(dp3022
S'file'
p3023
S'/var/www/web2py_curso/gluon/restricted.py'
p3024
sS'dump'
p3025
(dp3026
S'code'
p3027
S"'# coding: utf-8\\n\\ndef home():\\nposts = db(db.post)... x + y\\n\\n \\n\\nresponse._vars=response._caller(home)\\n'"
p3028
sS'layer'
p3029
S"'/var/www/web2py_curso/applications/projeto/controllers/initial.py'"
p3030
sS'global compile2'
p3031
S'<function compile2>'
p3032
sS'ccode'
p3033
S'undefined'
p3034
ssS'lnum'
p3035
I211
sS'lines'
p3036
(dp3037
I206
S"    environment['__name__'] = '__restricted__'"
p3038
sI207
S'    try:'
p3039
sI208
S'        if isinstance(code, types.CodeType):'
p3040
sI209
S'            ccode = code'
p3041
sI210
S'        else:'
p3042
sI211
S'            ccode = compile2(code, layer)'
p3043
sI212
S'        exec ccode in environment'
p3044
sI213
S'    except HTTP:'
p3045
sI214
S'        raise'
p3046
sI215
S'    except RestrictedError:'
p3047
ssS'call'
p3048
S"(code='# coding: utf-8\\n\\ndef home():\\nposts = db(db.post)... x + y\\n\\n \\n\\nresponse._vars=response._caller(home)\\n', environment={'A': <class 'gluon.html.A'>, 'Auth': <class 'gluon.tools.Auth'>, 'B': <class 'gluon.html.B'>, 'BEAUTIFY': <class 'gluon.html.BEAUTIFY'>, 'BODY': <class 'gluon.html.BODY'>, 'BR': <class 'gluon.html.BR'>, 'BUTTON': <class 'gluon.html.BUTTON'>, 'Blog': <Table blog (id,title,description)>, 'CAT': <class 'gluon.html.CAT'>, 'CENTER': <class 'gluon.html.CENTER'>, ...}, layer='/var/www/web2py_curso/applications/projeto/controllers/initial.py')"
p3049
sS'func'
p3050
S'restricted'
p3051
sa(dp3052
g3023
S'/var/www/web2py_curso/gluon/restricted.py'
p3053
sg3025
(dp3054
S'builtincompile'
p3055
S'<built-in function compile>'
p3056
sS'code'
p3057
S"'# coding: utf-8\\n\\ndef home():\\nposts = db(db.post)... x + y\\n\\n \\n\\nresponse._vars=response._caller(home)\\n'"
p3058
sS'code.rstrip'
p3059
S'<built-in method rstrip of str object>'
p3060
sS').replace'
p3061
g3034
sS'layer'
p3062
S"'/var/www/web2py_curso/applications/projeto/controllers/initial.py'"
p3063
ssg3035
I194
sg3036
(dp3064
I192
S"    The +'\\n' is necessary else compile fails when code ends in a comment."
p3065
sI193
S'    """'
p3066
sI194
S"    return compile(code.rstrip().replace('\\r\\n', '\\n') + '\\n', layer, 'exec')"
p3067
sI195
S''
sI196
S''
sI197
S"def restricted(code, environment=None, layer='Unknown'):"
p3068
sI198
S'    """'
p3069
sI189
S''
sI190
S'def compile2(code, layer):'
p3070
sI191
S'    """'
p3071
ssg3048
S"(code='# coding: utf-8\\n\\ndef home():\\nposts = db(db.post)... x + y\\n\\n \\n\\nresponse._vars=response._caller(home)\\n', layer='/var/www/web2py_curso/applications/projeto/controllers/initial.py')"
p3072
sg3050
S'compile2'
p3073
sasS'pyver'
p3074
S'Python 2.7.3: /usr/bin/python'
p3075
sS'session'
p3076
g67
(g68
g69
NtRp3077
(dp3078
g72
(dp3079
sg74
(lp3080
g67
(g76
g69
NtRp3081
(dp3082
g72
(dp3083
g80
I5
ssg81
Nsg74
(lp3084
g67
(g83
g69
NtRp3085
(dp3086
g72
(dp3087
sg81
g3081
sg74
(lp3088
g67
(g88
g69
NtRp3089
(dp3090
g72
(dp3091
g92
g93
ssg81
g3085
sg74
(lp3092
S'auth'
p3093
asbag67
(g88
g69
NtRp3094
(dp3095
g72
(dp3096
g99
g100
ssg81
g3085
sg74
(lp3097
S':'
asbag67
(g88
g69
NtRp3098
(dp3099
g72
(dp3100
sg81
g3085
sg74
(lp3101
g67
(g68
g69
NtRp3102
(dp3103
g72
(dp3104
g80
I5
ssg81
g3098
sg74
(lp3105
g67
(g76
g69
NtRp3106
(dp3107
g72
(dp3108
g80
I4
ssg81
Nsg74
(lp3109
g67
(g83
g69
NtRp3110
(dp3111
g72
(dp3112
sg81
g3106
sg74
(lp3113
g67
(g88
g69
NtRp3114
(dp3115
g72
(dp3116
g92
g93
ssg81
g3110
sg74
(lp3117
S'expiration'
p3118
asbag67
(g88
g69
NtRp3119
(dp3120
g72
(dp3121
g99
g100
ssg81
g3110
sg74
(lp3122
S':'
asbag67
(g88
g69
NtRp3123
(dp3124
g72
(dp3125
sg81
g3110
sg74
(lp3126
g67
(g68
g69
NtRp3127
(dp3128
g72
(dp3129
g80
I4
ssg81
g3123
sg74
(lp3130
S'3600'
p3131
asbasbasbag67
(g83
g69
NtRp3132
(dp3133
g72
(dp3134
sg81
g3106
sg74
(lp3135
g67
(g88
g69
NtRp3136
(dp3137
g72
(dp3138
g92
g93
ssg81
g3132
sg74
(lp3139
S'hmac_key'
p3140
asbag67
(g88
g69
NtRp3141
(dp3142
g72
(dp3143
g99
g100
ssg81
g3132
sg74
(lp3144
S':'
asbag67
(g88
g69
NtRp3145
(dp3146
g72
(dp3147
sg81
g3132
sg74
(lp3148
g67
(g68
g69
NtRp3149
(dp3150
g72
(dp3151
g80
I4
ssg81
g3145
sg74
(lp3152
S'f2fe6488-3b2b-47f7-b59b-636fa5c1979d'
p3153
asbasbasbag67
(g83
g69
NtRp3154
(dp3155
g72
(dp3156
sg81
g3106
sg74
(lp3157
g67
(g88
g69
NtRp3158
(dp3159
g72
(dp3160
g92
g93
ssg81
g3154
sg74
(lp3161
S'last_visit'
p3162
asbag67
(g88
g69
NtRp3163
(dp3164
g72
(dp3165
g99
g100
ssg81
g3154
sg74
(lp3166
S':'
asbag67
(g88
g69
NtRp3167
(dp3168
g72
(dp3169
sg81
g3154
sg74
(lp3170
g67
(g68
g69
NtRp3171
(dp3172
g72
(dp3173
g80
I4
ssg81
g3167
sg74
(lp3174
S'datetime.datetime(2013, 2, 2, 21, 54, 9, 880357)'
p3175
asbasbasbag67
(g83
g69
NtRp3176
(dp3177
g72
(dp3178
sg81
g3106
sg74
(lp3179
g67
(g88
g69
NtRp3180
(dp3181
g72
(dp3182
g92
g93
ssg81
g3176
sg74
(lp3183
S'remember'
p3184
asbag67
(g88
g69
NtRp3185
(dp3186
g72
(dp3187
g99
g100
ssg81
g3176
sg74
(lp3188
S':'
asbag67
(g88
g69
NtRp3189
(dp3190
g72
(dp3191
sg81
g3176
sg74
(lp3192
g67
(g68
g69
NtRp3193
(dp3194
g72
(dp3195
g80
I4
ssg81
g3189
sg74
(lp3196
g110
asbasbasbag67
(g83
g69
NtRp3197
(dp3198
g72
(dp3199
sg81
g3106
sg74
(lp3200
g67
(g88
g69
NtRp3201
(dp3202
g72
(dp3203
g92
g93
ssg81
g3197
sg74
(lp3204
S'user'
p3205
asbag67
(g88
g69
NtRp3206
(dp3207
g72
(dp3208
g99
g100
ssg81
g3197
sg74
(lp3209
S':'
asbag67
(g88
g69
NtRp3210
(dp3211
g72
(dp3212
sg81
g3197
sg74
(lp3213
g67
(g68
g69
NtRp3214
(dp3215
g72
(dp3216
g80
I4
ssg81
g3210
sg74
(lp3217
g67
(g76
g69
NtRp3218
(dp3219
g72
(dp3220
g80
I3
ssg81
Nsg74
(lp3221
g67
(g83
g69
NtRp3222
(dp3223
g72
(dp3224
sg81
g3218
sg74
(lp3225
g67
(g88
g69
NtRp3226
(dp3227
g72
(dp3228
g92
g93
ssg81
g3222
sg74
(lp3229
S'bio'
p3230
asbag67
(g88
g69
NtRp3231
(dp3232
g72
(dp3233
g99
g100
ssg81
g3222
sg74
(lp3234
S':'
asbag67
(g88
g69
NtRp3235
(dp3236
g72
(dp3237
sg81
g3222
sg74
(lp3238
g67
(g68
g69
NtRp3239
(dp3240
g72
(dp3241
g80
I3
ssg81
g3235
sg74
(lp3242
S'None'
p3243
asbasbasbag67
(g83
g69
NtRp3244
(dp3245
g72
(dp3246
sg81
g3218
sg74
(lp3247
g67
(g88
g69
NtRp3248
(dp3249
g72
(dp3250
g92
g93
ssg81
g3244
sg74
(lp3251
S'email'
p3252
asbag67
(g88
g69
NtRp3253
(dp3254
g72
(dp3255
g99
g100
ssg81
g3244
sg74
(lp3256
S':'
asbag67
(g88
g69
NtRp3257
(dp3258
g72
(dp3259
sg81
g3244
sg74
(lp3260
g67
(g68
g69
NtRp3261
(dp3262
g72
(dp3263
g80
I3
ssg81
g3257
sg74
(lp3264
S'fernando@ad2.com.br'
p3265
asbasbasbag67
(g83
g69
NtRp3266
(dp3267
g72
(dp3268
sg81
g3218
sg74
(lp3269
g67
(g88
g69
NtRp3270
(dp3271
g72
(dp3272
g92
g93
ssg81
g3266
sg74
(lp3273
S'first_name'
p3274
asbag67
(g88
g69
NtRp3275
(dp3276
g72
(dp3277
g99
g100
ssg81
g3266
sg74
(lp3278
S':'
asbag67
(g88
g69
NtRp3279
(dp3280
g72
(dp3281
sg81
g3266
sg74
(lp3282
g67
(g68
g69
NtRp3283
(dp3284
g72
(dp3285
g80
I3
ssg81
g3279
sg74
(lp3286
S'Dend'
p3287
asbasbasbag67
(g83
g69
NtRp3288
(dp3289
g72
(dp3290
sg81
g3218
sg74
(lp3291
g67
(g88
g69
NtRp3292
(dp3293
g72
(dp3294
g92
g93
ssg81
g3288
sg74
(lp3295
S'gender'
p3296
asbag67
(g88
g69
NtRp3297
(dp3298
g72
(dp3299
g99
g100
ssg81
g3288
sg74
(lp3300
S':'
asbag67
(g88
g69
NtRp3301
(dp3302
g72
(dp3303
sg81
g3288
sg74
(lp3304
g67
(g68
g69
NtRp3305
(dp3306
g72
(dp3307
g80
I3
ssg81
g3301
sg74
(lp3308
S'masculino'
p3309
asbasbasbag67
(g83
g69
NtRp3310
(dp3311
g72
(dp3312
sg81
g3218
sg74
(lp3313
g67
(g88
g69
NtRp3314
(dp3315
g72
(dp3316
g92
g93
ssg81
g3310
sg74
(lp3317
S'id'
p3318
asbag67
(g88
g69
NtRp3319
(dp3320
g72
(dp3321
g99
g100
ssg81
g3310
sg74
(lp3322
S':'
asbag67
(g88
g69
NtRp3323
(dp3324
g72
(dp3325
sg81
g3310
sg74
(lp3326
g67
(g68
g69
NtRp3327
(dp3328
g72
(dp3329
g80
I3
ssg81
g3323
sg74
(lp3330
S'5'
asbasbasbag67
(g83
g69
NtRp3331
(dp3332
g72
(dp3333
sg81
g3218
sg74
(lp3334
g67
(g88
g69
NtRp3335
(dp3336
g72
(dp3337
g92
g93
ssg81
g3331
sg74
(lp3338
S'last_name'
p3339
asbag67
(g88
g69
NtRp3340
(dp3341
g72
(dp3342
g99
g100
ssg81
g3331
sg74
(lp3343
S':'
asbag67
(g88
g69
NtRp3344
(dp3345
g72
(dp3346
sg81
g3331
sg74
(lp3347
g67
(g68
g69
NtRp3348
(dp3349
g72
(dp3350
g80
I3
ssg81
g3344
sg74
(lp3351
S'delkson'
p3352
asbasbasbag67
(g83
g69
NtRp3353
(dp3354
g72
(dp3355
sg81
g3218
sg74
(lp3356
g67
(g88
g69
NtRp3357
(dp3358
g72
(dp3359
g92
g93
ssg81
g3353
sg74
(lp3360
S'photo'
p3361
asbag67
(g88
g69
NtRp3362
(dp3363
g72
(dp3364
g99
g100
ssg81
g3353
sg74
(lp3365
S':'
asbag67
(g88
g69
NtRp3366
(dp3367
g72
(dp3368
sg81
g3353
sg74
(lp3369
g67
(g68
g69
NtRp3370
(dp3371
g72
(dp3372
g80
I3
ssg81
g3366
sg74
(lp3373
S'auth_user.photo.852c1e9d624a7670.746563686e6f6c6f676965735f7068702e706e67.png'
p3374
asbasbasbag67
(g83
g69
NtRp3375
(dp3376
g72
(dp3377
sg81
g3218
sg74
(lp3378
g67
(g88
g69
NtRp3379
(dp3380
g72
(dp3381
g92
g93
ssg81
g3375
sg74
(lp3382
S'registration_id'
p3383
asbag67
(g88
g69
NtRp3384
(dp3385
g72
(dp3386
g99
g100
ssg81
g3375
sg74
(lp3387
S':'
asbag67
(g88
g69
NtRp3388
(dp3389
g72
(dp3390
sg81
g3375
sg74
(lp3391
g67
(g68
g69
NtRp3392
(dp3393
g72
(dp3394
g80
I3
ssg81
g3388
sg74
(lp3395
S''
asbasbasbag67
(g83
g69
NtRp3396
(dp3397
g72
(dp3398
sg81
g3218
sg74
(lp3399
g67
(g88
g69
NtRp3400
(dp3401
g72
(dp3402
g92
g93
ssg81
g3396
sg74
(lp3403
S'registration_key'
p3404
asbag67
(g88
g69
NtRp3405
(dp3406
g72
(dp3407
g99
g100
ssg81
g3396
sg74
(lp3408
S':'
asbag67
(g88
g69
NtRp3409
(dp3410
g72
(dp3411
sg81
g3396
sg74
(lp3412
g67
(g68
g69
NtRp3413
(dp3414
g72
(dp3415
g80
I3
ssg81
g3409
sg74
(lp3416
S''
asbasbasbag67
(g83
g69
NtRp3417
(dp3418
g72
(dp3419
sg81
g3218
sg74
(lp3420
g67
(g88
g69
NtRp3421
(dp3422
g72
(dp3423
g92
g93
ssg81
g3417
sg74
(lp3424
S'reset_password_key'
p3425
asbag67
(g88
g69
NtRp3426
(dp3427
g72
(dp3428
g99
g100
ssg81
g3417
sg74
(lp3429
S':'
asbag67
(g88
g69
NtRp3430
(dp3431
g72
(dp3432
sg81
g3417
sg74
(lp3433
g67
(g68
g69
NtRp3434
(dp3435
g72
(dp3436
g80
I3
ssg81
g3430
sg74
(lp3437
S''
asbasbasbasbasbasbasbag67
(g83
g69
NtRp3438
(dp3439
g72
(dp3440
sg81
g3106
sg74
(lp3441
g67
(g88
g69
NtRp3442
(dp3443
g72
(dp3444
g92
g93
ssg81
g3438
sg74
(lp3445
S'user_groups'
p3446
asbag67
(g88
g69
NtRp3447
(dp3448
g72
(dp3449
g99
g100
ssg81
g3438
sg74
(lp3450
S':'
asbag67
(g88
g69
NtRp3451
(dp3452
g72
(dp3453
sg81
g3438
sg74
(lp3454
g67
(g68
g69
NtRp3455
(dp3456
g72
(dp3457
g80
I4
ssg81
g3451
sg74
(lp3458
g67
(g76
g69
NtRp3459
(dp3460
g72
(dp3461
g80
I3
ssg81
Nsg74
(lp3462
g67
(g83
g69
NtRp3463
(dp3464
g72
(dp3465
sg81
g3459
sg74
(lp3466
g67
(g88
g69
NtRp3467
(dp3468
g72
(dp3469
g92
g93
ssg81
g3463
sg74
(lp3470
S'5'
asbag67
(g88
g69
NtRp3471
(dp3472
g72
(dp3473
g99
g100
ssg81
g3463
sg74
(lp3474
S':'
asbag67
(g88
g69
NtRp3475
(dp3476
g72
(dp3477
sg81
g3463
sg74
(lp3478
g67
(g68
g69
NtRp3479
(dp3480
g72
(dp3481
g80
I3
ssg81
g3475
sg74
(lp3482
S'user_5'
p3483
asbasbasbasbasbasbasbasbasbasbasbag67
(g83
g69
NtRp3484
(dp3485
g72
(dp3486
sg81
g3081
sg74
(lp3487
g67
(g88
g69
NtRp3488
(dp3489
g72
(dp3490
g92
g93
ssg81
g3484
sg74
(lp3491
S'flash'
p3492
asbag67
(g88
g69
NtRp3493
(dp3494
g72
(dp3495
g99
g100
ssg81
g3484
sg74
(lp3496
S':'
asbag67
(g88
g69
NtRp3497
(dp3498
g72
(dp3499
sg81
g3484
sg74
(lp3500
g67
(g68
g69
NtRp3501
(dp3502
g72
(dp3503
g80
I5
ssg81
g3497
sg74
(lp3504
S'None'
p3505
asbasbasbasbasbsS'etype'
p3506
S"<type 'exceptions.IndentationError'>"
p3507
sS'date'
p3508
S'Sat Feb  2 21:54:09 2013'
p3509
sS'response'
p3510
g67
(g68
g69
NtRp3511
(dp3512
g72
(dp3513
sg74
(lp3514
g67
(g76
g69
NtRp3515
(dp3516
g72
(dp3517
g80
I5
ssg81
Nsg74
(lp3518
g67
(g83
g69
NtRp3519
(dp3520
g72
(dp3521
sg81
g3515
sg74
(lp3522
g67
(g88
g69
NtRp3523
(dp3524
g72
(dp3525
g92
g93
ssg81
g3519
sg74
(lp3526
g165
asbag67
(g88
g69
NtRp3527
(dp3528
g72
(dp3529
g99
g100
ssg81
g3519
sg74
(lp3530
S':'
asbag67
(g88
g69
NtRp3531
(dp3532
g72
(dp3533
sg81
g3519
sg74
(lp3534
g67
(g68
g69
NtRp3535
(dp3536
g72
(dp3537
g80
I5
ssg81
g3531
sg74
(lp3538
S'<cStringIO.StringO object at 0x7fe5d435d810>'
p3539
asbasbasbag67
(g83
g69
NtRp3540
(dp3541
g72
(dp3542
sg81
g3515
sg74
(lp3543
g67
(g88
g69
NtRp3544
(dp3545
g72
(dp3546
g92
g93
ssg81
g3540
sg74
(lp3547
g253
asbag67
(g88
g69
NtRp3548
(dp3549
g72
(dp3550
g99
g100
ssg81
g3540
sg74
(lp3551
S':'
asbag67
(g88
g69
NtRp3552
(dp3553
g72
(dp3554
sg81
g3540
sg74
(lp3555
g67
(g68
g69
NtRp3556
(dp3557
g72
(dp3558
g80
I5
ssg81
g3552
sg74
(lp3559
g67
(g76
g69
NtRp3560
(dp3561
g72
(dp3562
g80
I4
ssg81
Nsg74
(lp3563
g67
(g83
g69
NtRp3564
(dp3565
g72
(dp3566
sg81
g3560
sg74
(lp3567
g67
(g88
g69
NtRp3568
(dp3569
g72
(dp3570
g92
g93
ssg81
g3564
sg74
(lp3571
S'session_id_projeto'
p3572
asbag67
(g88
g69
NtRp3573
(dp3574
g72
(dp3575
g99
g100
ssg81
g3564
sg74
(lp3576
S':'
asbag67
(g88
g69
NtRp3577
(dp3578
g72
(dp3579
sg81
g3564
sg74
(lp3580
g67
(g68
g69
NtRp3581
(dp3582
g72
(dp3583
g80
I4
ssg81
g3577
sg74
(lp3584
g485
ag67
(g76
g69
NtRp3585
(dp3586
g72
(dp3587
g80
I3
ssg81
Nsg74
(lp3588
g67
(g83
g69
NtRp3589
(dp3590
g72
(dp3591
sg81
g3585
sg74
(lp3592
g67
(g88
g69
NtRp3593
(dp3594
g72
(dp3595
g92
g93
ssg81
g3589
sg74
(lp3596
g304
asbag67
(g88
g69
NtRp3597
(dp3598
g72
(dp3599
g99
g100
ssg81
g3589
sg74
(lp3600
S':'
asbag67
(g88
g69
NtRp3601
(dp3602
g72
(dp3603
sg81
g3589
sg74
(lp3604
g67
(g68
g69
NtRp3605
(dp3606
g72
(dp3607
g80
I3
ssg81
g3601
sg74
(lp3608
S''
asbasbasbag67
(g83
g69
NtRp3609
(dp3610
g72
(dp3611
sg81
g3585
sg74
(lp3612
g67
(g88
g69
NtRp3613
(dp3614
g72
(dp3615
g92
g93
ssg81
g3609
sg74
(lp3616
g325
asbag67
(g88
g69
NtRp3617
(dp3618
g72
(dp3619
g99
g100
ssg81
g3609
sg74
(lp3620
S':'
asbag67
(g88
g69
NtRp3621
(dp3622
g72
(dp3623
sg81
g3609
sg74
(lp3624
g67
(g68
g69
NtRp3625
(dp3626
g72
(dp3627
g80
I3
ssg81
g3621
sg74
(lp3628
S''
asbasbasbag67
(g83
g69
NtRp3629
(dp3630
g72
(dp3631
sg81
g3585
sg74
(lp3632
g67
(g88
g69
NtRp3633
(dp3634
g72
(dp3635
g92
g93
ssg81
g3629
sg74
(lp3636
g346
asbag67
(g88
g69
NtRp3637
(dp3638
g72
(dp3639
g99
g100
ssg81
g3629
sg74
(lp3640
S':'
asbag67
(g88
g69
NtRp3641
(dp3642
g72
(dp3643
sg81
g3629
sg74
(lp3644
g67
(g68
g69
NtRp3645
(dp3646
g72
(dp3647
g80
I3
ssg81
g3641
sg74
(lp3648
S''
asbasbasbag67
(g83
g69
NtRp3649
(dp3650
g72
(dp3651
sg81
g3585
sg74
(lp3652
g67
(g88
g69
NtRp3653
(dp3654
g72
(dp3655
g92
g93
ssg81
g3649
sg74
(lp3656
g367
asbag67
(g88
g69
NtRp3657
(dp3658
g72
(dp3659
g99
g100
ssg81
g3649
sg74
(lp3660
S':'
asbag67
(g88
g69
NtRp3661
(dp3662
g72
(dp3663
sg81
g3649
sg74
(lp3664
g67
(g68
g69
NtRp3665
(dp3666
g72
(dp3667
g80
I3
ssg81
g3661
sg74
(lp3668
S''
asbasbasbag67
(g83
g69
NtRp3669
(dp3670
g72
(dp3671
sg81
g3585
sg74
(lp3672
g67
(g88
g69
NtRp3673
(dp3674
g72
(dp3675
g92
g93
ssg81
g3669
sg74
(lp3676
g388
asbag67
(g88
g69
NtRp3677
(dp3678
g72
(dp3679
g99
g100
ssg81
g3669
sg74
(lp3680
S':'
asbag67
(g88
g69
NtRp3681
(dp3682
g72
(dp3683
sg81
g3669
sg74
(lp3684
g67
(g68
g69
NtRp3685
(dp3686
g72
(dp3687
g80
I3
ssg81
g3681
sg74
(lp3688
S''
asbasbasbag67
(g83
g69
NtRp3689
(dp3690
g72
(dp3691
sg81
g3585
sg74
(lp3692
g67
(g88
g69
NtRp3693
(dp3694
g72
(dp3695
g92
g93
ssg81
g3689
sg74
(lp3696
g409
asbag67
(g88
g69
NtRp3697
(dp3698
g72
(dp3699
g99
g100
ssg81
g3689
sg74
(lp3700
S':'
asbag67
(g88
g69
NtRp3701
(dp3702
g72
(dp3703
sg81
g3689
sg74
(lp3704
g67
(g68
g69
NtRp3705
(dp3706
g72
(dp3707
g80
I3
ssg81
g3701
sg74
(lp3708
S'/'
asbasbasbag67
(g83
g69
NtRp3709
(dp3710
g72
(dp3711
sg81
g3585
sg74
(lp3712
g67
(g88
g69
NtRp3713
(dp3714
g72
(dp3715
g92
g93
ssg81
g3709
sg74
(lp3716
g430
asbag67
(g88
g69
NtRp3717
(dp3718
g72
(dp3719
g99
g100
ssg81
g3709
sg74
(lp3720
S':'
asbag67
(g88
g69
NtRp3721
(dp3722
g72
(dp3723
sg81
g3709
sg74
(lp3724
g67
(g68
g69
NtRp3725
(dp3726
g72
(dp3727
g80
I3
ssg81
g3721
sg74
(lp3728
S''
asbasbasbag67
(g83
g69
NtRp3729
(dp3730
g72
(dp3731
sg81
g3585
sg74
(lp3732
g67
(g88
g69
NtRp3733
(dp3734
g72
(dp3735
g92
g93
ssg81
g3729
sg74
(lp3736
g451
asbag67
(g88
g69
NtRp3737
(dp3738
g72
(dp3739
g99
g100
ssg81
g3729
sg74
(lp3740
S':'
asbag67
(g88
g69
NtRp3741
(dp3742
g72
(dp3743
sg81
g3729
sg74
(lp3744
g67
(g68
g69
NtRp3745
(dp3746
g72
(dp3747
g80
I3
ssg81
g3741
sg74
(lp3748
S''
asbasbasbasbasbasbasbasbasbasbasbag67
(g83
g69
NtRp3749
(dp3750
g72
(dp3751
sg81
g3515
sg74
(lp3752
g67
(g88
g69
NtRp3753
(dp3754
g72
(dp3755
g92
g93
ssg81
g3749
sg74
(lp3756
S'delimiters'
p3757
asbag67
(g88
g69
NtRp3758
(dp3759
g72
(dp3760
g99
g100
ssg81
g3749
sg74
(lp3761
S':'
asbag67
(g88
g69
NtRp3762
(dp3763
g72
(dp3764
sg81
g3749
sg74
(lp3765
g67
(g68
g69
NtRp3766
(dp3767
g72
(dp3768
g80
I5
ssg81
g3762
sg74
(lp3769
g67
(g76
g69
NtRp3770
(dp3771
g72
(dp3772
g80
I4
ssg81
Nsg74
(lp3773
g67
(g83
g69
NtRp3774
(dp3775
g72
(dp3776
sg81
g3770
sg74
(lp3777
g67
(g88
g69
NtRp3778
(dp3779
g72
(dp3780
sg81
g3774
sg74
(lp3781
g67
(g68
g69
NtRp3782
(dp3783
g72
(dp3784
g80
I4
ssg81
g3778
sg74
(lp3785
S'{{'
p3786
asbasbasbag67
(g83
g69
NtRp3787
(dp3788
g72
(dp3789
sg81
g3770
sg74
(lp3790
g67
(g88
g69
NtRp3791
(dp3792
g72
(dp3793
sg81
g3787
sg74
(lp3794
g67
(g68
g69
NtRp3795
(dp3796
g72
(dp3797
g80
I4
ssg81
g3791
sg74
(lp3798
S'}}'
p3799
asbasbasbasbasbasbasbag67
(g83
g69
NtRp3800
(dp3801
g72
(dp3802
sg81
g3515
sg74
(lp3803
g67
(g88
g69
NtRp3804
(dp3805
g72
(dp3806
g92
g93
ssg81
g3800
sg74
(lp3807
S'files'
p3808
asbag67
(g88
g69
NtRp3809
(dp3810
g72
(dp3811
g99
g100
ssg81
g3800
sg74
(lp3812
S':'
asbag67
(g88
g69
NtRp3813
(dp3814
g72
(dp3815
sg81
g3800
sg74
(lp3816
g67
(g68
g69
NtRp3817
(dp3818
g72
(dp3819
g80
I5
ssg81
g3813
sg74
(lp3820
g67
(g76
g69
NtRp3821
(dp3822
g72
(dp3823
g80
I4
ssg81
Nsg74
(lp3824
sbasbasbasbag67
(g83
g69
NtRp3825
(dp3826
g72
(dp3827
sg81
g3515
sg74
(lp3828
g67
(g88
g69
NtRp3829
(dp3830
g72
(dp3831
g92
g93
ssg81
g3825
sg74
(lp3832
S'flash'
p3833
asbag67
(g88
g69
NtRp3834
(dp3835
g72
(dp3836
g99
g100
ssg81
g3825
sg74
(lp3837
S':'
asbag67
(g88
g69
NtRp3838
(dp3839
g72
(dp3840
sg81
g3825
sg74
(lp3841
g67
(g68
g69
NtRp3842
(dp3843
g72
(dp3844
g80
I5
ssg81
g3838
sg74
(lp3845
S''
asbasbasbag67
(g83
g69
NtRp3846
(dp3847
g72
(dp3848
sg81
g3515
sg74
(lp3849
g67
(g88
g69
NtRp3850
(dp3851
g72
(dp3852
g92
g93
ssg81
g3846
sg74
(lp3853
S'generic_patterns'
p3854
asbag67
(g88
g69
NtRp3855
(dp3856
g72
(dp3857
g99
g100
ssg81
g3846
sg74
(lp3858
S':'
asbag67
(g88
g69
NtRp3859
(dp3860
g72
(dp3861
sg81
g3846
sg74
(lp3862
g67
(g68
g69
NtRp3863
(dp3864
g72
(dp3865
g80
I5
ssg81
g3859
sg74
(lp3866
g67
(g76
g69
NtRp3867
(dp3868
g72
(dp3869
g80
I4
ssg81
Nsg74
(lp3870
g67
(g83
g69
NtRp3871
(dp3872
g72
(dp3873
sg81
g3867
sg74
(lp3874
g67
(g88
g69
NtRp3875
(dp3876
g72
(dp3877
sg81
g3871
sg74
(lp3878
g67
(g68
g69
NtRp3879
(dp3880
g72
(dp3881
g80
I4
ssg81
g3875
sg74
(lp3882
S'*'
asbasbasbasbasbasbasbag67
(g83
g69
NtRp3883
(dp3884
g72
(dp3885
sg81
g3515
sg74
(lp3886
g67
(g88
g69
NtRp3887
(dp3888
g72
(dp3889
g92
g93
ssg81
g3883
sg74
(lp3890
S'headers'
p3891
asbag67
(g88
g69
NtRp3892
(dp3893
g72
(dp3894
g99
g100
ssg81
g3883
sg74
(lp3895
S':'
asbag67
(g88
g69
NtRp3896
(dp3897
g72
(dp3898
sg81
g3883
sg74
(lp3899
g67
(g68
g69
NtRp3900
(dp3901
g72
(dp3902
g80
I5
ssg81
g3896
sg74
(lp3903
g67
(g76
g69
NtRp3904
(dp3905
g72
(dp3906
g80
I4
ssg81
Nsg74
(lp3907
g67
(g83
g69
NtRp3908
(dp3909
g72
(dp3910
sg81
g3904
sg74
(lp3911
g67
(g88
g69
NtRp3912
(dp3913
g72
(dp3914
g92
g93
ssg81
g3908
sg74
(lp3915
S'X-Powered-By'
p3916
asbag67
(g88
g69
NtRp3917
(dp3918
g72
(dp3919
g99
g100
ssg81
g3908
sg74
(lp3920
S':'
asbag67
(g88
g69
NtRp3921
(dp3922
g72
(dp3923
sg81
g3908
sg74
(lp3924
g67
(g68
g69
NtRp3925
(dp3926
g72
(dp3927
g80
I4
ssg81
g3921
sg74
(lp3928
S'web2py'
p3929
asbasbasbasbasbasbasbag67
(g83
g69
NtRp3930
(dp3931
g72
(dp3932
sg81
g3515
sg74
(lp3933
g67
(g88
g69
NtRp3934
(dp3935
g72
(dp3936
g92
g93
ssg81
g3930
sg74
(lp3937
S'menu'
p3938
asbag67
(g88
g69
NtRp3939
(dp3940
g72
(dp3941
g99
g100
ssg81
g3930
sg74
(lp3942
S':'
asbag67
(g88
g69
NtRp3943
(dp3944
g72
(dp3945
sg81
g3930
sg74
(lp3946
g67
(g68
g69
NtRp3947
(dp3948
g72
(dp3949
g80
I5
ssg81
g3943
sg74
(lp3950
g67
(g76
g69
NtRp3951
(dp3952
g72
(dp3953
g80
I4
ssg81
Nsg74
(lp3954
sbasbasbasbag67
(g83
g69
NtRp3955
(dp3956
g72
(dp3957
sg81
g3515
sg74
(lp3958
g67
(g88
g69
NtRp3959
(dp3960
g72
(dp3961
g92
g93
ssg81
g3955
sg74
(lp3962
S'meta'
p3963
asbag67
(g88
g69
NtRp3964
(dp3965
g72
(dp3966
g99
g100
ssg81
g3955
sg74
(lp3967
S':'
asbag67
(g88
g69
NtRp3968
(dp3969
g72
(dp3970
sg81
g3955
sg74
(lp3971
g67
(g68
g69
NtRp3972
(dp3973
g72
(dp3974
g80
I5
ssg81
g3968
sg74
(lp3975
g67
(g76
g69
NtRp3976
(dp3977
g72
(dp3978
g80
I4
ssg81
Nsg74
(lp3979
g67
(g83
g69
NtRp3980
(dp3981
g72
(dp3982
sg81
g3976
sg74
(lp3983
g67
(g88
g69
NtRp3984
(dp3985
g72
(dp3986
g92
g93
ssg81
g3980
sg74
(lp3987
S'description'
p3988
asbag67
(g88
g69
NtRp3989
(dp3990
g72
(dp3991
g99
g100
ssg81
g3980
sg74
(lp3992
S':'
asbag67
(g88
g69
NtRp3993
(dp3994
g72
(dp3995
sg81
g3980
sg74
(lp3996
g67
(g68
g69
NtRp3997
(dp3998
g72
(dp3999
g80
I4
ssg81
g3993
sg74
(lp4000
S'blog do shedon'
p4001
asbasbasbag67
(g83
g69
NtRp4002
(dp4003
g72
(dp4004
sg81
g3976
sg74
(lp4005
g67
(g88
g69
NtRp4006
(dp4007
g72
(dp4008
g92
g93
ssg81
g4002
sg74
(lp4009
S'keywords'
p4010
asbag67
(g88
g69
NtRp4011
(dp4012
g72
(dp4013
g99
g100
ssg81
g4002
sg74
(lp4014
S':'
asbag67
(g88
g69
NtRp4015
(dp4016
g72
(dp4017
sg81
g4002
sg74
(lp4018
g67
(g68
g69
NtRp4019
(dp4020
g72
(dp4021
g80
I4
ssg81
g4015
sg74
(lp4022
S'chave, outra, e utra'
p4023
asbasbasbasbasbasbasbag67
(g83
g69
NtRp4024
(dp4025
g72
(dp4026
sg81
g3515
sg74
(lp4027
g67
(g88
g69
NtRp4028
(dp4029
g72
(dp4030
g92
g93
ssg81
g4024
sg74
(lp4031
S'models_to_run'
p4032
asbag67
(g88
g69
NtRp4033
(dp4034
g72
(dp4035
g99
g100
ssg81
g4024
sg74
(lp4036
S':'
asbag67
(g88
g69
NtRp4037
(dp4038
g72
(dp4039
sg81
g4024
sg74
(lp4040
g67
(g68
g69
NtRp4041
(dp4042
g72
(dp4043
g80
I5
ssg81
g4037
sg74
(lp4044
g67
(g76
g69
NtRp4045
(dp4046
g72
(dp4047
g80
I4
ssg81
Nsg74
(lp4048
g67
(g83
g69
NtRp4049
(dp4050
g72
(dp4051
sg81
g4045
sg74
(lp4052
g67
(g88
g69
NtRp4053
(dp4054
g72
(dp4055
sg81
g4049
sg74
(lp4056
g67
(g68
g69
NtRp4057
(dp4058
g72
(dp4059
g80
I4
ssg81
g4053
sg74
(lp4060
S'^\\w+\\.py$'
p4061
asbasbasbag67
(g83
g69
NtRp4062
(dp4063
g72
(dp4064
sg81
g4045
sg74
(lp4065
g67
(g88
g69
NtRp4066
(dp4067
g72
(dp4068
sg81
g4062
sg74
(lp4069
g67
(g68
g69
NtRp4070
(dp4071
g72
(dp4072
g80
I4
ssg81
g4066
sg74
(lp4073
S'^initial/\\w+\\.py$'
p4074
asbasbasbag67
(g83
g69
NtRp4075
(dp4076
g72
(dp4077
sg81
g4045
sg74
(lp4078
g67
(g88
g69
NtRp4079
(dp4080
g72
(dp4081
sg81
g4075
sg74
(lp4082
g67
(g68
g69
NtRp4083
(dp4084
g72
(dp4085
g80
I4
ssg81
g4079
sg74
(lp4086
S'^initial/home/\\w+\\.py$'
p4087
asbasbasbasbasbasbasbag67
(g83
g69
NtRp4088
(dp4089
g72
(dp4090
sg81
g3515
sg74
(lp4091
g67
(g88
g69
NtRp4092
(dp4093
g72
(dp4094
g92
g93
ssg81
g4088
sg74
(lp4095
S'postprocessing'
p4096
asbag67
(g88
g69
NtRp4097
(dp4098
g72
(dp4099
g99
g100
ssg81
g4088
sg74
(lp4100
S':'
asbag67
(g88
g69
NtRp4101
(dp4102
g72
(dp4103
sg81
g4088
sg74
(lp4104
g67
(g68
g69
NtRp4105
(dp4106
g72
(dp4107
g80
I5
ssg81
g4101
sg74
(lp4108
g67
(g76
g69
NtRp4109
(dp4110
g72
(dp4111
g80
I4
ssg81
Nsg74
(lp4112
sbasbasbasbag67
(g83
g69
NtRp4113
(dp4114
g72
(dp4115
sg81
g3515
sg74
(lp4116
g67
(g88
g69
NtRp4117
(dp4118
g72
(dp4119
g92
g93
ssg81
g4113
sg74
(lp4120
S'session_cookie_expires'
p4121
asbag67
(g88
g69
NtRp4122
(dp4123
g72
(dp4124
g99
g100
ssg81
g4113
sg74
(lp4125
S':'
asbag67
(g88
g69
NtRp4126
(dp4127
g72
(dp4128
sg81
g4113
sg74
(lp4129
g67
(g68
g69
NtRp4130
(dp4131
g72
(dp4132
g80
I5
ssg81
g4126
sg74
(lp4133
S'None'
p4134
asbasbasbag67
(g83
g69
NtRp4135
(dp4136
g72
(dp4137
sg81
g3515
sg74
(lp4138
g67
(g88
g69
NtRp4139
(dp4140
g72
(dp4141
g92
g93
ssg81
g4135
sg74
(lp4142
S'session_data_name'
p4143
asbag67
(g88
g69
NtRp4144
(dp4145
g72
(dp4146
g99
g100
ssg81
g4135
sg74
(lp4147
S':'
asbag67
(g88
g69
NtRp4148
(dp4149
g72
(dp4150
sg81
g4135
sg74
(lp4151
g67
(g68
g69
NtRp4152
(dp4153
g72
(dp4154
g80
I5
ssg81
g4148
sg74
(lp4155
S'session_data_projeto'
p4156
asbasbasbag67
(g83
g69
NtRp4157
(dp4158
g72
(dp4159
sg81
g3515
sg74
(lp4160
g67
(g88
g69
NtRp4161
(dp4162
g72
(dp4163
g92
g93
ssg81
g4157
sg74
(lp4164
S'session_file'
p4165
asbag67
(g88
g69
NtRp4166
(dp4167
g72
(dp4168
g99
g100
ssg81
g4157
sg74
(lp4169
S':'
asbag67
(g88
g69
NtRp4170
(dp4171
g72
(dp4172
sg81
g4157
sg74
(lp4173
g67
(g68
g69
NtRp4174
(dp4175
g72
(dp4176
g80
I5
ssg81
g4170
sg74
(lp4177
S"<open file '/var/www/web2py_curso/applications/projeto/sessions/127.0.0.1-71851f1a-a738-4589-a6cd-6594e5094ab6', mode 'rb+' at 0x7fe5d4148150>"
p4178
asbasbasbag67
(g83
g69
NtRp4179
(dp4180
g72
(dp4181
sg81
g3515
sg74
(lp4182
g67
(g88
g69
NtRp4183
(dp4184
g72
(dp4185
g92
g93
ssg81
g4179
sg74
(lp4186
S'session_filename'
p4187
asbag67
(g88
g69
NtRp4188
(dp4189
g72
(dp4190
g99
g100
ssg81
g4179
sg74
(lp4191
S':'
asbag67
(g88
g69
NtRp4192
(dp4193
g72
(dp4194
sg81
g4179
sg74
(lp4195
g67
(g68
g69
NtRp4196
(dp4197
g72
(dp4198
g80
I5
ssg81
g4192
sg74
(lp4199
S'/var/www/web2py_curso/applications/projeto/sessions/127.0.0.1-71851f1a-a738-4589-a6cd-6594e5094ab6'
p4200
asbasbasbag67
(g83
g69
NtRp4201
(dp4202
g72
(dp4203
sg81
g3515
sg74
(lp4204
g67
(g88
g69
NtRp4205
(dp4206
g72
(dp4207
g92
g93
ssg81
g4201
sg74
(lp4208
S'session_id'
p4209
asbag67
(g88
g69
NtRp4210
(dp4211
g72
(dp4212
g99
g100
ssg81
g4201
sg74
(lp4213
S':'
asbag67
(g88
g69
NtRp4214
(dp4215
g72
(dp4216
sg81
g4201
sg74
(lp4217
g67
(g68
g69
NtRp4218
(dp4219
g72
(dp4220
g80
I5
ssg81
g4214
sg74
(lp4221
g485
asbasbasbag67
(g83
g69
NtRp4222
(dp4223
g72
(dp4224
sg81
g3515
sg74
(lp4225
g67
(g88
g69
NtRp4226
(dp4227
g72
(dp4228
g92
g93
ssg81
g4222
sg74
(lp4229
S'session_id_name'
p4230
asbag67
(g88
g69
NtRp4231
(dp4232
g72
(dp4233
g99
g100
ssg81
g4222
sg74
(lp4234
S':'
asbag67
(g88
g69
NtRp4235
(dp4236
g72
(dp4237
sg81
g4222
sg74
(lp4238
g67
(g68
g69
NtRp4239
(dp4240
g72
(dp4241
g80
I5
ssg81
g4235
sg74
(lp4242
g3572
asbasbasbag67
(g83
g69
NtRp4243
(dp4244
g72
(dp4245
sg81
g3515
sg74
(lp4246
g67
(g88
g69
NtRp4247
(dp4248
g72
(dp4249
g92
g93
ssg81
g4243
sg74
(lp4250
S'session_locked'
p4251
asbag67
(g88
g69
NtRp4252
(dp4253
g72
(dp4254
g99
g100
ssg81
g4243
sg74
(lp4255
S':'
asbag67
(g88
g69
NtRp4256
(dp4257
g72
(dp4258
sg81
g4243
sg74
(lp4259
g67
(g68
g69
NtRp4260
(dp4261
g72
(dp4262
g80
I5
ssg81
g4256
sg74
(lp4263
g1614
asbasbasbag67
(g83
g69
NtRp4264
(dp4265
g72
(dp4266
sg81
g3515
sg74
(lp4267
g67
(g88
g69
NtRp4268
(dp4269
g72
(dp4270
g92
g93
ssg81
g4264
sg74
(lp4271
S'session_new'
p4272
asbag67
(g88
g69
NtRp4273
(dp4274
g72
(dp4275
g99
g100
ssg81
g4264
sg74
(lp4276
S':'
asbag67
(g88
g69
NtRp4277
(dp4278
g72
(dp4279
sg81
g4264
sg74
(lp4280
g67
(g68
g69
NtRp4281
(dp4282
g72
(dp4283
g80
I5
ssg81
g4277
sg74
(lp4284
g110
asbasbasbag67
(g83
g69
NtRp4285
(dp4286
g72
(dp4287
sg81
g3515
sg74
(lp4288
g67
(g88
g69
NtRp4289
(dp4290
g72
(dp4291
g92
g93
ssg81
g4285
sg74
(lp4292
S'session_storage_type'
p4293
asbag67
(g88
g69
NtRp4294
(dp4295
g72
(dp4296
g99
g100
ssg81
g4285
sg74
(lp4297
S':'
asbag67
(g88
g69
NtRp4298
(dp4299
g72
(dp4300
sg81
g4285
sg74
(lp4301
g67
(g68
g69
NtRp4302
(dp4303
g72
(dp4304
g80
I5
ssg81
g4298
sg74
(lp4305
g3023
asbasbasbag67
(g83
g69
NtRp4306
(dp4307
g72
(dp4308
sg81
g3515
sg74
(lp4309
g67
(g88
g69
NtRp4310
(dp4311
g72
(dp4312
g92
g93
ssg81
g4306
sg74
(lp4313
S'status'
p4314
asbag67
(g88
g69
NtRp4315
(dp4316
g72
(dp4317
g99
g100
ssg81
g4306
sg74
(lp4318
S':'
asbag67
(g88
g69
NtRp4319
(dp4320
g72
(dp4321
sg81
g4306
sg74
(lp4322
g67
(g68
g69
NtRp4323
(dp4324
g72
(dp4325
g80
I5
ssg81
g4319
sg74
(lp4326
S'200'
p4327
asbasbasbag67
(g83
g69
NtRp4328
(dp4329
g72
(dp4330
sg81
g3515
sg74
(lp4331
g67
(g88
g69
NtRp4332
(dp4333
g72
(dp4334
g92
g93
ssg81
g4328
sg74
(lp4335
S'subtitle'
p4336
asbag67
(g88
g69
NtRp4337
(dp4338
g72
(dp4339
g99
g100
ssg81
g4328
sg74
(lp4340
S':'
asbag67
(g88
g69
NtRp4341
(dp4342
g72
(dp4343
sg81
g4328
sg74
(lp4344
g67
(g68
g69
NtRp4345
(dp4346
g72
(dp4347
g80
I5
ssg81
g4341
sg74
(lp4348
S'O blog do sheldon'
p4349
asbasbasbag67
(g83
g69
NtRp4350
(dp4351
g72
(dp4352
sg81
g3515
sg74
(lp4353
g67
(g88
g69
NtRp4354
(dp4355
g72
(dp4356
g92
g93
ssg81
g4350
sg74
(lp4357
S'title'
p4358
asbag67
(g88
g69
NtRp4359
(dp4360
g72
(dp4361
g99
g100
ssg81
g4350
sg74
(lp4362
S':'
asbag67
(g88
g69
NtRp4363
(dp4364
g72
(dp4365
sg81
g4350
sg74
(lp4366
g67
(g68
g69
NtRp4367
(dp4368
g72
(dp4369
g80
I5
ssg81
g4363
sg74
(lp4370
S'Meu site magnifico'
p4371
asbasbasbag67
(g83
g69
NtRp4372
(dp4373
g72
(dp4374
sg81
g3515
sg74
(lp4375
g67
(g88
g69
NtRp4376
(dp4377
g72
(dp4378
g92
g93
ssg81
g4372
sg74
(lp4379
S'view'
p4380
asbag67
(g88
g69
NtRp4381
(dp4382
g72
(dp4383
g99
g100
ssg81
g4372
sg74
(lp4384
S':'
asbag67
(g88
g69
NtRp4385
(dp4386
g72
(dp4387
sg81
g4372
sg74
(lp4388
g67
(g68
g69
NtRp4389
(dp4390
g72
(dp4391
g80
I5
ssg81
g4385
sg74
(lp4392
S'initial/home.html'
p4393
asbasbasbasbasbsS'locals'
p4394
(dp4395
g4
S"'/var/www/web2py_curso/applications/projeto/controllers/initial.py'"
p4396
sg6
S"'# coding: utf-8\\n\\ndef home():\\nposts = db(db.post)... x + y\\n\\n \\n\\nresponse._vars=response._caller(home)\\n'"
p4397
sssS'traceback'
p4398
S'Traceback (most recent call last):\n  File "/var/www/web2py_curso/gluon/restricted.py", line 211, in restricted\n    ccode = compile2(code, layer)\n  File "/var/www/web2py_curso/gluon/restricted.py", line 194, in compile2\n    return compile(code.rstrip().replace(\'\\r\\n\', \'\\n\') + \'\\n\', layer, \'exec\')\n  File "/var/www/web2py_curso/applications/projeto/controllers/initial.py", line 4\n    posts = db(db.post).select();\n        ^\nIndentationError: expected an indented block\n'
p4399
s.