(dp1
S'output'
p2
S"<type 'exceptions.IndentationError'> unindent does not match any outer indentation level (manager.py, line 40)"
p3
sS'layer'
p4
S'/var/www/web2py_curso/applications/projeto/controllers/manager.py'
p5
sS'code'
p6
S'# if not auth.has_membership("admin"):\n#     redirect(URL(\'initial\', \'home\'))\n\n@auth.requires_login()\ndef category():\n\tform = SQLFORM(db.category, formstyle=\'divs\', submit_button=\'Enviar\', _class=\'admform\', _id=\'formblog\')\n\n\tif form.process().accepted:\n\t\tresponse.flash = "Sucesso"\n\telif form.errors:\n\t\tresponse.flash = "erro"\n\telse:\n\t\tresponse.flash = "Preencha o form"\n\n\treturn dict(form=form)\n\n@auth.requires_membership(\'admin\')\ndef blogs():\n\tform = SQLFORM(db.blog, formstyle=\'divs\', submit_button=\'Enviar\', _class=\'admform\', _id=\'formblog\')\n\t\n\n\tif form.process().accepted:\n\t\tresponse.flash = "Sucesso"\n\telif form.errors:\n\t\tresponse.flash = "erro"\n\telse:\n\t\tresponse.flash = "Preencha o form"\n\n\treturn dict(form=form)\n\n@auth.requires_membership("admin")\ndef user():\n    grid = SQLFORM.grid(db.auth_user)\n    return dict(grid=grid)\n\n@auth.requires_membership("admin")\ndef posts():\n\tdb.post.post_date.represent = lambda v, row: prettydate(v)    \n\n    grid = SQLFORM.grid(db.post)\n    return dict(grid=grid)\n\n\nresponse._vars=response._caller(posts)\n'
p7
sS'snapshot'
p8
(dp9
S'exception'
p10
(dp11
S'__getslice__'
p12
S"<method-wrapper '__getslice__' of exceptions.IndentationError object>"
p13
sS'text'
p14
S"'    grid = SQLFORM.grid(db.post)\\n'"
p15
sS'__str__'
p16
S"<method-wrapper '__str__' of exceptions.IndentationError object>"
p17
sS'__reduce__'
p18
S'<built-in method __reduce__ of exceptions.IndentationError object>'
p19
sS'__dict__'
p20
S'{}'
p21
sS'__sizeof__'
p22
S'<built-in method __sizeof__ of exceptions.IndentationError object>'
p23
sS'__init__'
p24
S"<method-wrapper '__init__' of exceptions.IndentationError object>"
p25
sS'__setattr__'
p26
S"<method-wrapper '__setattr__' of exceptions.IndentationError object>"
p27
sS'__reduce_ex__'
p28
S'<built-in method __reduce_ex__ of exceptions.IndentationError object>'
p29
sS'__new__'
p30
S'<built-in method __new__ of type object>'
p31
sS'__format__'
p32
S'<built-in method __format__ of exceptions.IndentationError object>'
p33
sS'__class__'
p34
S"<type 'exceptions.IndentationError'>"
p35
sS'filename'
p36
S"'/var/www/web2py_curso/applications/projeto/controllers/manager.py'"
p37
sS'lineno'
p38
S'40'
p39
sS'msg'
p40
S"'unindent does not match any outer indentation level'"
p41
sS'__doc__'
p42
S"'Improper indentation.'"
p43
sS'__getitem__'
p44
S"<method-wrapper '__getitem__' of exceptions.IndentationError object>"
p45
sS'__setstate__'
p46
S'<built-in method __setstate__ of exceptions.IndentationError object>'
p47
sS'__getattribute__'
p48
S"<method-wrapper '__getattribute__' of exceptions.IndentationError object>"
p49
sS'print_file_and_line'
p50
S'None'
p51
sS'args'
p52
S"('unindent does not match any outer indentation level', ('/var/www/web2py_curso/applications/projeto/controllers/manager.py', 40, 33, '    grid = SQLFORM.grid(db.post)\\n'))"
p53
sS'__subclasshook__'
p54
S'<built-in method __subclasshook__ of type object>'
p55
sS'offset'
p56
S'33'
p57
sS'__unicode__'
p58
S'<built-in method __unicode__ of exceptions.IndentationError object>'
p59
sS'__delattr__'
p60
S"<method-wrapper '__delattr__' of exceptions.IndentationError object>"
p61
sS'__repr__'
p62
S"<method-wrapper '__repr__' of exceptions.IndentationError object>"
p63
sS'__hash__'
p64
S"<method-wrapper '__hash__' of exceptions.IndentationError object>"
p65
ssS'evalue'
p66
S'unindent does not match any outer indentation level (manager.py, line 40)'
p67
sS'request'
p68
ccopy_reg
_reconstructor
p69
(cgluon.html
BEAUTIFY
p70
c__builtin__
object
p71
NtRp72
(dp73
S'attributes'
p74
(dp75
sS'components'
p76
(lp77
g69
(cgluon.html
TABLE
p78
g71
NtRp79
(dp80
g74
(dp81
S'level'
p82
I5
ssS'parent'
p83
Nsg76
(lp84
g69
(cgluon.html
TR
p85
g71
NtRp86
(dp87
g74
(dp88
sg83
g79
sg76
(lp89
g69
(cgluon.html
TD
p90
g71
NtRp91
(dp92
g74
(dp93
S'_style'
p94
S'font-weight:bold;vertical-align:top'
p95
ssg83
g86
sg76
(lp96
S'ajax'
p97
asbag69
(g90
g71
NtRp98
(dp99
g74
(dp100
S'_valign'
p101
S'top'
p102
ssg83
g86
sg76
(lp103
S':'
asbag69
(g90
g71
NtRp104
(dp105
g74
(dp106
sg83
g86
sg76
(lp107
g69
(g70
g71
NtRp108
(dp109
g74
(dp110
g82
I5
ssg83
g104
sg76
(lp111
S'False'
p112
asbasbasbag69
(g85
g71
NtRp113
(dp114
g74
(dp115
sg83
g79
sg76
(lp116
g69
(g90
g71
NtRp117
(dp118
g74
(dp119
g94
g95
ssg83
g113
sg76
(lp120
S'application'
p121
asbag69
(g90
g71
NtRp122
(dp123
g74
(dp124
g101
g102
ssg83
g113
sg76
(lp125
S':'
asbag69
(g90
g71
NtRp126
(dp127
g74
(dp128
sg83
g113
sg76
(lp129
g69
(g70
g71
NtRp130
(dp131
g74
(dp132
g82
I5
ssg83
g126
sg76
(lp133
S'projeto'
p134
asbasbasbag69
(g85
g71
NtRp135
(dp136
g74
(dp137
sg83
g79
sg76
(lp138
g69
(g90
g71
NtRp139
(dp140
g74
(dp141
g94
g95
ssg83
g135
sg76
(lp142
g52
asbag69
(g90
g71
NtRp143
(dp144
g74
(dp145
g101
g102
ssg83
g135
sg76
(lp146
S':'
asbag69
(g90
g71
NtRp147
(dp148
g74
(dp149
sg83
g135
sg76
(lp150
g69
(g70
g71
NtRp151
(dp152
g74
(dp153
g82
I5
ssg83
g147
sg76
(lp154
g69
(g78
g71
NtRp155
(dp156
g74
(dp157
g82
I4
ssg83
Nsg76
(lp158
sbasbasbasbag69
(g85
g71
NtRp159
(dp160
g74
(dp161
sg83
g79
sg76
(lp162
g69
(g90
g71
NtRp163
(dp164
g74
(dp165
g94
g95
ssg83
g159
sg76
(lp166
S'body'
p167
asbag69
(g90
g71
NtRp168
(dp169
g74
(dp170
g101
g102
ssg83
g159
sg76
(lp171
S':'
asbag69
(g90
g71
NtRp172
(dp173
g74
(dp174
sg83
g159
sg76
(lp175
g69
(g70
g71
NtRp176
(dp177
g74
(dp178
g82
I5
ssg83
g172
sg76
(lp179
S'<cStringIO.StringO object at 0x7fc9e4561a78>'
p180
asbasbasbag69
(g85
g71
NtRp181
(dp182
g74
(dp183
sg83
g79
sg76
(lp184
g69
(g90
g71
NtRp185
(dp186
g74
(dp187
g94
g95
ssg83
g181
sg76
(lp188
S'cid'
p189
asbag69
(g90
g71
NtRp190
(dp191
g74
(dp192
g101
g102
ssg83
g181
sg76
(lp193
S':'
asbag69
(g90
g71
NtRp194
(dp195
g74
(dp196
sg83
g181
sg76
(lp197
g69
(g70
g71
NtRp198
(dp199
g74
(dp200
g82
I5
ssg83
g194
sg76
(lp201
S'None'
p202
asbasbasbag69
(g85
g71
NtRp203
(dp204
g74
(dp205
sg83
g79
sg76
(lp206
g69
(g90
g71
NtRp207
(dp208
g74
(dp209
g94
g95
ssg83
g203
sg76
(lp210
S'client'
p211
asbag69
(g90
g71
NtRp212
(dp213
g74
(dp214
g101
g102
ssg83
g203
sg76
(lp215
S':'
asbag69
(g90
g71
NtRp216
(dp217
g74
(dp218
sg83
g203
sg76
(lp219
g69
(g70
g71
NtRp220
(dp221
g74
(dp222
g82
I5
ssg83
g216
sg76
(lp223
S'127.0.0.1'
p224
asbasbasbag69
(g85
g71
NtRp225
(dp226
g74
(dp227
sg83
g79
sg76
(lp228
g69
(g90
g71
NtRp229
(dp230
g74
(dp231
g94
g95
ssg83
g225
sg76
(lp232
S'controller'
p233
asbag69
(g90
g71
NtRp234
(dp235
g74
(dp236
g101
g102
ssg83
g225
sg76
(lp237
S':'
asbag69
(g90
g71
NtRp238
(dp239
g74
(dp240
sg83
g225
sg76
(lp241
g69
(g70
g71
NtRp242
(dp243
g74
(dp244
g82
I5
ssg83
g238
sg76
(lp245
S'manager'
p246
asbasbasbag69
(g85
g71
NtRp247
(dp248
g74
(dp249
sg83
g79
sg76
(lp250
g69
(g90
g71
NtRp251
(dp252
g74
(dp253
g94
g95
ssg83
g247
sg76
(lp254
S'cookies'
p255
asbag69
(g90
g71
NtRp256
(dp257
g74
(dp258
g101
g102
ssg83
g247
sg76
(lp259
S':'
asbag69
(g90
g71
NtRp260
(dp261
g74
(dp262
sg83
g247
sg76
(lp263
g69
(g70
g71
NtRp264
(dp265
g74
(dp266
g82
I5
ssg83
g260
sg76
(lp267
g69
(g78
g71
NtRp268
(dp269
g74
(dp270
g82
I4
ssg83
Nsg76
(lp271
g69
(g85
g71
NtRp272
(dp273
g74
(dp274
sg83
g268
sg76
(lp275
g69
(g90
g71
NtRp276
(dp277
g74
(dp278
g94
g95
ssg83
g272
sg76
(lp279
S'admin'
p280
asbag69
(g90
g71
NtRp281
(dp282
g74
(dp283
g101
g102
ssg83
g272
sg76
(lp284
S':'
asbag69
(g90
g71
NtRp285
(dp286
g74
(dp287
sg83
g272
sg76
(lp288
g69
(g70
g71
NtRp289
(dp290
g74
(dp291
g82
I4
ssg83
g285
sg76
(lp292
S'admin'
p293
ag69
(g78
g71
NtRp294
(dp295
g74
(dp296
g82
I3
ssg83
Nsg76
(lp297
g69
(g85
g71
NtRp298
(dp299
g74
(dp300
sg83
g294
sg76
(lp301
g69
(g90
g71
NtRp302
(dp303
g74
(dp304
g94
g95
ssg83
g298
sg76
(lp305
S'comment'
p306
asbag69
(g90
g71
NtRp307
(dp308
g74
(dp309
g101
g102
ssg83
g298
sg76
(lp310
S':'
asbag69
(g90
g71
NtRp311
(dp312
g74
(dp313
sg83
g298
sg76
(lp314
g69
(g70
g71
NtRp315
(dp316
g74
(dp317
g82
I3
ssg83
g311
sg76
(lp318
S''
asbasbasbag69
(g85
g71
NtRp319
(dp320
g74
(dp321
sg83
g294
sg76
(lp322
g69
(g90
g71
NtRp323
(dp324
g74
(dp325
g94
g95
ssg83
g319
sg76
(lp326
S'domain'
p327
asbag69
(g90
g71
NtRp328
(dp329
g74
(dp330
g101
g102
ssg83
g319
sg76
(lp331
S':'
asbag69
(g90
g71
NtRp332
(dp333
g74
(dp334
sg83
g319
sg76
(lp335
g69
(g70
g71
NtRp336
(dp337
g74
(dp338
g82
I3
ssg83
g332
sg76
(lp339
S''
asbasbasbag69
(g85
g71
NtRp340
(dp341
g74
(dp342
sg83
g294
sg76
(lp343
g69
(g90
g71
NtRp344
(dp345
g74
(dp346
g94
g95
ssg83
g340
sg76
(lp347
S'expires'
p348
asbag69
(g90
g71
NtRp349
(dp350
g74
(dp351
g101
g102
ssg83
g340
sg76
(lp352
S':'
asbag69
(g90
g71
NtRp353
(dp354
g74
(dp355
sg83
g340
sg76
(lp356
g69
(g70
g71
NtRp357
(dp358
g74
(dp359
g82
I3
ssg83
g353
sg76
(lp360
S''
asbasbasbag69
(g85
g71
NtRp361
(dp362
g74
(dp363
sg83
g294
sg76
(lp364
g69
(g90
g71
NtRp365
(dp366
g74
(dp367
g94
g95
ssg83
g361
sg76
(lp368
S'httponly'
p369
asbag69
(g90
g71
NtRp370
(dp371
g74
(dp372
g101
g102
ssg83
g361
sg76
(lp373
S':'
asbag69
(g90
g71
NtRp374
(dp375
g74
(dp376
sg83
g361
sg76
(lp377
g69
(g70
g71
NtRp378
(dp379
g74
(dp380
g82
I3
ssg83
g374
sg76
(lp381
S''
asbasbasbag69
(g85
g71
NtRp382
(dp383
g74
(dp384
sg83
g294
sg76
(lp385
g69
(g90
g71
NtRp386
(dp387
g74
(dp388
g94
g95
ssg83
g382
sg76
(lp389
S'max-age'
p390
asbag69
(g90
g71
NtRp391
(dp392
g74
(dp393
g101
g102
ssg83
g382
sg76
(lp394
S':'
asbag69
(g90
g71
NtRp395
(dp396
g74
(dp397
sg83
g382
sg76
(lp398
g69
(g70
g71
NtRp399
(dp400
g74
(dp401
g82
I3
ssg83
g395
sg76
(lp402
S''
asbasbasbag69
(g85
g71
NtRp403
(dp404
g74
(dp405
sg83
g294
sg76
(lp406
g69
(g90
g71
NtRp407
(dp408
g74
(dp409
g94
g95
ssg83
g403
sg76
(lp410
S'path'
p411
asbag69
(g90
g71
NtRp412
(dp413
g74
(dp414
g101
g102
ssg83
g403
sg76
(lp415
S':'
asbag69
(g90
g71
NtRp416
(dp417
g74
(dp418
sg83
g403
sg76
(lp419
g69
(g70
g71
NtRp420
(dp421
g74
(dp422
g82
I3
ssg83
g416
sg76
(lp423
S''
asbasbasbag69
(g85
g71
NtRp424
(dp425
g74
(dp426
sg83
g294
sg76
(lp427
g69
(g90
g71
NtRp428
(dp429
g74
(dp430
g94
g95
ssg83
g424
sg76
(lp431
S'secure'
p432
asbag69
(g90
g71
NtRp433
(dp434
g74
(dp435
g101
g102
ssg83
g424
sg76
(lp436
S':'
asbag69
(g90
g71
NtRp437
(dp438
g74
(dp439
sg83
g424
sg76
(lp440
g69
(g70
g71
NtRp441
(dp442
g74
(dp443
g82
I3
ssg83
g437
sg76
(lp444
S''
asbasbasbag69
(g85
g71
NtRp445
(dp446
g74
(dp447
sg83
g294
sg76
(lp448
g69
(g90
g71
NtRp449
(dp450
g74
(dp451
g94
g95
ssg83
g445
sg76
(lp452
S'version'
p453
asbag69
(g90
g71
NtRp454
(dp455
g74
(dp456
g101
g102
ssg83
g445
sg76
(lp457
S':'
asbag69
(g90
g71
NtRp458
(dp459
g74
(dp460
sg83
g445
sg76
(lp461
g69
(g70
g71
NtRp462
(dp463
g74
(dp464
g82
I3
ssg83
g458
sg76
(lp465
S''
asbasbasbasbasbasbasbag69
(g85
g71
NtRp466
(dp467
g74
(dp468
sg83
g268
sg76
(lp469
g69
(g90
g71
NtRp470
(dp471
g74
(dp472
g94
g95
ssg83
g466
sg76
(lp473
S'cookie'
p474
asbag69
(g90
g71
NtRp475
(dp476
g74
(dp477
g101
g102
ssg83
g466
sg76
(lp478
S':'
asbag69
(g90
g71
NtRp479
(dp480
g74
(dp481
sg83
g466
sg76
(lp482
g69
(g70
g71
NtRp483
(dp484
g74
(dp485
g82
I4
ssg83
g479
sg76
(lp486
S'1649423593'
p487
ag69
(g78
g71
NtRp488
(dp489
g74
(dp490
g82
I3
ssg83
Nsg76
(lp491
g69
(g85
g71
NtRp492
(dp493
g74
(dp494
sg83
g488
sg76
(lp495
g69
(g90
g71
NtRp496
(dp497
g74
(dp498
g94
g95
ssg83
g492
sg76
(lp499
g306
asbag69
(g90
g71
NtRp500
(dp501
g74
(dp502
g101
g102
ssg83
g492
sg76
(lp503
S':'
asbag69
(g90
g71
NtRp504
(dp505
g74
(dp506
sg83
g492
sg76
(lp507
g69
(g70
g71
NtRp508
(dp509
g74
(dp510
g82
I3
ssg83
g504
sg76
(lp511
S''
asbasbasbag69
(g85
g71
NtRp512
(dp513
g74
(dp514
sg83
g488
sg76
(lp515
g69
(g90
g71
NtRp516
(dp517
g74
(dp518
g94
g95
ssg83
g512
sg76
(lp519
g327
asbag69
(g90
g71
NtRp520
(dp521
g74
(dp522
g101
g102
ssg83
g512
sg76
(lp523
S':'
asbag69
(g90
g71
NtRp524
(dp525
g74
(dp526
sg83
g512
sg76
(lp527
g69
(g70
g71
NtRp528
(dp529
g74
(dp530
g82
I3
ssg83
g524
sg76
(lp531
S''
asbasbasbag69
(g85
g71
NtRp532
(dp533
g74
(dp534
sg83
g488
sg76
(lp535
g69
(g90
g71
NtRp536
(dp537
g74
(dp538
g94
g95
ssg83
g532
sg76
(lp539
g348
asbag69
(g90
g71
NtRp540
(dp541
g74
(dp542
g101
g102
ssg83
g532
sg76
(lp543
S':'
asbag69
(g90
g71
NtRp544
(dp545
g74
(dp546
sg83
g532
sg76
(lp547
g69
(g70
g71
NtRp548
(dp549
g74
(dp550
g82
I3
ssg83
g544
sg76
(lp551
S''
asbasbasbag69
(g85
g71
NtRp552
(dp553
g74
(dp554
sg83
g488
sg76
(lp555
g69
(g90
g71
NtRp556
(dp557
g74
(dp558
g94
g95
ssg83
g552
sg76
(lp559
g369
asbag69
(g90
g71
NtRp560
(dp561
g74
(dp562
g101
g102
ssg83
g552
sg76
(lp563
S':'
asbag69
(g90
g71
NtRp564
(dp565
g74
(dp566
sg83
g552
sg76
(lp567
g69
(g70
g71
NtRp568
(dp569
g74
(dp570
g82
I3
ssg83
g564
sg76
(lp571
S''
asbasbasbag69
(g85
g71
NtRp572
(dp573
g74
(dp574
sg83
g488
sg76
(lp575
g69
(g90
g71
NtRp576
(dp577
g74
(dp578
g94
g95
ssg83
g572
sg76
(lp579
g390
asbag69
(g90
g71
NtRp580
(dp581
g74
(dp582
g101
g102
ssg83
g572
sg76
(lp583
S':'
asbag69
(g90
g71
NtRp584
(dp585
g74
(dp586
sg83
g572
sg76
(lp587
g69
(g70
g71
NtRp588
(dp589
g74
(dp590
g82
I3
ssg83
g584
sg76
(lp591
S''
asbasbasbag69
(g85
g71
NtRp592
(dp593
g74
(dp594
sg83
g488
sg76
(lp595
g69
(g90
g71
NtRp596
(dp597
g74
(dp598
g94
g95
ssg83
g592
sg76
(lp599
g411
asbag69
(g90
g71
NtRp600
(dp601
g74
(dp602
g101
g102
ssg83
g592
sg76
(lp603
S':'
asbag69
(g90
g71
NtRp604
(dp605
g74
(dp606
sg83
g592
sg76
(lp607
g69
(g70
g71
NtRp608
(dp609
g74
(dp610
g82
I3
ssg83
g604
sg76
(lp611
S''
asbasbasbag69
(g85
g71
NtRp612
(dp613
g74
(dp614
sg83
g488
sg76
(lp615
g69
(g90
g71
NtRp616
(dp617
g74
(dp618
g94
g95
ssg83
g612
sg76
(lp619
g432
asbag69
(g90
g71
NtRp620
(dp621
g74
(dp622
g101
g102
ssg83
g612
sg76
(lp623
S':'
asbag69
(g90
g71
NtRp624
(dp625
g74
(dp626
sg83
g612
sg76
(lp627
g69
(g70
g71
NtRp628
(dp629
g74
(dp630
g82
I3
ssg83
g624
sg76
(lp631
S''
asbasbasbag69
(g85
g71
NtRp632
(dp633
g74
(dp634
sg83
g488
sg76
(lp635
g69
(g90
g71
NtRp636
(dp637
g74
(dp638
g94
g95
ssg83
g632
sg76
(lp639
g453
asbag69
(g90
g71
NtRp640
(dp641
g74
(dp642
g101
g102
ssg83
g632
sg76
(lp643
S':'
asbag69
(g90
g71
NtRp644
(dp645
g74
(dp646
sg83
g632
sg76
(lp647
g69
(g70
g71
NtRp648
(dp649
g74
(dp650
g82
I3
ssg83
g644
sg76
(lp651
S''
asbasbasbasbasbasbasbag69
(g85
g71
NtRp652
(dp653
g74
(dp654
sg83
g268
sg76
(lp655
g69
(g90
g71
NtRp656
(dp657
g74
(dp658
g94
g95
ssg83
g652
sg76
(lp659
S'hw_type'
p660
asbag69
(g90
g71
NtRp661
(dp662
g74
(dp663
g101
g102
ssg83
g652
sg76
(lp664
S':'
asbag69
(g90
g71
NtRp665
(dp666
g74
(dp667
sg83
g652
sg76
(lp668
g69
(g70
g71
NtRp669
(dp670
g74
(dp671
g82
I4
ssg83
g665
sg76
(lp672
S'MX60'
p673
ag69
(g78
g71
NtRp674
(dp675
g74
(dp676
g82
I3
ssg83
Nsg76
(lp677
g69
(g85
g71
NtRp678
(dp679
g74
(dp680
sg83
g674
sg76
(lp681
g69
(g90
g71
NtRp682
(dp683
g74
(dp684
g94
g95
ssg83
g678
sg76
(lp685
g306
asbag69
(g90
g71
NtRp686
(dp687
g74
(dp688
g101
g102
ssg83
g678
sg76
(lp689
S':'
asbag69
(g90
g71
NtRp690
(dp691
g74
(dp692
sg83
g678
sg76
(lp693
g69
(g70
g71
NtRp694
(dp695
g74
(dp696
g82
I3
ssg83
g690
sg76
(lp697
S''
asbasbasbag69
(g85
g71
NtRp698
(dp699
g74
(dp700
sg83
g674
sg76
(lp701
g69
(g90
g71
NtRp702
(dp703
g74
(dp704
g94
g95
ssg83
g698
sg76
(lp705
g327
asbag69
(g90
g71
NtRp706
(dp707
g74
(dp708
g101
g102
ssg83
g698
sg76
(lp709
S':'
asbag69
(g90
g71
NtRp710
(dp711
g74
(dp712
sg83
g698
sg76
(lp713
g69
(g70
g71
NtRp714
(dp715
g74
(dp716
g82
I3
ssg83
g710
sg76
(lp717
S''
asbasbasbag69
(g85
g71
NtRp718
(dp719
g74
(dp720
sg83
g674
sg76
(lp721
g69
(g90
g71
NtRp722
(dp723
g74
(dp724
g94
g95
ssg83
g718
sg76
(lp725
g348
asbag69
(g90
g71
NtRp726
(dp727
g74
(dp728
g101
g102
ssg83
g718
sg76
(lp729
S':'
asbag69
(g90
g71
NtRp730
(dp731
g74
(dp732
sg83
g718
sg76
(lp733
g69
(g70
g71
NtRp734
(dp735
g74
(dp736
g82
I3
ssg83
g730
sg76
(lp737
S''
asbasbasbag69
(g85
g71
NtRp738
(dp739
g74
(dp740
sg83
g674
sg76
(lp741
g69
(g90
g71
NtRp742
(dp743
g74
(dp744
g94
g95
ssg83
g738
sg76
(lp745
g369
asbag69
(g90
g71
NtRp746
(dp747
g74
(dp748
g101
g102
ssg83
g738
sg76
(lp749
S':'
asbag69
(g90
g71
NtRp750
(dp751
g74
(dp752
sg83
g738
sg76
(lp753
g69
(g70
g71
NtRp754
(dp755
g74
(dp756
g82
I3
ssg83
g750
sg76
(lp757
S''
asbasbasbag69
(g85
g71
NtRp758
(dp759
g74
(dp760
sg83
g674
sg76
(lp761
g69
(g90
g71
NtRp762
(dp763
g74
(dp764
g94
g95
ssg83
g758
sg76
(lp765
g390
asbag69
(g90
g71
NtRp766
(dp767
g74
(dp768
g101
g102
ssg83
g758
sg76
(lp769
S':'
asbag69
(g90
g71
NtRp770
(dp771
g74
(dp772
sg83
g758
sg76
(lp773
g69
(g70
g71
NtRp774
(dp775
g74
(dp776
g82
I3
ssg83
g770
sg76
(lp777
S''
asbasbasbag69
(g85
g71
NtRp778
(dp779
g74
(dp780
sg83
g674
sg76
(lp781
g69
(g90
g71
NtRp782
(dp783
g74
(dp784
g94
g95
ssg83
g778
sg76
(lp785
g411
asbag69
(g90
g71
NtRp786
(dp787
g74
(dp788
g101
g102
ssg83
g778
sg76
(lp789
S':'
asbag69
(g90
g71
NtRp790
(dp791
g74
(dp792
sg83
g778
sg76
(lp793
g69
(g70
g71
NtRp794
(dp795
g74
(dp796
g82
I3
ssg83
g790
sg76
(lp797
S''
asbasbasbag69
(g85
g71
NtRp798
(dp799
g74
(dp800
sg83
g674
sg76
(lp801
g69
(g90
g71
NtRp802
(dp803
g74
(dp804
g94
g95
ssg83
g798
sg76
(lp805
g432
asbag69
(g90
g71
NtRp806
(dp807
g74
(dp808
g101
g102
ssg83
g798
sg76
(lp809
S':'
asbag69
(g90
g71
NtRp810
(dp811
g74
(dp812
sg83
g798
sg76
(lp813
g69
(g70
g71
NtRp814
(dp815
g74
(dp816
g82
I3
ssg83
g810
sg76
(lp817
S''
asbasbasbag69
(g85
g71
NtRp818
(dp819
g74
(dp820
sg83
g674
sg76
(lp821
g69
(g90
g71
NtRp822
(dp823
g74
(dp824
g94
g95
ssg83
g818
sg76
(lp825
g453
asbag69
(g90
g71
NtRp826
(dp827
g74
(dp828
g101
g102
ssg83
g818
sg76
(lp829
S':'
asbag69
(g90
g71
NtRp830
(dp831
g74
(dp832
sg83
g818
sg76
(lp833
g69
(g70
g71
NtRp834
(dp835
g74
(dp836
g82
I3
ssg83
g830
sg76
(lp837
S''
asbasbasbasbasbasbasbag69
(g85
g71
NtRp838
(dp839
g74
(dp840
sg83
g268
sg76
(lp841
g69
(g90
g71
NtRp842
(dp843
g74
(dp844
g94
g95
ssg83
g838
sg76
(lp845
S'hw_version'
p846
asbag69
(g90
g71
NtRp847
(dp848
g74
(dp849
g101
g102
ssg83
g838
sg76
(lp850
S':'
asbag69
(g90
g71
NtRp851
(dp852
g74
(dp853
sg83
g838
sg76
(lp854
g69
(g70
g71
NtRp855
(dp856
g74
(dp857
g82
I4
ssg83
g851
sg76
(lp858
S'Rev%201.9.82.316'
p859
ag69
(g78
g71
NtRp860
(dp861
g74
(dp862
g82
I3
ssg83
Nsg76
(lp863
g69
(g85
g71
NtRp864
(dp865
g74
(dp866
sg83
g860
sg76
(lp867
g69
(g90
g71
NtRp868
(dp869
g74
(dp870
g94
g95
ssg83
g864
sg76
(lp871
g306
asbag69
(g90
g71
NtRp872
(dp873
g74
(dp874
g101
g102
ssg83
g864
sg76
(lp875
S':'
asbag69
(g90
g71
NtRp876
(dp877
g74
(dp878
sg83
g864
sg76
(lp879
g69
(g70
g71
NtRp880
(dp881
g74
(dp882
g82
I3
ssg83
g876
sg76
(lp883
S''
asbasbasbag69
(g85
g71
NtRp884
(dp885
g74
(dp886
sg83
g860
sg76
(lp887
g69
(g90
g71
NtRp888
(dp889
g74
(dp890
g94
g95
ssg83
g884
sg76
(lp891
g327
asbag69
(g90
g71
NtRp892
(dp893
g74
(dp894
g101
g102
ssg83
g884
sg76
(lp895
S':'
asbag69
(g90
g71
NtRp896
(dp897
g74
(dp898
sg83
g884
sg76
(lp899
g69
(g70
g71
NtRp900
(dp901
g74
(dp902
g82
I3
ssg83
g896
sg76
(lp903
S''
asbasbasbag69
(g85
g71
NtRp904
(dp905
g74
(dp906
sg83
g860
sg76
(lp907
g69
(g90
g71
NtRp908
(dp909
g74
(dp910
g94
g95
ssg83
g904
sg76
(lp911
g348
asbag69
(g90
g71
NtRp912
(dp913
g74
(dp914
g101
g102
ssg83
g904
sg76
(lp915
S':'
asbag69
(g90
g71
NtRp916
(dp917
g74
(dp918
sg83
g904
sg76
(lp919
g69
(g70
g71
NtRp920
(dp921
g74
(dp922
g82
I3
ssg83
g916
sg76
(lp923
S''
asbasbasbag69
(g85
g71
NtRp924
(dp925
g74
(dp926
sg83
g860
sg76
(lp927
g69
(g90
g71
NtRp928
(dp929
g74
(dp930
g94
g95
ssg83
g924
sg76
(lp931
g369
asbag69
(g90
g71
NtRp932
(dp933
g74
(dp934
g101
g102
ssg83
g924
sg76
(lp935
S':'
asbag69
(g90
g71
NtRp936
(dp937
g74
(dp938
sg83
g924
sg76
(lp939
g69
(g70
g71
NtRp940
(dp941
g74
(dp942
g82
I3
ssg83
g936
sg76
(lp943
S''
asbasbasbag69
(g85
g71
NtRp944
(dp945
g74
(dp946
sg83
g860
sg76
(lp947
g69
(g90
g71
NtRp948
(dp949
g74
(dp950
g94
g95
ssg83
g944
sg76
(lp951
g390
asbag69
(g90
g71
NtRp952
(dp953
g74
(dp954
g101
g102
ssg83
g944
sg76
(lp955
S':'
asbag69
(g90
g71
NtRp956
(dp957
g74
(dp958
sg83
g944
sg76
(lp959
g69
(g70
g71
NtRp960
(dp961
g74
(dp962
g82
I3
ssg83
g956
sg76
(lp963
S''
asbasbasbag69
(g85
g71
NtRp964
(dp965
g74
(dp966
sg83
g860
sg76
(lp967
g69
(g90
g71
NtRp968
(dp969
g74
(dp970
g94
g95
ssg83
g964
sg76
(lp971
g411
asbag69
(g90
g71
NtRp972
(dp973
g74
(dp974
g101
g102
ssg83
g964
sg76
(lp975
S':'
asbag69
(g90
g71
NtRp976
(dp977
g74
(dp978
sg83
g964
sg76
(lp979
g69
(g70
g71
NtRp980
(dp981
g74
(dp982
g82
I3
ssg83
g976
sg76
(lp983
S''
asbasbasbag69
(g85
g71
NtRp984
(dp985
g74
(dp986
sg83
g860
sg76
(lp987
g69
(g90
g71
NtRp988
(dp989
g74
(dp990
g94
g95
ssg83
g984
sg76
(lp991
g432
asbag69
(g90
g71
NtRp992
(dp993
g74
(dp994
g101
g102
ssg83
g984
sg76
(lp995
S':'
asbag69
(g90
g71
NtRp996
(dp997
g74
(dp998
sg83
g984
sg76
(lp999
g69
(g70
g71
NtRp1000
(dp1001
g74
(dp1002
g82
I3
ssg83
g996
sg76
(lp1003
S''
asbasbasbag69
(g85
g71
NtRp1004
(dp1005
g74
(dp1006
sg83
g860
sg76
(lp1007
g69
(g90
g71
NtRp1008
(dp1009
g74
(dp1010
g94
g95
ssg83
g1004
sg76
(lp1011
g453
asbag69
(g90
g71
NtRp1012
(dp1013
g74
(dp1014
g101
g102
ssg83
g1004
sg76
(lp1015
S':'
asbag69
(g90
g71
NtRp1016
(dp1017
g74
(dp1018
sg83
g1004
sg76
(lp1019
g69
(g70
g71
NtRp1020
(dp1021
g74
(dp1022
g82
I3
ssg83
g1016
sg76
(lp1023
S''
asbasbasbasbasbasbasbag69
(g85
g71
NtRp1024
(dp1025
g74
(dp1026
sg83
g268
sg76
(lp1027
g69
(g90
g71
NtRp1028
(dp1029
g74
(dp1030
g94
g95
ssg83
g1024
sg76
(lp1031
S'language'
p1032
asbag69
(g90
g71
NtRp1033
(dp1034
g74
(dp1035
g101
g102
ssg83
g1024
sg76
(lp1036
S':'
asbag69
(g90
g71
NtRp1037
(dp1038
g74
(dp1039
sg83
g1024
sg76
(lp1040
g69
(g70
g71
NtRp1041
(dp1042
g74
(dp1043
g82
I4
ssg83
g1037
sg76
(lp1044
S'1'
ag69
(g78
g71
NtRp1045
(dp1046
g74
(dp1047
g82
I3
ssg83
Nsg76
(lp1048
g69
(g85
g71
NtRp1049
(dp1050
g74
(dp1051
sg83
g1045
sg76
(lp1052
g69
(g90
g71
NtRp1053
(dp1054
g74
(dp1055
g94
g95
ssg83
g1049
sg76
(lp1056
g306
asbag69
(g90
g71
NtRp1057
(dp1058
g74
(dp1059
g101
g102
ssg83
g1049
sg76
(lp1060
S':'
asbag69
(g90
g71
NtRp1061
(dp1062
g74
(dp1063
sg83
g1049
sg76
(lp1064
g69
(g70
g71
NtRp1065
(dp1066
g74
(dp1067
g82
I3
ssg83
g1061
sg76
(lp1068
S''
asbasbasbag69
(g85
g71
NtRp1069
(dp1070
g74
(dp1071
sg83
g1045
sg76
(lp1072
g69
(g90
g71
NtRp1073
(dp1074
g74
(dp1075
g94
g95
ssg83
g1069
sg76
(lp1076
g327
asbag69
(g90
g71
NtRp1077
(dp1078
g74
(dp1079
g101
g102
ssg83
g1069
sg76
(lp1080
S':'
asbag69
(g90
g71
NtRp1081
(dp1082
g74
(dp1083
sg83
g1069
sg76
(lp1084
g69
(g70
g71
NtRp1085
(dp1086
g74
(dp1087
g82
I3
ssg83
g1081
sg76
(lp1088
S''
asbasbasbag69
(g85
g71
NtRp1089
(dp1090
g74
(dp1091
sg83
g1045
sg76
(lp1092
g69
(g90
g71
NtRp1093
(dp1094
g74
(dp1095
g94
g95
ssg83
g1089
sg76
(lp1096
g348
asbag69
(g90
g71
NtRp1097
(dp1098
g74
(dp1099
g101
g102
ssg83
g1089
sg76
(lp1100
S':'
asbag69
(g90
g71
NtRp1101
(dp1102
g74
(dp1103
sg83
g1089
sg76
(lp1104
g69
(g70
g71
NtRp1105
(dp1106
g74
(dp1107
g82
I3
ssg83
g1101
sg76
(lp1108
S''
asbasbasbag69
(g85
g71
NtRp1109
(dp1110
g74
(dp1111
sg83
g1045
sg76
(lp1112
g69
(g90
g71
NtRp1113
(dp1114
g74
(dp1115
g94
g95
ssg83
g1109
sg76
(lp1116
g369
asbag69
(g90
g71
NtRp1117
(dp1118
g74
(dp1119
g101
g102
ssg83
g1109
sg76
(lp1120
S':'
asbag69
(g90
g71
NtRp1121
(dp1122
g74
(dp1123
sg83
g1109
sg76
(lp1124
g69
(g70
g71
NtRp1125
(dp1126
g74
(dp1127
g82
I3
ssg83
g1121
sg76
(lp1128
S''
asbasbasbag69
(g85
g71
NtRp1129
(dp1130
g74
(dp1131
sg83
g1045
sg76
(lp1132
g69
(g90
g71
NtRp1133
(dp1134
g74
(dp1135
g94
g95
ssg83
g1129
sg76
(lp1136
g390
asbag69
(g90
g71
NtRp1137
(dp1138
g74
(dp1139
g101
g102
ssg83
g1129
sg76
(lp1140
S':'
asbag69
(g90
g71
NtRp1141
(dp1142
g74
(dp1143
sg83
g1129
sg76
(lp1144
g69
(g70
g71
NtRp1145
(dp1146
g74
(dp1147
g82
I3
ssg83
g1141
sg76
(lp1148
S''
asbasbasbag69
(g85
g71
NtRp1149
(dp1150
g74
(dp1151
sg83
g1045
sg76
(lp1152
g69
(g90
g71
NtRp1153
(dp1154
g74
(dp1155
g94
g95
ssg83
g1149
sg76
(lp1156
g411
asbag69
(g90
g71
NtRp1157
(dp1158
g74
(dp1159
g101
g102
ssg83
g1149
sg76
(lp1160
S':'
asbag69
(g90
g71
NtRp1161
(dp1162
g74
(dp1163
sg83
g1149
sg76
(lp1164
g69
(g70
g71
NtRp1165
(dp1166
g74
(dp1167
g82
I3
ssg83
g1161
sg76
(lp1168
S''
asbasbasbag69
(g85
g71
NtRp1169
(dp1170
g74
(dp1171
sg83
g1045
sg76
(lp1172
g69
(g90
g71
NtRp1173
(dp1174
g74
(dp1175
g94
g95
ssg83
g1169
sg76
(lp1176
g432
asbag69
(g90
g71
NtRp1177
(dp1178
g74
(dp1179
g101
g102
ssg83
g1169
sg76
(lp1180
S':'
asbag69
(g90
g71
NtRp1181
(dp1182
g74
(dp1183
sg83
g1169
sg76
(lp1184
g69
(g70
g71
NtRp1185
(dp1186
g74
(dp1187
g82
I3
ssg83
g1181
sg76
(lp1188
S''
asbasbasbag69
(g85
g71
NtRp1189
(dp1190
g74
(dp1191
sg83
g1045
sg76
(lp1192
g69
(g90
g71
NtRp1193
(dp1194
g74
(dp1195
g94
g95
ssg83
g1189
sg76
(lp1196
g453
asbag69
(g90
g71
NtRp1197
(dp1198
g74
(dp1199
g101
g102
ssg83
g1189
sg76
(lp1200
S':'
asbag69
(g90
g71
NtRp1201
(dp1202
g74
(dp1203
sg83
g1189
sg76
(lp1204
g69
(g70
g71
NtRp1205
(dp1206
g74
(dp1207
g82
I3
ssg83
g1201
sg76
(lp1208
S''
asbasbasbasbasbasbasbag69
(g85
g71
NtRp1209
(dp1210
g74
(dp1211
sg83
g268
sg76
(lp1212
g69
(g90
g71
NtRp1213
(dp1214
g74
(dp1215
g94
g95
ssg83
g1209
sg76
(lp1216
S'model'
p1217
asbag69
(g90
g71
NtRp1218
(dp1219
g74
(dp1220
g101
g102
ssg83
g1209
sg76
(lp1221
S':'
asbag69
(g90
g71
NtRp1222
(dp1223
g74
(dp1224
sg83
g1209
sg76
(lp1225
g69
(g70
g71
NtRp1226
(dp1227
g74
(dp1228
g82
I4
ssg83
g1222
sg76
(lp1229
S'MX'
p1230
ag69
(g78
g71
NtRp1231
(dp1232
g74
(dp1233
g82
I3
ssg83
Nsg76
(lp1234
g69
(g85
g71
NtRp1235
(dp1236
g74
(dp1237
sg83
g1231
sg76
(lp1238
g69
(g90
g71
NtRp1239
(dp1240
g74
(dp1241
g94
g95
ssg83
g1235
sg76
(lp1242
g306
asbag69
(g90
g71
NtRp1243
(dp1244
g74
(dp1245
g101
g102
ssg83
g1235
sg76
(lp1246
S':'
asbag69
(g90
g71
NtRp1247
(dp1248
g74
(dp1249
sg83
g1235
sg76
(lp1250
g69
(g70
g71
NtRp1251
(dp1252
g74
(dp1253
g82
I3
ssg83
g1247
sg76
(lp1254
S''
asbasbasbag69
(g85
g71
NtRp1255
(dp1256
g74
(dp1257
sg83
g1231
sg76
(lp1258
g69
(g90
g71
NtRp1259
(dp1260
g74
(dp1261
g94
g95
ssg83
g1255
sg76
(lp1262
g327
asbag69
(g90
g71
NtRp1263
(dp1264
g74
(dp1265
g101
g102
ssg83
g1255
sg76
(lp1266
S':'
asbag69
(g90
g71
NtRp1267
(dp1268
g74
(dp1269
sg83
g1255
sg76
(lp1270
g69
(g70
g71
NtRp1271
(dp1272
g74
(dp1273
g82
I3
ssg83
g1267
sg76
(lp1274
S''
asbasbasbag69
(g85
g71
NtRp1275
(dp1276
g74
(dp1277
sg83
g1231
sg76
(lp1278
g69
(g90
g71
NtRp1279
(dp1280
g74
(dp1281
g94
g95
ssg83
g1275
sg76
(lp1282
g348
asbag69
(g90
g71
NtRp1283
(dp1284
g74
(dp1285
g101
g102
ssg83
g1275
sg76
(lp1286
S':'
asbag69
(g90
g71
NtRp1287
(dp1288
g74
(dp1289
sg83
g1275
sg76
(lp1290
g69
(g70
g71
NtRp1291
(dp1292
g74
(dp1293
g82
I3
ssg83
g1287
sg76
(lp1294
S''
asbasbasbag69
(g85
g71
NtRp1295
(dp1296
g74
(dp1297
sg83
g1231
sg76
(lp1298
g69
(g90
g71
NtRp1299
(dp1300
g74
(dp1301
g94
g95
ssg83
g1295
sg76
(lp1302
g369
asbag69
(g90
g71
NtRp1303
(dp1304
g74
(dp1305
g101
g102
ssg83
g1295
sg76
(lp1306
S':'
asbag69
(g90
g71
NtRp1307
(dp1308
g74
(dp1309
sg83
g1295
sg76
(lp1310
g69
(g70
g71
NtRp1311
(dp1312
g74
(dp1313
g82
I3
ssg83
g1307
sg76
(lp1314
S''
asbasbasbag69
(g85
g71
NtRp1315
(dp1316
g74
(dp1317
sg83
g1231
sg76
(lp1318
g69
(g90
g71
NtRp1319
(dp1320
g74
(dp1321
g94
g95
ssg83
g1315
sg76
(lp1322
g390
asbag69
(g90
g71
NtRp1323
(dp1324
g74
(dp1325
g101
g102
ssg83
g1315
sg76
(lp1326
S':'
asbag69
(g90
g71
NtRp1327
(dp1328
g74
(dp1329
sg83
g1315
sg76
(lp1330
g69
(g70
g71
NtRp1331
(dp1332
g74
(dp1333
g82
I3
ssg83
g1327
sg76
(lp1334
S''
asbasbasbag69
(g85
g71
NtRp1335
(dp1336
g74
(dp1337
sg83
g1231
sg76
(lp1338
g69
(g90
g71
NtRp1339
(dp1340
g74
(dp1341
g94
g95
ssg83
g1335
sg76
(lp1342
g411
asbag69
(g90
g71
NtRp1343
(dp1344
g74
(dp1345
g101
g102
ssg83
g1335
sg76
(lp1346
S':'
asbag69
(g90
g71
NtRp1347
(dp1348
g74
(dp1349
sg83
g1335
sg76
(lp1350
g69
(g70
g71
NtRp1351
(dp1352
g74
(dp1353
g82
I3
ssg83
g1347
sg76
(lp1354
S''
asbasbasbag69
(g85
g71
NtRp1355
(dp1356
g74
(dp1357
sg83
g1231
sg76
(lp1358
g69
(g90
g71
NtRp1359
(dp1360
g74
(dp1361
g94
g95
ssg83
g1355
sg76
(lp1362
g432
asbag69
(g90
g71
NtRp1363
(dp1364
g74
(dp1365
g101
g102
ssg83
g1355
sg76
(lp1366
S':'
asbag69
(g90
g71
NtRp1367
(dp1368
g74
(dp1369
sg83
g1355
sg76
(lp1370
g69
(g70
g71
NtRp1371
(dp1372
g74
(dp1373
g82
I3
ssg83
g1367
sg76
(lp1374
S''
asbasbasbag69
(g85
g71
NtRp1375
(dp1376
g74
(dp1377
sg83
g1231
sg76
(lp1378
g69
(g90
g71
NtRp1379
(dp1380
g74
(dp1381
g94
g95
ssg83
g1375
sg76
(lp1382
g453
asbag69
(g90
g71
NtRp1383
(dp1384
g74
(dp1385
g101
g102
ssg83
g1375
sg76
(lp1386
S':'
asbag69
(g90
g71
NtRp1387
(dp1388
g74
(dp1389
sg83
g1375
sg76
(lp1390
g69
(g70
g71
NtRp1391
(dp1392
g74
(dp1393
g82
I3
ssg83
g1387
sg76
(lp1394
S''
asbasbasbasbasbasbasbag69
(g85
g71
NtRp1395
(dp1396
g74
(dp1397
sg83
g268
sg76
(lp1398
g69
(g90
g71
NtRp1399
(dp1400
g74
(dp1401
g94
g95
ssg83
g1395
sg76
(lp1402
S'nr'
p1403
asbag69
(g90
g71
NtRp1404
(dp1405
g74
(dp1406
g101
g102
ssg83
g1395
sg76
(lp1407
S':'
asbag69
(g90
g71
NtRp1408
(dp1409
g74
(dp1410
sg83
g1395
sg76
(lp1411
g69
(g70
g71
NtRp1412
(dp1413
g74
(dp1414
g82
I4
ssg83
g1408
sg76
(lp1415
S'1'
ag69
(g78
g71
NtRp1416
(dp1417
g74
(dp1418
g82
I3
ssg83
Nsg76
(lp1419
g69
(g85
g71
NtRp1420
(dp1421
g74
(dp1422
sg83
g1416
sg76
(lp1423
g69
(g90
g71
NtRp1424
(dp1425
g74
(dp1426
g94
g95
ssg83
g1420
sg76
(lp1427
g306
asbag69
(g90
g71
NtRp1428
(dp1429
g74
(dp1430
g101
g102
ssg83
g1420
sg76
(lp1431
S':'
asbag69
(g90
g71
NtRp1432
(dp1433
g74
(dp1434
sg83
g1420
sg76
(lp1435
g69
(g70
g71
NtRp1436
(dp1437
g74
(dp1438
g82
I3
ssg83
g1432
sg76
(lp1439
S''
asbasbasbag69
(g85
g71
NtRp1440
(dp1441
g74
(dp1442
sg83
g1416
sg76
(lp1443
g69
(g90
g71
NtRp1444
(dp1445
g74
(dp1446
g94
g95
ssg83
g1440
sg76
(lp1447
g327
asbag69
(g90
g71
NtRp1448
(dp1449
g74
(dp1450
g101
g102
ssg83
g1440
sg76
(lp1451
S':'
asbag69
(g90
g71
NtRp1452
(dp1453
g74
(dp1454
sg83
g1440
sg76
(lp1455
g69
(g70
g71
NtRp1456
(dp1457
g74
(dp1458
g82
I3
ssg83
g1452
sg76
(lp1459
S''
asbasbasbag69
(g85
g71
NtRp1460
(dp1461
g74
(dp1462
sg83
g1416
sg76
(lp1463
g69
(g90
g71
NtRp1464
(dp1465
g74
(dp1466
g94
g95
ssg83
g1460
sg76
(lp1467
g348
asbag69
(g90
g71
NtRp1468
(dp1469
g74
(dp1470
g101
g102
ssg83
g1460
sg76
(lp1471
S':'
asbag69
(g90
g71
NtRp1472
(dp1473
g74
(dp1474
sg83
g1460
sg76
(lp1475
g69
(g70
g71
NtRp1476
(dp1477
g74
(dp1478
g82
I3
ssg83
g1472
sg76
(lp1479
S''
asbasbasbag69
(g85
g71
NtRp1480
(dp1481
g74
(dp1482
sg83
g1416
sg76
(lp1483
g69
(g90
g71
NtRp1484
(dp1485
g74
(dp1486
g94
g95
ssg83
g1480
sg76
(lp1487
g369
asbag69
(g90
g71
NtRp1488
(dp1489
g74
(dp1490
g101
g102
ssg83
g1480
sg76
(lp1491
S':'
asbag69
(g90
g71
NtRp1492
(dp1493
g74
(dp1494
sg83
g1480
sg76
(lp1495
g69
(g70
g71
NtRp1496
(dp1497
g74
(dp1498
g82
I3
ssg83
g1492
sg76
(lp1499
S''
asbasbasbag69
(g85
g71
NtRp1500
(dp1501
g74
(dp1502
sg83
g1416
sg76
(lp1503
g69
(g90
g71
NtRp1504
(dp1505
g74
(dp1506
g94
g95
ssg83
g1500
sg76
(lp1507
g390
asbag69
(g90
g71
NtRp1508
(dp1509
g74
(dp1510
g101
g102
ssg83
g1500
sg76
(lp1511
S':'
asbag69
(g90
g71
NtRp1512
(dp1513
g74
(dp1514
sg83
g1500
sg76
(lp1515
g69
(g70
g71
NtRp1516
(dp1517
g74
(dp1518
g82
I3
ssg83
g1512
sg76
(lp1519
S''
asbasbasbag69
(g85
g71
NtRp1520
(dp1521
g74
(dp1522
sg83
g1416
sg76
(lp1523
g69
(g90
g71
NtRp1524
(dp1525
g74
(dp1526
g94
g95
ssg83
g1520
sg76
(lp1527
g411
asbag69
(g90
g71
NtRp1528
(dp1529
g74
(dp1530
g101
g102
ssg83
g1520
sg76
(lp1531
S':'
asbag69
(g90
g71
NtRp1532
(dp1533
g74
(dp1534
sg83
g1520
sg76
(lp1535
g69
(g70
g71
NtRp1536
(dp1537
g74
(dp1538
g82
I3
ssg83
g1532
sg76
(lp1539
S''
asbasbasbag69
(g85
g71
NtRp1540
(dp1541
g74
(dp1542
sg83
g1416
sg76
(lp1543
g69
(g90
g71
NtRp1544
(dp1545
g74
(dp1546
g94
g95
ssg83
g1540
sg76
(lp1547
g432
asbag69
(g90
g71
NtRp1548
(dp1549
g74
(dp1550
g101
g102
ssg83
g1540
sg76
(lp1551
S':'
asbag69
(g90
g71
NtRp1552
(dp1553
g74
(dp1554
sg83
g1540
sg76
(lp1555
g69
(g70
g71
NtRp1556
(dp1557
g74
(dp1558
g82
I3
ssg83
g1552
sg76
(lp1559
S''
asbasbasbag69
(g85
g71
NtRp1560
(dp1561
g74
(dp1562
sg83
g1416
sg76
(lp1563
g69
(g90
g71
NtRp1564
(dp1565
g74
(dp1566
g94
g95
ssg83
g1560
sg76
(lp1567
g453
asbag69
(g90
g71
NtRp1568
(dp1569
g74
(dp1570
g101
g102
ssg83
g1560
sg76
(lp1571
S':'
asbag69
(g90
g71
NtRp1572
(dp1573
g74
(dp1574
sg83
g1560
sg76
(lp1575
g69
(g70
g71
NtRp1576
(dp1577
g74
(dp1578
g82
I3
ssg83
g1572
sg76
(lp1579
S''
asbasbasbasbasbasbasbag69
(g85
g71
NtRp1580
(dp1581
g74
(dp1582
sg83
g268
sg76
(lp1583
g69
(g90
g71
NtRp1584
(dp1585
g74
(dp1586
g94
g95
ssg83
g1580
sg76
(lp1587
S'session_id_admin'
p1588
asbag69
(g90
g71
NtRp1589
(dp1590
g74
(dp1591
g101
g102
ssg83
g1580
sg76
(lp1592
S':'
asbag69
(g90
g71
NtRp1593
(dp1594
g74
(dp1595
sg83
g1580
sg76
(lp1596
g69
(g70
g71
NtRp1597
(dp1598
g74
(dp1599
g82
I4
ssg83
g1593
sg76
(lp1600
S'127.0.0.1-d10ee534-f8d1-400f-aa2b-66e05550ca0a'
p1601
ag69
(g78
g71
NtRp1602
(dp1603
g74
(dp1604
g82
I3
ssg83
Nsg76
(lp1605
g69
(g85
g71
NtRp1606
(dp1607
g74
(dp1608
sg83
g1602
sg76
(lp1609
g69
(g90
g71
NtRp1610
(dp1611
g74
(dp1612
g94
g95
ssg83
g1606
sg76
(lp1613
g306
asbag69
(g90
g71
NtRp1614
(dp1615
g74
(dp1616
g101
g102
ssg83
g1606
sg76
(lp1617
S':'
asbag69
(g90
g71
NtRp1618
(dp1619
g74
(dp1620
sg83
g1606
sg76
(lp1621
g69
(g70
g71
NtRp1622
(dp1623
g74
(dp1624
g82
I3
ssg83
g1618
sg76
(lp1625
S''
asbasbasbag69
(g85
g71
NtRp1626
(dp1627
g74
(dp1628
sg83
g1602
sg76
(lp1629
g69
(g90
g71
NtRp1630
(dp1631
g74
(dp1632
g94
g95
ssg83
g1626
sg76
(lp1633
g327
asbag69
(g90
g71
NtRp1634
(dp1635
g74
(dp1636
g101
g102
ssg83
g1626
sg76
(lp1637
S':'
asbag69
(g90
g71
NtRp1638
(dp1639
g74
(dp1640
sg83
g1626
sg76
(lp1641
g69
(g70
g71
NtRp1642
(dp1643
g74
(dp1644
g82
I3
ssg83
g1638
sg76
(lp1645
S''
asbasbasbag69
(g85
g71
NtRp1646
(dp1647
g74
(dp1648
sg83
g1602
sg76
(lp1649
g69
(g90
g71
NtRp1650
(dp1651
g74
(dp1652
g94
g95
ssg83
g1646
sg76
(lp1653
g348
asbag69
(g90
g71
NtRp1654
(dp1655
g74
(dp1656
g101
g102
ssg83
g1646
sg76
(lp1657
S':'
asbag69
(g90
g71
NtRp1658
(dp1659
g74
(dp1660
sg83
g1646
sg76
(lp1661
g69
(g70
g71
NtRp1662
(dp1663
g74
(dp1664
g82
I3
ssg83
g1658
sg76
(lp1665
S''
asbasbasbag69
(g85
g71
NtRp1666
(dp1667
g74
(dp1668
sg83
g1602
sg76
(lp1669
g69
(g90
g71
NtRp1670
(dp1671
g74
(dp1672
g94
g95
ssg83
g1666
sg76
(lp1673
g369
asbag69
(g90
g71
NtRp1674
(dp1675
g74
(dp1676
g101
g102
ssg83
g1666
sg76
(lp1677
S':'
asbag69
(g90
g71
NtRp1678
(dp1679
g74
(dp1680
sg83
g1666
sg76
(lp1681
g69
(g70
g71
NtRp1682
(dp1683
g74
(dp1684
g82
I3
ssg83
g1678
sg76
(lp1685
S''
asbasbasbag69
(g85
g71
NtRp1686
(dp1687
g74
(dp1688
sg83
g1602
sg76
(lp1689
g69
(g90
g71
NtRp1690
(dp1691
g74
(dp1692
g94
g95
ssg83
g1686
sg76
(lp1693
g390
asbag69
(g90
g71
NtRp1694
(dp1695
g74
(dp1696
g101
g102
ssg83
g1686
sg76
(lp1697
S':'
asbag69
(g90
g71
NtRp1698
(dp1699
g74
(dp1700
sg83
g1686
sg76
(lp1701
g69
(g70
g71
NtRp1702
(dp1703
g74
(dp1704
g82
I3
ssg83
g1698
sg76
(lp1705
S''
asbasbasbag69
(g85
g71
NtRp1706
(dp1707
g74
(dp1708
sg83
g1602
sg76
(lp1709
g69
(g90
g71
NtRp1710
(dp1711
g74
(dp1712
g94
g95
ssg83
g1706
sg76
(lp1713
g411
asbag69
(g90
g71
NtRp1714
(dp1715
g74
(dp1716
g101
g102
ssg83
g1706
sg76
(lp1717
S':'
asbag69
(g90
g71
NtRp1718
(dp1719
g74
(dp1720
sg83
g1706
sg76
(lp1721
g69
(g70
g71
NtRp1722
(dp1723
g74
(dp1724
g82
I3
ssg83
g1718
sg76
(lp1725
S''
asbasbasbag69
(g85
g71
NtRp1726
(dp1727
g74
(dp1728
sg83
g1602
sg76
(lp1729
g69
(g90
g71
NtRp1730
(dp1731
g74
(dp1732
g94
g95
ssg83
g1726
sg76
(lp1733
g432
asbag69
(g90
g71
NtRp1734
(dp1735
g74
(dp1736
g101
g102
ssg83
g1726
sg76
(lp1737
S':'
asbag69
(g90
g71
NtRp1738
(dp1739
g74
(dp1740
sg83
g1726
sg76
(lp1741
g69
(g70
g71
NtRp1742
(dp1743
g74
(dp1744
g82
I3
ssg83
g1738
sg76
(lp1745
S''
asbasbasbag69
(g85
g71
NtRp1746
(dp1747
g74
(dp1748
sg83
g1602
sg76
(lp1749
g69
(g90
g71
NtRp1750
(dp1751
g74
(dp1752
g94
g95
ssg83
g1746
sg76
(lp1753
g453
asbag69
(g90
g71
NtRp1754
(dp1755
g74
(dp1756
g101
g102
ssg83
g1746
sg76
(lp1757
S':'
asbag69
(g90
g71
NtRp1758
(dp1759
g74
(dp1760
sg83
g1746
sg76
(lp1761
g69
(g70
g71
NtRp1762
(dp1763
g74
(dp1764
g82
I3
ssg83
g1758
sg76
(lp1765
S''
asbasbasbasbasbasbasbag69
(g85
g71
NtRp1766
(dp1767
g74
(dp1768
sg83
g268
sg76
(lp1769
g69
(g90
g71
NtRp1770
(dp1771
g74
(dp1772
g94
g95
ssg83
g1766
sg76
(lp1773
S'session_id_projeto'
p1774
asbag69
(g90
g71
NtRp1775
(dp1776
g74
(dp1777
g101
g102
ssg83
g1766
sg76
(lp1778
S':'
asbag69
(g90
g71
NtRp1779
(dp1780
g74
(dp1781
sg83
g1766
sg76
(lp1782
g69
(g70
g71
NtRp1783
(dp1784
g74
(dp1785
g82
I4
ssg83
g1779
sg76
(lp1786
S'127.0.0.1-a8d6ff4e-868b-4aa2-bd9e-521d75a87c41'
p1787
ag69
(g78
g71
NtRp1788
(dp1789
g74
(dp1790
g82
I3
ssg83
Nsg76
(lp1791
g69
(g85
g71
NtRp1792
(dp1793
g74
(dp1794
sg83
g1788
sg76
(lp1795
g69
(g90
g71
NtRp1796
(dp1797
g74
(dp1798
g94
g95
ssg83
g1792
sg76
(lp1799
g306
asbag69
(g90
g71
NtRp1800
(dp1801
g74
(dp1802
g101
g102
ssg83
g1792
sg76
(lp1803
S':'
asbag69
(g90
g71
NtRp1804
(dp1805
g74
(dp1806
sg83
g1792
sg76
(lp1807
g69
(g70
g71
NtRp1808
(dp1809
g74
(dp1810
g82
I3
ssg83
g1804
sg76
(lp1811
S''
asbasbasbag69
(g85
g71
NtRp1812
(dp1813
g74
(dp1814
sg83
g1788
sg76
(lp1815
g69
(g90
g71
NtRp1816
(dp1817
g74
(dp1818
g94
g95
ssg83
g1812
sg76
(lp1819
g327
asbag69
(g90
g71
NtRp1820
(dp1821
g74
(dp1822
g101
g102
ssg83
g1812
sg76
(lp1823
S':'
asbag69
(g90
g71
NtRp1824
(dp1825
g74
(dp1826
sg83
g1812
sg76
(lp1827
g69
(g70
g71
NtRp1828
(dp1829
g74
(dp1830
g82
I3
ssg83
g1824
sg76
(lp1831
S''
asbasbasbag69
(g85
g71
NtRp1832
(dp1833
g74
(dp1834
sg83
g1788
sg76
(lp1835
g69
(g90
g71
NtRp1836
(dp1837
g74
(dp1838
g94
g95
ssg83
g1832
sg76
(lp1839
g348
asbag69
(g90
g71
NtRp1840
(dp1841
g74
(dp1842
g101
g102
ssg83
g1832
sg76
(lp1843
S':'
asbag69
(g90
g71
NtRp1844
(dp1845
g74
(dp1846
sg83
g1832
sg76
(lp1847
g69
(g70
g71
NtRp1848
(dp1849
g74
(dp1850
g82
I3
ssg83
g1844
sg76
(lp1851
S''
asbasbasbag69
(g85
g71
NtRp1852
(dp1853
g74
(dp1854
sg83
g1788
sg76
(lp1855
g69
(g90
g71
NtRp1856
(dp1857
g74
(dp1858
g94
g95
ssg83
g1852
sg76
(lp1859
g369
asbag69
(g90
g71
NtRp1860
(dp1861
g74
(dp1862
g101
g102
ssg83
g1852
sg76
(lp1863
S':'
asbag69
(g90
g71
NtRp1864
(dp1865
g74
(dp1866
sg83
g1852
sg76
(lp1867
g69
(g70
g71
NtRp1868
(dp1869
g74
(dp1870
g82
I3
ssg83
g1864
sg76
(lp1871
S''
asbasbasbag69
(g85
g71
NtRp1872
(dp1873
g74
(dp1874
sg83
g1788
sg76
(lp1875
g69
(g90
g71
NtRp1876
(dp1877
g74
(dp1878
g94
g95
ssg83
g1872
sg76
(lp1879
g390
asbag69
(g90
g71
NtRp1880
(dp1881
g74
(dp1882
g101
g102
ssg83
g1872
sg76
(lp1883
S':'
asbag69
(g90
g71
NtRp1884
(dp1885
g74
(dp1886
sg83
g1872
sg76
(lp1887
g69
(g70
g71
NtRp1888
(dp1889
g74
(dp1890
g82
I3
ssg83
g1884
sg76
(lp1891
S''
asbasbasbag69
(g85
g71
NtRp1892
(dp1893
g74
(dp1894
sg83
g1788
sg76
(lp1895
g69
(g90
g71
NtRp1896
(dp1897
g74
(dp1898
g94
g95
ssg83
g1892
sg76
(lp1899
g411
asbag69
(g90
g71
NtRp1900
(dp1901
g74
(dp1902
g101
g102
ssg83
g1892
sg76
(lp1903
S':'
asbag69
(g90
g71
NtRp1904
(dp1905
g74
(dp1906
sg83
g1892
sg76
(lp1907
g69
(g70
g71
NtRp1908
(dp1909
g74
(dp1910
g82
I3
ssg83
g1904
sg76
(lp1911
S''
asbasbasbag69
(g85
g71
NtRp1912
(dp1913
g74
(dp1914
sg83
g1788
sg76
(lp1915
g69
(g90
g71
NtRp1916
(dp1917
g74
(dp1918
g94
g95
ssg83
g1912
sg76
(lp1919
g432
asbag69
(g90
g71
NtRp1920
(dp1921
g74
(dp1922
g101
g102
ssg83
g1912
sg76
(lp1923
S':'
asbag69
(g90
g71
NtRp1924
(dp1925
g74
(dp1926
sg83
g1912
sg76
(lp1927
g69
(g70
g71
NtRp1928
(dp1929
g74
(dp1930
g82
I3
ssg83
g1924
sg76
(lp1931
S''
asbasbasbag69
(g85
g71
NtRp1932
(dp1933
g74
(dp1934
sg83
g1788
sg76
(lp1935
g69
(g90
g71
NtRp1936
(dp1937
g74
(dp1938
g94
g95
ssg83
g1932
sg76
(lp1939
g453
asbag69
(g90
g71
NtRp1940
(dp1941
g74
(dp1942
g101
g102
ssg83
g1932
sg76
(lp1943
S':'
asbag69
(g90
g71
NtRp1944
(dp1945
g74
(dp1946
sg83
g1932
sg76
(lp1947
g69
(g70
g71
NtRp1948
(dp1949
g74
(dp1950
g82
I3
ssg83
g1944
sg76
(lp1951
S''
asbasbasbasbasbasbasbag69
(g85
g71
NtRp1952
(dp1953
g74
(dp1954
sg83
g268
sg76
(lp1955
g69
(g90
g71
NtRp1956
(dp1957
g74
(dp1958
g94
g95
ssg83
g1952
sg76
(lp1959
S'types'
p1960
asbag69
(g90
g71
NtRp1961
(dp1962
g74
(dp1963
g101
g102
ssg83
g1952
sg76
(lp1964
S':'
asbag69
(g90
g71
NtRp1965
(dp1966
g74
(dp1967
sg83
g1952
sg76
(lp1968
g69
(g70
g71
NtRp1969
(dp1970
g74
(dp1971
g82
I4
ssg83
g1965
sg76
(lp1972
S'Rev%201.0.1%20MX60-32S%20%20Kernel%201.0.11%20%28F%29'
p1973
ag69
(g78
g71
NtRp1974
(dp1975
g74
(dp1976
g82
I3
ssg83
Nsg76
(lp1977
g69
(g85
g71
NtRp1978
(dp1979
g74
(dp1980
sg83
g1974
sg76
(lp1981
g69
(g90
g71
NtRp1982
(dp1983
g74
(dp1984
g94
g95
ssg83
g1978
sg76
(lp1985
g306
asbag69
(g90
g71
NtRp1986
(dp1987
g74
(dp1988
g101
g102
ssg83
g1978
sg76
(lp1989
S':'
asbag69
(g90
g71
NtRp1990
(dp1991
g74
(dp1992
sg83
g1978
sg76
(lp1993
g69
(g70
g71
NtRp1994
(dp1995
g74
(dp1996
g82
I3
ssg83
g1990
sg76
(lp1997
S''
asbasbasbag69
(g85
g71
NtRp1998
(dp1999
g74
(dp2000
sg83
g1974
sg76
(lp2001
g69
(g90
g71
NtRp2002
(dp2003
g74
(dp2004
g94
g95
ssg83
g1998
sg76
(lp2005
g327
asbag69
(g90
g71
NtRp2006
(dp2007
g74
(dp2008
g101
g102
ssg83
g1998
sg76
(lp2009
S':'
asbag69
(g90
g71
NtRp2010
(dp2011
g74
(dp2012
sg83
g1998
sg76
(lp2013
g69
(g70
g71
NtRp2014
(dp2015
g74
(dp2016
g82
I3
ssg83
g2010
sg76
(lp2017
S''
asbasbasbag69
(g85
g71
NtRp2018
(dp2019
g74
(dp2020
sg83
g1974
sg76
(lp2021
g69
(g90
g71
NtRp2022
(dp2023
g74
(dp2024
g94
g95
ssg83
g2018
sg76
(lp2025
g348
asbag69
(g90
g71
NtRp2026
(dp2027
g74
(dp2028
g101
g102
ssg83
g2018
sg76
(lp2029
S':'
asbag69
(g90
g71
NtRp2030
(dp2031
g74
(dp2032
sg83
g2018
sg76
(lp2033
g69
(g70
g71
NtRp2034
(dp2035
g74
(dp2036
g82
I3
ssg83
g2030
sg76
(lp2037
S''
asbasbasbag69
(g85
g71
NtRp2038
(dp2039
g74
(dp2040
sg83
g1974
sg76
(lp2041
g69
(g90
g71
NtRp2042
(dp2043
g74
(dp2044
g94
g95
ssg83
g2038
sg76
(lp2045
g369
asbag69
(g90
g71
NtRp2046
(dp2047
g74
(dp2048
g101
g102
ssg83
g2038
sg76
(lp2049
S':'
asbag69
(g90
g71
NtRp2050
(dp2051
g74
(dp2052
sg83
g2038
sg76
(lp2053
g69
(g70
g71
NtRp2054
(dp2055
g74
(dp2056
g82
I3
ssg83
g2050
sg76
(lp2057
S''
asbasbasbag69
(g85
g71
NtRp2058
(dp2059
g74
(dp2060
sg83
g1974
sg76
(lp2061
g69
(g90
g71
NtRp2062
(dp2063
g74
(dp2064
g94
g95
ssg83
g2058
sg76
(lp2065
g390
asbag69
(g90
g71
NtRp2066
(dp2067
g74
(dp2068
g101
g102
ssg83
g2058
sg76
(lp2069
S':'
asbag69
(g90
g71
NtRp2070
(dp2071
g74
(dp2072
sg83
g2058
sg76
(lp2073
g69
(g70
g71
NtRp2074
(dp2075
g74
(dp2076
g82
I3
ssg83
g2070
sg76
(lp2077
S''
asbasbasbag69
(g85
g71
NtRp2078
(dp2079
g74
(dp2080
sg83
g1974
sg76
(lp2081
g69
(g90
g71
NtRp2082
(dp2083
g74
(dp2084
g94
g95
ssg83
g2078
sg76
(lp2085
g411
asbag69
(g90
g71
NtRp2086
(dp2087
g74
(dp2088
g101
g102
ssg83
g2078
sg76
(lp2089
S':'
asbag69
(g90
g71
NtRp2090
(dp2091
g74
(dp2092
sg83
g2078
sg76
(lp2093
g69
(g70
g71
NtRp2094
(dp2095
g74
(dp2096
g82
I3
ssg83
g2090
sg76
(lp2097
S''
asbasbasbag69
(g85
g71
NtRp2098
(dp2099
g74
(dp2100
sg83
g1974
sg76
(lp2101
g69
(g90
g71
NtRp2102
(dp2103
g74
(dp2104
g94
g95
ssg83
g2098
sg76
(lp2105
g432
asbag69
(g90
g71
NtRp2106
(dp2107
g74
(dp2108
g101
g102
ssg83
g2098
sg76
(lp2109
S':'
asbag69
(g90
g71
NtRp2110
(dp2111
g74
(dp2112
sg83
g2098
sg76
(lp2113
g69
(g70
g71
NtRp2114
(dp2115
g74
(dp2116
g82
I3
ssg83
g2110
sg76
(lp2117
S''
asbasbasbag69
(g85
g71
NtRp2118
(dp2119
g74
(dp2120
sg83
g1974
sg76
(lp2121
g69
(g90
g71
NtRp2122
(dp2123
g74
(dp2124
g94
g95
ssg83
g2118
sg76
(lp2125
g453
asbag69
(g90
g71
NtRp2126
(dp2127
g74
(dp2128
g101
g102
ssg83
g2118
sg76
(lp2129
S':'
asbag69
(g90
g71
NtRp2130
(dp2131
g74
(dp2132
sg83
g2118
sg76
(lp2133
g69
(g70
g71
NtRp2134
(dp2135
g74
(dp2136
g82
I3
ssg83
g2130
sg76
(lp2137
S''
asbasbasbasbasbasbasbasbasbasbasbag69
(g85
g71
NtRp2138
(dp2139
g74
(dp2140
sg83
g79
sg76
(lp2141
g69
(g90
g71
NtRp2142
(dp2143
g74
(dp2144
g94
g95
ssg83
g2138
sg76
(lp2145
S'env'
p2146
asbag69
(g90
g71
NtRp2147
(dp2148
g74
(dp2149
g101
g102
ssg83
g2138
sg76
(lp2150
S':'
asbag69
(g90
g71
NtRp2151
(dp2152
g74
(dp2153
sg83
g2138
sg76
(lp2154
g69
(g70
g71
NtRp2155
(dp2156
g74
(dp2157
g82
I5
ssg83
g2151
sg76
(lp2158
g69
(g78
g71
NtRp2159
(dp2160
g74
(dp2161
g82
I4
ssg83
Nsg76
(lp2162
g69
(g85
g71
NtRp2163
(dp2164
g74
(dp2165
sg83
g2159
sg76
(lp2166
g69
(g90
g71
NtRp2167
(dp2168
g74
(dp2169
g94
g95
ssg83
g2163
sg76
(lp2170
S'app_folders'
p2171
asbag69
(g90
g71
NtRp2172
(dp2173
g74
(dp2174
g101
g102
ssg83
g2163
sg76
(lp2175
S':'
asbag69
(g90
g71
NtRp2176
(dp2177
g74
(dp2178
sg83
g2163
sg76
(lp2179
g69
(g70
g71
NtRp2180
(dp2181
g74
(dp2182
g82
I4
ssg83
g2176
sg76
(lp2183
S"set(['/var/www/web2py_curso/applications/home/', '/var/www/web2py_curso/applications/admin/', '/var/www/web2py_curso/applications/projeto/'])"
p2184
asbasbasbag69
(g85
g71
NtRp2185
(dp2186
g74
(dp2187
sg83
g2159
sg76
(lp2188
g69
(g90
g71
NtRp2189
(dp2190
g74
(dp2191
g94
g95
ssg83
g2185
sg76
(lp2192
S'applications_parent'
p2193
asbag69
(g90
g71
NtRp2194
(dp2195
g74
(dp2196
g101
g102
ssg83
g2185
sg76
(lp2197
S':'
asbag69
(g90
g71
NtRp2198
(dp2199
g74
(dp2200
sg83
g2185
sg76
(lp2201
g69
(g70
g71
NtRp2202
(dp2203
g74
(dp2204
g82
I4
ssg83
g2198
sg76
(lp2205
S'/var/www/web2py_curso'
p2206
asbasbasbag69
(g85
g71
NtRp2207
(dp2208
g74
(dp2209
sg83
g2159
sg76
(lp2210
g69
(g90
g71
NtRp2211
(dp2212
g74
(dp2213
g94
g95
ssg83
g2207
sg76
(lp2214
S'cmd_args'
p2215
asbag69
(g90
g71
NtRp2216
(dp2217
g74
(dp2218
g101
g102
ssg83
g2207
sg76
(lp2219
S':'
asbag69
(g90
g71
NtRp2220
(dp2221
g74
(dp2222
sg83
g2207
sg76
(lp2223
g69
(g70
g71
NtRp2224
(dp2225
g74
(dp2226
g82
I4
ssg83
g2220
sg76
(lp2227
g69
(g78
g71
NtRp2228
(dp2229
g74
(dp2230
g82
I3
ssg83
Nsg76
(lp2231
sbasbasbasbag69
(g85
g71
NtRp2232
(dp2233
g74
(dp2234
sg83
g2159
sg76
(lp2235
g69
(g90
g71
NtRp2236
(dp2237
g74
(dp2238
g94
g95
ssg83
g2232
sg76
(lp2239
S'cmd_options'
p2240
asbag69
(g90
g71
NtRp2241
(dp2242
g74
(dp2243
g101
g102
ssg83
g2232
sg76
(lp2244
S':'
asbag69
(g90
g71
NtRp2245
(dp2246
g74
(dp2247
sg83
g2232
sg76
(lp2248
g69
(g70
g71
NtRp2249
(dp2250
g74
(dp2251
g82
I4
ssg83
g2245
sg76
(lp2252
S"<Values at 0x188e488: {'verbose': False, 'ip': '127.0.0.1', 'with_scheduler': False, 'ips': [], 'shutdown_timeout': 5, 'taskbar': False, 'port': 8000, 'maxthreads': None, 'softcron': False, 'server_name': 'fernado-desktop', 'bpython': False, 'nogui': False, 'pid_filename': 'httpserver.pid', 'extcron': False, 'runcron': False, 'run_system_tests': False, 'test': None, 'folder': '/var/www/web2py_curso', 'config': '', 'minthreads': None, 'winservice': '', 'shell': None, 'run': '', 'log_filename': 'httpserver.log', 'debuglevel': 30, 'args': [''], 'socket_timeout': 5, 'ssl_ca_certificate': None, 'scheduler': None, 'profiler_filename': None, 'ssl_private_key': '', 'scheduler_groups': None, 'password': '123456', 'request_queue_size': 5, 'ssl_certificate': '', 'cronjob': False, 'numthreads': None, 'quiet': False, 'interfaces': None, 'import_models': False, 'timeout': 10, 'plain': False, 'nobanner': False}>"
p2253
asbasbasbag69
(g85
g71
NtRp2254
(dp2255
g74
(dp2256
sg83
g2159
sg76
(lp2257
g69
(g90
g71
NtRp2258
(dp2259
g74
(dp2260
g94
g95
ssg83
g2254
sg76
(lp2261
S'db_sessions'
p2262
asbag69
(g90
g71
NtRp2263
(dp2264
g74
(dp2265
g101
g102
ssg83
g2254
sg76
(lp2266
S':'
asbag69
(g90
g71
NtRp2267
(dp2268
g74
(dp2269
sg83
g2254
sg76
(lp2270
g69
(g70
g71
NtRp2271
(dp2272
g74
(dp2273
g82
I4
ssg83
g2267
sg76
(lp2274
S'set([])'
p2275
asbasbasbag69
(g85
g71
NtRp2276
(dp2277
g74
(dp2278
sg83
g2159
sg76
(lp2279
g69
(g90
g71
NtRp2280
(dp2281
g74
(dp2282
g94
g95
ssg83
g2276
sg76
(lp2283
S'debugging'
p2284
asbag69
(g90
g71
NtRp2285
(dp2286
g74
(dp2287
g101
g102
ssg83
g2276
sg76
(lp2288
S':'
asbag69
(g90
g71
NtRp2289
(dp2290
g74
(dp2291
sg83
g2276
sg76
(lp2292
g69
(g70
g71
NtRp2293
(dp2294
g74
(dp2295
g82
I4
ssg83
g2289
sg76
(lp2296
g112
asbasbasbag69
(g85
g71
NtRp2297
(dp2298
g74
(dp2299
sg83
g2159
sg76
(lp2300
g69
(g90
g71
NtRp2301
(dp2302
g74
(dp2303
g94
g95
ssg83
g2297
sg76
(lp2304
S'gluon_parent'
p2305
asbag69
(g90
g71
NtRp2306
(dp2307
g74
(dp2308
g101
g102
ssg83
g2297
sg76
(lp2309
S':'
asbag69
(g90
g71
NtRp2310
(dp2311
g74
(dp2312
sg83
g2297
sg76
(lp2313
g69
(g70
g71
NtRp2314
(dp2315
g74
(dp2316
g82
I4
ssg83
g2310
sg76
(lp2317
S'/var/www/web2py_curso'
p2318
asbasbasbag69
(g85
g71
NtRp2319
(dp2320
g74
(dp2321
sg83
g2159
sg76
(lp2322
g69
(g90
g71
NtRp2323
(dp2324
g74
(dp2325
g94
g95
ssg83
g2319
sg76
(lp2326
S'http_accept'
p2327
asbag69
(g90
g71
NtRp2328
(dp2329
g74
(dp2330
g101
g102
ssg83
g2319
sg76
(lp2331
S':'
asbag69
(g90
g71
NtRp2332
(dp2333
g74
(dp2334
sg83
g2319
sg76
(lp2335
g69
(g70
g71
NtRp2336
(dp2337
g74
(dp2338
g82
I4
ssg83
g2332
sg76
(lp2339
S'text/html,application/xhtml+xml,application/xml;q=0.9,*/*;q=0.8'
p2340
asbasbasbag69
(g85
g71
NtRp2341
(dp2342
g74
(dp2343
sg83
g2159
sg76
(lp2344
g69
(g90
g71
NtRp2345
(dp2346
g74
(dp2347
g94
g95
ssg83
g2341
sg76
(lp2348
S'http_accept_charset'
p2349
asbag69
(g90
g71
NtRp2350
(dp2351
g74
(dp2352
g101
g102
ssg83
g2341
sg76
(lp2353
S':'
asbag69
(g90
g71
NtRp2354
(dp2355
g74
(dp2356
sg83
g2341
sg76
(lp2357
g69
(g70
g71
NtRp2358
(dp2359
g74
(dp2360
g82
I4
ssg83
g2354
sg76
(lp2361
S'ISO-8859-1,utf-8;q=0.7,*;q=0.3'
p2362
asbasbasbag69
(g85
g71
NtRp2363
(dp2364
g74
(dp2365
sg83
g2159
sg76
(lp2366
g69
(g90
g71
NtRp2367
(dp2368
g74
(dp2369
g94
g95
ssg83
g2363
sg76
(lp2370
S'http_accept_encoding'
p2371
asbag69
(g90
g71
NtRp2372
(dp2373
g74
(dp2374
g101
g102
ssg83
g2363
sg76
(lp2375
S':'
asbag69
(g90
g71
NtRp2376
(dp2377
g74
(dp2378
sg83
g2363
sg76
(lp2379
g69
(g70
g71
NtRp2380
(dp2381
g74
(dp2382
g82
I4
ssg83
g2376
sg76
(lp2383
S'gzip,deflate,sdch'
p2384
asbasbasbag69
(g85
g71
NtRp2385
(dp2386
g74
(dp2387
sg83
g2159
sg76
(lp2388
g69
(g90
g71
NtRp2389
(dp2390
g74
(dp2391
g94
g95
ssg83
g2385
sg76
(lp2392
S'http_accept_language'
p2393
asbag69
(g90
g71
NtRp2394
(dp2395
g74
(dp2396
g101
g102
ssg83
g2385
sg76
(lp2397
S':'
asbag69
(g90
g71
NtRp2398
(dp2399
g74
(dp2400
sg83
g2385
sg76
(lp2401
g69
(g70
g71
NtRp2402
(dp2403
g74
(dp2404
g82
I4
ssg83
g2398
sg76
(lp2405
S'pt-BR,pt;q=0.8,en-US;q=0.6,en;q=0.4'
p2406
asbasbasbag69
(g85
g71
NtRp2407
(dp2408
g74
(dp2409
sg83
g2159
sg76
(lp2410
g69
(g90
g71
NtRp2411
(dp2412
g74
(dp2413
g94
g95
ssg83
g2407
sg76
(lp2414
S'http_cache_control'
p2415
asbag69
(g90
g71
NtRp2416
(dp2417
g74
(dp2418
g101
g102
ssg83
g2407
sg76
(lp2419
S':'
asbag69
(g90
g71
NtRp2420
(dp2421
g74
(dp2422
sg83
g2407
sg76
(lp2423
g69
(g70
g71
NtRp2424
(dp2425
g74
(dp2426
g82
I4
ssg83
g2420
sg76
(lp2427
S'max-age=0'
p2428
asbasbasbag69
(g85
g71
NtRp2429
(dp2430
g74
(dp2431
sg83
g2159
sg76
(lp2432
g69
(g90
g71
NtRp2433
(dp2434
g74
(dp2435
g94
g95
ssg83
g2429
sg76
(lp2436
S'http_connection'
p2437
asbag69
(g90
g71
NtRp2438
(dp2439
g74
(dp2440
g101
g102
ssg83
g2429
sg76
(lp2441
S':'
asbag69
(g90
g71
NtRp2442
(dp2443
g74
(dp2444
sg83
g2429
sg76
(lp2445
g69
(g70
g71
NtRp2446
(dp2447
g74
(dp2448
g82
I4
ssg83
g2442
sg76
(lp2449
S'keep-alive'
p2450
asbasbasbag69
(g85
g71
NtRp2451
(dp2452
g74
(dp2453
sg83
g2159
sg76
(lp2454
g69
(g90
g71
NtRp2455
(dp2456
g74
(dp2457
g94
g95
ssg83
g2451
sg76
(lp2458
S'http_cookie'
p2459
asbag69
(g90
g71
NtRp2460
(dp2461
g74
(dp2462
g101
g102
ssg83
g2451
sg76
(lp2463
S':'
asbag69
(g90
g71
NtRp2464
(dp2465
g74
(dp2466
sg83
g2451
sg76
(lp2467
g69
(g70
g71
NtRp2468
(dp2469
g74
(dp2470
g82
I4
ssg83
g2464
sg76
(lp2471
S'hw_type=MX60; hw_version=Rev%201.9.82.316; types=Rev%201.0.1%20MX60-32S%20%20Kernel%201.0.11%20%28F%29; admin=admin; cookie=1649423593; model=MX; nr=1; language=1; session_id_projeto=127.0.0.1-a8d6ff4e-868b-4aa2-bd9e-521d75a87c41; session_id_admin=127.0.0.1-d10ee534-f8d1-400f-aa2b-66e05550ca0a'
p2472
asbasbasbag69
(g85
g71
NtRp2473
(dp2474
g74
(dp2475
sg83
g2159
sg76
(lp2476
g69
(g90
g71
NtRp2477
(dp2478
g74
(dp2479
g94
g95
ssg83
g2473
sg76
(lp2480
S'http_host'
p2481
asbag69
(g90
g71
NtRp2482
(dp2483
g74
(dp2484
g101
g102
ssg83
g2473
sg76
(lp2485
S':'
asbag69
(g90
g71
NtRp2486
(dp2487
g74
(dp2488
sg83
g2473
sg76
(lp2489
g69
(g70
g71
NtRp2490
(dp2491
g74
(dp2492
g82
I4
ssg83
g2486
sg76
(lp2493
S'127.0.0.1:8000'
p2494
asbasbasbag69
(g85
g71
NtRp2495
(dp2496
g74
(dp2497
sg83
g2159
sg76
(lp2498
g69
(g90
g71
NtRp2499
(dp2500
g74
(dp2501
g94
g95
ssg83
g2495
sg76
(lp2502
S'http_referer'
p2503
asbag69
(g90
g71
NtRp2504
(dp2505
g74
(dp2506
g101
g102
ssg83
g2495
sg76
(lp2507
S':'
asbag69
(g90
g71
NtRp2508
(dp2509
g74
(dp2510
sg83
g2495
sg76
(lp2511
g69
(g70
g71
NtRp2512
(dp2513
g74
(dp2514
g82
I4
ssg83
g2508
sg76
(lp2515
S'http://127.0.0.1:8000/manager/posts/view/post/4?_signature=5053dd30e8084e1766592cf1bb78fab8f7b29c2f'
p2516
asbasbasbag69
(g85
g71
NtRp2517
(dp2518
g74
(dp2519
sg83
g2159
sg76
(lp2520
g69
(g90
g71
NtRp2521
(dp2522
g74
(dp2523
g94
g95
ssg83
g2517
sg76
(lp2524
S'http_user_agent'
p2525
asbag69
(g90
g71
NtRp2526
(dp2527
g74
(dp2528
g101
g102
ssg83
g2517
sg76
(lp2529
S':'
asbag69
(g90
g71
NtRp2530
(dp2531
g74
(dp2532
sg83
g2517
sg76
(lp2533
g69
(g70
g71
NtRp2534
(dp2535
g74
(dp2536
g82
I4
ssg83
g2530
sg76
(lp2537
S'Mozilla/5.0 (X11; Linux x86_64) AppleWebKit/537.4 (KHTML, like Gecko) Ubuntu/12.10 Chromium/22.0.1229.94 Chrome/22.0.1229.94 Safari/537.4'
p2538
asbasbasbag69
(g85
g71
NtRp2539
(dp2540
g74
(dp2541
sg83
g2159
sg76
(lp2542
g69
(g90
g71
NtRp2543
(dp2544
g74
(dp2545
g94
g95
ssg83
g2539
sg76
(lp2546
S'is_jython'
p2547
asbag69
(g90
g71
NtRp2548
(dp2549
g74
(dp2550
g101
g102
ssg83
g2539
sg76
(lp2551
S':'
asbag69
(g90
g71
NtRp2552
(dp2553
g74
(dp2554
sg83
g2539
sg76
(lp2555
g69
(g70
g71
NtRp2556
(dp2557
g74
(dp2558
g82
I4
ssg83
g2552
sg76
(lp2559
g112
asbasbasbag69
(g85
g71
NtRp2560
(dp2561
g74
(dp2562
sg83
g2159
sg76
(lp2563
g69
(g90
g71
NtRp2564
(dp2565
g74
(dp2566
g94
g95
ssg83
g2560
sg76
(lp2567
S'is_pypy'
p2568
asbag69
(g90
g71
NtRp2569
(dp2570
g74
(dp2571
g101
g102
ssg83
g2560
sg76
(lp2572
S':'
asbag69
(g90
g71
NtRp2573
(dp2574
g74
(dp2575
sg83
g2560
sg76
(lp2576
g69
(g70
g71
NtRp2577
(dp2578
g74
(dp2579
g82
I4
ssg83
g2573
sg76
(lp2580
g112
asbasbasbag69
(g85
g71
NtRp2581
(dp2582
g74
(dp2583
sg83
g2159
sg76
(lp2584
g69
(g90
g71
NtRp2585
(dp2586
g74
(dp2587
g94
g95
ssg83
g2581
sg76
(lp2588
S'local_hosts'
p2589
asbag69
(g90
g71
NtRp2590
(dp2591
g74
(dp2592
g101
g102
ssg83
g2581
sg76
(lp2593
S':'
asbag69
(g90
g71
NtRp2594
(dp2595
g74
(dp2596
sg83
g2581
sg76
(lp2597
g69
(g70
g71
NtRp2598
(dp2599
g74
(dp2600
g82
I4
ssg83
g2594
sg76
(lp2601
g69
(g78
g71
NtRp2602
(dp2603
g74
(dp2604
g82
I3
ssg83
Nsg76
(lp2605
g69
(g85
g71
NtRp2606
(dp2607
g74
(dp2608
sg83
g2602
sg76
(lp2609
g69
(g90
g71
NtRp2610
(dp2611
g74
(dp2612
sg83
g2606
sg76
(lp2613
g69
(g70
g71
NtRp2614
(dp2615
g74
(dp2616
g82
I3
ssg83
g2610
sg76
(lp2617
S'127.0.1.1'
p2618
asbasbasbag69
(g85
g71
NtRp2619
(dp2620
g74
(dp2621
sg83
g2602
sg76
(lp2622
g69
(g90
g71
NtRp2623
(dp2624
g74
(dp2625
sg83
g2619
sg76
(lp2626
g69
(g70
g71
NtRp2627
(dp2628
g74
(dp2629
g82
I3
ssg83
g2623
sg76
(lp2630
S'::1'
p2631
asbasbasbag69
(g85
g71
NtRp2632
(dp2633
g74
(dp2634
sg83
g2602
sg76
(lp2635
g69
(g90
g71
NtRp2636
(dp2637
g74
(dp2638
sg83
g2632
sg76
(lp2639
g69
(g70
g71
NtRp2640
(dp2641
g74
(dp2642
g82
I3
ssg83
g2636
sg76
(lp2643
S'fernado-desktop'
p2644
asbasbasbag69
(g85
g71
NtRp2645
(dp2646
g74
(dp2647
sg83
g2602
sg76
(lp2648
g69
(g90
g71
NtRp2649
(dp2650
g74
(dp2651
sg83
g2645
sg76
(lp2652
g69
(g70
g71
NtRp2653
(dp2654
g74
(dp2655
g82
I3
ssg83
g2649
sg76
(lp2656
S'::ffff:127.0.0.1'
p2657
asbasbasbag69
(g85
g71
NtRp2658
(dp2659
g74
(dp2660
sg83
g2602
sg76
(lp2661
g69
(g90
g71
NtRp2662
(dp2663
g74
(dp2664
sg83
g2658
sg76
(lp2665
g69
(g70
g71
NtRp2666
(dp2667
g74
(dp2668
g82
I3
ssg83
g2662
sg76
(lp2669
S'127.0.0.1'
p2670
asbasbasbasbasbasbasbag69
(g85
g71
NtRp2671
(dp2672
g74
(dp2673
sg83
g2159
sg76
(lp2674
g69
(g90
g71
NtRp2675
(dp2676
g74
(dp2677
g94
g95
ssg83
g2671
sg76
(lp2678
S'path_info'
p2679
asbag69
(g90
g71
NtRp2680
(dp2681
g74
(dp2682
g101
g102
ssg83
g2671
sg76
(lp2683
S':'
asbag69
(g90
g71
NtRp2684
(dp2685
g74
(dp2686
sg83
g2671
sg76
(lp2687
g69
(g70
g71
NtRp2688
(dp2689
g74
(dp2690
g82
I4
ssg83
g2684
sg76
(lp2691
S'/manager/posts'
p2692
asbasbasbag69
(g85
g71
NtRp2693
(dp2694
g74
(dp2695
sg83
g2159
sg76
(lp2696
g69
(g90
g71
NtRp2697
(dp2698
g74
(dp2699
g94
g95
ssg83
g2693
sg76
(lp2700
S'query_string'
p2701
asbag69
(g90
g71
NtRp2702
(dp2703
g74
(dp2704
g101
g102
ssg83
g2693
sg76
(lp2705
S':'
asbag69
(g90
g71
NtRp2706
(dp2707
g74
(dp2708
sg83
g2693
sg76
(lp2709
g69
(g70
g71
NtRp2710
(dp2711
g74
(dp2712
g82
I4
ssg83
g2706
sg76
(lp2713
S'_signature=bf6f06c3498304cb23aec1c7ae90a7883a73a6aa'
p2714
asbasbasbag69
(g85
g71
NtRp2715
(dp2716
g74
(dp2717
sg83
g2159
sg76
(lp2718
g69
(g90
g71
NtRp2719
(dp2720
g74
(dp2721
g94
g95
ssg83
g2715
sg76
(lp2722
S'remote_addr'
p2723
asbag69
(g90
g71
NtRp2724
(dp2725
g74
(dp2726
g101
g102
ssg83
g2715
sg76
(lp2727
S':'
asbag69
(g90
g71
NtRp2728
(dp2729
g74
(dp2730
sg83
g2715
sg76
(lp2731
g69
(g70
g71
NtRp2732
(dp2733
g74
(dp2734
g82
I4
ssg83
g2728
sg76
(lp2735
g224
asbasbasbag69
(g85
g71
NtRp2736
(dp2737
g74
(dp2738
sg83
g2159
sg76
(lp2739
g69
(g90
g71
NtRp2740
(dp2741
g74
(dp2742
g94
g95
ssg83
g2736
sg76
(lp2743
S'remote_port'
p2744
asbag69
(g90
g71
NtRp2745
(dp2746
g74
(dp2747
g101
g102
ssg83
g2736
sg76
(lp2748
S':'
asbag69
(g90
g71
NtRp2749
(dp2750
g74
(dp2751
sg83
g2736
sg76
(lp2752
g69
(g70
g71
NtRp2753
(dp2754
g74
(dp2755
g82
I4
ssg83
g2749
sg76
(lp2756
S'37318'
p2757
asbasbasbag69
(g85
g71
NtRp2758
(dp2759
g74
(dp2760
sg83
g2159
sg76
(lp2761
g69
(g90
g71
NtRp2762
(dp2763
g74
(dp2764
g94
g95
ssg83
g2758
sg76
(lp2765
S'request_method'
p2766
asbag69
(g90
g71
NtRp2767
(dp2768
g74
(dp2769
g101
g102
ssg83
g2758
sg76
(lp2770
S':'
asbag69
(g90
g71
NtRp2771
(dp2772
g74
(dp2773
sg83
g2758
sg76
(lp2774
g69
(g70
g71
NtRp2775
(dp2776
g74
(dp2777
g82
I4
ssg83
g2771
sg76
(lp2778
S'GET'
p2779
asbasbasbag69
(g85
g71
NtRp2780
(dp2781
g74
(dp2782
sg83
g2159
sg76
(lp2783
g69
(g90
g71
NtRp2784
(dp2785
g74
(dp2786
g94
g95
ssg83
g2780
sg76
(lp2787
S'request_uri'
p2788
asbag69
(g90
g71
NtRp2789
(dp2790
g74
(dp2791
g101
g102
ssg83
g2780
sg76
(lp2792
S':'
asbag69
(g90
g71
NtRp2793
(dp2794
g74
(dp2795
sg83
g2780
sg76
(lp2796
g69
(g70
g71
NtRp2797
(dp2798
g74
(dp2799
g82
I4
ssg83
g2793
sg76
(lp2800
S'/projeto/manager/posts?_signature=bf6f06c3498304cb23aec1c7ae90a7883a73a6aa'
p2801
asbasbasbag69
(g85
g71
NtRp2802
(dp2803
g74
(dp2804
sg83
g2159
sg76
(lp2805
g69
(g90
g71
NtRp2806
(dp2807
g74
(dp2808
g94
g95
ssg83
g2802
sg76
(lp2809
S'script_name'
p2810
asbag69
(g90
g71
NtRp2811
(dp2812
g74
(dp2813
g101
g102
ssg83
g2802
sg76
(lp2814
S':'
asbag69
(g90
g71
NtRp2815
(dp2816
g74
(dp2817
sg83
g2802
sg76
(lp2818
g69
(g70
g71
NtRp2819
(dp2820
g74
(dp2821
g82
I4
ssg83
g2815
sg76
(lp2822
S''
asbasbasbag69
(g85
g71
NtRp2823
(dp2824
g74
(dp2825
sg83
g2159
sg76
(lp2826
g69
(g90
g71
NtRp2827
(dp2828
g74
(dp2829
g94
g95
ssg83
g2823
sg76
(lp2830
S'server_name'
p2831
asbag69
(g90
g71
NtRp2832
(dp2833
g74
(dp2834
g101
g102
ssg83
g2823
sg76
(lp2835
S':'
asbag69
(g90
g71
NtRp2836
(dp2837
g74
(dp2838
sg83
g2823
sg76
(lp2839
g69
(g70
g71
NtRp2840
(dp2841
g74
(dp2842
g82
I4
ssg83
g2836
sg76
(lp2843
S'fernado-desktop'
p2844
asbasbasbag69
(g85
g71
NtRp2845
(dp2846
g74
(dp2847
sg83
g2159
sg76
(lp2848
g69
(g90
g71
NtRp2849
(dp2850
g74
(dp2851
g94
g95
ssg83
g2845
sg76
(lp2852
S'server_port'
p2853
asbag69
(g90
g71
NtRp2854
(dp2855
g74
(dp2856
g101
g102
ssg83
g2845
sg76
(lp2857
S':'
asbag69
(g90
g71
NtRp2858
(dp2859
g74
(dp2860
sg83
g2845
sg76
(lp2861
g69
(g70
g71
NtRp2862
(dp2863
g74
(dp2864
g82
I4
ssg83
g2858
sg76
(lp2865
S'8000'
p2866
asbasbasbag69
(g85
g71
NtRp2867
(dp2868
g74
(dp2869
sg83
g2159
sg76
(lp2870
g69
(g90
g71
NtRp2871
(dp2872
g74
(dp2873
g94
g95
ssg83
g2867
sg76
(lp2874
S'server_protocol'
p2875
asbag69
(g90
g71
NtRp2876
(dp2877
g74
(dp2878
g101
g102
ssg83
g2867
sg76
(lp2879
S':'
asbag69
(g90
g71
NtRp2880
(dp2881
g74
(dp2882
sg83
g2867
sg76
(lp2883
g69
(g70
g71
NtRp2884
(dp2885
g74
(dp2886
g82
I4
ssg83
g2880
sg76
(lp2887
S'HTTP/1.1'
p2888
asbasbasbag69
(g85
g71
NtRp2889
(dp2890
g74
(dp2891
sg83
g2159
sg76
(lp2892
g69
(g90
g71
NtRp2893
(dp2894
g74
(dp2895
g94
g95
ssg83
g2889
sg76
(lp2896
S'server_software'
p2897
asbag69
(g90
g71
NtRp2898
(dp2899
g74
(dp2900
g101
g102
ssg83
g2889
sg76
(lp2901
S':'
asbag69
(g90
g71
NtRp2902
(dp2903
g74
(dp2904
sg83
g2889
sg76
(lp2905
g69
(g70
g71
NtRp2906
(dp2907
g74
(dp2908
g82
I4
ssg83
g2902
sg76
(lp2909
S'Rocket 1.2.6'
p2910
asbasbasbag69
(g85
g71
NtRp2911
(dp2912
g74
(dp2913
sg83
g2159
sg76
(lp2914
g69
(g90
g71
NtRp2915
(dp2916
g74
(dp2917
g94
g95
ssg83
g2911
sg76
(lp2918
S'web2py_original_uri'
p2919
asbag69
(g90
g71
NtRp2920
(dp2921
g74
(dp2922
g101
g102
ssg83
g2911
sg76
(lp2923
S':'
asbag69
(g90
g71
NtRp2924
(dp2925
g74
(dp2926
sg83
g2911
sg76
(lp2927
g69
(g70
g71
NtRp2928
(dp2929
g74
(dp2930
g82
I4
ssg83
g2924
sg76
(lp2931
S'/manager/posts?_signature=bf6f06c3498304cb23aec1c7ae90a7883a73a6aa'
p2932
asbasbasbag69
(g85
g71
NtRp2933
(dp2934
g74
(dp2935
sg83
g2159
sg76
(lp2936
g69
(g90
g71
NtRp2937
(dp2938
g74
(dp2939
g94
g95
ssg83
g2933
sg76
(lp2940
S'web2py_path'
p2941
asbag69
(g90
g71
NtRp2942
(dp2943
g74
(dp2944
g101
g102
ssg83
g2933
sg76
(lp2945
S':'
asbag69
(g90
g71
NtRp2946
(dp2947
g74
(dp2948
sg83
g2933
sg76
(lp2949
g69
(g70
g71
NtRp2950
(dp2951
g74
(dp2952
g82
I4
ssg83
g2946
sg76
(lp2953
g2206
asbasbasbag69
(g85
g71
NtRp2954
(dp2955
g74
(dp2956
sg83
g2159
sg76
(lp2957
g69
(g90
g71
NtRp2958
(dp2959
g74
(dp2960
g94
g95
ssg83
g2954
sg76
(lp2961
S'web2py_version'
p2962
asbag69
(g90
g71
NtRp2963
(dp2964
g74
(dp2965
g101
g102
ssg83
g2954
sg76
(lp2966
S':'
asbag69
(g90
g71
NtRp2967
(dp2968
g74
(dp2969
sg83
g2954
sg76
(lp2970
g69
(g70
g71
NtRp2971
(dp2972
g74
(dp2973
g82
I4
ssg83
g2967
sg76
(lp2974
g69
(g78
g71
NtRp2975
(dp2976
g74
(dp2977
g82
I3
ssg83
Nsg76
(lp2978
g69
(g85
g71
NtRp2979
(dp2980
g74
(dp2981
sg83
g2975
sg76
(lp2982
g69
(g90
g71
NtRp2983
(dp2984
g74
(dp2985
sg83
g2979
sg76
(lp2986
g69
(g70
g71
NtRp2987
(dp2988
g74
(dp2989
g82
I3
ssg83
g2983
sg76
(lp2990
S'2'
asbasbasbag69
(g85
g71
NtRp2991
(dp2992
g74
(dp2993
sg83
g2975
sg76
(lp2994
g69
(g90
g71
NtRp2995
(dp2996
g74
(dp2997
sg83
g2991
sg76
(lp2998
g69
(g70
g71
NtRp2999
(dp3000
g74
(dp3001
g82
I3
ssg83
g2995
sg76
(lp3002
S'3'
asbasbasbag69
(g85
g71
NtRp3003
(dp3004
g74
(dp3005
sg83
g2975
sg76
(lp3006
g69
(g90
g71
NtRp3007
(dp3008
g74
(dp3009
sg83
g3003
sg76
(lp3010
g69
(g70
g71
NtRp3011
(dp3012
g74
(dp3013
g82
I3
ssg83
g3007
sg76
(lp3014
S'2'
asbasbasbag69
(g85
g71
NtRp3015
(dp3016
g74
(dp3017
sg83
g2975
sg76
(lp3018
g69
(g90
g71
NtRp3019
(dp3020
g74
(dp3021
sg83
g3015
sg76
(lp3022
g69
(g70
g71
NtRp3023
(dp3024
g74
(dp3025
g82
I3
ssg83
g3019
sg76
(lp3026
S'datetime.datetime(2012, 12, 17, 15, 3, 30)'
p3027
asbasbasbag69
(g85
g71
NtRp3028
(dp3029
g74
(dp3030
sg83
g2975
sg76
(lp3031
g69
(g90
g71
NtRp3032
(dp3033
g74
(dp3034
sg83
g3028
sg76
(lp3035
g69
(g70
g71
NtRp3036
(dp3037
g74
(dp3038
g82
I3
ssg83
g3032
sg76
(lp3039
S'stable'
p3040
asbasbasbasbasbasbasbag69
(g85
g71
NtRp3041
(dp3042
g74
(dp3043
sg83
g2159
sg76
(lp3044
g69
(g90
g71
NtRp3045
(dp3046
g74
(dp3047
g94
g95
ssg83
g3041
sg76
(lp3048
S'wsgi_errors'
p3049
asbag69
(g90
g71
NtRp3050
(dp3051
g74
(dp3052
g101
g102
ssg83
g3041
sg76
(lp3053
S':'
asbag69
(g90
g71
NtRp3054
(dp3055
g74
(dp3056
sg83
g3041
sg76
(lp3057
g69
(g70
g71
NtRp3058
(dp3059
g74
(dp3060
g82
I4
ssg83
g3054
sg76
(lp3061
S"<open file '<stderr>', mode 'w' at 0x7fca14e47270>"
p3062
asbasbasbag69
(g85
g71
NtRp3063
(dp3064
g74
(dp3065
sg83
g2159
sg76
(lp3066
g69
(g90
g71
NtRp3067
(dp3068
g74
(dp3069
g94
g95
ssg83
g3063
sg76
(lp3070
S'wsgi_file_wrapper'
p3071
asbag69
(g90
g71
NtRp3072
(dp3073
g74
(dp3074
g101
g102
ssg83
g3063
sg76
(lp3075
S':'
asbag69
(g90
g71
NtRp3076
(dp3077
g74
(dp3078
sg83
g3063
sg76
(lp3079
g69
(g70
g71
NtRp3080
(dp3081
g74
(dp3082
g82
I4
ssg83
g3076
sg76
(lp3083
S'<class wsgiref.util.FileWrapper at 0x17e2a10>'
p3084
asbasbasbag69
(g85
g71
NtRp3085
(dp3086
g74
(dp3087
sg83
g2159
sg76
(lp3088
g69
(g90
g71
NtRp3089
(dp3090
g74
(dp3091
g94
g95
ssg83
g3085
sg76
(lp3092
S'wsgi_input'
p3093
asbag69
(g90
g71
NtRp3094
(dp3095
g74
(dp3096
g101
g102
ssg83
g3085
sg76
(lp3097
S':'
asbag69
(g90
g71
NtRp3098
(dp3099
g74
(dp3100
sg83
g3085
sg76
(lp3101
g69
(g70
g71
NtRp3102
(dp3103
g74
(dp3104
g82
I4
ssg83
g3098
sg76
(lp3105
S'<socket._fileobject object at 0x7fc9e457ee50>'
p3106
asbasbasbag69
(g85
g71
NtRp3107
(dp3108
g74
(dp3109
sg83
g2159
sg76
(lp3110
g69
(g90
g71
NtRp3111
(dp3112
g74
(dp3113
g94
g95
ssg83
g3107
sg76
(lp3114
S'wsgi_multiprocess'
p3115
asbag69
(g90
g71
NtRp3116
(dp3117
g74
(dp3118
g101
g102
ssg83
g3107
sg76
(lp3119
S':'
asbag69
(g90
g71
NtRp3120
(dp3121
g74
(dp3122
sg83
g3107
sg76
(lp3123
g69
(g70
g71
NtRp3124
(dp3125
g74
(dp3126
g82
I4
ssg83
g3120
sg76
(lp3127
g112
asbasbasbag69
(g85
g71
NtRp3128
(dp3129
g74
(dp3130
sg83
g2159
sg76
(lp3131
g69
(g90
g71
NtRp3132
(dp3133
g74
(dp3134
g94
g95
ssg83
g3128
sg76
(lp3135
S'wsgi_multithread'
p3136
asbag69
(g90
g71
NtRp3137
(dp3138
g74
(dp3139
g101
g102
ssg83
g3128
sg76
(lp3140
S':'
asbag69
(g90
g71
NtRp3141
(dp3142
g74
(dp3143
sg83
g3128
sg76
(lp3144
g69
(g70
g71
NtRp3145
(dp3146
g74
(dp3147
g82
I4
ssg83
g3141
sg76
(lp3148
S'True'
p3149
asbasbasbag69
(g85
g71
NtRp3150
(dp3151
g74
(dp3152
sg83
g2159
sg76
(lp3153
g69
(g90
g71
NtRp3154
(dp3155
g74
(dp3156
g94
g95
ssg83
g3150
sg76
(lp3157
S'wsgi_run_once'
p3158
asbag69
(g90
g71
NtRp3159
(dp3160
g74
(dp3161
g101
g102
ssg83
g3150
sg76
(lp3162
S':'
asbag69
(g90
g71
NtRp3163
(dp3164
g74
(dp3165
sg83
g3150
sg76
(lp3166
g69
(g70
g71
NtRp3167
(dp3168
g74
(dp3169
g82
I4
ssg83
g3163
sg76
(lp3170
g112
asbasbasbag69
(g85
g71
NtRp3171
(dp3172
g74
(dp3173
sg83
g2159
sg76
(lp3174
g69
(g90
g71
NtRp3175
(dp3176
g74
(dp3177
g94
g95
ssg83
g3171
sg76
(lp3178
S'wsgi_url_scheme'
p3179
asbag69
(g90
g71
NtRp3180
(dp3181
g74
(dp3182
g101
g102
ssg83
g3171
sg76
(lp3183
S':'
asbag69
(g90
g71
NtRp3184
(dp3185
g74
(dp3186
sg83
g3171
sg76
(lp3187
g69
(g70
g71
NtRp3188
(dp3189
g74
(dp3190
g82
I4
ssg83
g3184
sg76
(lp3191
S'http'
p3192
asbasbasbag69
(g85
g71
NtRp3193
(dp3194
g74
(dp3195
sg83
g2159
sg76
(lp3196
g69
(g90
g71
NtRp3197
(dp3198
g74
(dp3199
g94
g95
ssg83
g3193
sg76
(lp3200
S'wsgi_version'
p3201
asbag69
(g90
g71
NtRp3202
(dp3203
g74
(dp3204
g101
g102
ssg83
g3193
sg76
(lp3205
S':'
asbag69
(g90
g71
NtRp3206
(dp3207
g74
(dp3208
sg83
g3193
sg76
(lp3209
g69
(g70
g71
NtRp3210
(dp3211
g74
(dp3212
g82
I4
ssg83
g3206
sg76
(lp3213
g69
(g78
g71
NtRp3214
(dp3215
g74
(dp3216
g82
I3
ssg83
Nsg76
(lp3217
g69
(g85
g71
NtRp3218
(dp3219
g74
(dp3220
sg83
g3214
sg76
(lp3221
g69
(g90
g71
NtRp3222
(dp3223
g74
(dp3224
sg83
g3218
sg76
(lp3225
g69
(g70
g71
NtRp3226
(dp3227
g74
(dp3228
g82
I3
ssg83
g3222
sg76
(lp3229
S'1'
asbasbasbag69
(g85
g71
NtRp3230
(dp3231
g74
(dp3232
sg83
g3214
sg76
(lp3233
g69
(g90
g71
NtRp3234
(dp3235
g74
(dp3236
sg83
g3230
sg76
(lp3237
g69
(g70
g71
NtRp3238
(dp3239
g74
(dp3240
g82
I3
ssg83
g3234
sg76
(lp3241
S'0'
asbasbasbasbasbasbasbasbasbasbasbag69
(g85
g71
NtRp3242
(dp3243
g74
(dp3244
sg83
g79
sg76
(lp3245
g69
(g90
g71
NtRp3246
(dp3247
g74
(dp3248
g94
g95
ssg83
g3242
sg76
(lp3249
S'extension'
p3250
asbag69
(g90
g71
NtRp3251
(dp3252
g74
(dp3253
g101
g102
ssg83
g3242
sg76
(lp3254
S':'
asbag69
(g90
g71
NtRp3255
(dp3256
g74
(dp3257
sg83
g3242
sg76
(lp3258
g69
(g70
g71
NtRp3259
(dp3260
g74
(dp3261
g82
I5
ssg83
g3255
sg76
(lp3262
S'html'
p3263
asbasbasbag69
(g85
g71
NtRp3264
(dp3265
g74
(dp3266
sg83
g79
sg76
(lp3267
g69
(g90
g71
NtRp3268
(dp3269
g74
(dp3270
g94
g95
ssg83
g3264
sg76
(lp3271
S'folder'
p3272
asbag69
(g90
g71
NtRp3273
(dp3274
g74
(dp3275
g101
g102
ssg83
g3264
sg76
(lp3276
S':'
asbag69
(g90
g71
NtRp3277
(dp3278
g74
(dp3279
sg83
g3264
sg76
(lp3280
g69
(g70
g71
NtRp3281
(dp3282
g74
(dp3283
g82
I5
ssg83
g3277
sg76
(lp3284
S'/var/www/web2py_curso/applications/projeto/'
p3285
asbasbasbag69
(g85
g71
NtRp3286
(dp3287
g74
(dp3288
sg83
g79
sg76
(lp3289
g69
(g90
g71
NtRp3290
(dp3291
g74
(dp3292
g94
g95
ssg83
g3286
sg76
(lp3293
S'function'
p3294
asbag69
(g90
g71
NtRp3295
(dp3296
g74
(dp3297
g101
g102
ssg83
g3286
sg76
(lp3298
S':'
asbag69
(g90
g71
NtRp3299
(dp3300
g74
(dp3301
sg83
g3286
sg76
(lp3302
g69
(g70
g71
NtRp3303
(dp3304
g74
(dp3305
g82
I5
ssg83
g3299
sg76
(lp3306
S'posts'
p3307
asbasbasbag69
(g85
g71
NtRp3308
(dp3309
g74
(dp3310
sg83
g79
sg76
(lp3311
g69
(g90
g71
NtRp3312
(dp3313
g74
(dp3314
g94
g95
ssg83
g3308
sg76
(lp3315
S'get_vars'
p3316
asbag69
(g90
g71
NtRp3317
(dp3318
g74
(dp3319
g101
g102
ssg83
g3308
sg76
(lp3320
S':'
asbag69
(g90
g71
NtRp3321
(dp3322
g74
(dp3323
sg83
g3308
sg76
(lp3324
g69
(g70
g71
NtRp3325
(dp3326
g74
(dp3327
g82
I5
ssg83
g3321
sg76
(lp3328
g69
(g78
g71
NtRp3329
(dp3330
g74
(dp3331
g82
I4
ssg83
Nsg76
(lp3332
sbasbasbasbag69
(g85
g71
NtRp3333
(dp3334
g74
(dp3335
sg83
g79
sg76
(lp3336
g69
(g90
g71
NtRp3337
(dp3338
g74
(dp3339
g94
g95
ssg83
g3333
sg76
(lp3340
S'global_settings'
p3341
asbag69
(g90
g71
NtRp3342
(dp3343
g74
(dp3344
g101
g102
ssg83
g3333
sg76
(lp3345
S':'
asbag69
(g90
g71
NtRp3346
(dp3347
g74
(dp3348
sg83
g3333
sg76
(lp3349
g69
(g70
g71
NtRp3350
(dp3351
g74
(dp3352
g82
I5
ssg83
g3346
sg76
(lp3353
g69
(g78
g71
NtRp3354
(dp3355
g74
(dp3356
g82
I4
ssg83
Nsg76
(lp3357
g69
(g85
g71
NtRp3358
(dp3359
g74
(dp3360
sg83
g3354
sg76
(lp3361
g69
(g90
g71
NtRp3362
(dp3363
g74
(dp3364
g94
g95
ssg83
g3358
sg76
(lp3365
g2171
asbag69
(g90
g71
NtRp3366
(dp3367
g74
(dp3368
g101
g102
ssg83
g3358
sg76
(lp3369
S':'
asbag69
(g90
g71
NtRp3370
(dp3371
g74
(dp3372
sg83
g3358
sg76
(lp3373
g69
(g70
g71
NtRp3374
(dp3375
g74
(dp3376
g82
I4
ssg83
g3370
sg76
(lp3377
S"set(['/var/www/web2py_curso/applications/home/', '/var/www/web2py_curso/applications/admin/', '/var/www/web2py_curso/applications/projeto/'])"
p3378
asbasbasbag69
(g85
g71
NtRp3379
(dp3380
g74
(dp3381
sg83
g3354
sg76
(lp3382
g69
(g90
g71
NtRp3383
(dp3384
g74
(dp3385
g94
g95
ssg83
g3379
sg76
(lp3386
g2193
asbag69
(g90
g71
NtRp3387
(dp3388
g74
(dp3389
g101
g102
ssg83
g3379
sg76
(lp3390
S':'
asbag69
(g90
g71
NtRp3391
(dp3392
g74
(dp3393
sg83
g3379
sg76
(lp3394
g69
(g70
g71
NtRp3395
(dp3396
g74
(dp3397
g82
I4
ssg83
g3391
sg76
(lp3398
g2206
asbasbasbag69
(g85
g71
NtRp3399
(dp3400
g74
(dp3401
sg83
g3354
sg76
(lp3402
g69
(g90
g71
NtRp3403
(dp3404
g74
(dp3405
g94
g95
ssg83
g3399
sg76
(lp3406
g2215
asbag69
(g90
g71
NtRp3407
(dp3408
g74
(dp3409
g101
g102
ssg83
g3399
sg76
(lp3410
S':'
asbag69
(g90
g71
NtRp3411
(dp3412
g74
(dp3413
sg83
g3399
sg76
(lp3414
g69
(g70
g71
NtRp3415
(dp3416
g74
(dp3417
g82
I4
ssg83
g3411
sg76
(lp3418
g69
(g78
g71
NtRp3419
(dp3420
g74
(dp3421
g82
I3
ssg83
Nsg76
(lp3422
sbasbasbasbag69
(g85
g71
NtRp3423
(dp3424
g74
(dp3425
sg83
g3354
sg76
(lp3426
g69
(g90
g71
NtRp3427
(dp3428
g74
(dp3429
g94
g95
ssg83
g3423
sg76
(lp3430
g2240
asbag69
(g90
g71
NtRp3431
(dp3432
g74
(dp3433
g101
g102
ssg83
g3423
sg76
(lp3434
S':'
asbag69
(g90
g71
NtRp3435
(dp3436
g74
(dp3437
sg83
g3423
sg76
(lp3438
g69
(g70
g71
NtRp3439
(dp3440
g74
(dp3441
g82
I4
ssg83
g3435
sg76
(lp3442
S"<Values at 0x188e488: {'verbose': False, 'ip': '127.0.0.1', 'with_scheduler': False, 'ips': [], 'shutdown_timeout': 5, 'taskbar': False, 'port': 8000, 'maxthreads': None, 'softcron': False, 'server_name': 'fernado-desktop', 'bpython': False, 'nogui': False, 'pid_filename': 'httpserver.pid', 'extcron': False, 'runcron': False, 'run_system_tests': False, 'test': None, 'folder': '/var/www/web2py_curso', 'config': '', 'minthreads': None, 'winservice': '', 'shell': None, 'run': '', 'log_filename': 'httpserver.log', 'debuglevel': 30, 'args': [''], 'socket_timeout': 5, 'ssl_ca_certificate': None, 'scheduler': None, 'profiler_filename': None, 'ssl_private_key': '', 'scheduler_groups': None, 'password': '123456', 'request_queue_size': 5, 'ssl_certificate': '', 'cronjob': False, 'numthreads': None, 'quiet': False, 'interfaces': None, 'import_models': False, 'timeout': 10, 'plain': False, 'nobanner': False}>"
p3443
asbasbasbag69
(g85
g71
NtRp3444
(dp3445
g74
(dp3446
sg83
g3354
sg76
(lp3447
g69
(g90
g71
NtRp3448
(dp3449
g74
(dp3450
g94
g95
ssg83
g3444
sg76
(lp3451
g2262
asbag69
(g90
g71
NtRp3452
(dp3453
g74
(dp3454
g101
g102
ssg83
g3444
sg76
(lp3455
S':'
asbag69
(g90
g71
NtRp3456
(dp3457
g74
(dp3458
sg83
g3444
sg76
(lp3459
g69
(g70
g71
NtRp3460
(dp3461
g74
(dp3462
g82
I4
ssg83
g3456
sg76
(lp3463
S'set([])'
p3464
asbasbasbag69
(g85
g71
NtRp3465
(dp3466
g74
(dp3467
sg83
g3354
sg76
(lp3468
g69
(g90
g71
NtRp3469
(dp3470
g74
(dp3471
g94
g95
ssg83
g3465
sg76
(lp3472
g2284
asbag69
(g90
g71
NtRp3473
(dp3474
g74
(dp3475
g101
g102
ssg83
g3465
sg76
(lp3476
S':'
asbag69
(g90
g71
NtRp3477
(dp3478
g74
(dp3479
sg83
g3465
sg76
(lp3480
g69
(g70
g71
NtRp3481
(dp3482
g74
(dp3483
g82
I4
ssg83
g3477
sg76
(lp3484
g112
asbasbasbag69
(g85
g71
NtRp3485
(dp3486
g74
(dp3487
sg83
g3354
sg76
(lp3488
g69
(g90
g71
NtRp3489
(dp3490
g74
(dp3491
g94
g95
ssg83
g3485
sg76
(lp3492
g2305
asbag69
(g90
g71
NtRp3493
(dp3494
g74
(dp3495
g101
g102
ssg83
g3485
sg76
(lp3496
S':'
asbag69
(g90
g71
NtRp3497
(dp3498
g74
(dp3499
sg83
g3485
sg76
(lp3500
g69
(g70
g71
NtRp3501
(dp3502
g74
(dp3503
g82
I4
ssg83
g3497
sg76
(lp3504
g2318
asbasbasbag69
(g85
g71
NtRp3505
(dp3506
g74
(dp3507
sg83
g3354
sg76
(lp3508
g69
(g90
g71
NtRp3509
(dp3510
g74
(dp3511
g94
g95
ssg83
g3505
sg76
(lp3512
g2547
asbag69
(g90
g71
NtRp3513
(dp3514
g74
(dp3515
g101
g102
ssg83
g3505
sg76
(lp3516
S':'
asbag69
(g90
g71
NtRp3517
(dp3518
g74
(dp3519
sg83
g3505
sg76
(lp3520
g69
(g70
g71
NtRp3521
(dp3522
g74
(dp3523
g82
I4
ssg83
g3517
sg76
(lp3524
g112
asbasbasbag69
(g85
g71
NtRp3525
(dp3526
g74
(dp3527
sg83
g3354
sg76
(lp3528
g69
(g90
g71
NtRp3529
(dp3530
g74
(dp3531
g94
g95
ssg83
g3525
sg76
(lp3532
g2568
asbag69
(g90
g71
NtRp3533
(dp3534
g74
(dp3535
g101
g102
ssg83
g3525
sg76
(lp3536
S':'
asbag69
(g90
g71
NtRp3537
(dp3538
g74
(dp3539
sg83
g3525
sg76
(lp3540
g69
(g70
g71
NtRp3541
(dp3542
g74
(dp3543
g82
I4
ssg83
g3537
sg76
(lp3544
g112
asbasbasbag69
(g85
g71
NtRp3545
(dp3546
g74
(dp3547
sg83
g3354
sg76
(lp3548
g69
(g90
g71
NtRp3549
(dp3550
g74
(dp3551
g94
g95
ssg83
g3545
sg76
(lp3552
g2589
asbag69
(g90
g71
NtRp3553
(dp3554
g74
(dp3555
g101
g102
ssg83
g3545
sg76
(lp3556
S':'
asbag69
(g90
g71
NtRp3557
(dp3558
g74
(dp3559
sg83
g3545
sg76
(lp3560
g69
(g70
g71
NtRp3561
(dp3562
g74
(dp3563
g82
I4
ssg83
g3557
sg76
(lp3564
g69
(g78
g71
NtRp3565
(dp3566
g74
(dp3567
g82
I3
ssg83
Nsg76
(lp3568
g69
(g85
g71
NtRp3569
(dp3570
g74
(dp3571
sg83
g3565
sg76
(lp3572
g69
(g90
g71
NtRp3573
(dp3574
g74
(dp3575
sg83
g3569
sg76
(lp3576
g69
(g70
g71
NtRp3577
(dp3578
g74
(dp3579
g82
I3
ssg83
g3573
sg76
(lp3580
g2618
asbasbasbag69
(g85
g71
NtRp3581
(dp3582
g74
(dp3583
sg83
g3565
sg76
(lp3584
g69
(g90
g71
NtRp3585
(dp3586
g74
(dp3587
sg83
g3581
sg76
(lp3588
g69
(g70
g71
NtRp3589
(dp3590
g74
(dp3591
g82
I3
ssg83
g3585
sg76
(lp3592
g2631
asbasbasbag69
(g85
g71
NtRp3593
(dp3594
g74
(dp3595
sg83
g3565
sg76
(lp3596
g69
(g90
g71
NtRp3597
(dp3598
g74
(dp3599
sg83
g3593
sg76
(lp3600
g69
(g70
g71
NtRp3601
(dp3602
g74
(dp3603
g82
I3
ssg83
g3597
sg76
(lp3604
g2644
asbasbasbag69
(g85
g71
NtRp3605
(dp3606
g74
(dp3607
sg83
g3565
sg76
(lp3608
g69
(g90
g71
NtRp3609
(dp3610
g74
(dp3611
sg83
g3605
sg76
(lp3612
g69
(g70
g71
NtRp3613
(dp3614
g74
(dp3615
g82
I3
ssg83
g3609
sg76
(lp3616
g2657
asbasbasbag69
(g85
g71
NtRp3617
(dp3618
g74
(dp3619
sg83
g3565
sg76
(lp3620
g69
(g90
g71
NtRp3621
(dp3622
g74
(dp3623
sg83
g3617
sg76
(lp3624
g69
(g70
g71
NtRp3625
(dp3626
g74
(dp3627
g82
I3
ssg83
g3621
sg76
(lp3628
g2670
asbasbasbasbasbasbasbag69
(g85
g71
NtRp3629
(dp3630
g74
(dp3631
sg83
g3354
sg76
(lp3632
g69
(g90
g71
NtRp3633
(dp3634
g74
(dp3635
g94
g95
ssg83
g3629
sg76
(lp3636
g2962
asbag69
(g90
g71
NtRp3637
(dp3638
g74
(dp3639
g101
g102
ssg83
g3629
sg76
(lp3640
S':'
asbag69
(g90
g71
NtRp3641
(dp3642
g74
(dp3643
sg83
g3629
sg76
(lp3644
g69
(g70
g71
NtRp3645
(dp3646
g74
(dp3647
g82
I4
ssg83
g3641
sg76
(lp3648
g69
(g78
g71
NtRp3649
(dp3650
g74
(dp3651
g82
I3
ssg83
Nsg76
(lp3652
g69
(g85
g71
NtRp3653
(dp3654
g74
(dp3655
sg83
g3649
sg76
(lp3656
g69
(g90
g71
NtRp3657
(dp3658
g74
(dp3659
sg83
g3653
sg76
(lp3660
g69
(g70
g71
NtRp3661
(dp3662
g74
(dp3663
g82
I3
ssg83
g3657
sg76
(lp3664
S'2'
asbasbasbag69
(g85
g71
NtRp3665
(dp3666
g74
(dp3667
sg83
g3649
sg76
(lp3668
g69
(g90
g71
NtRp3669
(dp3670
g74
(dp3671
sg83
g3665
sg76
(lp3672
g69
(g70
g71
NtRp3673
(dp3674
g74
(dp3675
g82
I3
ssg83
g3669
sg76
(lp3676
S'3'
asbasbasbag69
(g85
g71
NtRp3677
(dp3678
g74
(dp3679
sg83
g3649
sg76
(lp3680
g69
(g90
g71
NtRp3681
(dp3682
g74
(dp3683
sg83
g3677
sg76
(lp3684
g69
(g70
g71
NtRp3685
(dp3686
g74
(dp3687
g82
I3
ssg83
g3681
sg76
(lp3688
S'2'
asbasbasbag69
(g85
g71
NtRp3689
(dp3690
g74
(dp3691
sg83
g3649
sg76
(lp3692
g69
(g90
g71
NtRp3693
(dp3694
g74
(dp3695
sg83
g3689
sg76
(lp3696
g69
(g70
g71
NtRp3697
(dp3698
g74
(dp3699
g82
I3
ssg83
g3693
sg76
(lp3700
S'datetime.datetime(2012, 12, 17, 15, 3, 30)'
p3701
asbasbasbag69
(g85
g71
NtRp3702
(dp3703
g74
(dp3704
sg83
g3649
sg76
(lp3705
g69
(g90
g71
NtRp3706
(dp3707
g74
(dp3708
sg83
g3702
sg76
(lp3709
g69
(g70
g71
NtRp3710
(dp3711
g74
(dp3712
g82
I3
ssg83
g3706
sg76
(lp3713
g3040
asbasbasbasbasbasbasbasbasbasbasbag69
(g85
g71
NtRp3714
(dp3715
g74
(dp3716
sg83
g79
sg76
(lp3717
g69
(g90
g71
NtRp3718
(dp3719
g74
(dp3720
g94
g95
ssg83
g3714
sg76
(lp3721
S'is_https'
p3722
asbag69
(g90
g71
NtRp3723
(dp3724
g74
(dp3725
g101
g102
ssg83
g3714
sg76
(lp3726
S':'
asbag69
(g90
g71
NtRp3727
(dp3728
g74
(dp3729
sg83
g3714
sg76
(lp3730
g69
(g70
g71
NtRp3731
(dp3732
g74
(dp3733
g82
I5
ssg83
g3727
sg76
(lp3734
g112
asbasbasbag69
(g85
g71
NtRp3735
(dp3736
g74
(dp3737
sg83
g79
sg76
(lp3738
g69
(g90
g71
NtRp3739
(dp3740
g74
(dp3741
g94
g95
ssg83
g3735
sg76
(lp3742
S'is_local'
p3743
asbag69
(g90
g71
NtRp3744
(dp3745
g74
(dp3746
g101
g102
ssg83
g3735
sg76
(lp3747
S':'
asbag69
(g90
g71
NtRp3748
(dp3749
g74
(dp3750
sg83
g3735
sg76
(lp3751
g69
(g70
g71
NtRp3752
(dp3753
g74
(dp3754
g82
I5
ssg83
g3748
sg76
(lp3755
g3149
asbasbasbag69
(g85
g71
NtRp3756
(dp3757
g74
(dp3758
sg83
g79
sg76
(lp3759
g69
(g90
g71
NtRp3760
(dp3761
g74
(dp3762
g94
g95
ssg83
g3756
sg76
(lp3763
S'is_restful'
p3764
asbag69
(g90
g71
NtRp3765
(dp3766
g74
(dp3767
g101
g102
ssg83
g3756
sg76
(lp3768
S':'
asbag69
(g90
g71
NtRp3769
(dp3770
g74
(dp3771
sg83
g3756
sg76
(lp3772
g69
(g70
g71
NtRp3773
(dp3774
g74
(dp3775
g82
I5
ssg83
g3769
sg76
(lp3776
g112
asbasbasbag69
(g85
g71
NtRp3777
(dp3778
g74
(dp3779
sg83
g79
sg76
(lp3780
g69
(g90
g71
NtRp3781
(dp3782
g74
(dp3783
g94
g95
ssg83
g3777
sg76
(lp3784
S'now'
p3785
asbag69
(g90
g71
NtRp3786
(dp3787
g74
(dp3788
g101
g102
ssg83
g3777
sg76
(lp3789
S':'
asbag69
(g90
g71
NtRp3790
(dp3791
g74
(dp3792
sg83
g3777
sg76
(lp3793
g69
(g70
g71
NtRp3794
(dp3795
g74
(dp3796
g82
I5
ssg83
g3790
sg76
(lp3797
S'datetime.datetime(2013, 2, 5, 17, 53, 59, 471052)'
p3798
asbasbasbag69
(g85
g71
NtRp3799
(dp3800
g74
(dp3801
sg83
g79
sg76
(lp3802
g69
(g90
g71
NtRp3803
(dp3804
g74
(dp3805
g94
g95
ssg83
g3799
sg76
(lp3806
S'post_vars'
p3807
asbag69
(g90
g71
NtRp3808
(dp3809
g74
(dp3810
g101
g102
ssg83
g3799
sg76
(lp3811
S':'
asbag69
(g90
g71
NtRp3812
(dp3813
g74
(dp3814
sg83
g3799
sg76
(lp3815
g69
(g70
g71
NtRp3816
(dp3817
g74
(dp3818
g82
I5
ssg83
g3812
sg76
(lp3819
g69
(g78
g71
NtRp3820
(dp3821
g74
(dp3822
g82
I4
ssg83
Nsg76
(lp3823
sbasbasbasbag69
(g85
g71
NtRp3824
(dp3825
g74
(dp3826
sg83
g79
sg76
(lp3827
g69
(g90
g71
NtRp3828
(dp3829
g74
(dp3830
g94
g95
ssg83
g3824
sg76
(lp3831
S'url'
p3832
asbag69
(g90
g71
NtRp3833
(dp3834
g74
(dp3835
g101
g102
ssg83
g3824
sg76
(lp3836
S':'
asbag69
(g90
g71
NtRp3837
(dp3838
g74
(dp3839
sg83
g3824
sg76
(lp3840
g69
(g70
g71
NtRp3841
(dp3842
g74
(dp3843
g82
I5
ssg83
g3837
sg76
(lp3844
g2692
asbasbasbag69
(g85
g71
NtRp3845
(dp3846
g74
(dp3847
sg83
g79
sg76
(lp3848
g69
(g90
g71
NtRp3849
(dp3850
g74
(dp3851
g94
g95
ssg83
g3845
sg76
(lp3852
S'utcnow'
p3853
asbag69
(g90
g71
NtRp3854
(dp3855
g74
(dp3856
g101
g102
ssg83
g3845
sg76
(lp3857
S':'
asbag69
(g90
g71
NtRp3858
(dp3859
g74
(dp3860
sg83
g3845
sg76
(lp3861
g69
(g70
g71
NtRp3862
(dp3863
g74
(dp3864
g82
I5
ssg83
g3858
sg76
(lp3865
S'datetime.datetime(2013, 2, 5, 19, 53, 59, 471114)'
p3866
asbasbasbag69
(g85
g71
NtRp3867
(dp3868
g74
(dp3869
sg83
g79
sg76
(lp3870
g69
(g90
g71
NtRp3871
(dp3872
g74
(dp3873
g94
g95
ssg83
g3867
sg76
(lp3874
S'uuid'
p3875
asbag69
(g90
g71
NtRp3876
(dp3877
g74
(dp3878
g101
g102
ssg83
g3867
sg76
(lp3879
S':'
asbag69
(g90
g71
NtRp3880
(dp3881
g74
(dp3882
sg83
g3867
sg76
(lp3883
g69
(g70
g71
NtRp3884
(dp3885
g74
(dp3886
g82
I5
ssg83
g3880
sg76
(lp3887
S'projeto/127.0.0.1.2013-02-05.17-53-59.229560fe-8a9f-4d1a-b4c5-f917a0230afb'
p3888
asbasbasbag69
(g85
g71
NtRp3889
(dp3890
g74
(dp3891
sg83
g79
sg76
(lp3892
g69
(g90
g71
NtRp3893
(dp3894
g74
(dp3895
g94
g95
ssg83
g3889
sg76
(lp3896
S'vars'
p3897
asbag69
(g90
g71
NtRp3898
(dp3899
g74
(dp3900
g101
g102
ssg83
g3889
sg76
(lp3901
S':'
asbag69
(g90
g71
NtRp3902
(dp3903
g74
(dp3904
sg83
g3889
sg76
(lp3905
g69
(g70
g71
NtRp3906
(dp3907
g74
(dp3908
g82
I5
ssg83
g3902
sg76
(lp3909
g69
(g78
g71
NtRp3910
(dp3911
g74
(dp3912
g82
I4
ssg83
Nsg76
(lp3913
sbasbasbasbag69
(g85
g71
NtRp3914
(dp3915
g74
(dp3916
sg83
g79
sg76
(lp3917
g69
(g90
g71
NtRp3918
(dp3919
g74
(dp3920
g94
g95
ssg83
g3914
sg76
(lp3921
S'wsgi'
p3922
asbag69
(g90
g71
NtRp3923
(dp3924
g74
(dp3925
g101
g102
ssg83
g3914
sg76
(lp3926
S':'
asbag69
(g90
g71
NtRp3927
(dp3928
g74
(dp3929
sg83
g3914
sg76
(lp3930
g69
(g70
g71
NtRp3931
(dp3932
g74
(dp3933
g82
I5
ssg83
g3927
sg76
(lp3934
g69
(g78
g71
NtRp3935
(dp3936
g74
(dp3937
g82
I4
ssg83
Nsg76
(lp3938
g69
(g85
g71
NtRp3939
(dp3940
g74
(dp3941
sg83
g3935
sg76
(lp3942
g69
(g90
g71
NtRp3943
(dp3944
g74
(dp3945
g94
g95
ssg83
g3939
sg76
(lp3946
S'environ'
p3947
asbag69
(g90
g71
NtRp3948
(dp3949
g74
(dp3950
g101
g102
ssg83
g3939
sg76
(lp3951
S':'
asbag69
(g90
g71
NtRp3952
(dp3953
g74
(dp3954
sg83
g3939
sg76
(lp3955
g69
(g70
g71
NtRp3956
(dp3957
g74
(dp3958
g82
I4
ssg83
g3952
sg76
(lp3959
g69
(g78
g71
NtRp3960
(dp3961
g74
(dp3962
g82
I3
ssg83
Nsg76
(lp3963
g69
(g85
g71
NtRp3964
(dp3965
g74
(dp3966
sg83
g3960
sg76
(lp3967
g69
(g90
g71
NtRp3968
(dp3969
g74
(dp3970
g94
g95
ssg83
g3964
sg76
(lp3971
S'HTTP_ACCEPT'
p3972
asbag69
(g90
g71
NtRp3973
(dp3974
g74
(dp3975
g101
g102
ssg83
g3964
sg76
(lp3976
S':'
asbag69
(g90
g71
NtRp3977
(dp3978
g74
(dp3979
sg83
g3964
sg76
(lp3980
g69
(g70
g71
NtRp3981
(dp3982
g74
(dp3983
g82
I3
ssg83
g3977
sg76
(lp3984
g2340
asbasbasbag69
(g85
g71
NtRp3985
(dp3986
g74
(dp3987
sg83
g3960
sg76
(lp3988
g69
(g90
g71
NtRp3989
(dp3990
g74
(dp3991
g94
g95
ssg83
g3985
sg76
(lp3992
S'HTTP_ACCEPT_CHARSET'
p3993
asbag69
(g90
g71
NtRp3994
(dp3995
g74
(dp3996
g101
g102
ssg83
g3985
sg76
(lp3997
S':'
asbag69
(g90
g71
NtRp3998
(dp3999
g74
(dp4000
sg83
g3985
sg76
(lp4001
g69
(g70
g71
NtRp4002
(dp4003
g74
(dp4004
g82
I3
ssg83
g3998
sg76
(lp4005
g2362
asbasbasbag69
(g85
g71
NtRp4006
(dp4007
g74
(dp4008
sg83
g3960
sg76
(lp4009
g69
(g90
g71
NtRp4010
(dp4011
g74
(dp4012
g94
g95
ssg83
g4006
sg76
(lp4013
S'HTTP_ACCEPT_ENCODING'
p4014
asbag69
(g90
g71
NtRp4015
(dp4016
g74
(dp4017
g101
g102
ssg83
g4006
sg76
(lp4018
S':'
asbag69
(g90
g71
NtRp4019
(dp4020
g74
(dp4021
sg83
g4006
sg76
(lp4022
g69
(g70
g71
NtRp4023
(dp4024
g74
(dp4025
g82
I3
ssg83
g4019
sg76
(lp4026
g2384
asbasbasbag69
(g85
g71
NtRp4027
(dp4028
g74
(dp4029
sg83
g3960
sg76
(lp4030
g69
(g90
g71
NtRp4031
(dp4032
g74
(dp4033
g94
g95
ssg83
g4027
sg76
(lp4034
S'HTTP_ACCEPT_LANGUAGE'
p4035
asbag69
(g90
g71
NtRp4036
(dp4037
g74
(dp4038
g101
g102
ssg83
g4027
sg76
(lp4039
S':'
asbag69
(g90
g71
NtRp4040
(dp4041
g74
(dp4042
sg83
g4027
sg76
(lp4043
g69
(g70
g71
NtRp4044
(dp4045
g74
(dp4046
g82
I3
ssg83
g4040
sg76
(lp4047
g2406
asbasbasbag69
(g85
g71
NtRp4048
(dp4049
g74
(dp4050
sg83
g3960
sg76
(lp4051
g69
(g90
g71
NtRp4052
(dp4053
g74
(dp4054
g94
g95
ssg83
g4048
sg76
(lp4055
S'HTTP_CACHE_CONTROL'
p4056
asbag69
(g90
g71
NtRp4057
(dp4058
g74
(dp4059
g101
g102
ssg83
g4048
sg76
(lp4060
S':'
asbag69
(g90
g71
NtRp4061
(dp4062
g74
(dp4063
sg83
g4048
sg76
(lp4064
g69
(g70
g71
NtRp4065
(dp4066
g74
(dp4067
g82
I3
ssg83
g4061
sg76
(lp4068
g2428
asbasbasbag69
(g85
g71
NtRp4069
(dp4070
g74
(dp4071
sg83
g3960
sg76
(lp4072
g69
(g90
g71
NtRp4073
(dp4074
g74
(dp4075
g94
g95
ssg83
g4069
sg76
(lp4076
S'HTTP_CONNECTION'
p4077
asbag69
(g90
g71
NtRp4078
(dp4079
g74
(dp4080
g101
g102
ssg83
g4069
sg76
(lp4081
S':'
asbag69
(g90
g71
NtRp4082
(dp4083
g74
(dp4084
sg83
g4069
sg76
(lp4085
g69
(g70
g71
NtRp4086
(dp4087
g74
(dp4088
g82
I3
ssg83
g4082
sg76
(lp4089
g2450
asbasbasbag69
(g85
g71
NtRp4090
(dp4091
g74
(dp4092
sg83
g3960
sg76
(lp4093
g69
(g90
g71
NtRp4094
(dp4095
g74
(dp4096
g94
g95
ssg83
g4090
sg76
(lp4097
S'HTTP_COOKIE'
p4098
asbag69
(g90
g71
NtRp4099
(dp4100
g74
(dp4101
g101
g102
ssg83
g4090
sg76
(lp4102
S':'
asbag69
(g90
g71
NtRp4103
(dp4104
g74
(dp4105
sg83
g4090
sg76
(lp4106
g69
(g70
g71
NtRp4107
(dp4108
g74
(dp4109
g82
I3
ssg83
g4103
sg76
(lp4110
g2472
asbasbasbag69
(g85
g71
NtRp4111
(dp4112
g74
(dp4113
sg83
g3960
sg76
(lp4114
g69
(g90
g71
NtRp4115
(dp4116
g74
(dp4117
g94
g95
ssg83
g4111
sg76
(lp4118
S'HTTP_HOST'
p4119
asbag69
(g90
g71
NtRp4120
(dp4121
g74
(dp4122
g101
g102
ssg83
g4111
sg76
(lp4123
S':'
asbag69
(g90
g71
NtRp4124
(dp4125
g74
(dp4126
sg83
g4111
sg76
(lp4127
g69
(g70
g71
NtRp4128
(dp4129
g74
(dp4130
g82
I3
ssg83
g4124
sg76
(lp4131
g2494
asbasbasbag69
(g85
g71
NtRp4132
(dp4133
g74
(dp4134
sg83
g3960
sg76
(lp4135
g69
(g90
g71
NtRp4136
(dp4137
g74
(dp4138
g94
g95
ssg83
g4132
sg76
(lp4139
S'HTTP_REFERER'
p4140
asbag69
(g90
g71
NtRp4141
(dp4142
g74
(dp4143
g101
g102
ssg83
g4132
sg76
(lp4144
S':'
asbag69
(g90
g71
NtRp4145
(dp4146
g74
(dp4147
sg83
g4132
sg76
(lp4148
g69
(g70
g71
NtRp4149
(dp4150
g74
(dp4151
g82
I3
ssg83
g4145
sg76
(lp4152
g2516
asbasbasbag69
(g85
g71
NtRp4153
(dp4154
g74
(dp4155
sg83
g3960
sg76
(lp4156
g69
(g90
g71
NtRp4157
(dp4158
g74
(dp4159
g94
g95
ssg83
g4153
sg76
(lp4160
S'HTTP_USER_AGENT'
p4161
asbag69
(g90
g71
NtRp4162
(dp4163
g74
(dp4164
g101
g102
ssg83
g4153
sg76
(lp4165
S':'
asbag69
(g90
g71
NtRp4166
(dp4167
g74
(dp4168
sg83
g4153
sg76
(lp4169
g69
(g70
g71
NtRp4170
(dp4171
g74
(dp4172
g82
I3
ssg83
g4166
sg76
(lp4173
g2538
asbasbasbag69
(g85
g71
NtRp4174
(dp4175
g74
(dp4176
sg83
g3960
sg76
(lp4177
g69
(g90
g71
NtRp4178
(dp4179
g74
(dp4180
g94
g95
ssg83
g4174
sg76
(lp4181
S'PATH_INFO'
p4182
asbag69
(g90
g71
NtRp4183
(dp4184
g74
(dp4185
g101
g102
ssg83
g4174
sg76
(lp4186
S':'
asbag69
(g90
g71
NtRp4187
(dp4188
g74
(dp4189
sg83
g4174
sg76
(lp4190
g69
(g70
g71
NtRp4191
(dp4192
g74
(dp4193
g82
I3
ssg83
g4187
sg76
(lp4194
g2692
asbasbasbag69
(g85
g71
NtRp4195
(dp4196
g74
(dp4197
sg83
g3960
sg76
(lp4198
g69
(g90
g71
NtRp4199
(dp4200
g74
(dp4201
g94
g95
ssg83
g4195
sg76
(lp4202
S'QUERY_STRING'
p4203
asbag69
(g90
g71
NtRp4204
(dp4205
g74
(dp4206
g101
g102
ssg83
g4195
sg76
(lp4207
S':'
asbag69
(g90
g71
NtRp4208
(dp4209
g74
(dp4210
sg83
g4195
sg76
(lp4211
g69
(g70
g71
NtRp4212
(dp4213
g74
(dp4214
g82
I3
ssg83
g4208
sg76
(lp4215
g2714
asbasbasbag69
(g85
g71
NtRp4216
(dp4217
g74
(dp4218
sg83
g3960
sg76
(lp4219
g69
(g90
g71
NtRp4220
(dp4221
g74
(dp4222
g94
g95
ssg83
g4216
sg76
(lp4223
S'REMOTE_ADDR'
p4224
asbag69
(g90
g71
NtRp4225
(dp4226
g74
(dp4227
g101
g102
ssg83
g4216
sg76
(lp4228
S':'
asbag69
(g90
g71
NtRp4229
(dp4230
g74
(dp4231
sg83
g4216
sg76
(lp4232
g69
(g70
g71
NtRp4233
(dp4234
g74
(dp4235
g82
I3
ssg83
g4229
sg76
(lp4236
g224
asbasbasbag69
(g85
g71
NtRp4237
(dp4238
g74
(dp4239
sg83
g3960
sg76
(lp4240
g69
(g90
g71
NtRp4241
(dp4242
g74
(dp4243
g94
g95
ssg83
g4237
sg76
(lp4244
S'REMOTE_PORT'
p4245
asbag69
(g90
g71
NtRp4246
(dp4247
g74
(dp4248
g101
g102
ssg83
g4237
sg76
(lp4249
S':'
asbag69
(g90
g71
NtRp4250
(dp4251
g74
(dp4252
sg83
g4237
sg76
(lp4253
g69
(g70
g71
NtRp4254
(dp4255
g74
(dp4256
g82
I3
ssg83
g4250
sg76
(lp4257
g2757
asbasbasbag69
(g85
g71
NtRp4258
(dp4259
g74
(dp4260
sg83
g3960
sg76
(lp4261
g69
(g90
g71
NtRp4262
(dp4263
g74
(dp4264
g94
g95
ssg83
g4258
sg76
(lp4265
S'REQUEST_METHOD'
p4266
asbag69
(g90
g71
NtRp4267
(dp4268
g74
(dp4269
g101
g102
ssg83
g4258
sg76
(lp4270
S':'
asbag69
(g90
g71
NtRp4271
(dp4272
g74
(dp4273
sg83
g4258
sg76
(lp4274
g69
(g70
g71
NtRp4275
(dp4276
g74
(dp4277
g82
I3
ssg83
g4271
sg76
(lp4278
g2779
asbasbasbag69
(g85
g71
NtRp4279
(dp4280
g74
(dp4281
sg83
g3960
sg76
(lp4282
g69
(g90
g71
NtRp4283
(dp4284
g74
(dp4285
g94
g95
ssg83
g4279
sg76
(lp4286
S'REQUEST_URI'
p4287
asbag69
(g90
g71
NtRp4288
(dp4289
g74
(dp4290
g101
g102
ssg83
g4279
sg76
(lp4291
S':'
asbag69
(g90
g71
NtRp4292
(dp4293
g74
(dp4294
sg83
g4279
sg76
(lp4295
g69
(g70
g71
NtRp4296
(dp4297
g74
(dp4298
g82
I3
ssg83
g4292
sg76
(lp4299
g2801
asbasbasbag69
(g85
g71
NtRp4300
(dp4301
g74
(dp4302
sg83
g3960
sg76
(lp4303
g69
(g90
g71
NtRp4304
(dp4305
g74
(dp4306
g94
g95
ssg83
g4300
sg76
(lp4307
S'SCRIPT_NAME'
p4308
asbag69
(g90
g71
NtRp4309
(dp4310
g74
(dp4311
g101
g102
ssg83
g4300
sg76
(lp4312
S':'
asbag69
(g90
g71
NtRp4313
(dp4314
g74
(dp4315
sg83
g4300
sg76
(lp4316
g69
(g70
g71
NtRp4317
(dp4318
g74
(dp4319
g82
I3
ssg83
g4313
sg76
(lp4320
S''
asbasbasbag69
(g85
g71
NtRp4321
(dp4322
g74
(dp4323
sg83
g3960
sg76
(lp4324
g69
(g90
g71
NtRp4325
(dp4326
g74
(dp4327
g94
g95
ssg83
g4321
sg76
(lp4328
S'SERVER_NAME'
p4329
asbag69
(g90
g71
NtRp4330
(dp4331
g74
(dp4332
g101
g102
ssg83
g4321
sg76
(lp4333
S':'
asbag69
(g90
g71
NtRp4334
(dp4335
g74
(dp4336
sg83
g4321
sg76
(lp4337
g69
(g70
g71
NtRp4338
(dp4339
g74
(dp4340
g82
I3
ssg83
g4334
sg76
(lp4341
g2844
asbasbasbag69
(g85
g71
NtRp4342
(dp4343
g74
(dp4344
sg83
g3960
sg76
(lp4345
g69
(g90
g71
NtRp4346
(dp4347
g74
(dp4348
g94
g95
ssg83
g4342
sg76
(lp4349
S'SERVER_PORT'
p4350
asbag69
(g90
g71
NtRp4351
(dp4352
g74
(dp4353
g101
g102
ssg83
g4342
sg76
(lp4354
S':'
asbag69
(g90
g71
NtRp4355
(dp4356
g74
(dp4357
sg83
g4342
sg76
(lp4358
g69
(g70
g71
NtRp4359
(dp4360
g74
(dp4361
g82
I3
ssg83
g4355
sg76
(lp4362
g2866
asbasbasbag69
(g85
g71
NtRp4363
(dp4364
g74
(dp4365
sg83
g3960
sg76
(lp4366
g69
(g90
g71
NtRp4367
(dp4368
g74
(dp4369
g94
g95
ssg83
g4363
sg76
(lp4370
S'SERVER_PROTOCOL'
p4371
asbag69
(g90
g71
NtRp4372
(dp4373
g74
(dp4374
g101
g102
ssg83
g4363
sg76
(lp4375
S':'
asbag69
(g90
g71
NtRp4376
(dp4377
g74
(dp4378
sg83
g4363
sg76
(lp4379
g69
(g70
g71
NtRp4380
(dp4381
g74
(dp4382
g82
I3
ssg83
g4376
sg76
(lp4383
g2888
asbasbasbag69
(g85
g71
NtRp4384
(dp4385
g74
(dp4386
sg83
g3960
sg76
(lp4387
g69
(g90
g71
NtRp4388
(dp4389
g74
(dp4390
g94
g95
ssg83
g4384
sg76
(lp4391
S'SERVER_SOFTWARE'
p4392
asbag69
(g90
g71
NtRp4393
(dp4394
g74
(dp4395
g101
g102
ssg83
g4384
sg76
(lp4396
S':'
asbag69
(g90
g71
NtRp4397
(dp4398
g74
(dp4399
sg83
g4384
sg76
(lp4400
g69
(g70
g71
NtRp4401
(dp4402
g74
(dp4403
g82
I3
ssg83
g4397
sg76
(lp4404
g2910
asbasbasbag69
(g85
g71
NtRp4405
(dp4406
g74
(dp4407
sg83
g3960
sg76
(lp4408
g69
(g90
g71
NtRp4409
(dp4410
g74
(dp4411
g94
g95
ssg83
g4405
sg76
(lp4412
S'WEB2PY_ORIGINAL_URI'
p4413
asbag69
(g90
g71
NtRp4414
(dp4415
g74
(dp4416
g101
g102
ssg83
g4405
sg76
(lp4417
S':'
asbag69
(g90
g71
NtRp4418
(dp4419
g74
(dp4420
sg83
g4405
sg76
(lp4421
g69
(g70
g71
NtRp4422
(dp4423
g74
(dp4424
g82
I3
ssg83
g4418
sg76
(lp4425
g2932
asbasbasbag69
(g85
g71
NtRp4426
(dp4427
g74
(dp4428
sg83
g3960
sg76
(lp4429
g69
(g90
g71
NtRp4430
(dp4431
g74
(dp4432
g94
g95
ssg83
g4426
sg76
(lp4433
S'wsgi.errors'
p4434
asbag69
(g90
g71
NtRp4435
(dp4436
g74
(dp4437
g101
g102
ssg83
g4426
sg76
(lp4438
S':'
asbag69
(g90
g71
NtRp4439
(dp4440
g74
(dp4441
sg83
g4426
sg76
(lp4442
g69
(g70
g71
NtRp4443
(dp4444
g74
(dp4445
g82
I3
ssg83
g4439
sg76
(lp4446
S"<open file '<stderr>', mode 'w' at 0x7fca14e47270>"
p4447
asbasbasbag69
(g85
g71
NtRp4448
(dp4449
g74
(dp4450
sg83
g3960
sg76
(lp4451
g69
(g90
g71
NtRp4452
(dp4453
g74
(dp4454
g94
g95
ssg83
g4448
sg76
(lp4455
S'wsgi.file_wrapper'
p4456
asbag69
(g90
g71
NtRp4457
(dp4458
g74
(dp4459
g101
g102
ssg83
g4448
sg76
(lp4460
S':'
asbag69
(g90
g71
NtRp4461
(dp4462
g74
(dp4463
sg83
g4448
sg76
(lp4464
g69
(g70
g71
NtRp4465
(dp4466
g74
(dp4467
g82
I3
ssg83
g4461
sg76
(lp4468
S'<class wsgiref.util.FileWrapper at 0x17e2a10>'
p4469
asbasbasbag69
(g85
g71
NtRp4470
(dp4471
g74
(dp4472
sg83
g3960
sg76
(lp4473
g69
(g90
g71
NtRp4474
(dp4475
g74
(dp4476
g94
g95
ssg83
g4470
sg76
(lp4477
S'wsgi.input'
p4478
asbag69
(g90
g71
NtRp4479
(dp4480
g74
(dp4481
g101
g102
ssg83
g4470
sg76
(lp4482
S':'
asbag69
(g90
g71
NtRp4483
(dp4484
g74
(dp4485
sg83
g4470
sg76
(lp4486
g69
(g70
g71
NtRp4487
(dp4488
g74
(dp4489
g82
I3
ssg83
g4483
sg76
(lp4490
S'<cStringIO.StringO object at 0x7fc9e4561a78>'
p4491
asbasbasbag69
(g85
g71
NtRp4492
(dp4493
g74
(dp4494
sg83
g3960
sg76
(lp4495
g69
(g90
g71
NtRp4496
(dp4497
g74
(dp4498
g94
g95
ssg83
g4492
sg76
(lp4499
S'wsgi.multiprocess'
p4500
asbag69
(g90
g71
NtRp4501
(dp4502
g74
(dp4503
g101
g102
ssg83
g4492
sg76
(lp4504
S':'
asbag69
(g90
g71
NtRp4505
(dp4506
g74
(dp4507
sg83
g4492
sg76
(lp4508
g69
(g70
g71
NtRp4509
(dp4510
g74
(dp4511
g82
I3
ssg83
g4505
sg76
(lp4512
g112
asbasbasbag69
(g85
g71
NtRp4513
(dp4514
g74
(dp4515
sg83
g3960
sg76
(lp4516
g69
(g90
g71
NtRp4517
(dp4518
g74
(dp4519
g94
g95
ssg83
g4513
sg76
(lp4520
S'wsgi.multithread'
p4521
asbag69
(g90
g71
NtRp4522
(dp4523
g74
(dp4524
g101
g102
ssg83
g4513
sg76
(lp4525
S':'
asbag69
(g90
g71
NtRp4526
(dp4527
g74
(dp4528
sg83
g4513
sg76
(lp4529
g69
(g70
g71
NtRp4530
(dp4531
g74
(dp4532
g82
I3
ssg83
g4526
sg76
(lp4533
g3149
asbasbasbag69
(g85
g71
NtRp4534
(dp4535
g74
(dp4536
sg83
g3960
sg76
(lp4537
g69
(g90
g71
NtRp4538
(dp4539
g74
(dp4540
g94
g95
ssg83
g4534
sg76
(lp4541
S'wsgi.run_once'
p4542
asbag69
(g90
g71
NtRp4543
(dp4544
g74
(dp4545
g101
g102
ssg83
g4534
sg76
(lp4546
S':'
asbag69
(g90
g71
NtRp4547
(dp4548
g74
(dp4549
sg83
g4534
sg76
(lp4550
g69
(g70
g71
NtRp4551
(dp4552
g74
(dp4553
g82
I3
ssg83
g4547
sg76
(lp4554
g112
asbasbasbag69
(g85
g71
NtRp4555
(dp4556
g74
(dp4557
sg83
g3960
sg76
(lp4558
g69
(g90
g71
NtRp4559
(dp4560
g74
(dp4561
g94
g95
ssg83
g4555
sg76
(lp4562
S'wsgi.url_scheme'
p4563
asbag69
(g90
g71
NtRp4564
(dp4565
g74
(dp4566
g101
g102
ssg83
g4555
sg76
(lp4567
S':'
asbag69
(g90
g71
NtRp4568
(dp4569
g74
(dp4570
sg83
g4555
sg76
(lp4571
g69
(g70
g71
NtRp4572
(dp4573
g74
(dp4574
g82
I3
ssg83
g4568
sg76
(lp4575
g3192
asbasbasbag69
(g85
g71
NtRp4576
(dp4577
g74
(dp4578
sg83
g3960
sg76
(lp4579
g69
(g90
g71
NtRp4580
(dp4581
g74
(dp4582
g94
g95
ssg83
g4576
sg76
(lp4583
S'wsgi.version'
p4584
asbag69
(g90
g71
NtRp4585
(dp4586
g74
(dp4587
g101
g102
ssg83
g4576
sg76
(lp4588
S':'
asbag69
(g90
g71
NtRp4589
(dp4590
g74
(dp4591
sg83
g4576
sg76
(lp4592
g69
(g70
g71
NtRp4593
(dp4594
g74
(dp4595
g82
I3
ssg83
g4589
sg76
(lp4596
S'1'
asbasbasbasbasbasbasbasbasbasbasbasbasbsS'frames'
p4597
(lp4598
(dp4599
S'file'
p4600
S'/var/www/web2py_curso/gluon/restricted.py'
p4601
sS'dump'
p4602
(dp4603
S'code'
p4604
S'\'# if not auth.has_membership("admin"):\\n#     red...d=grid)\\n\\n\\nresponse._vars=response._caller(posts)\\n\''
p4605
sS'layer'
p4606
S"'/var/www/web2py_curso/applications/projeto/controllers/manager.py'"
p4607
sS'global compile2'
p4608
S'<function compile2>'
p4609
sS'ccode'
p4610
S'undefined'
p4611
ssS'lnum'
p4612
I211
sS'lines'
p4613
(dp4614
I206
S"    environment['__name__'] = '__restricted__'"
p4615
sI207
S'    try:'
p4616
sI208
S'        if isinstance(code, types.CodeType):'
p4617
sI209
S'            ccode = code'
p4618
sI210
S'        else:'
p4619
sI211
S'            ccode = compile2(code, layer)'
p4620
sI212
S'        exec ccode in environment'
p4621
sI213
S'    except HTTP:'
p4622
sI214
S'        raise'
p4623
sI215
S'    except RestrictedError:'
p4624
ssS'call'
p4625
S'(code=\'# if not auth.has_membership("admin"):\\n#     red...d=grid)\\n\\n\\nresponse._vars=response._caller(posts)\\n\', environment={\'A\': <class \'gluon.html.A\'>, \'Auth\': <class \'gluon.tools.Auth\'>, \'B\': <class \'gluon.html.B\'>, \'BEAUTIFY\': <class \'gluon.html.BEAUTIFY\'>, \'BODY\': <class \'gluon.html.BODY\'>, \'BR\': <class \'gluon.html.BR\'>, \'BUTTON\': <class \'gluon.html.BUTTON\'>, \'Blog\': <Table blog (id,title,description)>, \'CAT\': <class \'gluon.html.CAT\'>, \'CENTER\': <class \'gluon.html.CENTER\'>, ...}, layer=\'/var/www/web2py_curso/applications/projeto/controllers/manager.py\')'
p4626
sS'func'
p4627
S'restricted'
p4628
sa(dp4629
g4600
S'/var/www/web2py_curso/gluon/restricted.py'
p4630
sg4602
(dp4631
S'builtincompile'
p4632
S'<built-in function compile>'
p4633
sS'code'
p4634
S'\'# if not auth.has_membership("admin"):\\n#     red...d=grid)\\n\\n\\nresponse._vars=response._caller(posts)\\n\''
p4635
sS'code.rstrip'
p4636
S'<built-in method rstrip of str object>'
p4637
sS').replace'
p4638
g4611
sS'layer'
p4639
S"'/var/www/web2py_curso/applications/projeto/controllers/manager.py'"
p4640
ssg4612
I194
sg4613
(dp4641
I192
S"    The +'\\n' is necessary else compile fails when code ends in a comment."
p4642
sI193
S'    """'
p4643
sI194
S"    return compile(code.rstrip().replace('\\r\\n', '\\n') + '\\n', layer, 'exec')"
p4644
sI195
S''
sI196
S''
sI197
S"def restricted(code, environment=None, layer='Unknown'):"
p4645
sI198
S'    """'
p4646
sI189
S''
sI190
S'def compile2(code, layer):'
p4647
sI191
S'    """'
p4648
ssg4625
S'(code=\'# if not auth.has_membership("admin"):\\n#     red...d=grid)\\n\\n\\nresponse._vars=response._caller(posts)\\n\', layer=\'/var/www/web2py_curso/applications/projeto/controllers/manager.py\')'
p4649
sg4627
S'compile2'
p4650
sasS'pyver'
p4651
S'Python 2.7.3: /usr/bin/python'
p4652
sS'session'
p4653
g69
(g70
g71
NtRp4654
(dp4655
g74
(dp4656
sg76
(lp4657
g69
(g78
g71
NtRp4658
(dp4659
g74
(dp4660
g82
I5
ssg83
Nsg76
(lp4661
g69
(g85
g71
NtRp4662
(dp4663
g74
(dp4664
sg83
g4658
sg76
(lp4665
g69
(g90
g71
NtRp4666
(dp4667
g74
(dp4668
g94
g95
ssg83
g4662
sg76
(lp4669
S'auth'
p4670
asbag69
(g90
g71
NtRp4671
(dp4672
g74
(dp4673
g101
g102
ssg83
g4662
sg76
(lp4674
S':'
asbag69
(g90
g71
NtRp4675
(dp4676
g74
(dp4677
sg83
g4662
sg76
(lp4678
g69
(g70
g71
NtRp4679
(dp4680
g74
(dp4681
g82
I5
ssg83
g4675
sg76
(lp4682
g69
(g78
g71
NtRp4683
(dp4684
g74
(dp4685
g82
I4
ssg83
Nsg76
(lp4686
g69
(g85
g71
NtRp4687
(dp4688
g74
(dp4689
sg83
g4683
sg76
(lp4690
g69
(g90
g71
NtRp4691
(dp4692
g74
(dp4693
g94
g95
ssg83
g4687
sg76
(lp4694
S'expiration'
p4695
asbag69
(g90
g71
NtRp4696
(dp4697
g74
(dp4698
g101
g102
ssg83
g4687
sg76
(lp4699
S':'
asbag69
(g90
g71
NtRp4700
(dp4701
g74
(dp4702
sg83
g4687
sg76
(lp4703
g69
(g70
g71
NtRp4704
(dp4705
g74
(dp4706
g82
I4
ssg83
g4700
sg76
(lp4707
S'3600'
p4708
asbasbasbag69
(g85
g71
NtRp4709
(dp4710
g74
(dp4711
sg83
g4683
sg76
(lp4712
g69
(g90
g71
NtRp4713
(dp4714
g74
(dp4715
g94
g95
ssg83
g4709
sg76
(lp4716
S'hmac_key'
p4717
asbag69
(g90
g71
NtRp4718
(dp4719
g74
(dp4720
g101
g102
ssg83
g4709
sg76
(lp4721
S':'
asbag69
(g90
g71
NtRp4722
(dp4723
g74
(dp4724
sg83
g4709
sg76
(lp4725
g69
(g70
g71
NtRp4726
(dp4727
g74
(dp4728
g82
I4
ssg83
g4722
sg76
(lp4729
S'40c1abef-cedb-4375-8311-3614a9635386'
p4730
asbasbasbag69
(g85
g71
NtRp4731
(dp4732
g74
(dp4733
sg83
g4683
sg76
(lp4734
g69
(g90
g71
NtRp4735
(dp4736
g74
(dp4737
g94
g95
ssg83
g4731
sg76
(lp4738
S'last_visit'
p4739
asbag69
(g90
g71
NtRp4740
(dp4741
g74
(dp4742
g101
g102
ssg83
g4731
sg76
(lp4743
S':'
asbag69
(g90
g71
NtRp4744
(dp4745
g74
(dp4746
sg83
g4731
sg76
(lp4747
g69
(g70
g71
NtRp4748
(dp4749
g74
(dp4750
g82
I4
ssg83
g4744
sg76
(lp4751
S'datetime.datetime(2013, 2, 5, 17, 53, 59, 471052)'
p4752
asbasbasbag69
(g85
g71
NtRp4753
(dp4754
g74
(dp4755
sg83
g4683
sg76
(lp4756
g69
(g90
g71
NtRp4757
(dp4758
g74
(dp4759
g94
g95
ssg83
g4753
sg76
(lp4760
S'remember'
p4761
asbag69
(g90
g71
NtRp4762
(dp4763
g74
(dp4764
g101
g102
ssg83
g4753
sg76
(lp4765
S':'
asbag69
(g90
g71
NtRp4766
(dp4767
g74
(dp4768
sg83
g4753
sg76
(lp4769
g69
(g70
g71
NtRp4770
(dp4771
g74
(dp4772
g82
I4
ssg83
g4766
sg76
(lp4773
g112
asbasbasbag69
(g85
g71
NtRp4774
(dp4775
g74
(dp4776
sg83
g4683
sg76
(lp4777
g69
(g90
g71
NtRp4778
(dp4779
g74
(dp4780
g94
g95
ssg83
g4774
sg76
(lp4781
S'user'
p4782
asbag69
(g90
g71
NtRp4783
(dp4784
g74
(dp4785
g101
g102
ssg83
g4774
sg76
(lp4786
S':'
asbag69
(g90
g71
NtRp4787
(dp4788
g74
(dp4789
sg83
g4774
sg76
(lp4790
g69
(g70
g71
NtRp4791
(dp4792
g74
(dp4793
g82
I4
ssg83
g4787
sg76
(lp4794
g69
(g78
g71
NtRp4795
(dp4796
g74
(dp4797
g82
I3
ssg83
Nsg76
(lp4798
g69
(g85
g71
NtRp4799
(dp4800
g74
(dp4801
sg83
g4795
sg76
(lp4802
g69
(g90
g71
NtRp4803
(dp4804
g74
(dp4805
g94
g95
ssg83
g4799
sg76
(lp4806
S'bio'
p4807
asbag69
(g90
g71
NtRp4808
(dp4809
g74
(dp4810
g101
g102
ssg83
g4799
sg76
(lp4811
S':'
asbag69
(g90
g71
NtRp4812
(dp4813
g74
(dp4814
sg83
g4799
sg76
(lp4815
g69
(g70
g71
NtRp4816
(dp4817
g74
(dp4818
g82
I3
ssg83
g4812
sg76
(lp4819
S'None'
p4820
asbasbasbag69
(g85
g71
NtRp4821
(dp4822
g74
(dp4823
sg83
g4795
sg76
(lp4824
g69
(g90
g71
NtRp4825
(dp4826
g74
(dp4827
g94
g95
ssg83
g4821
sg76
(lp4828
S'email'
p4829
asbag69
(g90
g71
NtRp4830
(dp4831
g74
(dp4832
g101
g102
ssg83
g4821
sg76
(lp4833
S':'
asbag69
(g90
g71
NtRp4834
(dp4835
g74
(dp4836
sg83
g4821
sg76
(lp4837
g69
(g70
g71
NtRp4838
(dp4839
g74
(dp4840
g82
I3
ssg83
g4834
sg76
(lp4841
S'fernando@ad2.com.br'
p4842
asbasbasbag69
(g85
g71
NtRp4843
(dp4844
g74
(dp4845
sg83
g4795
sg76
(lp4846
g69
(g90
g71
NtRp4847
(dp4848
g74
(dp4849
g94
g95
ssg83
g4843
sg76
(lp4850
S'first_name'
p4851
asbag69
(g90
g71
NtRp4852
(dp4853
g74
(dp4854
g101
g102
ssg83
g4843
sg76
(lp4855
S':'
asbag69
(g90
g71
NtRp4856
(dp4857
g74
(dp4858
sg83
g4843
sg76
(lp4859
g69
(g70
g71
NtRp4860
(dp4861
g74
(dp4862
g82
I3
ssg83
g4856
sg76
(lp4863
S'Dend'
p4864
asbasbasbag69
(g85
g71
NtRp4865
(dp4866
g74
(dp4867
sg83
g4795
sg76
(lp4868
g69
(g90
g71
NtRp4869
(dp4870
g74
(dp4871
g94
g95
ssg83
g4865
sg76
(lp4872
S'gender'
p4873
asbag69
(g90
g71
NtRp4874
(dp4875
g74
(dp4876
g101
g102
ssg83
g4865
sg76
(lp4877
S':'
asbag69
(g90
g71
NtRp4878
(dp4879
g74
(dp4880
sg83
g4865
sg76
(lp4881
g69
(g70
g71
NtRp4882
(dp4883
g74
(dp4884
g82
I3
ssg83
g4878
sg76
(lp4885
S'masculino'
p4886
asbasbasbag69
(g85
g71
NtRp4887
(dp4888
g74
(dp4889
sg83
g4795
sg76
(lp4890
g69
(g90
g71
NtRp4891
(dp4892
g74
(dp4893
g94
g95
ssg83
g4887
sg76
(lp4894
S'id'
p4895
asbag69
(g90
g71
NtRp4896
(dp4897
g74
(dp4898
g101
g102
ssg83
g4887
sg76
(lp4899
S':'
asbag69
(g90
g71
NtRp4900
(dp4901
g74
(dp4902
sg83
g4887
sg76
(lp4903
g69
(g70
g71
NtRp4904
(dp4905
g74
(dp4906
g82
I3
ssg83
g4900
sg76
(lp4907
S'5'
asbasbasbag69
(g85
g71
NtRp4908
(dp4909
g74
(dp4910
sg83
g4795
sg76
(lp4911
g69
(g90
g71
NtRp4912
(dp4913
g74
(dp4914
g94
g95
ssg83
g4908
sg76
(lp4915
S'last_name'
p4916
asbag69
(g90
g71
NtRp4917
(dp4918
g74
(dp4919
g101
g102
ssg83
g4908
sg76
(lp4920
S':'
asbag69
(g90
g71
NtRp4921
(dp4922
g74
(dp4923
sg83
g4908
sg76
(lp4924
g69
(g70
g71
NtRp4925
(dp4926
g74
(dp4927
g82
I3
ssg83
g4921
sg76
(lp4928
S'delkson'
p4929
asbasbasbag69
(g85
g71
NtRp4930
(dp4931
g74
(dp4932
sg83
g4795
sg76
(lp4933
g69
(g90
g71
NtRp4934
(dp4935
g74
(dp4936
g94
g95
ssg83
g4930
sg76
(lp4937
S'photo'
p4938
asbag69
(g90
g71
NtRp4939
(dp4940
g74
(dp4941
g101
g102
ssg83
g4930
sg76
(lp4942
S':'
asbag69
(g90
g71
NtRp4943
(dp4944
g74
(dp4945
sg83
g4930
sg76
(lp4946
g69
(g70
g71
NtRp4947
(dp4948
g74
(dp4949
g82
I3
ssg83
g4943
sg76
(lp4950
S'auth_user.photo.852c1e9d624a7670.746563686e6f6c6f676965735f7068702e706e67.png'
p4951
asbasbasbag69
(g85
g71
NtRp4952
(dp4953
g74
(dp4954
sg83
g4795
sg76
(lp4955
g69
(g90
g71
NtRp4956
(dp4957
g74
(dp4958
g94
g95
ssg83
g4952
sg76
(lp4959
S'registration_id'
p4960
asbag69
(g90
g71
NtRp4961
(dp4962
g74
(dp4963
g101
g102
ssg83
g4952
sg76
(lp4964
S':'
asbag69
(g90
g71
NtRp4965
(dp4966
g74
(dp4967
sg83
g4952
sg76
(lp4968
g69
(g70
g71
NtRp4969
(dp4970
g74
(dp4971
g82
I3
ssg83
g4965
sg76
(lp4972
S''
asbasbasbag69
(g85
g71
NtRp4973
(dp4974
g74
(dp4975
sg83
g4795
sg76
(lp4976
g69
(g90
g71
NtRp4977
(dp4978
g74
(dp4979
g94
g95
ssg83
g4973
sg76
(lp4980
S'registration_key'
p4981
asbag69
(g90
g71
NtRp4982
(dp4983
g74
(dp4984
g101
g102
ssg83
g4973
sg76
(lp4985
S':'
asbag69
(g90
g71
NtRp4986
(dp4987
g74
(dp4988
sg83
g4973
sg76
(lp4989
g69
(g70
g71
NtRp4990
(dp4991
g74
(dp4992
g82
I3
ssg83
g4986
sg76
(lp4993
S''
asbasbasbag69
(g85
g71
NtRp4994
(dp4995
g74
(dp4996
sg83
g4795
sg76
(lp4997
g69
(g90
g71
NtRp4998
(dp4999
g74
(dp5000
g94
g95
ssg83
g4994
sg76
(lp5001
S'reset_password_key'
p5002
asbag69
(g90
g71
NtRp5003
(dp5004
g74
(dp5005
g101
g102
ssg83
g4994
sg76
(lp5006
S':'
asbag69
(g90
g71
NtRp5007
(dp5008
g74
(dp5009
sg83
g4994
sg76
(lp5010
g69
(g70
g71
NtRp5011
(dp5012
g74
(dp5013
g82
I3
ssg83
g5007
sg76
(lp5014
S''
asbasbasbasbasbasbasbag69
(g85
g71
NtRp5015
(dp5016
g74
(dp5017
sg83
g4683
sg76
(lp5018
g69
(g90
g71
NtRp5019
(dp5020
g74
(dp5021
g94
g95
ssg83
g5015
sg76
(lp5022
S'user_groups'
p5023
asbag69
(g90
g71
NtRp5024
(dp5025
g74
(dp5026
g101
g102
ssg83
g5015
sg76
(lp5027
S':'
asbag69
(g90
g71
NtRp5028
(dp5029
g74
(dp5030
sg83
g5015
sg76
(lp5031
g69
(g70
g71
NtRp5032
(dp5033
g74
(dp5034
g82
I4
ssg83
g5028
sg76
(lp5035
g69
(g78
g71
NtRp5036
(dp5037
g74
(dp5038
g82
I3
ssg83
Nsg76
(lp5039
g69
(g85
g71
NtRp5040
(dp5041
g74
(dp5042
sg83
g5036
sg76
(lp5043
g69
(g90
g71
NtRp5044
(dp5045
g74
(dp5046
g94
g95
ssg83
g5040
sg76
(lp5047
S'5'
asbag69
(g90
g71
NtRp5048
(dp5049
g74
(dp5050
g101
g102
ssg83
g5040
sg76
(lp5051
S':'
asbag69
(g90
g71
NtRp5052
(dp5053
g74
(dp5054
sg83
g5040
sg76
(lp5055
g69
(g70
g71
NtRp5056
(dp5057
g74
(dp5058
g82
I3
ssg83
g5052
sg76
(lp5059
S'user_5'
p5060
asbasbasbag69
(g85
g71
NtRp5061
(dp5062
g74
(dp5063
sg83
g5036
sg76
(lp5064
g69
(g90
g71
NtRp5065
(dp5066
g74
(dp5067
g94
g95
ssg83
g5061
sg76
(lp5068
S'7'
asbag69
(g90
g71
NtRp5069
(dp5070
g74
(dp5071
g101
g102
ssg83
g5061
sg76
(lp5072
S':'
asbag69
(g90
g71
NtRp5073
(dp5074
g74
(dp5075
sg83
g5061
sg76
(lp5076
g69
(g70
g71
NtRp5077
(dp5078
g74
(dp5079
g82
I3
ssg83
g5073
sg76
(lp5080
S'admin'
p5081
asbasbasbasbasbasbasbasbasbasbasbag69
(g85
g71
NtRp5082
(dp5083
g74
(dp5084
sg83
g4658
sg76
(lp5085
g69
(g90
g71
NtRp5086
(dp5087
g74
(dp5088
g94
g95
ssg83
g5082
sg76
(lp5089
S'flash'
p5090
asbag69
(g90
g71
NtRp5091
(dp5092
g74
(dp5093
g101
g102
ssg83
g5082
sg76
(lp5094
S':'
asbag69
(g90
g71
NtRp5095
(dp5096
g74
(dp5097
sg83
g5082
sg76
(lp5098
g69
(g70
g71
NtRp5099
(dp5100
g74
(dp5101
g82
I5
ssg83
g5095
sg76
(lp5102
S'None'
p5103
asbasbasbag69
(g85
g71
NtRp5104
(dp5105
g74
(dp5106
sg83
g4658
sg76
(lp5107
g69
(g90
g71
NtRp5108
(dp5109
g74
(dp5110
g94
g95
ssg83
g5104
sg76
(lp5111
S'last_orderby'
p5112
asbag69
(g90
g71
NtRp5113
(dp5114
g74
(dp5115
g101
g102
ssg83
g5104
sg76
(lp5116
S':'
asbag69
(g90
g71
NtRp5117
(dp5118
g74
(dp5119
sg83
g5104
sg76
(lp5120
g69
(g70
g71
NtRp5121
(dp5122
g74
(dp5123
g82
I5
ssg83
g5117
sg76
(lp5124
S'None'
p5125
asbasbasbag69
(g85
g71
NtRp5126
(dp5127
g74
(dp5128
sg83
g4658
sg76
(lp5129
g69
(g90
g71
NtRp5130
(dp5131
g74
(dp5132
g94
g95
ssg83
g5126
sg76
(lp5133
S'last_query'
p5134
asbag69
(g90
g71
NtRp5135
(dp5136
g74
(dp5137
g101
g102
ssg83
g5126
sg76
(lp5138
S':'
asbag69
(g90
g71
NtRp5139
(dp5140
g74
(dp5141
sg83
g5126
sg76
(lp5142
g69
(g70
g71
NtRp5143
(dp5144
g74
(dp5145
g82
I5
ssg83
g5139
sg76
(lp5146
S'db.post.id>0'
p5147
asbasbasbasbasbsS'etype'
p5148
S"<type 'exceptions.IndentationError'>"
p5149
sS'date'
p5150
S'Tue Feb  5 17:53:59 2013'
p5151
sS'response'
p5152
g69
(g70
g71
NtRp5153
(dp5154
g74
(dp5155
sg76
(lp5156
g69
(g78
g71
NtRp5157
(dp5158
g74
(dp5159
g82
I5
ssg83
Nsg76
(lp5160
g69
(g85
g71
NtRp5161
(dp5162
g74
(dp5163
sg83
g5157
sg76
(lp5164
g69
(g90
g71
NtRp5165
(dp5166
g74
(dp5167
g94
g95
ssg83
g5161
sg76
(lp5168
g167
asbag69
(g90
g71
NtRp5169
(dp5170
g74
(dp5171
g101
g102
ssg83
g5161
sg76
(lp5172
S':'
asbag69
(g90
g71
NtRp5173
(dp5174
g74
(dp5175
sg83
g5161
sg76
(lp5176
g69
(g70
g71
NtRp5177
(dp5178
g74
(dp5179
g82
I5
ssg83
g5173
sg76
(lp5180
S'<cStringIO.StringO object at 0x7fc9e4561c00>'
p5181
asbasbasbag69
(g85
g71
NtRp5182
(dp5183
g74
(dp5184
sg83
g5157
sg76
(lp5185
g69
(g90
g71
NtRp5186
(dp5187
g74
(dp5188
g94
g95
ssg83
g5182
sg76
(lp5189
g255
asbag69
(g90
g71
NtRp5190
(dp5191
g74
(dp5192
g101
g102
ssg83
g5182
sg76
(lp5193
S':'
asbag69
(g90
g71
NtRp5194
(dp5195
g74
(dp5196
sg83
g5182
sg76
(lp5197
g69
(g70
g71
NtRp5198
(dp5199
g74
(dp5200
g82
I5
ssg83
g5194
sg76
(lp5201
g69
(g78
g71
NtRp5202
(dp5203
g74
(dp5204
g82
I4
ssg83
Nsg76
(lp5205
g69
(g85
g71
NtRp5206
(dp5207
g74
(dp5208
sg83
g5202
sg76
(lp5209
g69
(g90
g71
NtRp5210
(dp5211
g74
(dp5212
g94
g95
ssg83
g5206
sg76
(lp5213
S'session_id_projeto'
p5214
asbag69
(g90
g71
NtRp5215
(dp5216
g74
(dp5217
g101
g102
ssg83
g5206
sg76
(lp5218
S':'
asbag69
(g90
g71
NtRp5219
(dp5220
g74
(dp5221
sg83
g5206
sg76
(lp5222
g69
(g70
g71
NtRp5223
(dp5224
g74
(dp5225
g82
I4
ssg83
g5219
sg76
(lp5226
g1787
ag69
(g78
g71
NtRp5227
(dp5228
g74
(dp5229
g82
I3
ssg83
Nsg76
(lp5230
g69
(g85
g71
NtRp5231
(dp5232
g74
(dp5233
sg83
g5227
sg76
(lp5234
g69
(g90
g71
NtRp5235
(dp5236
g74
(dp5237
g94
g95
ssg83
g5231
sg76
(lp5238
g306
asbag69
(g90
g71
NtRp5239
(dp5240
g74
(dp5241
g101
g102
ssg83
g5231
sg76
(lp5242
S':'
asbag69
(g90
g71
NtRp5243
(dp5244
g74
(dp5245
sg83
g5231
sg76
(lp5246
g69
(g70
g71
NtRp5247
(dp5248
g74
(dp5249
g82
I3
ssg83
g5243
sg76
(lp5250
S''
asbasbasbag69
(g85
g71
NtRp5251
(dp5252
g74
(dp5253
sg83
g5227
sg76
(lp5254
g69
(g90
g71
NtRp5255
(dp5256
g74
(dp5257
g94
g95
ssg83
g5251
sg76
(lp5258
g327
asbag69
(g90
g71
NtRp5259
(dp5260
g74
(dp5261
g101
g102
ssg83
g5251
sg76
(lp5262
S':'
asbag69
(g90
g71
NtRp5263
(dp5264
g74
(dp5265
sg83
g5251
sg76
(lp5266
g69
(g70
g71
NtRp5267
(dp5268
g74
(dp5269
g82
I3
ssg83
g5263
sg76
(lp5270
S''
asbasbasbag69
(g85
g71
NtRp5271
(dp5272
g74
(dp5273
sg83
g5227
sg76
(lp5274
g69
(g90
g71
NtRp5275
(dp5276
g74
(dp5277
g94
g95
ssg83
g5271
sg76
(lp5278
g348
asbag69
(g90
g71
NtRp5279
(dp5280
g74
(dp5281
g101
g102
ssg83
g5271
sg76
(lp5282
S':'
asbag69
(g90
g71
NtRp5283
(dp5284
g74
(dp5285
sg83
g5271
sg76
(lp5286
g69
(g70
g71
NtRp5287
(dp5288
g74
(dp5289
g82
I3
ssg83
g5283
sg76
(lp5290
S''
asbasbasbag69
(g85
g71
NtRp5291
(dp5292
g74
(dp5293
sg83
g5227
sg76
(lp5294
g69
(g90
g71
NtRp5295
(dp5296
g74
(dp5297
g94
g95
ssg83
g5291
sg76
(lp5298
g369
asbag69
(g90
g71
NtRp5299
(dp5300
g74
(dp5301
g101
g102
ssg83
g5291
sg76
(lp5302
S':'
asbag69
(g90
g71
NtRp5303
(dp5304
g74
(dp5305
sg83
g5291
sg76
(lp5306
g69
(g70
g71
NtRp5307
(dp5308
g74
(dp5309
g82
I3
ssg83
g5303
sg76
(lp5310
S''
asbasbasbag69
(g85
g71
NtRp5311
(dp5312
g74
(dp5313
sg83
g5227
sg76
(lp5314
g69
(g90
g71
NtRp5315
(dp5316
g74
(dp5317
g94
g95
ssg83
g5311
sg76
(lp5318
g390
asbag69
(g90
g71
NtRp5319
(dp5320
g74
(dp5321
g101
g102
ssg83
g5311
sg76
(lp5322
S':'
asbag69
(g90
g71
NtRp5323
(dp5324
g74
(dp5325
sg83
g5311
sg76
(lp5326
g69
(g70
g71
NtRp5327
(dp5328
g74
(dp5329
g82
I3
ssg83
g5323
sg76
(lp5330
S''
asbasbasbag69
(g85
g71
NtRp5331
(dp5332
g74
(dp5333
sg83
g5227
sg76
(lp5334
g69
(g90
g71
NtRp5335
(dp5336
g74
(dp5337
g94
g95
ssg83
g5331
sg76
(lp5338
g411
asbag69
(g90
g71
NtRp5339
(dp5340
g74
(dp5341
g101
g102
ssg83
g5331
sg76
(lp5342
S':'
asbag69
(g90
g71
NtRp5343
(dp5344
g74
(dp5345
sg83
g5331
sg76
(lp5346
g69
(g70
g71
NtRp5347
(dp5348
g74
(dp5349
g82
I3
ssg83
g5343
sg76
(lp5350
S'/'
asbasbasbag69
(g85
g71
NtRp5351
(dp5352
g74
(dp5353
sg83
g5227
sg76
(lp5354
g69
(g90
g71
NtRp5355
(dp5356
g74
(dp5357
g94
g95
ssg83
g5351
sg76
(lp5358
g432
asbag69
(g90
g71
NtRp5359
(dp5360
g74
(dp5361
g101
g102
ssg83
g5351
sg76
(lp5362
S':'
asbag69
(g90
g71
NtRp5363
(dp5364
g74
(dp5365
sg83
g5351
sg76
(lp5366
g69
(g70
g71
NtRp5367
(dp5368
g74
(dp5369
g82
I3
ssg83
g5363
sg76
(lp5370
S''
asbasbasbag69
(g85
g71
NtRp5371
(dp5372
g74
(dp5373
sg83
g5227
sg76
(lp5374
g69
(g90
g71
NtRp5375
(dp5376
g74
(dp5377
g94
g95
ssg83
g5371
sg76
(lp5378
g453
asbag69
(g90
g71
NtRp5379
(dp5380
g74
(dp5381
g101
g102
ssg83
g5371
sg76
(lp5382
S':'
asbag69
(g90
g71
NtRp5383
(dp5384
g74
(dp5385
sg83
g5371
sg76
(lp5386
g69
(g70
g71
NtRp5387
(dp5388
g74
(dp5389
g82
I3
ssg83
g5383
sg76
(lp5390
S''
asbasbasbasbasbasbasbasbasbasbasbag69
(g85
g71
NtRp5391
(dp5392
g74
(dp5393
sg83
g5157
sg76
(lp5394
g69
(g90
g71
NtRp5395
(dp5396
g74
(dp5397
g94
g95
ssg83
g5391
sg76
(lp5398
S'delimiters'
p5399
asbag69
(g90
g71
NtRp5400
(dp5401
g74
(dp5402
g101
g102
ssg83
g5391
sg76
(lp5403
S':'
asbag69
(g90
g71
NtRp5404
(dp5405
g74
(dp5406
sg83
g5391
sg76
(lp5407
g69
(g70
g71
NtRp5408
(dp5409
g74
(dp5410
g82
I5
ssg83
g5404
sg76
(lp5411
g69
(g78
g71
NtRp5412
(dp5413
g74
(dp5414
g82
I4
ssg83
Nsg76
(lp5415
g69
(g85
g71
NtRp5416
(dp5417
g74
(dp5418
sg83
g5412
sg76
(lp5419
g69
(g90
g71
NtRp5420
(dp5421
g74
(dp5422
sg83
g5416
sg76
(lp5423
g69
(g70
g71
NtRp5424
(dp5425
g74
(dp5426
g82
I4
ssg83
g5420
sg76
(lp5427
S'{{'
p5428
asbasbasbag69
(g85
g71
NtRp5429
(dp5430
g74
(dp5431
sg83
g5412
sg76
(lp5432
g69
(g90
g71
NtRp5433
(dp5434
g74
(dp5435
sg83
g5429
sg76
(lp5436
g69
(g70
g71
NtRp5437
(dp5438
g74
(dp5439
g82
I4
ssg83
g5433
sg76
(lp5440
S'}}'
p5441
asbasbasbasbasbasbasbag69
(g85
g71
NtRp5442
(dp5443
g74
(dp5444
sg83
g5157
sg76
(lp5445
g69
(g90
g71
NtRp5446
(dp5447
g74
(dp5448
g94
g95
ssg83
g5442
sg76
(lp5449
S'files'
p5450
asbag69
(g90
g71
NtRp5451
(dp5452
g74
(dp5453
g101
g102
ssg83
g5442
sg76
(lp5454
S':'
asbag69
(g90
g71
NtRp5455
(dp5456
g74
(dp5457
sg83
g5442
sg76
(lp5458
g69
(g70
g71
NtRp5459
(dp5460
g74
(dp5461
g82
I5
ssg83
g5455
sg76
(lp5462
g69
(g78
g71
NtRp5463
(dp5464
g74
(dp5465
g82
I4
ssg83
Nsg76
(lp5466
sbasbasbasbag69
(g85
g71
NtRp5467
(dp5468
g74
(dp5469
sg83
g5157
sg76
(lp5470
g69
(g90
g71
NtRp5471
(dp5472
g74
(dp5473
g94
g95
ssg83
g5467
sg76
(lp5474
S'flash'
p5475
asbag69
(g90
g71
NtRp5476
(dp5477
g74
(dp5478
g101
g102
ssg83
g5467
sg76
(lp5479
S':'
asbag69
(g90
g71
NtRp5480
(dp5481
g74
(dp5482
sg83
g5467
sg76
(lp5483
g69
(g70
g71
NtRp5484
(dp5485
g74
(dp5486
g82
I5
ssg83
g5480
sg76
(lp5487
S''
asbasbasbag69
(g85
g71
NtRp5488
(dp5489
g74
(dp5490
sg83
g5157
sg76
(lp5491
g69
(g90
g71
NtRp5492
(dp5493
g74
(dp5494
g94
g95
ssg83
g5488
sg76
(lp5495
S'generic_patterns'
p5496
asbag69
(g90
g71
NtRp5497
(dp5498
g74
(dp5499
g101
g102
ssg83
g5488
sg76
(lp5500
S':'
asbag69
(g90
g71
NtRp5501
(dp5502
g74
(dp5503
sg83
g5488
sg76
(lp5504
g69
(g70
g71
NtRp5505
(dp5506
g74
(dp5507
g82
I5
ssg83
g5501
sg76
(lp5508
g69
(g78
g71
NtRp5509
(dp5510
g74
(dp5511
g82
I4
ssg83
Nsg76
(lp5512
g69
(g85
g71
NtRp5513
(dp5514
g74
(dp5515
sg83
g5509
sg76
(lp5516
g69
(g90
g71
NtRp5517
(dp5518
g74
(dp5519
sg83
g5513
sg76
(lp5520
g69
(g70
g71
NtRp5521
(dp5522
g74
(dp5523
g82
I4
ssg83
g5517
sg76
(lp5524
S'*'
asbasbasbasbasbasbasbag69
(g85
g71
NtRp5525
(dp5526
g74
(dp5527
sg83
g5157
sg76
(lp5528
g69
(g90
g71
NtRp5529
(dp5530
g74
(dp5531
g94
g95
ssg83
g5525
sg76
(lp5532
S'headers'
p5533
asbag69
(g90
g71
NtRp5534
(dp5535
g74
(dp5536
g101
g102
ssg83
g5525
sg76
(lp5537
S':'
asbag69
(g90
g71
NtRp5538
(dp5539
g74
(dp5540
sg83
g5525
sg76
(lp5541
g69
(g70
g71
NtRp5542
(dp5543
g74
(dp5544
g82
I5
ssg83
g5538
sg76
(lp5545
g69
(g78
g71
NtRp5546
(dp5547
g74
(dp5548
g82
I4
ssg83
Nsg76
(lp5549
g69
(g85
g71
NtRp5550
(dp5551
g74
(dp5552
sg83
g5546
sg76
(lp5553
g69
(g90
g71
NtRp5554
(dp5555
g74
(dp5556
g94
g95
ssg83
g5550
sg76
(lp5557
S'X-Powered-By'
p5558
asbag69
(g90
g71
NtRp5559
(dp5560
g74
(dp5561
g101
g102
ssg83
g5550
sg76
(lp5562
S':'
asbag69
(g90
g71
NtRp5563
(dp5564
g74
(dp5565
sg83
g5550
sg76
(lp5566
g69
(g70
g71
NtRp5567
(dp5568
g74
(dp5569
g82
I4
ssg83
g5563
sg76
(lp5570
S'web2py'
p5571
asbasbasbasbasbasbasbag69
(g85
g71
NtRp5572
(dp5573
g74
(dp5574
sg83
g5157
sg76
(lp5575
g69
(g90
g71
NtRp5576
(dp5577
g74
(dp5578
g94
g95
ssg83
g5572
sg76
(lp5579
S'menu'
p5580
asbag69
(g90
g71
NtRp5581
(dp5582
g74
(dp5583
g101
g102
ssg83
g5572
sg76
(lp5584
S':'
asbag69
(g90
g71
NtRp5585
(dp5586
g74
(dp5587
sg83
g5572
sg76
(lp5588
g69
(g70
g71
NtRp5589
(dp5590
g74
(dp5591
g82
I5
ssg83
g5585
sg76
(lp5592
g69
(g78
g71
NtRp5593
(dp5594
g74
(dp5595
g82
I4
ssg83
Nsg76
(lp5596
sbasbasbasbag69
(g85
g71
NtRp5597
(dp5598
g74
(dp5599
sg83
g5157
sg76
(lp5600
g69
(g90
g71
NtRp5601
(dp5602
g74
(dp5603
g94
g95
ssg83
g5597
sg76
(lp5604
S'meta'
p5605
asbag69
(g90
g71
NtRp5606
(dp5607
g74
(dp5608
g101
g102
ssg83
g5597
sg76
(lp5609
S':'
asbag69
(g90
g71
NtRp5610
(dp5611
g74
(dp5612
sg83
g5597
sg76
(lp5613
g69
(g70
g71
NtRp5614
(dp5615
g74
(dp5616
g82
I5
ssg83
g5610
sg76
(lp5617
g69
(g78
g71
NtRp5618
(dp5619
g74
(dp5620
g82
I4
ssg83
Nsg76
(lp5621
g69
(g85
g71
NtRp5622
(dp5623
g74
(dp5624
sg83
g5618
sg76
(lp5625
g69
(g90
g71
NtRp5626
(dp5627
g74
(dp5628
g94
g95
ssg83
g5622
sg76
(lp5629
S'description'
p5630
asbag69
(g90
g71
NtRp5631
(dp5632
g74
(dp5633
g101
g102
ssg83
g5622
sg76
(lp5634
S':'
asbag69
(g90
g71
NtRp5635
(dp5636
g74
(dp5637
sg83
g5622
sg76
(lp5638
g69
(g70
g71
NtRp5639
(dp5640
g74
(dp5641
g82
I4
ssg83
g5635
sg76
(lp5642
S'blog do shedon'
p5643
asbasbasbag69
(g85
g71
NtRp5644
(dp5645
g74
(dp5646
sg83
g5618
sg76
(lp5647
g69
(g90
g71
NtRp5648
(dp5649
g74
(dp5650
g94
g95
ssg83
g5644
sg76
(lp5651
S'keywords'
p5652
asbag69
(g90
g71
NtRp5653
(dp5654
g74
(dp5655
g101
g102
ssg83
g5644
sg76
(lp5656
S':'
asbag69
(g90
g71
NtRp5657
(dp5658
g74
(dp5659
sg83
g5644
sg76
(lp5660
g69
(g70
g71
NtRp5661
(dp5662
g74
(dp5663
g82
I4
ssg83
g5657
sg76
(lp5664
S'chave, outra, e utra'
p5665
asbasbasbasbasbasbasbag69
(g85
g71
NtRp5666
(dp5667
g74
(dp5668
sg83
g5157
sg76
(lp5669
g69
(g90
g71
NtRp5670
(dp5671
g74
(dp5672
g94
g95
ssg83
g5666
sg76
(lp5673
S'models_to_run'
p5674
asbag69
(g90
g71
NtRp5675
(dp5676
g74
(dp5677
g101
g102
ssg83
g5666
sg76
(lp5678
S':'
asbag69
(g90
g71
NtRp5679
(dp5680
g74
(dp5681
sg83
g5666
sg76
(lp5682
g69
(g70
g71
NtRp5683
(dp5684
g74
(dp5685
g82
I5
ssg83
g5679
sg76
(lp5686
g69
(g78
g71
NtRp5687
(dp5688
g74
(dp5689
g82
I4
ssg83
Nsg76
(lp5690
g69
(g85
g71
NtRp5691
(dp5692
g74
(dp5693
sg83
g5687
sg76
(lp5694
g69
(g90
g71
NtRp5695
(dp5696
g74
(dp5697
sg83
g5691
sg76
(lp5698
g69
(g70
g71
NtRp5699
(dp5700
g74
(dp5701
g82
I4
ssg83
g5695
sg76
(lp5702
S'^\\w+\\.py$'
p5703
asbasbasbag69
(g85
g71
NtRp5704
(dp5705
g74
(dp5706
sg83
g5687
sg76
(lp5707
g69
(g90
g71
NtRp5708
(dp5709
g74
(dp5710
sg83
g5704
sg76
(lp5711
g69
(g70
g71
NtRp5712
(dp5713
g74
(dp5714
g82
I4
ssg83
g5708
sg76
(lp5715
S'^manager/\\w+\\.py$'
p5716
asbasbasbag69
(g85
g71
NtRp5717
(dp5718
g74
(dp5719
sg83
g5687
sg76
(lp5720
g69
(g90
g71
NtRp5721
(dp5722
g74
(dp5723
sg83
g5717
sg76
(lp5724
g69
(g70
g71
NtRp5725
(dp5726
g74
(dp5727
g82
I4
ssg83
g5721
sg76
(lp5728
S'^manager/posts/\\w+\\.py$'
p5729
asbasbasbasbasbasbasbag69
(g85
g71
NtRp5730
(dp5731
g74
(dp5732
sg83
g5157
sg76
(lp5733
g69
(g90
g71
NtRp5734
(dp5735
g74
(dp5736
g94
g95
ssg83
g5730
sg76
(lp5737
S'postprocessing'
p5738
asbag69
(g90
g71
NtRp5739
(dp5740
g74
(dp5741
g101
g102
ssg83
g5730
sg76
(lp5742
S':'
asbag69
(g90
g71
NtRp5743
(dp5744
g74
(dp5745
sg83
g5730
sg76
(lp5746
g69
(g70
g71
NtRp5747
(dp5748
g74
(dp5749
g82
I5
ssg83
g5743
sg76
(lp5750
g69
(g78
g71
NtRp5751
(dp5752
g74
(dp5753
g82
I4
ssg83
Nsg76
(lp5754
sbasbasbasbag69
(g85
g71
NtRp5755
(dp5756
g74
(dp5757
sg83
g5157
sg76
(lp5758
g69
(g90
g71
NtRp5759
(dp5760
g74
(dp5761
g94
g95
ssg83
g5755
sg76
(lp5762
S'session_cookie_expires'
p5763
asbag69
(g90
g71
NtRp5764
(dp5765
g74
(dp5766
g101
g102
ssg83
g5755
sg76
(lp5767
S':'
asbag69
(g90
g71
NtRp5768
(dp5769
g74
(dp5770
sg83
g5755
sg76
(lp5771
g69
(g70
g71
NtRp5772
(dp5773
g74
(dp5774
g82
I5
ssg83
g5768
sg76
(lp5775
S'None'
p5776
asbasbasbag69
(g85
g71
NtRp5777
(dp5778
g74
(dp5779
sg83
g5157
sg76
(lp5780
g69
(g90
g71
NtRp5781
(dp5782
g74
(dp5783
g94
g95
ssg83
g5777
sg76
(lp5784
S'session_data_name'
p5785
asbag69
(g90
g71
NtRp5786
(dp5787
g74
(dp5788
g101
g102
ssg83
g5777
sg76
(lp5789
S':'
asbag69
(g90
g71
NtRp5790
(dp5791
g74
(dp5792
sg83
g5777
sg76
(lp5793
g69
(g70
g71
NtRp5794
(dp5795
g74
(dp5796
g82
I5
ssg83
g5790
sg76
(lp5797
S'session_data_projeto'
p5798
asbasbasbag69
(g85
g71
NtRp5799
(dp5800
g74
(dp5801
sg83
g5157
sg76
(lp5802
g69
(g90
g71
NtRp5803
(dp5804
g74
(dp5805
g94
g95
ssg83
g5799
sg76
(lp5806
S'session_file'
p5807
asbag69
(g90
g71
NtRp5808
(dp5809
g74
(dp5810
g101
g102
ssg83
g5799
sg76
(lp5811
S':'
asbag69
(g90
g71
NtRp5812
(dp5813
g74
(dp5814
sg83
g5799
sg76
(lp5815
g69
(g70
g71
NtRp5816
(dp5817
g74
(dp5818
g82
I5
ssg83
g5812
sg76
(lp5819
S"<open file '/var/www/web2py_curso/applications/projeto/sessions/127.0.0.1-a8d6ff4e-868b-4aa2-bd9e-521d75a87c41', mode 'rb+' at 0x7fca0812f300>"
p5820
asbasbasbag69
(g85
g71
NtRp5821
(dp5822
g74
(dp5823
sg83
g5157
sg76
(lp5824
g69
(g90
g71
NtRp5825
(dp5826
g74
(dp5827
g94
g95
ssg83
g5821
sg76
(lp5828
S'session_filename'
p5829
asbag69
(g90
g71
NtRp5830
(dp5831
g74
(dp5832
g101
g102
ssg83
g5821
sg76
(lp5833
S':'
asbag69
(g90
g71
NtRp5834
(dp5835
g74
(dp5836
sg83
g5821
sg76
(lp5837
g69
(g70
g71
NtRp5838
(dp5839
g74
(dp5840
g82
I5
ssg83
g5834
sg76
(lp5841
S'/var/www/web2py_curso/applications/projeto/sessions/127.0.0.1-a8d6ff4e-868b-4aa2-bd9e-521d75a87c41'
p5842
asbasbasbag69
(g85
g71
NtRp5843
(dp5844
g74
(dp5845
sg83
g5157
sg76
(lp5846
g69
(g90
g71
NtRp5847
(dp5848
g74
(dp5849
g94
g95
ssg83
g5843
sg76
(lp5850
S'session_id'
p5851
asbag69
(g90
g71
NtRp5852
(dp5853
g74
(dp5854
g101
g102
ssg83
g5843
sg76
(lp5855
S':'
asbag69
(g90
g71
NtRp5856
(dp5857
g74
(dp5858
sg83
g5843
sg76
(lp5859
g69
(g70
g71
NtRp5860
(dp5861
g74
(dp5862
g82
I5
ssg83
g5856
sg76
(lp5863
g1787
asbasbasbag69
(g85
g71
NtRp5864
(dp5865
g74
(dp5866
sg83
g5157
sg76
(lp5867
g69
(g90
g71
NtRp5868
(dp5869
g74
(dp5870
g94
g95
ssg83
g5864
sg76
(lp5871
S'session_id_name'
p5872
asbag69
(g90
g71
NtRp5873
(dp5874
g74
(dp5875
g101
g102
ssg83
g5864
sg76
(lp5876
S':'
asbag69
(g90
g71
NtRp5877
(dp5878
g74
(dp5879
sg83
g5864
sg76
(lp5880
g69
(g70
g71
NtRp5881
(dp5882
g74
(dp5883
g82
I5
ssg83
g5877
sg76
(lp5884
g5214
asbasbasbag69
(g85
g71
NtRp5885
(dp5886
g74
(dp5887
sg83
g5157
sg76
(lp5888
g69
(g90
g71
NtRp5889
(dp5890
g74
(dp5891
g94
g95
ssg83
g5885
sg76
(lp5892
S'session_locked'
p5893
asbag69
(g90
g71
NtRp5894
(dp5895
g74
(dp5896
g101
g102
ssg83
g5885
sg76
(lp5897
S':'
asbag69
(g90
g71
NtRp5898
(dp5899
g74
(dp5900
sg83
g5885
sg76
(lp5901
g69
(g70
g71
NtRp5902
(dp5903
g74
(dp5904
g82
I5
ssg83
g5898
sg76
(lp5905
g3149
asbasbasbag69
(g85
g71
NtRp5906
(dp5907
g74
(dp5908
sg83
g5157
sg76
(lp5909
g69
(g90
g71
NtRp5910
(dp5911
g74
(dp5912
g94
g95
ssg83
g5906
sg76
(lp5913
S'session_new'
p5914
asbag69
(g90
g71
NtRp5915
(dp5916
g74
(dp5917
g101
g102
ssg83
g5906
sg76
(lp5918
S':'
asbag69
(g90
g71
NtRp5919
(dp5920
g74
(dp5921
sg83
g5906
sg76
(lp5922
g69
(g70
g71
NtRp5923
(dp5924
g74
(dp5925
g82
I5
ssg83
g5919
sg76
(lp5926
g112
asbasbasbag69
(g85
g71
NtRp5927
(dp5928
g74
(dp5929
sg83
g5157
sg76
(lp5930
g69
(g90
g71
NtRp5931
(dp5932
g74
(dp5933
g94
g95
ssg83
g5927
sg76
(lp5934
S'session_storage_type'
p5935
asbag69
(g90
g71
NtRp5936
(dp5937
g74
(dp5938
g101
g102
ssg83
g5927
sg76
(lp5939
S':'
asbag69
(g90
g71
NtRp5940
(dp5941
g74
(dp5942
sg83
g5927
sg76
(lp5943
g69
(g70
g71
NtRp5944
(dp5945
g74
(dp5946
g82
I5
ssg83
g5940
sg76
(lp5947
g4600
asbasbasbag69
(g85
g71
NtRp5948
(dp5949
g74
(dp5950
sg83
g5157
sg76
(lp5951
g69
(g90
g71
NtRp5952
(dp5953
g74
(dp5954
g94
g95
ssg83
g5948
sg76
(lp5955
S'status'
p5956
asbag69
(g90
g71
NtRp5957
(dp5958
g74
(dp5959
g101
g102
ssg83
g5948
sg76
(lp5960
S':'
asbag69
(g90
g71
NtRp5961
(dp5962
g74
(dp5963
sg83
g5948
sg76
(lp5964
g69
(g70
g71
NtRp5965
(dp5966
g74
(dp5967
g82
I5
ssg83
g5961
sg76
(lp5968
S'200'
p5969
asbasbasbag69
(g85
g71
NtRp5970
(dp5971
g74
(dp5972
sg83
g5157
sg76
(lp5973
g69
(g90
g71
NtRp5974
(dp5975
g74
(dp5976
g94
g95
ssg83
g5970
sg76
(lp5977
S'subtitle'
p5978
asbag69
(g90
g71
NtRp5979
(dp5980
g74
(dp5981
g101
g102
ssg83
g5970
sg76
(lp5982
S':'
asbag69
(g90
g71
NtRp5983
(dp5984
g74
(dp5985
sg83
g5970
sg76
(lp5986
g69
(g70
g71
NtRp5987
(dp5988
g74
(dp5989
g82
I5
ssg83
g5983
sg76
(lp5990
S'O blog do sheldon'
p5991
asbasbasbag69
(g85
g71
NtRp5992
(dp5993
g74
(dp5994
sg83
g5157
sg76
(lp5995
g69
(g90
g71
NtRp5996
(dp5997
g74
(dp5998
g94
g95
ssg83
g5992
sg76
(lp5999
S'title'
p6000
asbag69
(g90
g71
NtRp6001
(dp6002
g74
(dp6003
g101
g102
ssg83
g5992
sg76
(lp6004
S':'
asbag69
(g90
g71
NtRp6005
(dp6006
g74
(dp6007
sg83
g5992
sg76
(lp6008
g69
(g70
g71
NtRp6009
(dp6010
g74
(dp6011
g82
I5
ssg83
g6005
sg76
(lp6012
S'Meu site magnifico'
p6013
asbasbasbag69
(g85
g71
NtRp6014
(dp6015
g74
(dp6016
sg83
g5157
sg76
(lp6017
g69
(g90
g71
NtRp6018
(dp6019
g74
(dp6020
g94
g95
ssg83
g6014
sg76
(lp6021
S'view'
p6022
asbag69
(g90
g71
NtRp6023
(dp6024
g74
(dp6025
g101
g102
ssg83
g6014
sg76
(lp6026
S':'
asbag69
(g90
g71
NtRp6027
(dp6028
g74
(dp6029
sg83
g6014
sg76
(lp6030
g69
(g70
g71
NtRp6031
(dp6032
g74
(dp6033
g82
I5
ssg83
g6027
sg76
(lp6034
S'manager/posts.html'
p6035
asbasbasbasbasbsS'locals'
p6036
(dp6037
g4
S"'/var/www/web2py_curso/applications/projeto/controllers/manager.py'"
p6038
sg6
S'\'# if not auth.has_membership("admin"):\\n#     red...d=grid)\\n\\n\\nresponse._vars=response._caller(posts)\\n\''
p6039
sssS'traceback'
p6040
S'Traceback (most recent call last):\n  File "/var/www/web2py_curso/gluon/restricted.py", line 211, in restricted\n    ccode = compile2(code, layer)\n  File "/var/www/web2py_curso/gluon/restricted.py", line 194, in compile2\n    return compile(code.rstrip().replace(\'\\r\\n\', \'\\n\') + \'\\n\', layer, \'exec\')\n  File "/var/www/web2py_curso/applications/projeto/controllers/manager.py", line 40\n    grid = SQLFORM.grid(db.post)\n                               ^\nIndentationError: unindent does not match any outer indentation level\n'
p6041
s.