(dp1
S'output'
p2
S"<type 'exceptions.SyntaxError'> setting key 'actions_disable' does not exist"
p3
sS'layer'
p4
S'/var/www/web2py_curso/applications/projeto/models/config.py'
p5
sS'code'
p6
S'from gluon.storage import Storage\n\nconfig = Storage(\n        db=Storage(),\n        auth=Storage(),\n        mail=Storage()\n        )\n\nconfig.db.uri = "sqlite://projeto.sqlite"\nconfig.db.pool_size = 10\nconfig.db.check_reserved = [\'all\']\n\n\ndb = DAL(**config.db)\n\n# logging\nimport logging\nlogger = logging.getLogger("web2py.app.blog")\nlogger.setLevel(logging.DEBUG)\n\n#auth Rbac\nfrom gluon.tools import Auth\n\nauth = Auth(db, controller="initial", function="user")\n\n#settings\nauth.settings.remember_me_form = False\nauth.settings.formstyle = "divs"\nauth.settings.login_next = URL(\'initial\', \'home\')\nauth.settings.registration_requires_verification = True\nauth.settings.registration_requires_approval = True\nauth.settings.actions_disable = [\'register\']\n\n#mail\nmail = auth.settings.mailer\nmail.settings.server = "mail.ad2.com.br"\nmail.settings.sender = "fernando@ad2.com.br"\nmail.settings.login = "fernando@ad2.com.br:123456"\n\n#signals\ndef notifica(form):\n\tlogger.info("notifica")\n\tmail.send(\n\t\tto="fndiaz02@gmail.com",\n\t\tsubject="Usuario %(first_name)s pendente" % form.vars,\n\t\tmessage="<html>Voce tem um novo usuario para aprovacao %(first_name)s %(last_name)s </html>" % form.vars\n\t)\n\nauth.settings.register_onaccept = notifica\n#auth.settings.register_onaccept = funcao\n\n#messages\nauth.messages.login_button = "Entrar"\n\n#fields\nauth.settings.extra_fields[\'auth_user\'] = [\n\tField("bio", "text"),\n\tField("photo", "upload"),\n\tField("gender", requires=IS_IN_SET(["masculino","feminino"]))\n]\n\nauth.define_tables()\n\n'
p7
sS'snapshot'
p8
(dp9
S'exception'
p10
(dp11
S'__getslice__'
p12
S"<method-wrapper '__getslice__' of exceptions.SyntaxError object>"
p13
sS'text'
p14
S'None'
p15
sS'__str__'
p16
S"<method-wrapper '__str__' of exceptions.SyntaxError object>"
p17
sS'__reduce__'
p18
S'<built-in method __reduce__ of exceptions.SyntaxError object>'
p19
sS'__dict__'
p20
S'{}'
p21
sS'__sizeof__'
p22
S'<built-in method __sizeof__ of exceptions.SyntaxError object>'
p23
sS'__init__'
p24
S"<method-wrapper '__init__' of exceptions.SyntaxError object>"
p25
sS'__setattr__'
p26
S"<method-wrapper '__setattr__' of exceptions.SyntaxError object>"
p27
sS'__reduce_ex__'
p28
S'<built-in method __reduce_ex__ of exceptions.SyntaxError object>'
p29
sS'__new__'
p30
S'<built-in method __new__ of type object>'
p31
sS'__format__'
p32
S'<built-in method __format__ of exceptions.SyntaxError object>'
p33
sS'__class__'
p34
S"<type 'exceptions.SyntaxError'>"
p35
sS'filename'
p36
S'None'
p37
sS'lineno'
p38
S'None'
p39
sS'msg'
p40
S'"setting key \'actions_disable\' does not exist"'
p41
sS'__doc__'
p42
S"'Invalid syntax.'"
p43
sS'__getitem__'
p44
S"<method-wrapper '__getitem__' of exceptions.SyntaxError object>"
p45
sS'__setstate__'
p46
S'<built-in method __setstate__ of exceptions.SyntaxError object>'
p47
sS'__getattribute__'
p48
S"<method-wrapper '__getattribute__' of exceptions.SyntaxError object>"
p49
sS'print_file_and_line'
p50
S'None'
p51
sS'args'
p52
S'("setting key \'actions_disable\' does not exist",)'
p53
sS'__subclasshook__'
p54
S'<built-in method __subclasshook__ of type object>'
p55
sS'offset'
p56
S'None'
p57
sS'__unicode__'
p58
S'<built-in method __unicode__ of exceptions.SyntaxError object>'
p59
sS'__delattr__'
p60
S"<method-wrapper '__delattr__' of exceptions.SyntaxError object>"
p61
sS'__repr__'
p62
S"<method-wrapper '__repr__' of exceptions.SyntaxError object>"
p63
sS'__hash__'
p64
S"<method-wrapper '__hash__' of exceptions.SyntaxError object>"
p65
ssS'evalue'
p66
S"setting key 'actions_disable' does not exist"
p67
sS'request'
p68
ccopy_reg
_reconstructor
p69
(cgluon.html
BEAUTIFY
p70
c__builtin__
object
p71
NtRp72
(dp73
S'attributes'
p74
(dp75
sS'components'
p76
(lp77
g69
(cgluon.html
TABLE
p78
g71
NtRp79
(dp80
g74
(dp81
S'level'
p82
I5
ssS'parent'
p83
Nsg76
(lp84
g69
(cgluon.html
TR
p85
g71
NtRp86
(dp87
g74
(dp88
sg83
g79
sg76
(lp89
g69
(cgluon.html
TD
p90
g71
NtRp91
(dp92
g74
(dp93
S'_style'
p94
S'font-weight:bold;vertical-align:top'
p95
ssg83
g86
sg76
(lp96
S'ajax'
p97
asbag69
(g90
g71
NtRp98
(dp99
g74
(dp100
S'_valign'
p101
S'top'
p102
ssg83
g86
sg76
(lp103
S':'
asbag69
(g90
g71
NtRp104
(dp105
g74
(dp106
sg83
g86
sg76
(lp107
g69
(g70
g71
NtRp108
(dp109
g74
(dp110
g82
I5
ssg83
g104
sg76
(lp111
S'False'
p112
asbasbasbag69
(g85
g71
NtRp113
(dp114
g74
(dp115
sg83
g79
sg76
(lp116
g69
(g90
g71
NtRp117
(dp118
g74
(dp119
g94
g95
ssg83
g113
sg76
(lp120
S'application'
p121
asbag69
(g90
g71
NtRp122
(dp123
g74
(dp124
g101
g102
ssg83
g113
sg76
(lp125
S':'
asbag69
(g90
g71
NtRp126
(dp127
g74
(dp128
sg83
g113
sg76
(lp129
g69
(g70
g71
NtRp130
(dp131
g74
(dp132
g82
I5
ssg83
g126
sg76
(lp133
S'projeto'
p134
asbasbasbag69
(g85
g71
NtRp135
(dp136
g74
(dp137
sg83
g79
sg76
(lp138
g69
(g90
g71
NtRp139
(dp140
g74
(dp141
g94
g95
ssg83
g135
sg76
(lp142
g52
asbag69
(g90
g71
NtRp143
(dp144
g74
(dp145
g101
g102
ssg83
g135
sg76
(lp146
S':'
asbag69
(g90
g71
NtRp147
(dp148
g74
(dp149
sg83
g135
sg76
(lp150
g69
(g70
g71
NtRp151
(dp152
g74
(dp153
g82
I5
ssg83
g147
sg76
(lp154
g69
(g78
g71
NtRp155
(dp156
g74
(dp157
g82
I4
ssg83
Nsg76
(lp158
g69
(g85
g71
NtRp159
(dp160
g74
(dp161
sg83
g155
sg76
(lp162
g69
(g90
g71
NtRp163
(dp164
g74
(dp165
sg83
g159
sg76
(lp166
g69
(g70
g71
NtRp167
(dp168
g74
(dp169
g82
I4
ssg83
g163
sg76
(lp170
S'register'
p171
asbasbasbasbasbasbasbag69
(g85
g71
NtRp172
(dp173
g74
(dp174
sg83
g79
sg76
(lp175
g69
(g90
g71
NtRp176
(dp177
g74
(dp178
g94
g95
ssg83
g172
sg76
(lp179
S'body'
p180
asbag69
(g90
g71
NtRp181
(dp182
g74
(dp183
g101
g102
ssg83
g172
sg76
(lp184
S':'
asbag69
(g90
g71
NtRp185
(dp186
g74
(dp187
sg83
g172
sg76
(lp188
g69
(g70
g71
NtRp189
(dp190
g74
(dp191
g82
I5
ssg83
g185
sg76
(lp192
S'<cStringIO.StringO object at 0x7f98284e6068>'
p193
asbasbasbag69
(g85
g71
NtRp194
(dp195
g74
(dp196
sg83
g79
sg76
(lp197
g69
(g90
g71
NtRp198
(dp199
g74
(dp200
g94
g95
ssg83
g194
sg76
(lp201
S'cid'
p202
asbag69
(g90
g71
NtRp203
(dp204
g74
(dp205
g101
g102
ssg83
g194
sg76
(lp206
S':'
asbag69
(g90
g71
NtRp207
(dp208
g74
(dp209
sg83
g194
sg76
(lp210
g69
(g70
g71
NtRp211
(dp212
g74
(dp213
g82
I5
ssg83
g207
sg76
(lp214
S'None'
p215
asbasbasbag69
(g85
g71
NtRp216
(dp217
g74
(dp218
sg83
g79
sg76
(lp219
g69
(g90
g71
NtRp220
(dp221
g74
(dp222
g94
g95
ssg83
g216
sg76
(lp223
S'client'
p224
asbag69
(g90
g71
NtRp225
(dp226
g74
(dp227
g101
g102
ssg83
g216
sg76
(lp228
S':'
asbag69
(g90
g71
NtRp229
(dp230
g74
(dp231
sg83
g216
sg76
(lp232
g69
(g70
g71
NtRp233
(dp234
g74
(dp235
g82
I5
ssg83
g229
sg76
(lp236
S'127.0.0.1'
p237
asbasbasbag69
(g85
g71
NtRp238
(dp239
g74
(dp240
sg83
g79
sg76
(lp241
g69
(g90
g71
NtRp242
(dp243
g74
(dp244
g94
g95
ssg83
g238
sg76
(lp245
S'controller'
p246
asbag69
(g90
g71
NtRp247
(dp248
g74
(dp249
g101
g102
ssg83
g238
sg76
(lp250
S':'
asbag69
(g90
g71
NtRp251
(dp252
g74
(dp253
sg83
g238
sg76
(lp254
g69
(g70
g71
NtRp255
(dp256
g74
(dp257
g82
I5
ssg83
g251
sg76
(lp258
S'initial'
p259
asbasbasbag69
(g85
g71
NtRp260
(dp261
g74
(dp262
sg83
g79
sg76
(lp263
g69
(g90
g71
NtRp264
(dp265
g74
(dp266
g94
g95
ssg83
g260
sg76
(lp267
S'cookies'
p268
asbag69
(g90
g71
NtRp269
(dp270
g74
(dp271
g101
g102
ssg83
g260
sg76
(lp272
S':'
asbag69
(g90
g71
NtRp273
(dp274
g74
(dp275
sg83
g260
sg76
(lp276
g69
(g70
g71
NtRp277
(dp278
g74
(dp279
g82
I5
ssg83
g273
sg76
(lp280
g69
(g78
g71
NtRp281
(dp282
g74
(dp283
g82
I4
ssg83
Nsg76
(lp284
g69
(g85
g71
NtRp285
(dp286
g74
(dp287
sg83
g281
sg76
(lp288
g69
(g90
g71
NtRp289
(dp290
g74
(dp291
g94
g95
ssg83
g285
sg76
(lp292
S'session_id_admin'
p293
asbag69
(g90
g71
NtRp294
(dp295
g74
(dp296
g101
g102
ssg83
g285
sg76
(lp297
S':'
asbag69
(g90
g71
NtRp298
(dp299
g74
(dp300
sg83
g285
sg76
(lp301
g69
(g70
g71
NtRp302
(dp303
g74
(dp304
g82
I4
ssg83
g298
sg76
(lp305
S'127.0.0.1-f3e4b0cb-9e15-4e27-aeb8-da76724c4de5'
p306
ag69
(g78
g71
NtRp307
(dp308
g74
(dp309
g82
I3
ssg83
Nsg76
(lp310
g69
(g85
g71
NtRp311
(dp312
g74
(dp313
sg83
g307
sg76
(lp314
g69
(g90
g71
NtRp315
(dp316
g74
(dp317
g94
g95
ssg83
g311
sg76
(lp318
S'comment'
p319
asbag69
(g90
g71
NtRp320
(dp321
g74
(dp322
g101
g102
ssg83
g311
sg76
(lp323
S':'
asbag69
(g90
g71
NtRp324
(dp325
g74
(dp326
sg83
g311
sg76
(lp327
g69
(g70
g71
NtRp328
(dp329
g74
(dp330
g82
I3
ssg83
g324
sg76
(lp331
S''
asbasbasbag69
(g85
g71
NtRp332
(dp333
g74
(dp334
sg83
g307
sg76
(lp335
g69
(g90
g71
NtRp336
(dp337
g74
(dp338
g94
g95
ssg83
g332
sg76
(lp339
S'domain'
p340
asbag69
(g90
g71
NtRp341
(dp342
g74
(dp343
g101
g102
ssg83
g332
sg76
(lp344
S':'
asbag69
(g90
g71
NtRp345
(dp346
g74
(dp347
sg83
g332
sg76
(lp348
g69
(g70
g71
NtRp349
(dp350
g74
(dp351
g82
I3
ssg83
g345
sg76
(lp352
S''
asbasbasbag69
(g85
g71
NtRp353
(dp354
g74
(dp355
sg83
g307
sg76
(lp356
g69
(g90
g71
NtRp357
(dp358
g74
(dp359
g94
g95
ssg83
g353
sg76
(lp360
S'expires'
p361
asbag69
(g90
g71
NtRp362
(dp363
g74
(dp364
g101
g102
ssg83
g353
sg76
(lp365
S':'
asbag69
(g90
g71
NtRp366
(dp367
g74
(dp368
sg83
g353
sg76
(lp369
g69
(g70
g71
NtRp370
(dp371
g74
(dp372
g82
I3
ssg83
g366
sg76
(lp373
S''
asbasbasbag69
(g85
g71
NtRp374
(dp375
g74
(dp376
sg83
g307
sg76
(lp377
g69
(g90
g71
NtRp378
(dp379
g74
(dp380
g94
g95
ssg83
g374
sg76
(lp381
S'httponly'
p382
asbag69
(g90
g71
NtRp383
(dp384
g74
(dp385
g101
g102
ssg83
g374
sg76
(lp386
S':'
asbag69
(g90
g71
NtRp387
(dp388
g74
(dp389
sg83
g374
sg76
(lp390
g69
(g70
g71
NtRp391
(dp392
g74
(dp393
g82
I3
ssg83
g387
sg76
(lp394
S''
asbasbasbag69
(g85
g71
NtRp395
(dp396
g74
(dp397
sg83
g307
sg76
(lp398
g69
(g90
g71
NtRp399
(dp400
g74
(dp401
g94
g95
ssg83
g395
sg76
(lp402
S'max-age'
p403
asbag69
(g90
g71
NtRp404
(dp405
g74
(dp406
g101
g102
ssg83
g395
sg76
(lp407
S':'
asbag69
(g90
g71
NtRp408
(dp409
g74
(dp410
sg83
g395
sg76
(lp411
g69
(g70
g71
NtRp412
(dp413
g74
(dp414
g82
I3
ssg83
g408
sg76
(lp415
S''
asbasbasbag69
(g85
g71
NtRp416
(dp417
g74
(dp418
sg83
g307
sg76
(lp419
g69
(g90
g71
NtRp420
(dp421
g74
(dp422
g94
g95
ssg83
g416
sg76
(lp423
S'path'
p424
asbag69
(g90
g71
NtRp425
(dp426
g74
(dp427
g101
g102
ssg83
g416
sg76
(lp428
S':'
asbag69
(g90
g71
NtRp429
(dp430
g74
(dp431
sg83
g416
sg76
(lp432
g69
(g70
g71
NtRp433
(dp434
g74
(dp435
g82
I3
ssg83
g429
sg76
(lp436
S''
asbasbasbag69
(g85
g71
NtRp437
(dp438
g74
(dp439
sg83
g307
sg76
(lp440
g69
(g90
g71
NtRp441
(dp442
g74
(dp443
g94
g95
ssg83
g437
sg76
(lp444
S'secure'
p445
asbag69
(g90
g71
NtRp446
(dp447
g74
(dp448
g101
g102
ssg83
g437
sg76
(lp449
S':'
asbag69
(g90
g71
NtRp450
(dp451
g74
(dp452
sg83
g437
sg76
(lp453
g69
(g70
g71
NtRp454
(dp455
g74
(dp456
g82
I3
ssg83
g450
sg76
(lp457
S''
asbasbasbag69
(g85
g71
NtRp458
(dp459
g74
(dp460
sg83
g307
sg76
(lp461
g69
(g90
g71
NtRp462
(dp463
g74
(dp464
g94
g95
ssg83
g458
sg76
(lp465
S'version'
p466
asbag69
(g90
g71
NtRp467
(dp468
g74
(dp469
g101
g102
ssg83
g458
sg76
(lp470
S':'
asbag69
(g90
g71
NtRp471
(dp472
g74
(dp473
sg83
g458
sg76
(lp474
g69
(g70
g71
NtRp475
(dp476
g74
(dp477
g82
I3
ssg83
g471
sg76
(lp478
S''
asbasbasbasbasbasbasbag69
(g85
g71
NtRp479
(dp480
g74
(dp481
sg83
g281
sg76
(lp482
g69
(g90
g71
NtRp483
(dp484
g74
(dp485
g94
g95
ssg83
g479
sg76
(lp486
S'session_id_home'
p487
asbag69
(g90
g71
NtRp488
(dp489
g74
(dp490
g101
g102
ssg83
g479
sg76
(lp491
S':'
asbag69
(g90
g71
NtRp492
(dp493
g74
(dp494
sg83
g479
sg76
(lp495
g69
(g70
g71
NtRp496
(dp497
g74
(dp498
g82
I4
ssg83
g492
sg76
(lp499
S'127.0.0.1-2b8677ad-1026-452f-8f04-b3fb68dc6854'
p500
ag69
(g78
g71
NtRp501
(dp502
g74
(dp503
g82
I3
ssg83
Nsg76
(lp504
g69
(g85
g71
NtRp505
(dp506
g74
(dp507
sg83
g501
sg76
(lp508
g69
(g90
g71
NtRp509
(dp510
g74
(dp511
g94
g95
ssg83
g505
sg76
(lp512
g319
asbag69
(g90
g71
NtRp513
(dp514
g74
(dp515
g101
g102
ssg83
g505
sg76
(lp516
S':'
asbag69
(g90
g71
NtRp517
(dp518
g74
(dp519
sg83
g505
sg76
(lp520
g69
(g70
g71
NtRp521
(dp522
g74
(dp523
g82
I3
ssg83
g517
sg76
(lp524
S''
asbasbasbag69
(g85
g71
NtRp525
(dp526
g74
(dp527
sg83
g501
sg76
(lp528
g69
(g90
g71
NtRp529
(dp530
g74
(dp531
g94
g95
ssg83
g525
sg76
(lp532
g340
asbag69
(g90
g71
NtRp533
(dp534
g74
(dp535
g101
g102
ssg83
g525
sg76
(lp536
S':'
asbag69
(g90
g71
NtRp537
(dp538
g74
(dp539
sg83
g525
sg76
(lp540
g69
(g70
g71
NtRp541
(dp542
g74
(dp543
g82
I3
ssg83
g537
sg76
(lp544
S''
asbasbasbag69
(g85
g71
NtRp545
(dp546
g74
(dp547
sg83
g501
sg76
(lp548
g69
(g90
g71
NtRp549
(dp550
g74
(dp551
g94
g95
ssg83
g545
sg76
(lp552
g361
asbag69
(g90
g71
NtRp553
(dp554
g74
(dp555
g101
g102
ssg83
g545
sg76
(lp556
S':'
asbag69
(g90
g71
NtRp557
(dp558
g74
(dp559
sg83
g545
sg76
(lp560
g69
(g70
g71
NtRp561
(dp562
g74
(dp563
g82
I3
ssg83
g557
sg76
(lp564
S''
asbasbasbag69
(g85
g71
NtRp565
(dp566
g74
(dp567
sg83
g501
sg76
(lp568
g69
(g90
g71
NtRp569
(dp570
g74
(dp571
g94
g95
ssg83
g565
sg76
(lp572
g382
asbag69
(g90
g71
NtRp573
(dp574
g74
(dp575
g101
g102
ssg83
g565
sg76
(lp576
S':'
asbag69
(g90
g71
NtRp577
(dp578
g74
(dp579
sg83
g565
sg76
(lp580
g69
(g70
g71
NtRp581
(dp582
g74
(dp583
g82
I3
ssg83
g577
sg76
(lp584
S''
asbasbasbag69
(g85
g71
NtRp585
(dp586
g74
(dp587
sg83
g501
sg76
(lp588
g69
(g90
g71
NtRp589
(dp590
g74
(dp591
g94
g95
ssg83
g585
sg76
(lp592
g403
asbag69
(g90
g71
NtRp593
(dp594
g74
(dp595
g101
g102
ssg83
g585
sg76
(lp596
S':'
asbag69
(g90
g71
NtRp597
(dp598
g74
(dp599
sg83
g585
sg76
(lp600
g69
(g70
g71
NtRp601
(dp602
g74
(dp603
g82
I3
ssg83
g597
sg76
(lp604
S''
asbasbasbag69
(g85
g71
NtRp605
(dp606
g74
(dp607
sg83
g501
sg76
(lp608
g69
(g90
g71
NtRp609
(dp610
g74
(dp611
g94
g95
ssg83
g605
sg76
(lp612
g424
asbag69
(g90
g71
NtRp613
(dp614
g74
(dp615
g101
g102
ssg83
g605
sg76
(lp616
S':'
asbag69
(g90
g71
NtRp617
(dp618
g74
(dp619
sg83
g605
sg76
(lp620
g69
(g70
g71
NtRp621
(dp622
g74
(dp623
g82
I3
ssg83
g617
sg76
(lp624
S''
asbasbasbag69
(g85
g71
NtRp625
(dp626
g74
(dp627
sg83
g501
sg76
(lp628
g69
(g90
g71
NtRp629
(dp630
g74
(dp631
g94
g95
ssg83
g625
sg76
(lp632
g445
asbag69
(g90
g71
NtRp633
(dp634
g74
(dp635
g101
g102
ssg83
g625
sg76
(lp636
S':'
asbag69
(g90
g71
NtRp637
(dp638
g74
(dp639
sg83
g625
sg76
(lp640
g69
(g70
g71
NtRp641
(dp642
g74
(dp643
g82
I3
ssg83
g637
sg76
(lp644
S''
asbasbasbag69
(g85
g71
NtRp645
(dp646
g74
(dp647
sg83
g501
sg76
(lp648
g69
(g90
g71
NtRp649
(dp650
g74
(dp651
g94
g95
ssg83
g645
sg76
(lp652
g466
asbag69
(g90
g71
NtRp653
(dp654
g74
(dp655
g101
g102
ssg83
g645
sg76
(lp656
S':'
asbag69
(g90
g71
NtRp657
(dp658
g74
(dp659
sg83
g645
sg76
(lp660
g69
(g70
g71
NtRp661
(dp662
g74
(dp663
g82
I3
ssg83
g657
sg76
(lp664
S''
asbasbasbasbasbasbasbag69
(g85
g71
NtRp665
(dp666
g74
(dp667
sg83
g281
sg76
(lp668
g69
(g90
g71
NtRp669
(dp670
g74
(dp671
g94
g95
ssg83
g665
sg76
(lp672
S'session_id_projeto'
p673
asbag69
(g90
g71
NtRp674
(dp675
g74
(dp676
g101
g102
ssg83
g665
sg76
(lp677
S':'
asbag69
(g90
g71
NtRp678
(dp679
g74
(dp680
sg83
g665
sg76
(lp681
g69
(g70
g71
NtRp682
(dp683
g74
(dp684
g82
I4
ssg83
g678
sg76
(lp685
S'127.0.0.1-e368b264-444a-4dee-8b41-31155ff54a04'
p686
ag69
(g78
g71
NtRp687
(dp688
g74
(dp689
g82
I3
ssg83
Nsg76
(lp690
g69
(g85
g71
NtRp691
(dp692
g74
(dp693
sg83
g687
sg76
(lp694
g69
(g90
g71
NtRp695
(dp696
g74
(dp697
g94
g95
ssg83
g691
sg76
(lp698
g319
asbag69
(g90
g71
NtRp699
(dp700
g74
(dp701
g101
g102
ssg83
g691
sg76
(lp702
S':'
asbag69
(g90
g71
NtRp703
(dp704
g74
(dp705
sg83
g691
sg76
(lp706
g69
(g70
g71
NtRp707
(dp708
g74
(dp709
g82
I3
ssg83
g703
sg76
(lp710
S''
asbasbasbag69
(g85
g71
NtRp711
(dp712
g74
(dp713
sg83
g687
sg76
(lp714
g69
(g90
g71
NtRp715
(dp716
g74
(dp717
g94
g95
ssg83
g711
sg76
(lp718
g340
asbag69
(g90
g71
NtRp719
(dp720
g74
(dp721
g101
g102
ssg83
g711
sg76
(lp722
S':'
asbag69
(g90
g71
NtRp723
(dp724
g74
(dp725
sg83
g711
sg76
(lp726
g69
(g70
g71
NtRp727
(dp728
g74
(dp729
g82
I3
ssg83
g723
sg76
(lp730
S''
asbasbasbag69
(g85
g71
NtRp731
(dp732
g74
(dp733
sg83
g687
sg76
(lp734
g69
(g90
g71
NtRp735
(dp736
g74
(dp737
g94
g95
ssg83
g731
sg76
(lp738
g361
asbag69
(g90
g71
NtRp739
(dp740
g74
(dp741
g101
g102
ssg83
g731
sg76
(lp742
S':'
asbag69
(g90
g71
NtRp743
(dp744
g74
(dp745
sg83
g731
sg76
(lp746
g69
(g70
g71
NtRp747
(dp748
g74
(dp749
g82
I3
ssg83
g743
sg76
(lp750
S''
asbasbasbag69
(g85
g71
NtRp751
(dp752
g74
(dp753
sg83
g687
sg76
(lp754
g69
(g90
g71
NtRp755
(dp756
g74
(dp757
g94
g95
ssg83
g751
sg76
(lp758
g382
asbag69
(g90
g71
NtRp759
(dp760
g74
(dp761
g101
g102
ssg83
g751
sg76
(lp762
S':'
asbag69
(g90
g71
NtRp763
(dp764
g74
(dp765
sg83
g751
sg76
(lp766
g69
(g70
g71
NtRp767
(dp768
g74
(dp769
g82
I3
ssg83
g763
sg76
(lp770
S''
asbasbasbag69
(g85
g71
NtRp771
(dp772
g74
(dp773
sg83
g687
sg76
(lp774
g69
(g90
g71
NtRp775
(dp776
g74
(dp777
g94
g95
ssg83
g771
sg76
(lp778
g403
asbag69
(g90
g71
NtRp779
(dp780
g74
(dp781
g101
g102
ssg83
g771
sg76
(lp782
S':'
asbag69
(g90
g71
NtRp783
(dp784
g74
(dp785
sg83
g771
sg76
(lp786
g69
(g70
g71
NtRp787
(dp788
g74
(dp789
g82
I3
ssg83
g783
sg76
(lp790
S''
asbasbasbag69
(g85
g71
NtRp791
(dp792
g74
(dp793
sg83
g687
sg76
(lp794
g69
(g90
g71
NtRp795
(dp796
g74
(dp797
g94
g95
ssg83
g791
sg76
(lp798
g424
asbag69
(g90
g71
NtRp799
(dp800
g74
(dp801
g101
g102
ssg83
g791
sg76
(lp802
S':'
asbag69
(g90
g71
NtRp803
(dp804
g74
(dp805
sg83
g791
sg76
(lp806
g69
(g70
g71
NtRp807
(dp808
g74
(dp809
g82
I3
ssg83
g803
sg76
(lp810
S''
asbasbasbag69
(g85
g71
NtRp811
(dp812
g74
(dp813
sg83
g687
sg76
(lp814
g69
(g90
g71
NtRp815
(dp816
g74
(dp817
g94
g95
ssg83
g811
sg76
(lp818
g445
asbag69
(g90
g71
NtRp819
(dp820
g74
(dp821
g101
g102
ssg83
g811
sg76
(lp822
S':'
asbag69
(g90
g71
NtRp823
(dp824
g74
(dp825
sg83
g811
sg76
(lp826
g69
(g70
g71
NtRp827
(dp828
g74
(dp829
g82
I3
ssg83
g823
sg76
(lp830
S''
asbasbasbag69
(g85
g71
NtRp831
(dp832
g74
(dp833
sg83
g687
sg76
(lp834
g69
(g90
g71
NtRp835
(dp836
g74
(dp837
g94
g95
ssg83
g831
sg76
(lp838
g466
asbag69
(g90
g71
NtRp839
(dp840
g74
(dp841
g101
g102
ssg83
g831
sg76
(lp842
S':'
asbag69
(g90
g71
NtRp843
(dp844
g74
(dp845
sg83
g831
sg76
(lp846
g69
(g70
g71
NtRp847
(dp848
g74
(dp849
g82
I3
ssg83
g843
sg76
(lp850
S''
asbasbasbasbasbasbasbasbasbasbasbag69
(g85
g71
NtRp851
(dp852
g74
(dp853
sg83
g79
sg76
(lp854
g69
(g90
g71
NtRp855
(dp856
g74
(dp857
g94
g95
ssg83
g851
sg76
(lp858
S'env'
p859
asbag69
(g90
g71
NtRp860
(dp861
g74
(dp862
g101
g102
ssg83
g851
sg76
(lp863
S':'
asbag69
(g90
g71
NtRp864
(dp865
g74
(dp866
sg83
g851
sg76
(lp867
g69
(g70
g71
NtRp868
(dp869
g74
(dp870
g82
I5
ssg83
g864
sg76
(lp871
g69
(g78
g71
NtRp872
(dp873
g74
(dp874
g82
I4
ssg83
Nsg76
(lp875
g69
(g85
g71
NtRp876
(dp877
g74
(dp878
sg83
g872
sg76
(lp879
g69
(g90
g71
NtRp880
(dp881
g74
(dp882
g94
g95
ssg83
g876
sg76
(lp883
S'app_folders'
p884
asbag69
(g90
g71
NtRp885
(dp886
g74
(dp887
g101
g102
ssg83
g876
sg76
(lp888
S':'
asbag69
(g90
g71
NtRp889
(dp890
g74
(dp891
sg83
g876
sg76
(lp892
g69
(g70
g71
NtRp893
(dp894
g74
(dp895
g82
I4
ssg83
g889
sg76
(lp896
S"set(['/var/www/web2py_curso/applications/home/', '/var/www/web2py_curso/applications/admin/', '/var/www/web2py_curso/applications/projeto/'])"
p897
asbasbasbag69
(g85
g71
NtRp898
(dp899
g74
(dp900
sg83
g872
sg76
(lp901
g69
(g90
g71
NtRp902
(dp903
g74
(dp904
g94
g95
ssg83
g898
sg76
(lp905
S'applications_parent'
p906
asbag69
(g90
g71
NtRp907
(dp908
g74
(dp909
g101
g102
ssg83
g898
sg76
(lp910
S':'
asbag69
(g90
g71
NtRp911
(dp912
g74
(dp913
sg83
g898
sg76
(lp914
g69
(g70
g71
NtRp915
(dp916
g74
(dp917
g82
I4
ssg83
g911
sg76
(lp918
S'/var/www/web2py_curso'
p919
asbasbasbag69
(g85
g71
NtRp920
(dp921
g74
(dp922
sg83
g872
sg76
(lp923
g69
(g90
g71
NtRp924
(dp925
g74
(dp926
g94
g95
ssg83
g920
sg76
(lp927
S'cmd_args'
p928
asbag69
(g90
g71
NtRp929
(dp930
g74
(dp931
g101
g102
ssg83
g920
sg76
(lp932
S':'
asbag69
(g90
g71
NtRp933
(dp934
g74
(dp935
sg83
g920
sg76
(lp936
g69
(g70
g71
NtRp937
(dp938
g74
(dp939
g82
I4
ssg83
g933
sg76
(lp940
g69
(g78
g71
NtRp941
(dp942
g74
(dp943
g82
I3
ssg83
Nsg76
(lp944
sbasbasbasbag69
(g85
g71
NtRp945
(dp946
g74
(dp947
sg83
g872
sg76
(lp948
g69
(g90
g71
NtRp949
(dp950
g74
(dp951
g94
g95
ssg83
g945
sg76
(lp952
S'cmd_options'
p953
asbag69
(g90
g71
NtRp954
(dp955
g74
(dp956
g101
g102
ssg83
g945
sg76
(lp957
S':'
asbag69
(g90
g71
NtRp958
(dp959
g74
(dp960
sg83
g945
sg76
(lp961
g69
(g70
g71
NtRp962
(dp963
g74
(dp964
g82
I4
ssg83
g958
sg76
(lp965
S"<Values at 0x2d53488: {'verbose': False, 'ip': '127.0.0.1', 'with_scheduler': False, 'ips': [], 'shutdown_timeout': 5, 'taskbar': False, 'port': 8000, 'maxthreads': None, 'softcron': False, 'server_name': 'fernado-desktop', 'bpython': False, 'nogui': False, 'pid_filename': 'httpserver.pid', 'extcron': False, 'runcron': False, 'run_system_tests': False, 'test': None, 'folder': '/var/www/web2py_curso', 'config': '', 'minthreads': None, 'winservice': '', 'shell': None, 'run': '', 'log_filename': 'httpserver.log', 'debuglevel': 30, 'args': [''], 'socket_timeout': 5, 'ssl_ca_certificate': None, 'scheduler': None, 'profiler_filename': None, 'ssl_private_key': '', 'scheduler_groups': None, 'password': '123456', 'request_queue_size': 5, 'ssl_certificate': '', 'cronjob': False, 'numthreads': None, 'quiet': False, 'interfaces': None, 'import_models': False, 'timeout': 10, 'plain': False, 'nobanner': False}>"
p966
asbasbasbag69
(g85
g71
NtRp967
(dp968
g74
(dp969
sg83
g872
sg76
(lp970
g69
(g90
g71
NtRp971
(dp972
g74
(dp973
g94
g95
ssg83
g967
sg76
(lp974
S'db_sessions'
p975
asbag69
(g90
g71
NtRp976
(dp977
g74
(dp978
g101
g102
ssg83
g967
sg76
(lp979
S':'
asbag69
(g90
g71
NtRp980
(dp981
g74
(dp982
sg83
g967
sg76
(lp983
g69
(g70
g71
NtRp984
(dp985
g74
(dp986
g82
I4
ssg83
g980
sg76
(lp987
S'set([])'
p988
asbasbasbag69
(g85
g71
NtRp989
(dp990
g74
(dp991
sg83
g872
sg76
(lp992
g69
(g90
g71
NtRp993
(dp994
g74
(dp995
g94
g95
ssg83
g989
sg76
(lp996
S'debugging'
p997
asbag69
(g90
g71
NtRp998
(dp999
g74
(dp1000
g101
g102
ssg83
g989
sg76
(lp1001
S':'
asbag69
(g90
g71
NtRp1002
(dp1003
g74
(dp1004
sg83
g989
sg76
(lp1005
g69
(g70
g71
NtRp1006
(dp1007
g74
(dp1008
g82
I4
ssg83
g1002
sg76
(lp1009
g112
asbasbasbag69
(g85
g71
NtRp1010
(dp1011
g74
(dp1012
sg83
g872
sg76
(lp1013
g69
(g90
g71
NtRp1014
(dp1015
g74
(dp1016
g94
g95
ssg83
g1010
sg76
(lp1017
S'gluon_parent'
p1018
asbag69
(g90
g71
NtRp1019
(dp1020
g74
(dp1021
g101
g102
ssg83
g1010
sg76
(lp1022
S':'
asbag69
(g90
g71
NtRp1023
(dp1024
g74
(dp1025
sg83
g1010
sg76
(lp1026
g69
(g70
g71
NtRp1027
(dp1028
g74
(dp1029
g82
I4
ssg83
g1023
sg76
(lp1030
S'/var/www/web2py_curso'
p1031
asbasbasbag69
(g85
g71
NtRp1032
(dp1033
g74
(dp1034
sg83
g872
sg76
(lp1035
g69
(g90
g71
NtRp1036
(dp1037
g74
(dp1038
g94
g95
ssg83
g1032
sg76
(lp1039
S'http_accept'
p1040
asbag69
(g90
g71
NtRp1041
(dp1042
g74
(dp1043
g101
g102
ssg83
g1032
sg76
(lp1044
S':'
asbag69
(g90
g71
NtRp1045
(dp1046
g74
(dp1047
sg83
g1032
sg76
(lp1048
g69
(g70
g71
NtRp1049
(dp1050
g74
(dp1051
g82
I4
ssg83
g1045
sg76
(lp1052
S'text/html,application/xhtml+xml,application/xml;q=0.9,*/*;q=0.8'
p1053
asbasbasbag69
(g85
g71
NtRp1054
(dp1055
g74
(dp1056
sg83
g872
sg76
(lp1057
g69
(g90
g71
NtRp1058
(dp1059
g74
(dp1060
g94
g95
ssg83
g1054
sg76
(lp1061
S'http_accept_charset'
p1062
asbag69
(g90
g71
NtRp1063
(dp1064
g74
(dp1065
g101
g102
ssg83
g1054
sg76
(lp1066
S':'
asbag69
(g90
g71
NtRp1067
(dp1068
g74
(dp1069
sg83
g1054
sg76
(lp1070
g69
(g70
g71
NtRp1071
(dp1072
g74
(dp1073
g82
I4
ssg83
g1067
sg76
(lp1074
S'ISO-8859-1,utf-8;q=0.7,*;q=0.3'
p1075
asbasbasbag69
(g85
g71
NtRp1076
(dp1077
g74
(dp1078
sg83
g872
sg76
(lp1079
g69
(g90
g71
NtRp1080
(dp1081
g74
(dp1082
g94
g95
ssg83
g1076
sg76
(lp1083
S'http_accept_encoding'
p1084
asbag69
(g90
g71
NtRp1085
(dp1086
g74
(dp1087
g101
g102
ssg83
g1076
sg76
(lp1088
S':'
asbag69
(g90
g71
NtRp1089
(dp1090
g74
(dp1091
sg83
g1076
sg76
(lp1092
g69
(g70
g71
NtRp1093
(dp1094
g74
(dp1095
g82
I4
ssg83
g1089
sg76
(lp1096
S'gzip,deflate,sdch'
p1097
asbasbasbag69
(g85
g71
NtRp1098
(dp1099
g74
(dp1100
sg83
g872
sg76
(lp1101
g69
(g90
g71
NtRp1102
(dp1103
g74
(dp1104
g94
g95
ssg83
g1098
sg76
(lp1105
S'http_accept_language'
p1106
asbag69
(g90
g71
NtRp1107
(dp1108
g74
(dp1109
g101
g102
ssg83
g1098
sg76
(lp1110
S':'
asbag69
(g90
g71
NtRp1111
(dp1112
g74
(dp1113
sg83
g1098
sg76
(lp1114
g69
(g70
g71
NtRp1115
(dp1116
g74
(dp1117
g82
I4
ssg83
g1111
sg76
(lp1118
S'pt-BR,pt;q=0.8,en-US;q=0.6,en;q=0.4'
p1119
asbasbasbag69
(g85
g71
NtRp1120
(dp1121
g74
(dp1122
sg83
g872
sg76
(lp1123
g69
(g90
g71
NtRp1124
(dp1125
g74
(dp1126
g94
g95
ssg83
g1120
sg76
(lp1127
S'http_cache_control'
p1128
asbag69
(g90
g71
NtRp1129
(dp1130
g74
(dp1131
g101
g102
ssg83
g1120
sg76
(lp1132
S':'
asbag69
(g90
g71
NtRp1133
(dp1134
g74
(dp1135
sg83
g1120
sg76
(lp1136
g69
(g70
g71
NtRp1137
(dp1138
g74
(dp1139
g82
I4
ssg83
g1133
sg76
(lp1140
S'max-age=0'
p1141
asbasbasbag69
(g85
g71
NtRp1142
(dp1143
g74
(dp1144
sg83
g872
sg76
(lp1145
g69
(g90
g71
NtRp1146
(dp1147
g74
(dp1148
g94
g95
ssg83
g1142
sg76
(lp1149
S'http_connection'
p1150
asbag69
(g90
g71
NtRp1151
(dp1152
g74
(dp1153
g101
g102
ssg83
g1142
sg76
(lp1154
S':'
asbag69
(g90
g71
NtRp1155
(dp1156
g74
(dp1157
sg83
g1142
sg76
(lp1158
g69
(g70
g71
NtRp1159
(dp1160
g74
(dp1161
g82
I4
ssg83
g1155
sg76
(lp1162
S'keep-alive'
p1163
asbasbasbag69
(g85
g71
NtRp1164
(dp1165
g74
(dp1166
sg83
g872
sg76
(lp1167
g69
(g90
g71
NtRp1168
(dp1169
g74
(dp1170
g94
g95
ssg83
g1164
sg76
(lp1171
S'http_cookie'
p1172
asbag69
(g90
g71
NtRp1173
(dp1174
g74
(dp1175
g101
g102
ssg83
g1164
sg76
(lp1176
S':'
asbag69
(g90
g71
NtRp1177
(dp1178
g74
(dp1179
sg83
g1164
sg76
(lp1180
g69
(g70
g71
NtRp1181
(dp1182
g74
(dp1183
g82
I4
ssg83
g1177
sg76
(lp1184
S'session_id_home=127.0.0.1-2b8677ad-1026-452f-8f04-b3fb68dc6854; session_id_admin=127.0.0.1-f3e4b0cb-9e15-4e27-aeb8-da76724c4de5; session_id_projeto=127.0.0.1-e368b264-444a-4dee-8b41-31155ff54a04'
p1185
asbasbasbag69
(g85
g71
NtRp1186
(dp1187
g74
(dp1188
sg83
g872
sg76
(lp1189
g69
(g90
g71
NtRp1190
(dp1191
g74
(dp1192
g94
g95
ssg83
g1186
sg76
(lp1193
S'http_host'
p1194
asbag69
(g90
g71
NtRp1195
(dp1196
g74
(dp1197
g101
g102
ssg83
g1186
sg76
(lp1198
S':'
asbag69
(g90
g71
NtRp1199
(dp1200
g74
(dp1201
sg83
g1186
sg76
(lp1202
g69
(g70
g71
NtRp1203
(dp1204
g74
(dp1205
g82
I4
ssg83
g1199
sg76
(lp1206
S'127.0.0.1:8000'
p1207
asbasbasbag69
(g85
g71
NtRp1208
(dp1209
g74
(dp1210
sg83
g872
sg76
(lp1211
g69
(g90
g71
NtRp1212
(dp1213
g74
(dp1214
g94
g95
ssg83
g1208
sg76
(lp1215
S'http_user_agent'
p1216
asbag69
(g90
g71
NtRp1217
(dp1218
g74
(dp1219
g101
g102
ssg83
g1208
sg76
(lp1220
S':'
asbag69
(g90
g71
NtRp1221
(dp1222
g74
(dp1223
sg83
g1208
sg76
(lp1224
g69
(g70
g71
NtRp1225
(dp1226
g74
(dp1227
g82
I4
ssg83
g1221
sg76
(lp1228
S'Mozilla/5.0 (X11; Linux x86_64) AppleWebKit/537.4 (KHTML, like Gecko) Ubuntu/12.10 Chromium/22.0.1229.94 Chrome/22.0.1229.94 Safari/537.4'
p1229
asbasbasbag69
(g85
g71
NtRp1230
(dp1231
g74
(dp1232
sg83
g872
sg76
(lp1233
g69
(g90
g71
NtRp1234
(dp1235
g74
(dp1236
g94
g95
ssg83
g1230
sg76
(lp1237
S'is_jython'
p1238
asbag69
(g90
g71
NtRp1239
(dp1240
g74
(dp1241
g101
g102
ssg83
g1230
sg76
(lp1242
S':'
asbag69
(g90
g71
NtRp1243
(dp1244
g74
(dp1245
sg83
g1230
sg76
(lp1246
g69
(g70
g71
NtRp1247
(dp1248
g74
(dp1249
g82
I4
ssg83
g1243
sg76
(lp1250
g112
asbasbasbag69
(g85
g71
NtRp1251
(dp1252
g74
(dp1253
sg83
g872
sg76
(lp1254
g69
(g90
g71
NtRp1255
(dp1256
g74
(dp1257
g94
g95
ssg83
g1251
sg76
(lp1258
S'is_pypy'
p1259
asbag69
(g90
g71
NtRp1260
(dp1261
g74
(dp1262
g101
g102
ssg83
g1251
sg76
(lp1263
S':'
asbag69
(g90
g71
NtRp1264
(dp1265
g74
(dp1266
sg83
g1251
sg76
(lp1267
g69
(g70
g71
NtRp1268
(dp1269
g74
(dp1270
g82
I4
ssg83
g1264
sg76
(lp1271
g112
asbasbasbag69
(g85
g71
NtRp1272
(dp1273
g74
(dp1274
sg83
g872
sg76
(lp1275
g69
(g90
g71
NtRp1276
(dp1277
g74
(dp1278
g94
g95
ssg83
g1272
sg76
(lp1279
S'local_hosts'
p1280
asbag69
(g90
g71
NtRp1281
(dp1282
g74
(dp1283
g101
g102
ssg83
g1272
sg76
(lp1284
S':'
asbag69
(g90
g71
NtRp1285
(dp1286
g74
(dp1287
sg83
g1272
sg76
(lp1288
g69
(g70
g71
NtRp1289
(dp1290
g74
(dp1291
g82
I4
ssg83
g1285
sg76
(lp1292
g69
(g78
g71
NtRp1293
(dp1294
g74
(dp1295
g82
I3
ssg83
Nsg76
(lp1296
g69
(g85
g71
NtRp1297
(dp1298
g74
(dp1299
sg83
g1293
sg76
(lp1300
g69
(g90
g71
NtRp1301
(dp1302
g74
(dp1303
sg83
g1297
sg76
(lp1304
g69
(g70
g71
NtRp1305
(dp1306
g74
(dp1307
g82
I3
ssg83
g1301
sg76
(lp1308
S'127.0.1.1'
p1309
asbasbasbag69
(g85
g71
NtRp1310
(dp1311
g74
(dp1312
sg83
g1293
sg76
(lp1313
g69
(g90
g71
NtRp1314
(dp1315
g74
(dp1316
sg83
g1310
sg76
(lp1317
g69
(g70
g71
NtRp1318
(dp1319
g74
(dp1320
g82
I3
ssg83
g1314
sg76
(lp1321
S'::1'
p1322
asbasbasbag69
(g85
g71
NtRp1323
(dp1324
g74
(dp1325
sg83
g1293
sg76
(lp1326
g69
(g90
g71
NtRp1327
(dp1328
g74
(dp1329
sg83
g1323
sg76
(lp1330
g69
(g70
g71
NtRp1331
(dp1332
g74
(dp1333
g82
I3
ssg83
g1327
sg76
(lp1334
S'fernado-desktop'
p1335
asbasbasbag69
(g85
g71
NtRp1336
(dp1337
g74
(dp1338
sg83
g1293
sg76
(lp1339
g69
(g90
g71
NtRp1340
(dp1341
g74
(dp1342
sg83
g1336
sg76
(lp1343
g69
(g70
g71
NtRp1344
(dp1345
g74
(dp1346
g82
I3
ssg83
g1340
sg76
(lp1347
S'::ffff:127.0.0.1'
p1348
asbasbasbag69
(g85
g71
NtRp1349
(dp1350
g74
(dp1351
sg83
g1293
sg76
(lp1352
g69
(g90
g71
NtRp1353
(dp1354
g74
(dp1355
sg83
g1349
sg76
(lp1356
g69
(g70
g71
NtRp1357
(dp1358
g74
(dp1359
g82
I3
ssg83
g1353
sg76
(lp1360
S'127.0.0.1'
p1361
asbasbasbasbasbasbasbag69
(g85
g71
NtRp1362
(dp1363
g74
(dp1364
sg83
g872
sg76
(lp1365
g69
(g90
g71
NtRp1366
(dp1367
g74
(dp1368
g94
g95
ssg83
g1362
sg76
(lp1369
S'path_info'
p1370
asbag69
(g90
g71
NtRp1371
(dp1372
g74
(dp1373
g101
g102
ssg83
g1362
sg76
(lp1374
S':'
asbag69
(g90
g71
NtRp1375
(dp1376
g74
(dp1377
sg83
g1362
sg76
(lp1378
g69
(g70
g71
NtRp1379
(dp1380
g74
(dp1381
g82
I4
ssg83
g1375
sg76
(lp1382
S'/user/register'
p1383
asbasbasbag69
(g85
g71
NtRp1384
(dp1385
g74
(dp1386
sg83
g872
sg76
(lp1387
g69
(g90
g71
NtRp1388
(dp1389
g74
(dp1390
g94
g95
ssg83
g1384
sg76
(lp1391
S'query_string'
p1392
asbag69
(g90
g71
NtRp1393
(dp1394
g74
(dp1395
g101
g102
ssg83
g1384
sg76
(lp1396
S':'
asbag69
(g90
g71
NtRp1397
(dp1398
g74
(dp1399
sg83
g1384
sg76
(lp1400
g69
(g70
g71
NtRp1401
(dp1402
g74
(dp1403
g82
I4
ssg83
g1397
sg76
(lp1404
S''
asbasbasbag69
(g85
g71
NtRp1405
(dp1406
g74
(dp1407
sg83
g872
sg76
(lp1408
g69
(g90
g71
NtRp1409
(dp1410
g74
(dp1411
g94
g95
ssg83
g1405
sg76
(lp1412
S'remote_addr'
p1413
asbag69
(g90
g71
NtRp1414
(dp1415
g74
(dp1416
g101
g102
ssg83
g1405
sg76
(lp1417
S':'
asbag69
(g90
g71
NtRp1418
(dp1419
g74
(dp1420
sg83
g1405
sg76
(lp1421
g69
(g70
g71
NtRp1422
(dp1423
g74
(dp1424
g82
I4
ssg83
g1418
sg76
(lp1425
g237
asbasbasbag69
(g85
g71
NtRp1426
(dp1427
g74
(dp1428
sg83
g872
sg76
(lp1429
g69
(g90
g71
NtRp1430
(dp1431
g74
(dp1432
g94
g95
ssg83
g1426
sg76
(lp1433
S'remote_port'
p1434
asbag69
(g90
g71
NtRp1435
(dp1436
g74
(dp1437
g101
g102
ssg83
g1426
sg76
(lp1438
S':'
asbag69
(g90
g71
NtRp1439
(dp1440
g74
(dp1441
sg83
g1426
sg76
(lp1442
g69
(g70
g71
NtRp1443
(dp1444
g74
(dp1445
g82
I4
ssg83
g1439
sg76
(lp1446
S'59590'
p1447
asbasbasbag69
(g85
g71
NtRp1448
(dp1449
g74
(dp1450
sg83
g872
sg76
(lp1451
g69
(g90
g71
NtRp1452
(dp1453
g74
(dp1454
g94
g95
ssg83
g1448
sg76
(lp1455
S'request_method'
p1456
asbag69
(g90
g71
NtRp1457
(dp1458
g74
(dp1459
g101
g102
ssg83
g1448
sg76
(lp1460
S':'
asbag69
(g90
g71
NtRp1461
(dp1462
g74
(dp1463
sg83
g1448
sg76
(lp1464
g69
(g70
g71
NtRp1465
(dp1466
g74
(dp1467
g82
I4
ssg83
g1461
sg76
(lp1468
S'GET'
p1469
asbasbasbag69
(g85
g71
NtRp1470
(dp1471
g74
(dp1472
sg83
g872
sg76
(lp1473
g69
(g90
g71
NtRp1474
(dp1475
g74
(dp1476
g94
g95
ssg83
g1470
sg76
(lp1477
S'request_uri'
p1478
asbag69
(g90
g71
NtRp1479
(dp1480
g74
(dp1481
g101
g102
ssg83
g1470
sg76
(lp1482
S':'
asbag69
(g90
g71
NtRp1483
(dp1484
g74
(dp1485
sg83
g1470
sg76
(lp1486
g69
(g70
g71
NtRp1487
(dp1488
g74
(dp1489
g82
I4
ssg83
g1483
sg76
(lp1490
S'/projeto/initial/user/register'
p1491
asbasbasbag69
(g85
g71
NtRp1492
(dp1493
g74
(dp1494
sg83
g872
sg76
(lp1495
g69
(g90
g71
NtRp1496
(dp1497
g74
(dp1498
g94
g95
ssg83
g1492
sg76
(lp1499
S'script_name'
p1500
asbag69
(g90
g71
NtRp1501
(dp1502
g74
(dp1503
g101
g102
ssg83
g1492
sg76
(lp1504
S':'
asbag69
(g90
g71
NtRp1505
(dp1506
g74
(dp1507
sg83
g1492
sg76
(lp1508
g69
(g70
g71
NtRp1509
(dp1510
g74
(dp1511
g82
I4
ssg83
g1505
sg76
(lp1512
S''
asbasbasbag69
(g85
g71
NtRp1513
(dp1514
g74
(dp1515
sg83
g872
sg76
(lp1516
g69
(g90
g71
NtRp1517
(dp1518
g74
(dp1519
g94
g95
ssg83
g1513
sg76
(lp1520
S'server_name'
p1521
asbag69
(g90
g71
NtRp1522
(dp1523
g74
(dp1524
g101
g102
ssg83
g1513
sg76
(lp1525
S':'
asbag69
(g90
g71
NtRp1526
(dp1527
g74
(dp1528
sg83
g1513
sg76
(lp1529
g69
(g70
g71
NtRp1530
(dp1531
g74
(dp1532
g82
I4
ssg83
g1526
sg76
(lp1533
S'fernado-desktop'
p1534
asbasbasbag69
(g85
g71
NtRp1535
(dp1536
g74
(dp1537
sg83
g872
sg76
(lp1538
g69
(g90
g71
NtRp1539
(dp1540
g74
(dp1541
g94
g95
ssg83
g1535
sg76
(lp1542
S'server_port'
p1543
asbag69
(g90
g71
NtRp1544
(dp1545
g74
(dp1546
g101
g102
ssg83
g1535
sg76
(lp1547
S':'
asbag69
(g90
g71
NtRp1548
(dp1549
g74
(dp1550
sg83
g1535
sg76
(lp1551
g69
(g70
g71
NtRp1552
(dp1553
g74
(dp1554
g82
I4
ssg83
g1548
sg76
(lp1555
S'8000'
p1556
asbasbasbag69
(g85
g71
NtRp1557
(dp1558
g74
(dp1559
sg83
g872
sg76
(lp1560
g69
(g90
g71
NtRp1561
(dp1562
g74
(dp1563
g94
g95
ssg83
g1557
sg76
(lp1564
S'server_protocol'
p1565
asbag69
(g90
g71
NtRp1566
(dp1567
g74
(dp1568
g101
g102
ssg83
g1557
sg76
(lp1569
S':'
asbag69
(g90
g71
NtRp1570
(dp1571
g74
(dp1572
sg83
g1557
sg76
(lp1573
g69
(g70
g71
NtRp1574
(dp1575
g74
(dp1576
g82
I4
ssg83
g1570
sg76
(lp1577
S'HTTP/1.1'
p1578
asbasbasbag69
(g85
g71
NtRp1579
(dp1580
g74
(dp1581
sg83
g872
sg76
(lp1582
g69
(g90
g71
NtRp1583
(dp1584
g74
(dp1585
g94
g95
ssg83
g1579
sg76
(lp1586
S'server_software'
p1587
asbag69
(g90
g71
NtRp1588
(dp1589
g74
(dp1590
g101
g102
ssg83
g1579
sg76
(lp1591
S':'
asbag69
(g90
g71
NtRp1592
(dp1593
g74
(dp1594
sg83
g1579
sg76
(lp1595
g69
(g70
g71
NtRp1596
(dp1597
g74
(dp1598
g82
I4
ssg83
g1592
sg76
(lp1599
S'Rocket 1.2.6'
p1600
asbasbasbag69
(g85
g71
NtRp1601
(dp1602
g74
(dp1603
sg83
g872
sg76
(lp1604
g69
(g90
g71
NtRp1605
(dp1606
g74
(dp1607
g94
g95
ssg83
g1601
sg76
(lp1608
S'web2py_original_uri'
p1609
asbag69
(g90
g71
NtRp1610
(dp1611
g74
(dp1612
g101
g102
ssg83
g1601
sg76
(lp1613
S':'
asbag69
(g90
g71
NtRp1614
(dp1615
g74
(dp1616
sg83
g1601
sg76
(lp1617
g69
(g70
g71
NtRp1618
(dp1619
g74
(dp1620
g82
I4
ssg83
g1614
sg76
(lp1621
g1383
asbasbasbag69
(g85
g71
NtRp1622
(dp1623
g74
(dp1624
sg83
g872
sg76
(lp1625
g69
(g90
g71
NtRp1626
(dp1627
g74
(dp1628
g94
g95
ssg83
g1622
sg76
(lp1629
S'web2py_path'
p1630
asbag69
(g90
g71
NtRp1631
(dp1632
g74
(dp1633
g101
g102
ssg83
g1622
sg76
(lp1634
S':'
asbag69
(g90
g71
NtRp1635
(dp1636
g74
(dp1637
sg83
g1622
sg76
(lp1638
g69
(g70
g71
NtRp1639
(dp1640
g74
(dp1641
g82
I4
ssg83
g1635
sg76
(lp1642
g919
asbasbasbag69
(g85
g71
NtRp1643
(dp1644
g74
(dp1645
sg83
g872
sg76
(lp1646
g69
(g90
g71
NtRp1647
(dp1648
g74
(dp1649
g94
g95
ssg83
g1643
sg76
(lp1650
S'web2py_version'
p1651
asbag69
(g90
g71
NtRp1652
(dp1653
g74
(dp1654
g101
g102
ssg83
g1643
sg76
(lp1655
S':'
asbag69
(g90
g71
NtRp1656
(dp1657
g74
(dp1658
sg83
g1643
sg76
(lp1659
g69
(g70
g71
NtRp1660
(dp1661
g74
(dp1662
g82
I4
ssg83
g1656
sg76
(lp1663
g69
(g78
g71
NtRp1664
(dp1665
g74
(dp1666
g82
I3
ssg83
Nsg76
(lp1667
g69
(g85
g71
NtRp1668
(dp1669
g74
(dp1670
sg83
g1664
sg76
(lp1671
g69
(g90
g71
NtRp1672
(dp1673
g74
(dp1674
sg83
g1668
sg76
(lp1675
g69
(g70
g71
NtRp1676
(dp1677
g74
(dp1678
g82
I3
ssg83
g1672
sg76
(lp1679
S'2'
asbasbasbag69
(g85
g71
NtRp1680
(dp1681
g74
(dp1682
sg83
g1664
sg76
(lp1683
g69
(g90
g71
NtRp1684
(dp1685
g74
(dp1686
sg83
g1680
sg76
(lp1687
g69
(g70
g71
NtRp1688
(dp1689
g74
(dp1690
g82
I3
ssg83
g1684
sg76
(lp1691
S'3'
asbasbasbag69
(g85
g71
NtRp1692
(dp1693
g74
(dp1694
sg83
g1664
sg76
(lp1695
g69
(g90
g71
NtRp1696
(dp1697
g74
(dp1698
sg83
g1692
sg76
(lp1699
g69
(g70
g71
NtRp1700
(dp1701
g74
(dp1702
g82
I3
ssg83
g1696
sg76
(lp1703
S'2'
asbasbasbag69
(g85
g71
NtRp1704
(dp1705
g74
(dp1706
sg83
g1664
sg76
(lp1707
g69
(g90
g71
NtRp1708
(dp1709
g74
(dp1710
sg83
g1704
sg76
(lp1711
g69
(g70
g71
NtRp1712
(dp1713
g74
(dp1714
g82
I3
ssg83
g1708
sg76
(lp1715
S'datetime.datetime(2012, 12, 17, 15, 3, 30)'
p1716
asbasbasbag69
(g85
g71
NtRp1717
(dp1718
g74
(dp1719
sg83
g1664
sg76
(lp1720
g69
(g90
g71
NtRp1721
(dp1722
g74
(dp1723
sg83
g1717
sg76
(lp1724
g69
(g70
g71
NtRp1725
(dp1726
g74
(dp1727
g82
I3
ssg83
g1721
sg76
(lp1728
S'stable'
p1729
asbasbasbasbasbasbasbag69
(g85
g71
NtRp1730
(dp1731
g74
(dp1732
sg83
g872
sg76
(lp1733
g69
(g90
g71
NtRp1734
(dp1735
g74
(dp1736
g94
g95
ssg83
g1730
sg76
(lp1737
S'wsgi_errors'
p1738
asbag69
(g90
g71
NtRp1739
(dp1740
g74
(dp1741
g101
g102
ssg83
g1730
sg76
(lp1742
S':'
asbag69
(g90
g71
NtRp1743
(dp1744
g74
(dp1745
sg83
g1730
sg76
(lp1746
g69
(g70
g71
NtRp1747
(dp1748
g74
(dp1749
g82
I4
ssg83
g1743
sg76
(lp1750
S"<open file '<stderr>', mode 'w' at 0x7f9843337270>"
p1751
asbasbasbag69
(g85
g71
NtRp1752
(dp1753
g74
(dp1754
sg83
g872
sg76
(lp1755
g69
(g90
g71
NtRp1756
(dp1757
g74
(dp1758
g94
g95
ssg83
g1752
sg76
(lp1759
S'wsgi_file_wrapper'
p1760
asbag69
(g90
g71
NtRp1761
(dp1762
g74
(dp1763
g101
g102
ssg83
g1752
sg76
(lp1764
S':'
asbag69
(g90
g71
NtRp1765
(dp1766
g74
(dp1767
sg83
g1752
sg76
(lp1768
g69
(g70
g71
NtRp1769
(dp1770
g74
(dp1771
g82
I4
ssg83
g1765
sg76
(lp1772
S'<class wsgiref.util.FileWrapper at 0x2ca8a10>'
p1773
asbasbasbag69
(g85
g71
NtRp1774
(dp1775
g74
(dp1776
sg83
g872
sg76
(lp1777
g69
(g90
g71
NtRp1778
(dp1779
g74
(dp1780
g94
g95
ssg83
g1774
sg76
(lp1781
S'wsgi_input'
p1782
asbag69
(g90
g71
NtRp1783
(dp1784
g74
(dp1785
g101
g102
ssg83
g1774
sg76
(lp1786
S':'
asbag69
(g90
g71
NtRp1787
(dp1788
g74
(dp1789
sg83
g1774
sg76
(lp1790
g69
(g70
g71
NtRp1791
(dp1792
g74
(dp1793
g82
I4
ssg83
g1787
sg76
(lp1794
S'<socket._fileobject object at 0x7f9820107b50>'
p1795
asbasbasbag69
(g85
g71
NtRp1796
(dp1797
g74
(dp1798
sg83
g872
sg76
(lp1799
g69
(g90
g71
NtRp1800
(dp1801
g74
(dp1802
g94
g95
ssg83
g1796
sg76
(lp1803
S'wsgi_multiprocess'
p1804
asbag69
(g90
g71
NtRp1805
(dp1806
g74
(dp1807
g101
g102
ssg83
g1796
sg76
(lp1808
S':'
asbag69
(g90
g71
NtRp1809
(dp1810
g74
(dp1811
sg83
g1796
sg76
(lp1812
g69
(g70
g71
NtRp1813
(dp1814
g74
(dp1815
g82
I4
ssg83
g1809
sg76
(lp1816
g112
asbasbasbag69
(g85
g71
NtRp1817
(dp1818
g74
(dp1819
sg83
g872
sg76
(lp1820
g69
(g90
g71
NtRp1821
(dp1822
g74
(dp1823
g94
g95
ssg83
g1817
sg76
(lp1824
S'wsgi_multithread'
p1825
asbag69
(g90
g71
NtRp1826
(dp1827
g74
(dp1828
g101
g102
ssg83
g1817
sg76
(lp1829
S':'
asbag69
(g90
g71
NtRp1830
(dp1831
g74
(dp1832
sg83
g1817
sg76
(lp1833
g69
(g70
g71
NtRp1834
(dp1835
g74
(dp1836
g82
I4
ssg83
g1830
sg76
(lp1837
S'True'
p1838
asbasbasbag69
(g85
g71
NtRp1839
(dp1840
g74
(dp1841
sg83
g872
sg76
(lp1842
g69
(g90
g71
NtRp1843
(dp1844
g74
(dp1845
g94
g95
ssg83
g1839
sg76
(lp1846
S'wsgi_run_once'
p1847
asbag69
(g90
g71
NtRp1848
(dp1849
g74
(dp1850
g101
g102
ssg83
g1839
sg76
(lp1851
S':'
asbag69
(g90
g71
NtRp1852
(dp1853
g74
(dp1854
sg83
g1839
sg76
(lp1855
g69
(g70
g71
NtRp1856
(dp1857
g74
(dp1858
g82
I4
ssg83
g1852
sg76
(lp1859
g112
asbasbasbag69
(g85
g71
NtRp1860
(dp1861
g74
(dp1862
sg83
g872
sg76
(lp1863
g69
(g90
g71
NtRp1864
(dp1865
g74
(dp1866
g94
g95
ssg83
g1860
sg76
(lp1867
S'wsgi_url_scheme'
p1868
asbag69
(g90
g71
NtRp1869
(dp1870
g74
(dp1871
g101
g102
ssg83
g1860
sg76
(lp1872
S':'
asbag69
(g90
g71
NtRp1873
(dp1874
g74
(dp1875
sg83
g1860
sg76
(lp1876
g69
(g70
g71
NtRp1877
(dp1878
g74
(dp1879
g82
I4
ssg83
g1873
sg76
(lp1880
S'http'
p1881
asbasbasbag69
(g85
g71
NtRp1882
(dp1883
g74
(dp1884
sg83
g872
sg76
(lp1885
g69
(g90
g71
NtRp1886
(dp1887
g74
(dp1888
g94
g95
ssg83
g1882
sg76
(lp1889
S'wsgi_version'
p1890
asbag69
(g90
g71
NtRp1891
(dp1892
g74
(dp1893
g101
g102
ssg83
g1882
sg76
(lp1894
S':'
asbag69
(g90
g71
NtRp1895
(dp1896
g74
(dp1897
sg83
g1882
sg76
(lp1898
g69
(g70
g71
NtRp1899
(dp1900
g74
(dp1901
g82
I4
ssg83
g1895
sg76
(lp1902
g69
(g78
g71
NtRp1903
(dp1904
g74
(dp1905
g82
I3
ssg83
Nsg76
(lp1906
g69
(g85
g71
NtRp1907
(dp1908
g74
(dp1909
sg83
g1903
sg76
(lp1910
g69
(g90
g71
NtRp1911
(dp1912
g74
(dp1913
sg83
g1907
sg76
(lp1914
g69
(g70
g71
NtRp1915
(dp1916
g74
(dp1917
g82
I3
ssg83
g1911
sg76
(lp1918
S'1'
asbasbasbag69
(g85
g71
NtRp1919
(dp1920
g74
(dp1921
sg83
g1903
sg76
(lp1922
g69
(g90
g71
NtRp1923
(dp1924
g74
(dp1925
sg83
g1919
sg76
(lp1926
g69
(g70
g71
NtRp1927
(dp1928
g74
(dp1929
g82
I3
ssg83
g1923
sg76
(lp1930
S'0'
asbasbasbasbasbasbasbasbasbasbasbag69
(g85
g71
NtRp1931
(dp1932
g74
(dp1933
sg83
g79
sg76
(lp1934
g69
(g90
g71
NtRp1935
(dp1936
g74
(dp1937
g94
g95
ssg83
g1931
sg76
(lp1938
S'extension'
p1939
asbag69
(g90
g71
NtRp1940
(dp1941
g74
(dp1942
g101
g102
ssg83
g1931
sg76
(lp1943
S':'
asbag69
(g90
g71
NtRp1944
(dp1945
g74
(dp1946
sg83
g1931
sg76
(lp1947
g69
(g70
g71
NtRp1948
(dp1949
g74
(dp1950
g82
I5
ssg83
g1944
sg76
(lp1951
S'html'
p1952
asbasbasbag69
(g85
g71
NtRp1953
(dp1954
g74
(dp1955
sg83
g79
sg76
(lp1956
g69
(g90
g71
NtRp1957
(dp1958
g74
(dp1959
g94
g95
ssg83
g1953
sg76
(lp1960
S'folder'
p1961
asbag69
(g90
g71
NtRp1962
(dp1963
g74
(dp1964
g101
g102
ssg83
g1953
sg76
(lp1965
S':'
asbag69
(g90
g71
NtRp1966
(dp1967
g74
(dp1968
sg83
g1953
sg76
(lp1969
g69
(g70
g71
NtRp1970
(dp1971
g74
(dp1972
g82
I5
ssg83
g1966
sg76
(lp1973
S'/var/www/web2py_curso/applications/projeto/'
p1974
asbasbasbag69
(g85
g71
NtRp1975
(dp1976
g74
(dp1977
sg83
g79
sg76
(lp1978
g69
(g90
g71
NtRp1979
(dp1980
g74
(dp1981
g94
g95
ssg83
g1975
sg76
(lp1982
S'function'
p1983
asbag69
(g90
g71
NtRp1984
(dp1985
g74
(dp1986
g101
g102
ssg83
g1975
sg76
(lp1987
S':'
asbag69
(g90
g71
NtRp1988
(dp1989
g74
(dp1990
sg83
g1975
sg76
(lp1991
g69
(g70
g71
NtRp1992
(dp1993
g74
(dp1994
g82
I5
ssg83
g1988
sg76
(lp1995
S'user'
p1996
asbasbasbag69
(g85
g71
NtRp1997
(dp1998
g74
(dp1999
sg83
g79
sg76
(lp2000
g69
(g90
g71
NtRp2001
(dp2002
g74
(dp2003
g94
g95
ssg83
g1997
sg76
(lp2004
S'get_vars'
p2005
asbag69
(g90
g71
NtRp2006
(dp2007
g74
(dp2008
g101
g102
ssg83
g1997
sg76
(lp2009
S':'
asbag69
(g90
g71
NtRp2010
(dp2011
g74
(dp2012
sg83
g1997
sg76
(lp2013
g69
(g70
g71
NtRp2014
(dp2015
g74
(dp2016
g82
I5
ssg83
g2010
sg76
(lp2017
g69
(g78
g71
NtRp2018
(dp2019
g74
(dp2020
g82
I4
ssg83
Nsg76
(lp2021
sbasbasbasbag69
(g85
g71
NtRp2022
(dp2023
g74
(dp2024
sg83
g79
sg76
(lp2025
g69
(g90
g71
NtRp2026
(dp2027
g74
(dp2028
g94
g95
ssg83
g2022
sg76
(lp2029
S'global_settings'
p2030
asbag69
(g90
g71
NtRp2031
(dp2032
g74
(dp2033
g101
g102
ssg83
g2022
sg76
(lp2034
S':'
asbag69
(g90
g71
NtRp2035
(dp2036
g74
(dp2037
sg83
g2022
sg76
(lp2038
g69
(g70
g71
NtRp2039
(dp2040
g74
(dp2041
g82
I5
ssg83
g2035
sg76
(lp2042
g69
(g78
g71
NtRp2043
(dp2044
g74
(dp2045
g82
I4
ssg83
Nsg76
(lp2046
g69
(g85
g71
NtRp2047
(dp2048
g74
(dp2049
sg83
g2043
sg76
(lp2050
g69
(g90
g71
NtRp2051
(dp2052
g74
(dp2053
g94
g95
ssg83
g2047
sg76
(lp2054
g884
asbag69
(g90
g71
NtRp2055
(dp2056
g74
(dp2057
g101
g102
ssg83
g2047
sg76
(lp2058
S':'
asbag69
(g90
g71
NtRp2059
(dp2060
g74
(dp2061
sg83
g2047
sg76
(lp2062
g69
(g70
g71
NtRp2063
(dp2064
g74
(dp2065
g82
I4
ssg83
g2059
sg76
(lp2066
S"set(['/var/www/web2py_curso/applications/home/', '/var/www/web2py_curso/applications/admin/', '/var/www/web2py_curso/applications/projeto/'])"
p2067
asbasbasbag69
(g85
g71
NtRp2068
(dp2069
g74
(dp2070
sg83
g2043
sg76
(lp2071
g69
(g90
g71
NtRp2072
(dp2073
g74
(dp2074
g94
g95
ssg83
g2068
sg76
(lp2075
g906
asbag69
(g90
g71
NtRp2076
(dp2077
g74
(dp2078
g101
g102
ssg83
g2068
sg76
(lp2079
S':'
asbag69
(g90
g71
NtRp2080
(dp2081
g74
(dp2082
sg83
g2068
sg76
(lp2083
g69
(g70
g71
NtRp2084
(dp2085
g74
(dp2086
g82
I4
ssg83
g2080
sg76
(lp2087
g919
asbasbasbag69
(g85
g71
NtRp2088
(dp2089
g74
(dp2090
sg83
g2043
sg76
(lp2091
g69
(g90
g71
NtRp2092
(dp2093
g74
(dp2094
g94
g95
ssg83
g2088
sg76
(lp2095
g928
asbag69
(g90
g71
NtRp2096
(dp2097
g74
(dp2098
g101
g102
ssg83
g2088
sg76
(lp2099
S':'
asbag69
(g90
g71
NtRp2100
(dp2101
g74
(dp2102
sg83
g2088
sg76
(lp2103
g69
(g70
g71
NtRp2104
(dp2105
g74
(dp2106
g82
I4
ssg83
g2100
sg76
(lp2107
g69
(g78
g71
NtRp2108
(dp2109
g74
(dp2110
g82
I3
ssg83
Nsg76
(lp2111
sbasbasbasbag69
(g85
g71
NtRp2112
(dp2113
g74
(dp2114
sg83
g2043
sg76
(lp2115
g69
(g90
g71
NtRp2116
(dp2117
g74
(dp2118
g94
g95
ssg83
g2112
sg76
(lp2119
g953
asbag69
(g90
g71
NtRp2120
(dp2121
g74
(dp2122
g101
g102
ssg83
g2112
sg76
(lp2123
S':'
asbag69
(g90
g71
NtRp2124
(dp2125
g74
(dp2126
sg83
g2112
sg76
(lp2127
g69
(g70
g71
NtRp2128
(dp2129
g74
(dp2130
g82
I4
ssg83
g2124
sg76
(lp2131
S"<Values at 0x2d53488: {'verbose': False, 'ip': '127.0.0.1', 'with_scheduler': False, 'ips': [], 'shutdown_timeout': 5, 'taskbar': False, 'port': 8000, 'maxthreads': None, 'softcron': False, 'server_name': 'fernado-desktop', 'bpython': False, 'nogui': False, 'pid_filename': 'httpserver.pid', 'extcron': False, 'runcron': False, 'run_system_tests': False, 'test': None, 'folder': '/var/www/web2py_curso', 'config': '', 'minthreads': None, 'winservice': '', 'shell': None, 'run': '', 'log_filename': 'httpserver.log', 'debuglevel': 30, 'args': [''], 'socket_timeout': 5, 'ssl_ca_certificate': None, 'scheduler': None, 'profiler_filename': None, 'ssl_private_key': '', 'scheduler_groups': None, 'password': '123456', 'request_queue_size': 5, 'ssl_certificate': '', 'cronjob': False, 'numthreads': None, 'quiet': False, 'interfaces': None, 'import_models': False, 'timeout': 10, 'plain': False, 'nobanner': False}>"
p2132
asbasbasbag69
(g85
g71
NtRp2133
(dp2134
g74
(dp2135
sg83
g2043
sg76
(lp2136
g69
(g90
g71
NtRp2137
(dp2138
g74
(dp2139
g94
g95
ssg83
g2133
sg76
(lp2140
g975
asbag69
(g90
g71
NtRp2141
(dp2142
g74
(dp2143
g101
g102
ssg83
g2133
sg76
(lp2144
S':'
asbag69
(g90
g71
NtRp2145
(dp2146
g74
(dp2147
sg83
g2133
sg76
(lp2148
g69
(g70
g71
NtRp2149
(dp2150
g74
(dp2151
g82
I4
ssg83
g2145
sg76
(lp2152
S'set([])'
p2153
asbasbasbag69
(g85
g71
NtRp2154
(dp2155
g74
(dp2156
sg83
g2043
sg76
(lp2157
g69
(g90
g71
NtRp2158
(dp2159
g74
(dp2160
g94
g95
ssg83
g2154
sg76
(lp2161
g997
asbag69
(g90
g71
NtRp2162
(dp2163
g74
(dp2164
g101
g102
ssg83
g2154
sg76
(lp2165
S':'
asbag69
(g90
g71
NtRp2166
(dp2167
g74
(dp2168
sg83
g2154
sg76
(lp2169
g69
(g70
g71
NtRp2170
(dp2171
g74
(dp2172
g82
I4
ssg83
g2166
sg76
(lp2173
g112
asbasbasbag69
(g85
g71
NtRp2174
(dp2175
g74
(dp2176
sg83
g2043
sg76
(lp2177
g69
(g90
g71
NtRp2178
(dp2179
g74
(dp2180
g94
g95
ssg83
g2174
sg76
(lp2181
g1018
asbag69
(g90
g71
NtRp2182
(dp2183
g74
(dp2184
g101
g102
ssg83
g2174
sg76
(lp2185
S':'
asbag69
(g90
g71
NtRp2186
(dp2187
g74
(dp2188
sg83
g2174
sg76
(lp2189
g69
(g70
g71
NtRp2190
(dp2191
g74
(dp2192
g82
I4
ssg83
g2186
sg76
(lp2193
g1031
asbasbasbag69
(g85
g71
NtRp2194
(dp2195
g74
(dp2196
sg83
g2043
sg76
(lp2197
g69
(g90
g71
NtRp2198
(dp2199
g74
(dp2200
g94
g95
ssg83
g2194
sg76
(lp2201
g1238
asbag69
(g90
g71
NtRp2202
(dp2203
g74
(dp2204
g101
g102
ssg83
g2194
sg76
(lp2205
S':'
asbag69
(g90
g71
NtRp2206
(dp2207
g74
(dp2208
sg83
g2194
sg76
(lp2209
g69
(g70
g71
NtRp2210
(dp2211
g74
(dp2212
g82
I4
ssg83
g2206
sg76
(lp2213
g112
asbasbasbag69
(g85
g71
NtRp2214
(dp2215
g74
(dp2216
sg83
g2043
sg76
(lp2217
g69
(g90
g71
NtRp2218
(dp2219
g74
(dp2220
g94
g95
ssg83
g2214
sg76
(lp2221
g1259
asbag69
(g90
g71
NtRp2222
(dp2223
g74
(dp2224
g101
g102
ssg83
g2214
sg76
(lp2225
S':'
asbag69
(g90
g71
NtRp2226
(dp2227
g74
(dp2228
sg83
g2214
sg76
(lp2229
g69
(g70
g71
NtRp2230
(dp2231
g74
(dp2232
g82
I4
ssg83
g2226
sg76
(lp2233
g112
asbasbasbag69
(g85
g71
NtRp2234
(dp2235
g74
(dp2236
sg83
g2043
sg76
(lp2237
g69
(g90
g71
NtRp2238
(dp2239
g74
(dp2240
g94
g95
ssg83
g2234
sg76
(lp2241
g1280
asbag69
(g90
g71
NtRp2242
(dp2243
g74
(dp2244
g101
g102
ssg83
g2234
sg76
(lp2245
S':'
asbag69
(g90
g71
NtRp2246
(dp2247
g74
(dp2248
sg83
g2234
sg76
(lp2249
g69
(g70
g71
NtRp2250
(dp2251
g74
(dp2252
g82
I4
ssg83
g2246
sg76
(lp2253
g69
(g78
g71
NtRp2254
(dp2255
g74
(dp2256
g82
I3
ssg83
Nsg76
(lp2257
g69
(g85
g71
NtRp2258
(dp2259
g74
(dp2260
sg83
g2254
sg76
(lp2261
g69
(g90
g71
NtRp2262
(dp2263
g74
(dp2264
sg83
g2258
sg76
(lp2265
g69
(g70
g71
NtRp2266
(dp2267
g74
(dp2268
g82
I3
ssg83
g2262
sg76
(lp2269
g1309
asbasbasbag69
(g85
g71
NtRp2270
(dp2271
g74
(dp2272
sg83
g2254
sg76
(lp2273
g69
(g90
g71
NtRp2274
(dp2275
g74
(dp2276
sg83
g2270
sg76
(lp2277
g69
(g70
g71
NtRp2278
(dp2279
g74
(dp2280
g82
I3
ssg83
g2274
sg76
(lp2281
g1322
asbasbasbag69
(g85
g71
NtRp2282
(dp2283
g74
(dp2284
sg83
g2254
sg76
(lp2285
g69
(g90
g71
NtRp2286
(dp2287
g74
(dp2288
sg83
g2282
sg76
(lp2289
g69
(g70
g71
NtRp2290
(dp2291
g74
(dp2292
g82
I3
ssg83
g2286
sg76
(lp2293
g1335
asbasbasbag69
(g85
g71
NtRp2294
(dp2295
g74
(dp2296
sg83
g2254
sg76
(lp2297
g69
(g90
g71
NtRp2298
(dp2299
g74
(dp2300
sg83
g2294
sg76
(lp2301
g69
(g70
g71
NtRp2302
(dp2303
g74
(dp2304
g82
I3
ssg83
g2298
sg76
(lp2305
g1348
asbasbasbag69
(g85
g71
NtRp2306
(dp2307
g74
(dp2308
sg83
g2254
sg76
(lp2309
g69
(g90
g71
NtRp2310
(dp2311
g74
(dp2312
sg83
g2306
sg76
(lp2313
g69
(g70
g71
NtRp2314
(dp2315
g74
(dp2316
g82
I3
ssg83
g2310
sg76
(lp2317
g1361
asbasbasbasbasbasbasbag69
(g85
g71
NtRp2318
(dp2319
g74
(dp2320
sg83
g2043
sg76
(lp2321
g69
(g90
g71
NtRp2322
(dp2323
g74
(dp2324
g94
g95
ssg83
g2318
sg76
(lp2325
g1651
asbag69
(g90
g71
NtRp2326
(dp2327
g74
(dp2328
g101
g102
ssg83
g2318
sg76
(lp2329
S':'
asbag69
(g90
g71
NtRp2330
(dp2331
g74
(dp2332
sg83
g2318
sg76
(lp2333
g69
(g70
g71
NtRp2334
(dp2335
g74
(dp2336
g82
I4
ssg83
g2330
sg76
(lp2337
g69
(g78
g71
NtRp2338
(dp2339
g74
(dp2340
g82
I3
ssg83
Nsg76
(lp2341
g69
(g85
g71
NtRp2342
(dp2343
g74
(dp2344
sg83
g2338
sg76
(lp2345
g69
(g90
g71
NtRp2346
(dp2347
g74
(dp2348
sg83
g2342
sg76
(lp2349
g69
(g70
g71
NtRp2350
(dp2351
g74
(dp2352
g82
I3
ssg83
g2346
sg76
(lp2353
S'2'
asbasbasbag69
(g85
g71
NtRp2354
(dp2355
g74
(dp2356
sg83
g2338
sg76
(lp2357
g69
(g90
g71
NtRp2358
(dp2359
g74
(dp2360
sg83
g2354
sg76
(lp2361
g69
(g70
g71
NtRp2362
(dp2363
g74
(dp2364
g82
I3
ssg83
g2358
sg76
(lp2365
S'3'
asbasbasbag69
(g85
g71
NtRp2366
(dp2367
g74
(dp2368
sg83
g2338
sg76
(lp2369
g69
(g90
g71
NtRp2370
(dp2371
g74
(dp2372
sg83
g2366
sg76
(lp2373
g69
(g70
g71
NtRp2374
(dp2375
g74
(dp2376
g82
I3
ssg83
g2370
sg76
(lp2377
S'2'
asbasbasbag69
(g85
g71
NtRp2378
(dp2379
g74
(dp2380
sg83
g2338
sg76
(lp2381
g69
(g90
g71
NtRp2382
(dp2383
g74
(dp2384
sg83
g2378
sg76
(lp2385
g69
(g70
g71
NtRp2386
(dp2387
g74
(dp2388
g82
I3
ssg83
g2382
sg76
(lp2389
S'datetime.datetime(2012, 12, 17, 15, 3, 30)'
p2390
asbasbasbag69
(g85
g71
NtRp2391
(dp2392
g74
(dp2393
sg83
g2338
sg76
(lp2394
g69
(g90
g71
NtRp2395
(dp2396
g74
(dp2397
sg83
g2391
sg76
(lp2398
g69
(g70
g71
NtRp2399
(dp2400
g74
(dp2401
g82
I3
ssg83
g2395
sg76
(lp2402
g1729
asbasbasbasbasbasbasbasbasbasbasbag69
(g85
g71
NtRp2403
(dp2404
g74
(dp2405
sg83
g79
sg76
(lp2406
g69
(g90
g71
NtRp2407
(dp2408
g74
(dp2409
g94
g95
ssg83
g2403
sg76
(lp2410
S'is_https'
p2411
asbag69
(g90
g71
NtRp2412
(dp2413
g74
(dp2414
g101
g102
ssg83
g2403
sg76
(lp2415
S':'
asbag69
(g90
g71
NtRp2416
(dp2417
g74
(dp2418
sg83
g2403
sg76
(lp2419
g69
(g70
g71
NtRp2420
(dp2421
g74
(dp2422
g82
I5
ssg83
g2416
sg76
(lp2423
g112
asbasbasbag69
(g85
g71
NtRp2424
(dp2425
g74
(dp2426
sg83
g79
sg76
(lp2427
g69
(g90
g71
NtRp2428
(dp2429
g74
(dp2430
g94
g95
ssg83
g2424
sg76
(lp2431
S'is_local'
p2432
asbag69
(g90
g71
NtRp2433
(dp2434
g74
(dp2435
g101
g102
ssg83
g2424
sg76
(lp2436
S':'
asbag69
(g90
g71
NtRp2437
(dp2438
g74
(dp2439
sg83
g2424
sg76
(lp2440
g69
(g70
g71
NtRp2441
(dp2442
g74
(dp2443
g82
I5
ssg83
g2437
sg76
(lp2444
g1838
asbasbasbag69
(g85
g71
NtRp2445
(dp2446
g74
(dp2447
sg83
g79
sg76
(lp2448
g69
(g90
g71
NtRp2449
(dp2450
g74
(dp2451
g94
g95
ssg83
g2445
sg76
(lp2452
S'is_restful'
p2453
asbag69
(g90
g71
NtRp2454
(dp2455
g74
(dp2456
g101
g102
ssg83
g2445
sg76
(lp2457
S':'
asbag69
(g90
g71
NtRp2458
(dp2459
g74
(dp2460
sg83
g2445
sg76
(lp2461
g69
(g70
g71
NtRp2462
(dp2463
g74
(dp2464
g82
I5
ssg83
g2458
sg76
(lp2465
g112
asbasbasbag69
(g85
g71
NtRp2466
(dp2467
g74
(dp2468
sg83
g79
sg76
(lp2469
g69
(g90
g71
NtRp2470
(dp2471
g74
(dp2472
g94
g95
ssg83
g2466
sg76
(lp2473
S'now'
p2474
asbag69
(g90
g71
NtRp2475
(dp2476
g74
(dp2477
g101
g102
ssg83
g2466
sg76
(lp2478
S':'
asbag69
(g90
g71
NtRp2479
(dp2480
g74
(dp2481
sg83
g2466
sg76
(lp2482
g69
(g70
g71
NtRp2483
(dp2484
g74
(dp2485
g82
I5
ssg83
g2479
sg76
(lp2486
S'datetime.datetime(2013, 1, 24, 15, 51, 16, 660165)'
p2487
asbasbasbag69
(g85
g71
NtRp2488
(dp2489
g74
(dp2490
sg83
g79
sg76
(lp2491
g69
(g90
g71
NtRp2492
(dp2493
g74
(dp2494
g94
g95
ssg83
g2488
sg76
(lp2495
S'post_vars'
p2496
asbag69
(g90
g71
NtRp2497
(dp2498
g74
(dp2499
g101
g102
ssg83
g2488
sg76
(lp2500
S':'
asbag69
(g90
g71
NtRp2501
(dp2502
g74
(dp2503
sg83
g2488
sg76
(lp2504
g69
(g70
g71
NtRp2505
(dp2506
g74
(dp2507
g82
I5
ssg83
g2501
sg76
(lp2508
g69
(g78
g71
NtRp2509
(dp2510
g74
(dp2511
g82
I4
ssg83
Nsg76
(lp2512
sbasbasbasbag69
(g85
g71
NtRp2513
(dp2514
g74
(dp2515
sg83
g79
sg76
(lp2516
g69
(g90
g71
NtRp2517
(dp2518
g74
(dp2519
g94
g95
ssg83
g2513
sg76
(lp2520
S'url'
p2521
asbag69
(g90
g71
NtRp2522
(dp2523
g74
(dp2524
g101
g102
ssg83
g2513
sg76
(lp2525
S':'
asbag69
(g90
g71
NtRp2526
(dp2527
g74
(dp2528
sg83
g2513
sg76
(lp2529
g69
(g70
g71
NtRp2530
(dp2531
g74
(dp2532
g82
I5
ssg83
g2526
sg76
(lp2533
g1383
asbasbasbag69
(g85
g71
NtRp2534
(dp2535
g74
(dp2536
sg83
g79
sg76
(lp2537
g69
(g90
g71
NtRp2538
(dp2539
g74
(dp2540
g94
g95
ssg83
g2534
sg76
(lp2541
S'utcnow'
p2542
asbag69
(g90
g71
NtRp2543
(dp2544
g74
(dp2545
g101
g102
ssg83
g2534
sg76
(lp2546
S':'
asbag69
(g90
g71
NtRp2547
(dp2548
g74
(dp2549
sg83
g2534
sg76
(lp2550
g69
(g70
g71
NtRp2551
(dp2552
g74
(dp2553
g82
I5
ssg83
g2547
sg76
(lp2554
S'datetime.datetime(2013, 1, 24, 17, 51, 16, 660215)'
p2555
asbasbasbag69
(g85
g71
NtRp2556
(dp2557
g74
(dp2558
sg83
g79
sg76
(lp2559
g69
(g90
g71
NtRp2560
(dp2561
g74
(dp2562
g94
g95
ssg83
g2556
sg76
(lp2563
S'uuid'
p2564
asbag69
(g90
g71
NtRp2565
(dp2566
g74
(dp2567
g101
g102
ssg83
g2556
sg76
(lp2568
S':'
asbag69
(g90
g71
NtRp2569
(dp2570
g74
(dp2571
sg83
g2556
sg76
(lp2572
g69
(g70
g71
NtRp2573
(dp2574
g74
(dp2575
g82
I5
ssg83
g2569
sg76
(lp2576
S'projeto/127.0.0.1.2013-01-24.15-51-16.27b3777a-11f4-4a03-bcf2-fee9dd9332e9'
p2577
asbasbasbag69
(g85
g71
NtRp2578
(dp2579
g74
(dp2580
sg83
g79
sg76
(lp2581
g69
(g90
g71
NtRp2582
(dp2583
g74
(dp2584
g94
g95
ssg83
g2578
sg76
(lp2585
S'vars'
p2586
asbag69
(g90
g71
NtRp2587
(dp2588
g74
(dp2589
g101
g102
ssg83
g2578
sg76
(lp2590
S':'
asbag69
(g90
g71
NtRp2591
(dp2592
g74
(dp2593
sg83
g2578
sg76
(lp2594
g69
(g70
g71
NtRp2595
(dp2596
g74
(dp2597
g82
I5
ssg83
g2591
sg76
(lp2598
g69
(g78
g71
NtRp2599
(dp2600
g74
(dp2601
g82
I4
ssg83
Nsg76
(lp2602
sbasbasbasbag69
(g85
g71
NtRp2603
(dp2604
g74
(dp2605
sg83
g79
sg76
(lp2606
g69
(g90
g71
NtRp2607
(dp2608
g74
(dp2609
g94
g95
ssg83
g2603
sg76
(lp2610
S'wsgi'
p2611
asbag69
(g90
g71
NtRp2612
(dp2613
g74
(dp2614
g101
g102
ssg83
g2603
sg76
(lp2615
S':'
asbag69
(g90
g71
NtRp2616
(dp2617
g74
(dp2618
sg83
g2603
sg76
(lp2619
g69
(g70
g71
NtRp2620
(dp2621
g74
(dp2622
g82
I5
ssg83
g2616
sg76
(lp2623
g69
(g78
g71
NtRp2624
(dp2625
g74
(dp2626
g82
I4
ssg83
Nsg76
(lp2627
g69
(g85
g71
NtRp2628
(dp2629
g74
(dp2630
sg83
g2624
sg76
(lp2631
g69
(g90
g71
NtRp2632
(dp2633
g74
(dp2634
g94
g95
ssg83
g2628
sg76
(lp2635
S'environ'
p2636
asbag69
(g90
g71
NtRp2637
(dp2638
g74
(dp2639
g101
g102
ssg83
g2628
sg76
(lp2640
S':'
asbag69
(g90
g71
NtRp2641
(dp2642
g74
(dp2643
sg83
g2628
sg76
(lp2644
g69
(g70
g71
NtRp2645
(dp2646
g74
(dp2647
g82
I4
ssg83
g2641
sg76
(lp2648
g69
(g78
g71
NtRp2649
(dp2650
g74
(dp2651
g82
I3
ssg83
Nsg76
(lp2652
g69
(g85
g71
NtRp2653
(dp2654
g74
(dp2655
sg83
g2649
sg76
(lp2656
g69
(g90
g71
NtRp2657
(dp2658
g74
(dp2659
g94
g95
ssg83
g2653
sg76
(lp2660
S'HTTP_ACCEPT'
p2661
asbag69
(g90
g71
NtRp2662
(dp2663
g74
(dp2664
g101
g102
ssg83
g2653
sg76
(lp2665
S':'
asbag69
(g90
g71
NtRp2666
(dp2667
g74
(dp2668
sg83
g2653
sg76
(lp2669
g69
(g70
g71
NtRp2670
(dp2671
g74
(dp2672
g82
I3
ssg83
g2666
sg76
(lp2673
g1053
asbasbasbag69
(g85
g71
NtRp2674
(dp2675
g74
(dp2676
sg83
g2649
sg76
(lp2677
g69
(g90
g71
NtRp2678
(dp2679
g74
(dp2680
g94
g95
ssg83
g2674
sg76
(lp2681
S'HTTP_ACCEPT_CHARSET'
p2682
asbag69
(g90
g71
NtRp2683
(dp2684
g74
(dp2685
g101
g102
ssg83
g2674
sg76
(lp2686
S':'
asbag69
(g90
g71
NtRp2687
(dp2688
g74
(dp2689
sg83
g2674
sg76
(lp2690
g69
(g70
g71
NtRp2691
(dp2692
g74
(dp2693
g82
I3
ssg83
g2687
sg76
(lp2694
g1075
asbasbasbag69
(g85
g71
NtRp2695
(dp2696
g74
(dp2697
sg83
g2649
sg76
(lp2698
g69
(g90
g71
NtRp2699
(dp2700
g74
(dp2701
g94
g95
ssg83
g2695
sg76
(lp2702
S'HTTP_ACCEPT_ENCODING'
p2703
asbag69
(g90
g71
NtRp2704
(dp2705
g74
(dp2706
g101
g102
ssg83
g2695
sg76
(lp2707
S':'
asbag69
(g90
g71
NtRp2708
(dp2709
g74
(dp2710
sg83
g2695
sg76
(lp2711
g69
(g70
g71
NtRp2712
(dp2713
g74
(dp2714
g82
I3
ssg83
g2708
sg76
(lp2715
g1097
asbasbasbag69
(g85
g71
NtRp2716
(dp2717
g74
(dp2718
sg83
g2649
sg76
(lp2719
g69
(g90
g71
NtRp2720
(dp2721
g74
(dp2722
g94
g95
ssg83
g2716
sg76
(lp2723
S'HTTP_ACCEPT_LANGUAGE'
p2724
asbag69
(g90
g71
NtRp2725
(dp2726
g74
(dp2727
g101
g102
ssg83
g2716
sg76
(lp2728
S':'
asbag69
(g90
g71
NtRp2729
(dp2730
g74
(dp2731
sg83
g2716
sg76
(lp2732
g69
(g70
g71
NtRp2733
(dp2734
g74
(dp2735
g82
I3
ssg83
g2729
sg76
(lp2736
g1119
asbasbasbag69
(g85
g71
NtRp2737
(dp2738
g74
(dp2739
sg83
g2649
sg76
(lp2740
g69
(g90
g71
NtRp2741
(dp2742
g74
(dp2743
g94
g95
ssg83
g2737
sg76
(lp2744
S'HTTP_CACHE_CONTROL'
p2745
asbag69
(g90
g71
NtRp2746
(dp2747
g74
(dp2748
g101
g102
ssg83
g2737
sg76
(lp2749
S':'
asbag69
(g90
g71
NtRp2750
(dp2751
g74
(dp2752
sg83
g2737
sg76
(lp2753
g69
(g70
g71
NtRp2754
(dp2755
g74
(dp2756
g82
I3
ssg83
g2750
sg76
(lp2757
g1141
asbasbasbag69
(g85
g71
NtRp2758
(dp2759
g74
(dp2760
sg83
g2649
sg76
(lp2761
g69
(g90
g71
NtRp2762
(dp2763
g74
(dp2764
g94
g95
ssg83
g2758
sg76
(lp2765
S'HTTP_CONNECTION'
p2766
asbag69
(g90
g71
NtRp2767
(dp2768
g74
(dp2769
g101
g102
ssg83
g2758
sg76
(lp2770
S':'
asbag69
(g90
g71
NtRp2771
(dp2772
g74
(dp2773
sg83
g2758
sg76
(lp2774
g69
(g70
g71
NtRp2775
(dp2776
g74
(dp2777
g82
I3
ssg83
g2771
sg76
(lp2778
g1163
asbasbasbag69
(g85
g71
NtRp2779
(dp2780
g74
(dp2781
sg83
g2649
sg76
(lp2782
g69
(g90
g71
NtRp2783
(dp2784
g74
(dp2785
g94
g95
ssg83
g2779
sg76
(lp2786
S'HTTP_COOKIE'
p2787
asbag69
(g90
g71
NtRp2788
(dp2789
g74
(dp2790
g101
g102
ssg83
g2779
sg76
(lp2791
S':'
asbag69
(g90
g71
NtRp2792
(dp2793
g74
(dp2794
sg83
g2779
sg76
(lp2795
g69
(g70
g71
NtRp2796
(dp2797
g74
(dp2798
g82
I3
ssg83
g2792
sg76
(lp2799
g1185
asbasbasbag69
(g85
g71
NtRp2800
(dp2801
g74
(dp2802
sg83
g2649
sg76
(lp2803
g69
(g90
g71
NtRp2804
(dp2805
g74
(dp2806
g94
g95
ssg83
g2800
sg76
(lp2807
S'HTTP_HOST'
p2808
asbag69
(g90
g71
NtRp2809
(dp2810
g74
(dp2811
g101
g102
ssg83
g2800
sg76
(lp2812
S':'
asbag69
(g90
g71
NtRp2813
(dp2814
g74
(dp2815
sg83
g2800
sg76
(lp2816
g69
(g70
g71
NtRp2817
(dp2818
g74
(dp2819
g82
I3
ssg83
g2813
sg76
(lp2820
g1207
asbasbasbag69
(g85
g71
NtRp2821
(dp2822
g74
(dp2823
sg83
g2649
sg76
(lp2824
g69
(g90
g71
NtRp2825
(dp2826
g74
(dp2827
g94
g95
ssg83
g2821
sg76
(lp2828
S'HTTP_USER_AGENT'
p2829
asbag69
(g90
g71
NtRp2830
(dp2831
g74
(dp2832
g101
g102
ssg83
g2821
sg76
(lp2833
S':'
asbag69
(g90
g71
NtRp2834
(dp2835
g74
(dp2836
sg83
g2821
sg76
(lp2837
g69
(g70
g71
NtRp2838
(dp2839
g74
(dp2840
g82
I3
ssg83
g2834
sg76
(lp2841
g1229
asbasbasbag69
(g85
g71
NtRp2842
(dp2843
g74
(dp2844
sg83
g2649
sg76
(lp2845
g69
(g90
g71
NtRp2846
(dp2847
g74
(dp2848
g94
g95
ssg83
g2842
sg76
(lp2849
S'PATH_INFO'
p2850
asbag69
(g90
g71
NtRp2851
(dp2852
g74
(dp2853
g101
g102
ssg83
g2842
sg76
(lp2854
S':'
asbag69
(g90
g71
NtRp2855
(dp2856
g74
(dp2857
sg83
g2842
sg76
(lp2858
g69
(g70
g71
NtRp2859
(dp2860
g74
(dp2861
g82
I3
ssg83
g2855
sg76
(lp2862
g1383
asbasbasbag69
(g85
g71
NtRp2863
(dp2864
g74
(dp2865
sg83
g2649
sg76
(lp2866
g69
(g90
g71
NtRp2867
(dp2868
g74
(dp2869
g94
g95
ssg83
g2863
sg76
(lp2870
S'QUERY_STRING'
p2871
asbag69
(g90
g71
NtRp2872
(dp2873
g74
(dp2874
g101
g102
ssg83
g2863
sg76
(lp2875
S':'
asbag69
(g90
g71
NtRp2876
(dp2877
g74
(dp2878
sg83
g2863
sg76
(lp2879
g69
(g70
g71
NtRp2880
(dp2881
g74
(dp2882
g82
I3
ssg83
g2876
sg76
(lp2883
S''
asbasbasbag69
(g85
g71
NtRp2884
(dp2885
g74
(dp2886
sg83
g2649
sg76
(lp2887
g69
(g90
g71
NtRp2888
(dp2889
g74
(dp2890
g94
g95
ssg83
g2884
sg76
(lp2891
S'REMOTE_ADDR'
p2892
asbag69
(g90
g71
NtRp2893
(dp2894
g74
(dp2895
g101
g102
ssg83
g2884
sg76
(lp2896
S':'
asbag69
(g90
g71
NtRp2897
(dp2898
g74
(dp2899
sg83
g2884
sg76
(lp2900
g69
(g70
g71
NtRp2901
(dp2902
g74
(dp2903
g82
I3
ssg83
g2897
sg76
(lp2904
g237
asbasbasbag69
(g85
g71
NtRp2905
(dp2906
g74
(dp2907
sg83
g2649
sg76
(lp2908
g69
(g90
g71
NtRp2909
(dp2910
g74
(dp2911
g94
g95
ssg83
g2905
sg76
(lp2912
S'REMOTE_PORT'
p2913
asbag69
(g90
g71
NtRp2914
(dp2915
g74
(dp2916
g101
g102
ssg83
g2905
sg76
(lp2917
S':'
asbag69
(g90
g71
NtRp2918
(dp2919
g74
(dp2920
sg83
g2905
sg76
(lp2921
g69
(g70
g71
NtRp2922
(dp2923
g74
(dp2924
g82
I3
ssg83
g2918
sg76
(lp2925
g1447
asbasbasbag69
(g85
g71
NtRp2926
(dp2927
g74
(dp2928
sg83
g2649
sg76
(lp2929
g69
(g90
g71
NtRp2930
(dp2931
g74
(dp2932
g94
g95
ssg83
g2926
sg76
(lp2933
S'REQUEST_METHOD'
p2934
asbag69
(g90
g71
NtRp2935
(dp2936
g74
(dp2937
g101
g102
ssg83
g2926
sg76
(lp2938
S':'
asbag69
(g90
g71
NtRp2939
(dp2940
g74
(dp2941
sg83
g2926
sg76
(lp2942
g69
(g70
g71
NtRp2943
(dp2944
g74
(dp2945
g82
I3
ssg83
g2939
sg76
(lp2946
g1469
asbasbasbag69
(g85
g71
NtRp2947
(dp2948
g74
(dp2949
sg83
g2649
sg76
(lp2950
g69
(g90
g71
NtRp2951
(dp2952
g74
(dp2953
g94
g95
ssg83
g2947
sg76
(lp2954
S'REQUEST_URI'
p2955
asbag69
(g90
g71
NtRp2956
(dp2957
g74
(dp2958
g101
g102
ssg83
g2947
sg76
(lp2959
S':'
asbag69
(g90
g71
NtRp2960
(dp2961
g74
(dp2962
sg83
g2947
sg76
(lp2963
g69
(g70
g71
NtRp2964
(dp2965
g74
(dp2966
g82
I3
ssg83
g2960
sg76
(lp2967
g1491
asbasbasbag69
(g85
g71
NtRp2968
(dp2969
g74
(dp2970
sg83
g2649
sg76
(lp2971
g69
(g90
g71
NtRp2972
(dp2973
g74
(dp2974
g94
g95
ssg83
g2968
sg76
(lp2975
S'SCRIPT_NAME'
p2976
asbag69
(g90
g71
NtRp2977
(dp2978
g74
(dp2979
g101
g102
ssg83
g2968
sg76
(lp2980
S':'
asbag69
(g90
g71
NtRp2981
(dp2982
g74
(dp2983
sg83
g2968
sg76
(lp2984
g69
(g70
g71
NtRp2985
(dp2986
g74
(dp2987
g82
I3
ssg83
g2981
sg76
(lp2988
S''
asbasbasbag69
(g85
g71
NtRp2989
(dp2990
g74
(dp2991
sg83
g2649
sg76
(lp2992
g69
(g90
g71
NtRp2993
(dp2994
g74
(dp2995
g94
g95
ssg83
g2989
sg76
(lp2996
S'SERVER_NAME'
p2997
asbag69
(g90
g71
NtRp2998
(dp2999
g74
(dp3000
g101
g102
ssg83
g2989
sg76
(lp3001
S':'
asbag69
(g90
g71
NtRp3002
(dp3003
g74
(dp3004
sg83
g2989
sg76
(lp3005
g69
(g70
g71
NtRp3006
(dp3007
g74
(dp3008
g82
I3
ssg83
g3002
sg76
(lp3009
g1534
asbasbasbag69
(g85
g71
NtRp3010
(dp3011
g74
(dp3012
sg83
g2649
sg76
(lp3013
g69
(g90
g71
NtRp3014
(dp3015
g74
(dp3016
g94
g95
ssg83
g3010
sg76
(lp3017
S'SERVER_PORT'
p3018
asbag69
(g90
g71
NtRp3019
(dp3020
g74
(dp3021
g101
g102
ssg83
g3010
sg76
(lp3022
S':'
asbag69
(g90
g71
NtRp3023
(dp3024
g74
(dp3025
sg83
g3010
sg76
(lp3026
g69
(g70
g71
NtRp3027
(dp3028
g74
(dp3029
g82
I3
ssg83
g3023
sg76
(lp3030
g1556
asbasbasbag69
(g85
g71
NtRp3031
(dp3032
g74
(dp3033
sg83
g2649
sg76
(lp3034
g69
(g90
g71
NtRp3035
(dp3036
g74
(dp3037
g94
g95
ssg83
g3031
sg76
(lp3038
S'SERVER_PROTOCOL'
p3039
asbag69
(g90
g71
NtRp3040
(dp3041
g74
(dp3042
g101
g102
ssg83
g3031
sg76
(lp3043
S':'
asbag69
(g90
g71
NtRp3044
(dp3045
g74
(dp3046
sg83
g3031
sg76
(lp3047
g69
(g70
g71
NtRp3048
(dp3049
g74
(dp3050
g82
I3
ssg83
g3044
sg76
(lp3051
g1578
asbasbasbag69
(g85
g71
NtRp3052
(dp3053
g74
(dp3054
sg83
g2649
sg76
(lp3055
g69
(g90
g71
NtRp3056
(dp3057
g74
(dp3058
g94
g95
ssg83
g3052
sg76
(lp3059
S'SERVER_SOFTWARE'
p3060
asbag69
(g90
g71
NtRp3061
(dp3062
g74
(dp3063
g101
g102
ssg83
g3052
sg76
(lp3064
S':'
asbag69
(g90
g71
NtRp3065
(dp3066
g74
(dp3067
sg83
g3052
sg76
(lp3068
g69
(g70
g71
NtRp3069
(dp3070
g74
(dp3071
g82
I3
ssg83
g3065
sg76
(lp3072
g1600
asbasbasbag69
(g85
g71
NtRp3073
(dp3074
g74
(dp3075
sg83
g2649
sg76
(lp3076
g69
(g90
g71
NtRp3077
(dp3078
g74
(dp3079
g94
g95
ssg83
g3073
sg76
(lp3080
S'WEB2PY_ORIGINAL_URI'
p3081
asbag69
(g90
g71
NtRp3082
(dp3083
g74
(dp3084
g101
g102
ssg83
g3073
sg76
(lp3085
S':'
asbag69
(g90
g71
NtRp3086
(dp3087
g74
(dp3088
sg83
g3073
sg76
(lp3089
g69
(g70
g71
NtRp3090
(dp3091
g74
(dp3092
g82
I3
ssg83
g3086
sg76
(lp3093
g1383
asbasbasbag69
(g85
g71
NtRp3094
(dp3095
g74
(dp3096
sg83
g2649
sg76
(lp3097
g69
(g90
g71
NtRp3098
(dp3099
g74
(dp3100
g94
g95
ssg83
g3094
sg76
(lp3101
S'wsgi.errors'
p3102
asbag69
(g90
g71
NtRp3103
(dp3104
g74
(dp3105
g101
g102
ssg83
g3094
sg76
(lp3106
S':'
asbag69
(g90
g71
NtRp3107
(dp3108
g74
(dp3109
sg83
g3094
sg76
(lp3110
g69
(g70
g71
NtRp3111
(dp3112
g74
(dp3113
g82
I3
ssg83
g3107
sg76
(lp3114
S"<open file '<stderr>', mode 'w' at 0x7f9843337270>"
p3115
asbasbasbag69
(g85
g71
NtRp3116
(dp3117
g74
(dp3118
sg83
g2649
sg76
(lp3119
g69
(g90
g71
NtRp3120
(dp3121
g74
(dp3122
g94
g95
ssg83
g3116
sg76
(lp3123
S'wsgi.file_wrapper'
p3124
asbag69
(g90
g71
NtRp3125
(dp3126
g74
(dp3127
g101
g102
ssg83
g3116
sg76
(lp3128
S':'
asbag69
(g90
g71
NtRp3129
(dp3130
g74
(dp3131
sg83
g3116
sg76
(lp3132
g69
(g70
g71
NtRp3133
(dp3134
g74
(dp3135
g82
I3
ssg83
g3129
sg76
(lp3136
S'<class wsgiref.util.FileWrapper at 0x2ca8a10>'
p3137
asbasbasbag69
(g85
g71
NtRp3138
(dp3139
g74
(dp3140
sg83
g2649
sg76
(lp3141
g69
(g90
g71
NtRp3142
(dp3143
g74
(dp3144
g94
g95
ssg83
g3138
sg76
(lp3145
S'wsgi.input'
p3146
asbag69
(g90
g71
NtRp3147
(dp3148
g74
(dp3149
g101
g102
ssg83
g3138
sg76
(lp3150
S':'
asbag69
(g90
g71
NtRp3151
(dp3152
g74
(dp3153
sg83
g3138
sg76
(lp3154
g69
(g70
g71
NtRp3155
(dp3156
g74
(dp3157
g82
I3
ssg83
g3151
sg76
(lp3158
S'<cStringIO.StringO object at 0x7f98284e6068>'
p3159
asbasbasbag69
(g85
g71
NtRp3160
(dp3161
g74
(dp3162
sg83
g2649
sg76
(lp3163
g69
(g90
g71
NtRp3164
(dp3165
g74
(dp3166
g94
g95
ssg83
g3160
sg76
(lp3167
S'wsgi.multiprocess'
p3168
asbag69
(g90
g71
NtRp3169
(dp3170
g74
(dp3171
g101
g102
ssg83
g3160
sg76
(lp3172
S':'
asbag69
(g90
g71
NtRp3173
(dp3174
g74
(dp3175
sg83
g3160
sg76
(lp3176
g69
(g70
g71
NtRp3177
(dp3178
g74
(dp3179
g82
I3
ssg83
g3173
sg76
(lp3180
g112
asbasbasbag69
(g85
g71
NtRp3181
(dp3182
g74
(dp3183
sg83
g2649
sg76
(lp3184
g69
(g90
g71
NtRp3185
(dp3186
g74
(dp3187
g94
g95
ssg83
g3181
sg76
(lp3188
S'wsgi.multithread'
p3189
asbag69
(g90
g71
NtRp3190
(dp3191
g74
(dp3192
g101
g102
ssg83
g3181
sg76
(lp3193
S':'
asbag69
(g90
g71
NtRp3194
(dp3195
g74
(dp3196
sg83
g3181
sg76
(lp3197
g69
(g70
g71
NtRp3198
(dp3199
g74
(dp3200
g82
I3
ssg83
g3194
sg76
(lp3201
g1838
asbasbasbag69
(g85
g71
NtRp3202
(dp3203
g74
(dp3204
sg83
g2649
sg76
(lp3205
g69
(g90
g71
NtRp3206
(dp3207
g74
(dp3208
g94
g95
ssg83
g3202
sg76
(lp3209
S'wsgi.run_once'
p3210
asbag69
(g90
g71
NtRp3211
(dp3212
g74
(dp3213
g101
g102
ssg83
g3202
sg76
(lp3214
S':'
asbag69
(g90
g71
NtRp3215
(dp3216
g74
(dp3217
sg83
g3202
sg76
(lp3218
g69
(g70
g71
NtRp3219
(dp3220
g74
(dp3221
g82
I3
ssg83
g3215
sg76
(lp3222
g112
asbasbasbag69
(g85
g71
NtRp3223
(dp3224
g74
(dp3225
sg83
g2649
sg76
(lp3226
g69
(g90
g71
NtRp3227
(dp3228
g74
(dp3229
g94
g95
ssg83
g3223
sg76
(lp3230
S'wsgi.url_scheme'
p3231
asbag69
(g90
g71
NtRp3232
(dp3233
g74
(dp3234
g101
g102
ssg83
g3223
sg76
(lp3235
S':'
asbag69
(g90
g71
NtRp3236
(dp3237
g74
(dp3238
sg83
g3223
sg76
(lp3239
g69
(g70
g71
NtRp3240
(dp3241
g74
(dp3242
g82
I3
ssg83
g3236
sg76
(lp3243
g1881
asbasbasbag69
(g85
g71
NtRp3244
(dp3245
g74
(dp3246
sg83
g2649
sg76
(lp3247
g69
(g90
g71
NtRp3248
(dp3249
g74
(dp3250
g94
g95
ssg83
g3244
sg76
(lp3251
S'wsgi.version'
p3252
asbag69
(g90
g71
NtRp3253
(dp3254
g74
(dp3255
g101
g102
ssg83
g3244
sg76
(lp3256
S':'
asbag69
(g90
g71
NtRp3257
(dp3258
g74
(dp3259
sg83
g3244
sg76
(lp3260
g69
(g70
g71
NtRp3261
(dp3262
g74
(dp3263
g82
I3
ssg83
g3257
sg76
(lp3264
S'1'
asbasbasbasbasbasbasbasbasbasbasbasbasbsS'frames'
p3265
(lp3266
(dp3267
S'file'
p3268
S'/var/www/web2py_curso/gluon/restricted.py'
p3269
sS'dump'
p3270
(dp3271
S'environment'
p3272
S"{'A': <class 'gluon.html.A'>, 'Auth': <class 'gluon.tools.Auth'>, 'B': <class 'gluon.html.B'>, 'BEAUTIFY': <class 'gluon.html.BEAUTIFY'>, 'BODY': <class 'gluon.html.BODY'>, 'BR': <class 'gluon.html.BR'>, 'BUTTON': <class 'gluon.html.BUTTON'>, 'CAT': <class 'gluon.html.CAT'>, 'CENTER': <class 'gluon.html.CENTER'>, 'CLEANUP': <class 'gluon.validators.CLEANUP'>, ...}"
p3273
sS'ccode'
p3274
S'<code object <module> at 0x7f9820107e30, file "/...o/applications/projeto/models/config.py", line 1>'
p3275
ssS'lnum'
p3276
I212
sS'lines'
p3277
(dp3278
I207
S'    try:'
p3279
sI208
S'        if isinstance(code, types.CodeType):'
p3280
sI209
S'            ccode = code'
p3281
sI210
S'        else:'
p3282
sI211
S'            ccode = compile2(code, layer)'
p3283
sI212
S'        exec ccode in environment'
p3284
sI213
S'    except HTTP:'
p3285
sI214
S'        raise'
p3286
sI215
S'    except RestrictedError:'
p3287
sI216
S'        # do not encapsulate (obfuscate) the original RestrictedError'
p3288
ssS'call'
p3289
S'(code=\'from gluon.storage import Storage\\n\\nconfig = Stor...asculino","feminino"]))\\n]\\n\\nauth.define_tables()\\n\\n\', environment={\'A\': <class \'gluon.html.A\'>, \'Auth\': <class \'gluon.tools.Auth\'>, \'B\': <class \'gluon.html.B\'>, \'BEAUTIFY\': <class \'gluon.html.BEAUTIFY\'>, \'BODY\': <class \'gluon.html.BODY\'>, \'BR\': <class \'gluon.html.BR\'>, \'BUTTON\': <class \'gluon.html.BUTTON\'>, \'CAT\': <class \'gluon.html.CAT\'>, \'CENTER\': <class \'gluon.html.CENTER\'>, \'CLEANUP\': <class \'gluon.validators.CLEANUP\'>, ...}, layer=\'/var/www/web2py_curso/applications/projeto/models/config.py\')'
p3290
sS'func'
p3291
S'restricted'
p3292
sa(dp3293
g3268
S'/var/www/web2py_curso/applications/projeto/models/config.py'
p3294
sg3270
(dp3295
S'auth.settings'
p3296
S"<Storage {'verify_email_onaccept': [], 'register...membership', 'retrieve_username_next': '/index'}>"
p3297
sS'auth.settings.actions_disable'
p3298
S'None'
p3299
sS'auth'
p3300
S'<gluon.tools.Auth object>'
p3301
ssg3276
I32
sg3277
(dp3302
I32
S"auth.settings.actions_disable = ['register']"
p3303
sI33
S''
sI34
S'#mail'
p3304
sI35
S'mail = auth.settings.mailer'
p3305
sI36
S'mail.settings.server = "mail.ad2.com.br"'
p3306
sI27
S'auth.settings.remember_me_form = False'
p3307
sI28
S'auth.settings.formstyle = "divs"'
p3308
sI29
S"auth.settings.login_next = URL('initial', 'home')"
p3309
sI30
S'auth.settings.registration_requires_verification = True'
p3310
sI31
S'auth.settings.registration_requires_approval = True'
p3311
ssg3289
S'()'
p3312
sg3291
S'<module>'
p3313
sa(dp3314
g3268
S'/var/www/web2py_curso/gluon/storage.py'
p3315
sg3270
(dp3316
S'builtinSyntaxError'
p3317
S"<type 'exceptions.SyntaxError'>"
p3318
sS'key'
p3319
S"'actions_disable'"
p3320
ssg3276
I164
sg3277
(dp3321
I160
S''
sI161
S'class Settings(Storage):'
p3322
sI162
S'    def __setattr__(self, key, value):'
p3323
sI163
S"        if key != 'lock_keys' and self['lock_keys'] and key not in self:"
p3324
sI164
S"            raise SyntaxError('setting key \\'%s\\' does not exist' % key)"
p3325
sI165
S"        if key != 'lock_values' and self['lock_values']:"
p3326
sI166
S"            raise SyntaxError('setting value cannot be changed: %s' % key)"
p3327
sI167
S'        self[key] = value'
p3328
sI168
S''
sI159
S''
ssg3289
S"(self=<Storage {'verify_email_onaccept': [], 'register...membership', 'retrieve_username_next': '/index'}>, key='actions_disable', value=['register'])"
p3329
sg3291
g26
sasS'pyver'
p3330
S'Python 2.7.3: /usr/bin/python'
p3331
sS'session'
p3332
g69
(g70
g71
NtRp3333
(dp3334
g74
(dp3335
sg76
(lp3336
g69
(g78
g71
NtRp3337
(dp3338
g74
(dp3339
g82
I5
ssg83
Nsg76
(lp3340
g69
(g85
g71
NtRp3341
(dp3342
g74
(dp3343
sg83
g3337
sg76
(lp3344
g69
(g90
g71
NtRp3345
(dp3346
g74
(dp3347
g94
g95
ssg83
g3341
sg76
(lp3348
S'auth'
p3349
asbag69
(g90
g71
NtRp3350
(dp3351
g74
(dp3352
g101
g102
ssg83
g3341
sg76
(lp3353
S':'
asbag69
(g90
g71
NtRp3354
(dp3355
g74
(dp3356
sg83
g3341
sg76
(lp3357
g69
(g70
g71
NtRp3358
(dp3359
g74
(dp3360
g82
I5
ssg83
g3354
sg76
(lp3361
g69
(g78
g71
NtRp3362
(dp3363
g74
(dp3364
g82
I4
ssg83
Nsg76
(lp3365
g69
(g85
g71
NtRp3366
(dp3367
g74
(dp3368
sg83
g3362
sg76
(lp3369
g69
(g90
g71
NtRp3370
(dp3371
g74
(dp3372
g94
g95
ssg83
g3366
sg76
(lp3373
S'expiration'
p3374
asbag69
(g90
g71
NtRp3375
(dp3376
g74
(dp3377
g101
g102
ssg83
g3366
sg76
(lp3378
S':'
asbag69
(g90
g71
NtRp3379
(dp3380
g74
(dp3381
sg83
g3366
sg76
(lp3382
g69
(g70
g71
NtRp3383
(dp3384
g74
(dp3385
g82
I4
ssg83
g3379
sg76
(lp3386
S'3600'
p3387
asbasbasbag69
(g85
g71
NtRp3388
(dp3389
g74
(dp3390
sg83
g3362
sg76
(lp3391
g69
(g90
g71
NtRp3392
(dp3393
g74
(dp3394
g94
g95
ssg83
g3388
sg76
(lp3395
S'hmac_key'
p3396
asbag69
(g90
g71
NtRp3397
(dp3398
g74
(dp3399
g101
g102
ssg83
g3388
sg76
(lp3400
S':'
asbag69
(g90
g71
NtRp3401
(dp3402
g74
(dp3403
sg83
g3388
sg76
(lp3404
g69
(g70
g71
NtRp3405
(dp3406
g74
(dp3407
g82
I4
ssg83
g3401
sg76
(lp3408
S'79632df4-d2e1-4437-a6b4-59d00f4ee77b'
p3409
asbasbasbag69
(g85
g71
NtRp3410
(dp3411
g74
(dp3412
sg83
g3362
sg76
(lp3413
g69
(g90
g71
NtRp3414
(dp3415
g74
(dp3416
g94
g95
ssg83
g3410
sg76
(lp3417
S'last_visit'
p3418
asbag69
(g90
g71
NtRp3419
(dp3420
g74
(dp3421
g101
g102
ssg83
g3410
sg76
(lp3422
S':'
asbag69
(g90
g71
NtRp3423
(dp3424
g74
(dp3425
sg83
g3410
sg76
(lp3426
g69
(g70
g71
NtRp3427
(dp3428
g74
(dp3429
g82
I4
ssg83
g3423
sg76
(lp3430
S'datetime.datetime(2013, 1, 24, 15, 46, 2, 556187)'
p3431
asbasbasbag69
(g85
g71
NtRp3432
(dp3433
g74
(dp3434
sg83
g3362
sg76
(lp3435
g69
(g90
g71
NtRp3436
(dp3437
g74
(dp3438
g94
g95
ssg83
g3432
sg76
(lp3439
S'remember'
p3440
asbag69
(g90
g71
NtRp3441
(dp3442
g74
(dp3443
g101
g102
ssg83
g3432
sg76
(lp3444
S':'
asbag69
(g90
g71
NtRp3445
(dp3446
g74
(dp3447
sg83
g3432
sg76
(lp3448
g69
(g70
g71
NtRp3449
(dp3450
g74
(dp3451
g82
I4
ssg83
g3445
sg76
(lp3452
g112
asbasbasbag69
(g85
g71
NtRp3453
(dp3454
g74
(dp3455
sg83
g3362
sg76
(lp3456
g69
(g90
g71
NtRp3457
(dp3458
g74
(dp3459
g94
g95
ssg83
g3453
sg76
(lp3460
S'user'
p3461
asbag69
(g90
g71
NtRp3462
(dp3463
g74
(dp3464
g101
g102
ssg83
g3453
sg76
(lp3465
S':'
asbag69
(g90
g71
NtRp3466
(dp3467
g74
(dp3468
sg83
g3453
sg76
(lp3469
g69
(g70
g71
NtRp3470
(dp3471
g74
(dp3472
g82
I4
ssg83
g3466
sg76
(lp3473
g69
(g78
g71
NtRp3474
(dp3475
g74
(dp3476
g82
I3
ssg83
Nsg76
(lp3477
g69
(g85
g71
NtRp3478
(dp3479
g74
(dp3480
sg83
g3474
sg76
(lp3481
g69
(g90
g71
NtRp3482
(dp3483
g74
(dp3484
g94
g95
ssg83
g3478
sg76
(lp3485
S'bio'
p3486
asbag69
(g90
g71
NtRp3487
(dp3488
g74
(dp3489
g101
g102
ssg83
g3478
sg76
(lp3490
S':'
asbag69
(g90
g71
NtRp3491
(dp3492
g74
(dp3493
sg83
g3478
sg76
(lp3494
g69
(g70
g71
NtRp3495
(dp3496
g74
(dp3497
g82
I3
ssg83
g3491
sg76
(lp3498
S'None'
p3499
asbasbasbag69
(g85
g71
NtRp3500
(dp3501
g74
(dp3502
sg83
g3474
sg76
(lp3503
g69
(g90
g71
NtRp3504
(dp3505
g74
(dp3506
g94
g95
ssg83
g3500
sg76
(lp3507
S'email'
p3508
asbag69
(g90
g71
NtRp3509
(dp3510
g74
(dp3511
g101
g102
ssg83
g3500
sg76
(lp3512
S':'
asbag69
(g90
g71
NtRp3513
(dp3514
g74
(dp3515
sg83
g3500
sg76
(lp3516
g69
(g70
g71
NtRp3517
(dp3518
g74
(dp3519
g82
I3
ssg83
g3513
sg76
(lp3520
S'fernando@ad2.com.br'
p3521
asbasbasbag69
(g85
g71
NtRp3522
(dp3523
g74
(dp3524
sg83
g3474
sg76
(lp3525
g69
(g90
g71
NtRp3526
(dp3527
g74
(dp3528
g94
g95
ssg83
g3522
sg76
(lp3529
S'first_name'
p3530
asbag69
(g90
g71
NtRp3531
(dp3532
g74
(dp3533
g101
g102
ssg83
g3522
sg76
(lp3534
S':'
asbag69
(g90
g71
NtRp3535
(dp3536
g74
(dp3537
sg83
g3522
sg76
(lp3538
g69
(g70
g71
NtRp3539
(dp3540
g74
(dp3541
g82
I3
ssg83
g3535
sg76
(lp3542
S'Dend'
p3543
asbasbasbag69
(g85
g71
NtRp3544
(dp3545
g74
(dp3546
sg83
g3474
sg76
(lp3547
g69
(g90
g71
NtRp3548
(dp3549
g74
(dp3550
g94
g95
ssg83
g3544
sg76
(lp3551
S'gender'
p3552
asbag69
(g90
g71
NtRp3553
(dp3554
g74
(dp3555
g101
g102
ssg83
g3544
sg76
(lp3556
S':'
asbag69
(g90
g71
NtRp3557
(dp3558
g74
(dp3559
sg83
g3544
sg76
(lp3560
g69
(g70
g71
NtRp3561
(dp3562
g74
(dp3563
g82
I3
ssg83
g3557
sg76
(lp3564
S'masculino'
p3565
asbasbasbag69
(g85
g71
NtRp3566
(dp3567
g74
(dp3568
sg83
g3474
sg76
(lp3569
g69
(g90
g71
NtRp3570
(dp3571
g74
(dp3572
g94
g95
ssg83
g3566
sg76
(lp3573
S'id'
p3574
asbag69
(g90
g71
NtRp3575
(dp3576
g74
(dp3577
g101
g102
ssg83
g3566
sg76
(lp3578
S':'
asbag69
(g90
g71
NtRp3579
(dp3580
g74
(dp3581
sg83
g3566
sg76
(lp3582
g69
(g70
g71
NtRp3583
(dp3584
g74
(dp3585
g82
I3
ssg83
g3579
sg76
(lp3586
S'5'
asbasbasbag69
(g85
g71
NtRp3587
(dp3588
g74
(dp3589
sg83
g3474
sg76
(lp3590
g69
(g90
g71
NtRp3591
(dp3592
g74
(dp3593
g94
g95
ssg83
g3587
sg76
(lp3594
S'last_name'
p3595
asbag69
(g90
g71
NtRp3596
(dp3597
g74
(dp3598
g101
g102
ssg83
g3587
sg76
(lp3599
S':'
asbag69
(g90
g71
NtRp3600
(dp3601
g74
(dp3602
sg83
g3587
sg76
(lp3603
g69
(g70
g71
NtRp3604
(dp3605
g74
(dp3606
g82
I3
ssg83
g3600
sg76
(lp3607
S'delkson'
p3608
asbasbasbag69
(g85
g71
NtRp3609
(dp3610
g74
(dp3611
sg83
g3474
sg76
(lp3612
g69
(g90
g71
NtRp3613
(dp3614
g74
(dp3615
g94
g95
ssg83
g3609
sg76
(lp3616
S'photo'
p3617
asbag69
(g90
g71
NtRp3618
(dp3619
g74
(dp3620
g101
g102
ssg83
g3609
sg76
(lp3621
S':'
asbag69
(g90
g71
NtRp3622
(dp3623
g74
(dp3624
sg83
g3609
sg76
(lp3625
g69
(g70
g71
NtRp3626
(dp3627
g74
(dp3628
g82
I3
ssg83
g3622
sg76
(lp3629
S'auth_user.photo.852c1e9d624a7670.746563686e6f6c6f676965735f7068702e706e67.png'
p3630
asbasbasbag69
(g85
g71
NtRp3631
(dp3632
g74
(dp3633
sg83
g3474
sg76
(lp3634
g69
(g90
g71
NtRp3635
(dp3636
g74
(dp3637
g94
g95
ssg83
g3631
sg76
(lp3638
S'registration_id'
p3639
asbag69
(g90
g71
NtRp3640
(dp3641
g74
(dp3642
g101
g102
ssg83
g3631
sg76
(lp3643
S':'
asbag69
(g90
g71
NtRp3644
(dp3645
g74
(dp3646
sg83
g3631
sg76
(lp3647
g69
(g70
g71
NtRp3648
(dp3649
g74
(dp3650
g82
I3
ssg83
g3644
sg76
(lp3651
S''
asbasbasbag69
(g85
g71
NtRp3652
(dp3653
g74
(dp3654
sg83
g3474
sg76
(lp3655
g69
(g90
g71
NtRp3656
(dp3657
g74
(dp3658
g94
g95
ssg83
g3652
sg76
(lp3659
S'registration_key'
p3660
asbag69
(g90
g71
NtRp3661
(dp3662
g74
(dp3663
g101
g102
ssg83
g3652
sg76
(lp3664
S':'
asbag69
(g90
g71
NtRp3665
(dp3666
g74
(dp3667
sg83
g3652
sg76
(lp3668
g69
(g70
g71
NtRp3669
(dp3670
g74
(dp3671
g82
I3
ssg83
g3665
sg76
(lp3672
S''
asbasbasbag69
(g85
g71
NtRp3673
(dp3674
g74
(dp3675
sg83
g3474
sg76
(lp3676
g69
(g90
g71
NtRp3677
(dp3678
g74
(dp3679
g94
g95
ssg83
g3673
sg76
(lp3680
S'reset_password_key'
p3681
asbag69
(g90
g71
NtRp3682
(dp3683
g74
(dp3684
g101
g102
ssg83
g3673
sg76
(lp3685
S':'
asbag69
(g90
g71
NtRp3686
(dp3687
g74
(dp3688
sg83
g3673
sg76
(lp3689
g69
(g70
g71
NtRp3690
(dp3691
g74
(dp3692
g82
I3
ssg83
g3686
sg76
(lp3693
S''
asbasbasbasbasbasbasbag69
(g85
g71
NtRp3694
(dp3695
g74
(dp3696
sg83
g3362
sg76
(lp3697
g69
(g90
g71
NtRp3698
(dp3699
g74
(dp3700
g94
g95
ssg83
g3694
sg76
(lp3701
S'user_groups'
p3702
asbag69
(g90
g71
NtRp3703
(dp3704
g74
(dp3705
g101
g102
ssg83
g3694
sg76
(lp3706
S':'
asbag69
(g90
g71
NtRp3707
(dp3708
g74
(dp3709
sg83
g3694
sg76
(lp3710
g69
(g70
g71
NtRp3711
(dp3712
g74
(dp3713
g82
I4
ssg83
g3707
sg76
(lp3714
g69
(g78
g71
NtRp3715
(dp3716
g74
(dp3717
g82
I3
ssg83
Nsg76
(lp3718
g69
(g85
g71
NtRp3719
(dp3720
g74
(dp3721
sg83
g3715
sg76
(lp3722
g69
(g90
g71
NtRp3723
(dp3724
g74
(dp3725
g94
g95
ssg83
g3719
sg76
(lp3726
S'5'
asbag69
(g90
g71
NtRp3727
(dp3728
g74
(dp3729
g101
g102
ssg83
g3719
sg76
(lp3730
S':'
asbag69
(g90
g71
NtRp3731
(dp3732
g74
(dp3733
sg83
g3719
sg76
(lp3734
g69
(g70
g71
NtRp3735
(dp3736
g74
(dp3737
g82
I3
ssg83
g3731
sg76
(lp3738
S'user_5'
p3739
asbasbasbasbasbasbasbasbasbasbasbag69
(g85
g71
NtRp3740
(dp3741
g74
(dp3742
sg83
g3337
sg76
(lp3743
g69
(g90
g71
NtRp3744
(dp3745
g74
(dp3746
g94
g95
ssg83
g3740
sg76
(lp3747
S'flash'
p3748
asbag69
(g90
g71
NtRp3749
(dp3750
g74
(dp3751
g101
g102
ssg83
g3740
sg76
(lp3752
S':'
asbag69
(g90
g71
NtRp3753
(dp3754
g74
(dp3755
sg83
g3740
sg76
(lp3756
g69
(g70
g71
NtRp3757
(dp3758
g74
(dp3759
g82
I5
ssg83
g3753
sg76
(lp3760
S'None'
p3761
asbasbasbasbasbsS'etype'
p3762
S"<type 'exceptions.SyntaxError'>"
p3763
sS'date'
p3764
S'Thu Jan 24 15:51:16 2013'
p3765
sS'response'
p3766
g69
(g70
g71
NtRp3767
(dp3768
g74
(dp3769
sg76
(lp3770
g69
(g78
g71
NtRp3771
(dp3772
g74
(dp3773
g82
I5
ssg83
Nsg76
(lp3774
g69
(g85
g71
NtRp3775
(dp3776
g74
(dp3777
sg83
g3771
sg76
(lp3778
g69
(g90
g71
NtRp3779
(dp3780
g74
(dp3781
g94
g95
ssg83
g3775
sg76
(lp3782
g180
asbag69
(g90
g71
NtRp3783
(dp3784
g74
(dp3785
g101
g102
ssg83
g3775
sg76
(lp3786
S':'
asbag69
(g90
g71
NtRp3787
(dp3788
g74
(dp3789
sg83
g3775
sg76
(lp3790
g69
(g70
g71
NtRp3791
(dp3792
g74
(dp3793
g82
I5
ssg83
g3787
sg76
(lp3794
S'<cStringIO.StringO object at 0x7f9838292880>'
p3795
asbasbasbag69
(g85
g71
NtRp3796
(dp3797
g74
(dp3798
sg83
g3771
sg76
(lp3799
g69
(g90
g71
NtRp3800
(dp3801
g74
(dp3802
g94
g95
ssg83
g3796
sg76
(lp3803
g268
asbag69
(g90
g71
NtRp3804
(dp3805
g74
(dp3806
g101
g102
ssg83
g3796
sg76
(lp3807
S':'
asbag69
(g90
g71
NtRp3808
(dp3809
g74
(dp3810
sg83
g3796
sg76
(lp3811
g69
(g70
g71
NtRp3812
(dp3813
g74
(dp3814
g82
I5
ssg83
g3808
sg76
(lp3815
g69
(g78
g71
NtRp3816
(dp3817
g74
(dp3818
g82
I4
ssg83
Nsg76
(lp3819
g69
(g85
g71
NtRp3820
(dp3821
g74
(dp3822
sg83
g3816
sg76
(lp3823
g69
(g90
g71
NtRp3824
(dp3825
g74
(dp3826
g94
g95
ssg83
g3820
sg76
(lp3827
S'session_id_projeto'
p3828
asbag69
(g90
g71
NtRp3829
(dp3830
g74
(dp3831
g101
g102
ssg83
g3820
sg76
(lp3832
S':'
asbag69
(g90
g71
NtRp3833
(dp3834
g74
(dp3835
sg83
g3820
sg76
(lp3836
g69
(g70
g71
NtRp3837
(dp3838
g74
(dp3839
g82
I4
ssg83
g3833
sg76
(lp3840
g686
ag69
(g78
g71
NtRp3841
(dp3842
g74
(dp3843
g82
I3
ssg83
Nsg76
(lp3844
g69
(g85
g71
NtRp3845
(dp3846
g74
(dp3847
sg83
g3841
sg76
(lp3848
g69
(g90
g71
NtRp3849
(dp3850
g74
(dp3851
g94
g95
ssg83
g3845
sg76
(lp3852
g319
asbag69
(g90
g71
NtRp3853
(dp3854
g74
(dp3855
g101
g102
ssg83
g3845
sg76
(lp3856
S':'
asbag69
(g90
g71
NtRp3857
(dp3858
g74
(dp3859
sg83
g3845
sg76
(lp3860
g69
(g70
g71
NtRp3861
(dp3862
g74
(dp3863
g82
I3
ssg83
g3857
sg76
(lp3864
S''
asbasbasbag69
(g85
g71
NtRp3865
(dp3866
g74
(dp3867
sg83
g3841
sg76
(lp3868
g69
(g90
g71
NtRp3869
(dp3870
g74
(dp3871
g94
g95
ssg83
g3865
sg76
(lp3872
g340
asbag69
(g90
g71
NtRp3873
(dp3874
g74
(dp3875
g101
g102
ssg83
g3865
sg76
(lp3876
S':'
asbag69
(g90
g71
NtRp3877
(dp3878
g74
(dp3879
sg83
g3865
sg76
(lp3880
g69
(g70
g71
NtRp3881
(dp3882
g74
(dp3883
g82
I3
ssg83
g3877
sg76
(lp3884
S''
asbasbasbag69
(g85
g71
NtRp3885
(dp3886
g74
(dp3887
sg83
g3841
sg76
(lp3888
g69
(g90
g71
NtRp3889
(dp3890
g74
(dp3891
g94
g95
ssg83
g3885
sg76
(lp3892
g361
asbag69
(g90
g71
NtRp3893
(dp3894
g74
(dp3895
g101
g102
ssg83
g3885
sg76
(lp3896
S':'
asbag69
(g90
g71
NtRp3897
(dp3898
g74
(dp3899
sg83
g3885
sg76
(lp3900
g69
(g70
g71
NtRp3901
(dp3902
g74
(dp3903
g82
I3
ssg83
g3897
sg76
(lp3904
S''
asbasbasbag69
(g85
g71
NtRp3905
(dp3906
g74
(dp3907
sg83
g3841
sg76
(lp3908
g69
(g90
g71
NtRp3909
(dp3910
g74
(dp3911
g94
g95
ssg83
g3905
sg76
(lp3912
g382
asbag69
(g90
g71
NtRp3913
(dp3914
g74
(dp3915
g101
g102
ssg83
g3905
sg76
(lp3916
S':'
asbag69
(g90
g71
NtRp3917
(dp3918
g74
(dp3919
sg83
g3905
sg76
(lp3920
g69
(g70
g71
NtRp3921
(dp3922
g74
(dp3923
g82
I3
ssg83
g3917
sg76
(lp3924
S''
asbasbasbag69
(g85
g71
NtRp3925
(dp3926
g74
(dp3927
sg83
g3841
sg76
(lp3928
g69
(g90
g71
NtRp3929
(dp3930
g74
(dp3931
g94
g95
ssg83
g3925
sg76
(lp3932
g403
asbag69
(g90
g71
NtRp3933
(dp3934
g74
(dp3935
g101
g102
ssg83
g3925
sg76
(lp3936
S':'
asbag69
(g90
g71
NtRp3937
(dp3938
g74
(dp3939
sg83
g3925
sg76
(lp3940
g69
(g70
g71
NtRp3941
(dp3942
g74
(dp3943
g82
I3
ssg83
g3937
sg76
(lp3944
S''
asbasbasbag69
(g85
g71
NtRp3945
(dp3946
g74
(dp3947
sg83
g3841
sg76
(lp3948
g69
(g90
g71
NtRp3949
(dp3950
g74
(dp3951
g94
g95
ssg83
g3945
sg76
(lp3952
g424
asbag69
(g90
g71
NtRp3953
(dp3954
g74
(dp3955
g101
g102
ssg83
g3945
sg76
(lp3956
S':'
asbag69
(g90
g71
NtRp3957
(dp3958
g74
(dp3959
sg83
g3945
sg76
(lp3960
g69
(g70
g71
NtRp3961
(dp3962
g74
(dp3963
g82
I3
ssg83
g3957
sg76
(lp3964
S'/'
asbasbasbag69
(g85
g71
NtRp3965
(dp3966
g74
(dp3967
sg83
g3841
sg76
(lp3968
g69
(g90
g71
NtRp3969
(dp3970
g74
(dp3971
g94
g95
ssg83
g3965
sg76
(lp3972
g445
asbag69
(g90
g71
NtRp3973
(dp3974
g74
(dp3975
g101
g102
ssg83
g3965
sg76
(lp3976
S':'
asbag69
(g90
g71
NtRp3977
(dp3978
g74
(dp3979
sg83
g3965
sg76
(lp3980
g69
(g70
g71
NtRp3981
(dp3982
g74
(dp3983
g82
I3
ssg83
g3977
sg76
(lp3984
S''
asbasbasbag69
(g85
g71
NtRp3985
(dp3986
g74
(dp3987
sg83
g3841
sg76
(lp3988
g69
(g90
g71
NtRp3989
(dp3990
g74
(dp3991
g94
g95
ssg83
g3985
sg76
(lp3992
g466
asbag69
(g90
g71
NtRp3993
(dp3994
g74
(dp3995
g101
g102
ssg83
g3985
sg76
(lp3996
S':'
asbag69
(g90
g71
NtRp3997
(dp3998
g74
(dp3999
sg83
g3985
sg76
(lp4000
g69
(g70
g71
NtRp4001
(dp4002
g74
(dp4003
g82
I3
ssg83
g3997
sg76
(lp4004
S''
asbasbasbasbasbasbasbasbasbasbasbag69
(g85
g71
NtRp4005
(dp4006
g74
(dp4007
sg83
g3771
sg76
(lp4008
g69
(g90
g71
NtRp4009
(dp4010
g74
(dp4011
g94
g95
ssg83
g4005
sg76
(lp4012
S'delimiters'
p4013
asbag69
(g90
g71
NtRp4014
(dp4015
g74
(dp4016
g101
g102
ssg83
g4005
sg76
(lp4017
S':'
asbag69
(g90
g71
NtRp4018
(dp4019
g74
(dp4020
sg83
g4005
sg76
(lp4021
g69
(g70
g71
NtRp4022
(dp4023
g74
(dp4024
g82
I5
ssg83
g4018
sg76
(lp4025
g69
(g78
g71
NtRp4026
(dp4027
g74
(dp4028
g82
I4
ssg83
Nsg76
(lp4029
g69
(g85
g71
NtRp4030
(dp4031
g74
(dp4032
sg83
g4026
sg76
(lp4033
g69
(g90
g71
NtRp4034
(dp4035
g74
(dp4036
sg83
g4030
sg76
(lp4037
g69
(g70
g71
NtRp4038
(dp4039
g74
(dp4040
g82
I4
ssg83
g4034
sg76
(lp4041
S'{{'
p4042
asbasbasbag69
(g85
g71
NtRp4043
(dp4044
g74
(dp4045
sg83
g4026
sg76
(lp4046
g69
(g90
g71
NtRp4047
(dp4048
g74
(dp4049
sg83
g4043
sg76
(lp4050
g69
(g70
g71
NtRp4051
(dp4052
g74
(dp4053
g82
I4
ssg83
g4047
sg76
(lp4054
S'}}'
p4055
asbasbasbasbasbasbasbag69
(g85
g71
NtRp4056
(dp4057
g74
(dp4058
sg83
g3771
sg76
(lp4059
g69
(g90
g71
NtRp4060
(dp4061
g74
(dp4062
g94
g95
ssg83
g4056
sg76
(lp4063
S'files'
p4064
asbag69
(g90
g71
NtRp4065
(dp4066
g74
(dp4067
g101
g102
ssg83
g4056
sg76
(lp4068
S':'
asbag69
(g90
g71
NtRp4069
(dp4070
g74
(dp4071
sg83
g4056
sg76
(lp4072
g69
(g70
g71
NtRp4073
(dp4074
g74
(dp4075
g82
I5
ssg83
g4069
sg76
(lp4076
g69
(g78
g71
NtRp4077
(dp4078
g74
(dp4079
g82
I4
ssg83
Nsg76
(lp4080
sbasbasbasbag69
(g85
g71
NtRp4081
(dp4082
g74
(dp4083
sg83
g3771
sg76
(lp4084
g69
(g90
g71
NtRp4085
(dp4086
g74
(dp4087
g94
g95
ssg83
g4081
sg76
(lp4088
S'flash'
p4089
asbag69
(g90
g71
NtRp4090
(dp4091
g74
(dp4092
g101
g102
ssg83
g4081
sg76
(lp4093
S':'
asbag69
(g90
g71
NtRp4094
(dp4095
g74
(dp4096
sg83
g4081
sg76
(lp4097
g69
(g70
g71
NtRp4098
(dp4099
g74
(dp4100
g82
I5
ssg83
g4094
sg76
(lp4101
S''
asbasbasbag69
(g85
g71
NtRp4102
(dp4103
g74
(dp4104
sg83
g3771
sg76
(lp4105
g69
(g90
g71
NtRp4106
(dp4107
g74
(dp4108
g94
g95
ssg83
g4102
sg76
(lp4109
S'generic_patterns'
p4110
asbag69
(g90
g71
NtRp4111
(dp4112
g74
(dp4113
g101
g102
ssg83
g4102
sg76
(lp4114
S':'
asbag69
(g90
g71
NtRp4115
(dp4116
g74
(dp4117
sg83
g4102
sg76
(lp4118
g69
(g70
g71
NtRp4119
(dp4120
g74
(dp4121
g82
I5
ssg83
g4115
sg76
(lp4122
g69
(g78
g71
NtRp4123
(dp4124
g74
(dp4125
g82
I4
ssg83
Nsg76
(lp4126
sbasbasbasbag69
(g85
g71
NtRp4127
(dp4128
g74
(dp4129
sg83
g3771
sg76
(lp4130
g69
(g90
g71
NtRp4131
(dp4132
g74
(dp4133
g94
g95
ssg83
g4127
sg76
(lp4134
S'headers'
p4135
asbag69
(g90
g71
NtRp4136
(dp4137
g74
(dp4138
g101
g102
ssg83
g4127
sg76
(lp4139
S':'
asbag69
(g90
g71
NtRp4140
(dp4141
g74
(dp4142
sg83
g4127
sg76
(lp4143
g69
(g70
g71
NtRp4144
(dp4145
g74
(dp4146
g82
I5
ssg83
g4140
sg76
(lp4147
g69
(g78
g71
NtRp4148
(dp4149
g74
(dp4150
g82
I4
ssg83
Nsg76
(lp4151
g69
(g85
g71
NtRp4152
(dp4153
g74
(dp4154
sg83
g4148
sg76
(lp4155
g69
(g90
g71
NtRp4156
(dp4157
g74
(dp4158
g94
g95
ssg83
g4152
sg76
(lp4159
S'X-Powered-By'
p4160
asbag69
(g90
g71
NtRp4161
(dp4162
g74
(dp4163
g101
g102
ssg83
g4152
sg76
(lp4164
S':'
asbag69
(g90
g71
NtRp4165
(dp4166
g74
(dp4167
sg83
g4152
sg76
(lp4168
g69
(g70
g71
NtRp4169
(dp4170
g74
(dp4171
g82
I4
ssg83
g4165
sg76
(lp4172
S'web2py'
p4173
asbasbasbasbasbasbasbag69
(g85
g71
NtRp4174
(dp4175
g74
(dp4176
sg83
g3771
sg76
(lp4177
g69
(g90
g71
NtRp4178
(dp4179
g74
(dp4180
g94
g95
ssg83
g4174
sg76
(lp4181
S'menu'
p4182
asbag69
(g90
g71
NtRp4183
(dp4184
g74
(dp4185
g101
g102
ssg83
g4174
sg76
(lp4186
S':'
asbag69
(g90
g71
NtRp4187
(dp4188
g74
(dp4189
sg83
g4174
sg76
(lp4190
g69
(g70
g71
NtRp4191
(dp4192
g74
(dp4193
g82
I5
ssg83
g4187
sg76
(lp4194
g69
(g78
g71
NtRp4195
(dp4196
g74
(dp4197
g82
I4
ssg83
Nsg76
(lp4198
sbasbasbasbag69
(g85
g71
NtRp4199
(dp4200
g74
(dp4201
sg83
g3771
sg76
(lp4202
g69
(g90
g71
NtRp4203
(dp4204
g74
(dp4205
g94
g95
ssg83
g4199
sg76
(lp4206
S'meta'
p4207
asbag69
(g90
g71
NtRp4208
(dp4209
g74
(dp4210
g101
g102
ssg83
g4199
sg76
(lp4211
S':'
asbag69
(g90
g71
NtRp4212
(dp4213
g74
(dp4214
sg83
g4199
sg76
(lp4215
g69
(g70
g71
NtRp4216
(dp4217
g74
(dp4218
g82
I5
ssg83
g4212
sg76
(lp4219
g69
(g78
g71
NtRp4220
(dp4221
g74
(dp4222
g82
I4
ssg83
Nsg76
(lp4223
sbasbasbasbag69
(g85
g71
NtRp4224
(dp4225
g74
(dp4226
sg83
g3771
sg76
(lp4227
g69
(g90
g71
NtRp4228
(dp4229
g74
(dp4230
g94
g95
ssg83
g4224
sg76
(lp4231
S'models_to_run'
p4232
asbag69
(g90
g71
NtRp4233
(dp4234
g74
(dp4235
g101
g102
ssg83
g4224
sg76
(lp4236
S':'
asbag69
(g90
g71
NtRp4237
(dp4238
g74
(dp4239
sg83
g4224
sg76
(lp4240
g69
(g70
g71
NtRp4241
(dp4242
g74
(dp4243
g82
I5
ssg83
g4237
sg76
(lp4244
g69
(g78
g71
NtRp4245
(dp4246
g74
(dp4247
g82
I4
ssg83
Nsg76
(lp4248
g69
(g85
g71
NtRp4249
(dp4250
g74
(dp4251
sg83
g4245
sg76
(lp4252
g69
(g90
g71
NtRp4253
(dp4254
g74
(dp4255
sg83
g4249
sg76
(lp4256
g69
(g70
g71
NtRp4257
(dp4258
g74
(dp4259
g82
I4
ssg83
g4253
sg76
(lp4260
S'^\\w+\\.py$'
p4261
asbasbasbag69
(g85
g71
NtRp4262
(dp4263
g74
(dp4264
sg83
g4245
sg76
(lp4265
g69
(g90
g71
NtRp4266
(dp4267
g74
(dp4268
sg83
g4262
sg76
(lp4269
g69
(g70
g71
NtRp4270
(dp4271
g74
(dp4272
g82
I4
ssg83
g4266
sg76
(lp4273
S'^initial/\\w+\\.py$'
p4274
asbasbasbag69
(g85
g71
NtRp4275
(dp4276
g74
(dp4277
sg83
g4245
sg76
(lp4278
g69
(g90
g71
NtRp4279
(dp4280
g74
(dp4281
sg83
g4275
sg76
(lp4282
g69
(g70
g71
NtRp4283
(dp4284
g74
(dp4285
g82
I4
ssg83
g4279
sg76
(lp4286
S'^initial/user/\\w+\\.py$'
p4287
asbasbasbasbasbasbasbag69
(g85
g71
NtRp4288
(dp4289
g74
(dp4290
sg83
g3771
sg76
(lp4291
g69
(g90
g71
NtRp4292
(dp4293
g74
(dp4294
g94
g95
ssg83
g4288
sg76
(lp4295
S'postprocessing'
p4296
asbag69
(g90
g71
NtRp4297
(dp4298
g74
(dp4299
g101
g102
ssg83
g4288
sg76
(lp4300
S':'
asbag69
(g90
g71
NtRp4301
(dp4302
g74
(dp4303
sg83
g4288
sg76
(lp4304
g69
(g70
g71
NtRp4305
(dp4306
g74
(dp4307
g82
I5
ssg83
g4301
sg76
(lp4308
g69
(g78
g71
NtRp4309
(dp4310
g74
(dp4311
g82
I4
ssg83
Nsg76
(lp4312
sbasbasbasbag69
(g85
g71
NtRp4313
(dp4314
g74
(dp4315
sg83
g3771
sg76
(lp4316
g69
(g90
g71
NtRp4317
(dp4318
g74
(dp4319
g94
g95
ssg83
g4313
sg76
(lp4320
S'session_cookie_expires'
p4321
asbag69
(g90
g71
NtRp4322
(dp4323
g74
(dp4324
g101
g102
ssg83
g4313
sg76
(lp4325
S':'
asbag69
(g90
g71
NtRp4326
(dp4327
g74
(dp4328
sg83
g4313
sg76
(lp4329
g69
(g70
g71
NtRp4330
(dp4331
g74
(dp4332
g82
I5
ssg83
g4326
sg76
(lp4333
S'None'
p4334
asbasbasbag69
(g85
g71
NtRp4335
(dp4336
g74
(dp4337
sg83
g3771
sg76
(lp4338
g69
(g90
g71
NtRp4339
(dp4340
g74
(dp4341
g94
g95
ssg83
g4335
sg76
(lp4342
S'session_data_name'
p4343
asbag69
(g90
g71
NtRp4344
(dp4345
g74
(dp4346
g101
g102
ssg83
g4335
sg76
(lp4347
S':'
asbag69
(g90
g71
NtRp4348
(dp4349
g74
(dp4350
sg83
g4335
sg76
(lp4351
g69
(g70
g71
NtRp4352
(dp4353
g74
(dp4354
g82
I5
ssg83
g4348
sg76
(lp4355
S'session_data_projeto'
p4356
asbasbasbag69
(g85
g71
NtRp4357
(dp4358
g74
(dp4359
sg83
g3771
sg76
(lp4360
g69
(g90
g71
NtRp4361
(dp4362
g74
(dp4363
g94
g95
ssg83
g4357
sg76
(lp4364
S'session_file'
p4365
asbag69
(g90
g71
NtRp4366
(dp4367
g74
(dp4368
g101
g102
ssg83
g4357
sg76
(lp4369
S':'
asbag69
(g90
g71
NtRp4370
(dp4371
g74
(dp4372
sg83
g4357
sg76
(lp4373
g69
(g70
g71
NtRp4374
(dp4375
g74
(dp4376
g82
I5
ssg83
g4370
sg76
(lp4377
S"<open file '/var/www/web2py_curso/applications/projeto/sessions/127.0.0.1-e368b264-444a-4dee-8b41-31155ff54a04', mode 'rb+' at 0x7f982407fae0>"
p4378
asbasbasbag69
(g85
g71
NtRp4379
(dp4380
g74
(dp4381
sg83
g3771
sg76
(lp4382
g69
(g90
g71
NtRp4383
(dp4384
g74
(dp4385
g94
g95
ssg83
g4379
sg76
(lp4386
S'session_filename'
p4387
asbag69
(g90
g71
NtRp4388
(dp4389
g74
(dp4390
g101
g102
ssg83
g4379
sg76
(lp4391
S':'
asbag69
(g90
g71
NtRp4392
(dp4393
g74
(dp4394
sg83
g4379
sg76
(lp4395
g69
(g70
g71
NtRp4396
(dp4397
g74
(dp4398
g82
I5
ssg83
g4392
sg76
(lp4399
S'/var/www/web2py_curso/applications/projeto/sessions/127.0.0.1-e368b264-444a-4dee-8b41-31155ff54a04'
p4400
asbasbasbag69
(g85
g71
NtRp4401
(dp4402
g74
(dp4403
sg83
g3771
sg76
(lp4404
g69
(g90
g71
NtRp4405
(dp4406
g74
(dp4407
g94
g95
ssg83
g4401
sg76
(lp4408
S'session_id'
p4409
asbag69
(g90
g71
NtRp4410
(dp4411
g74
(dp4412
g101
g102
ssg83
g4401
sg76
(lp4413
S':'
asbag69
(g90
g71
NtRp4414
(dp4415
g74
(dp4416
sg83
g4401
sg76
(lp4417
g69
(g70
g71
NtRp4418
(dp4419
g74
(dp4420
g82
I5
ssg83
g4414
sg76
(lp4421
g686
asbasbasbag69
(g85
g71
NtRp4422
(dp4423
g74
(dp4424
sg83
g3771
sg76
(lp4425
g69
(g90
g71
NtRp4426
(dp4427
g74
(dp4428
g94
g95
ssg83
g4422
sg76
(lp4429
S'session_id_name'
p4430
asbag69
(g90
g71
NtRp4431
(dp4432
g74
(dp4433
g101
g102
ssg83
g4422
sg76
(lp4434
S':'
asbag69
(g90
g71
NtRp4435
(dp4436
g74
(dp4437
sg83
g4422
sg76
(lp4438
g69
(g70
g71
NtRp4439
(dp4440
g74
(dp4441
g82
I5
ssg83
g4435
sg76
(lp4442
g3828
asbasbasbag69
(g85
g71
NtRp4443
(dp4444
g74
(dp4445
sg83
g3771
sg76
(lp4446
g69
(g90
g71
NtRp4447
(dp4448
g74
(dp4449
g94
g95
ssg83
g4443
sg76
(lp4450
S'session_locked'
p4451
asbag69
(g90
g71
NtRp4452
(dp4453
g74
(dp4454
g101
g102
ssg83
g4443
sg76
(lp4455
S':'
asbag69
(g90
g71
NtRp4456
(dp4457
g74
(dp4458
sg83
g4443
sg76
(lp4459
g69
(g70
g71
NtRp4460
(dp4461
g74
(dp4462
g82
I5
ssg83
g4456
sg76
(lp4463
g1838
asbasbasbag69
(g85
g71
NtRp4464
(dp4465
g74
(dp4466
sg83
g3771
sg76
(lp4467
g69
(g90
g71
NtRp4468
(dp4469
g74
(dp4470
g94
g95
ssg83
g4464
sg76
(lp4471
S'session_new'
p4472
asbag69
(g90
g71
NtRp4473
(dp4474
g74
(dp4475
g101
g102
ssg83
g4464
sg76
(lp4476
S':'
asbag69
(g90
g71
NtRp4477
(dp4478
g74
(dp4479
sg83
g4464
sg76
(lp4480
g69
(g70
g71
NtRp4481
(dp4482
g74
(dp4483
g82
I5
ssg83
g4477
sg76
(lp4484
g112
asbasbasbag69
(g85
g71
NtRp4485
(dp4486
g74
(dp4487
sg83
g3771
sg76
(lp4488
g69
(g90
g71
NtRp4489
(dp4490
g74
(dp4491
g94
g95
ssg83
g4485
sg76
(lp4492
S'session_storage_type'
p4493
asbag69
(g90
g71
NtRp4494
(dp4495
g74
(dp4496
g101
g102
ssg83
g4485
sg76
(lp4497
S':'
asbag69
(g90
g71
NtRp4498
(dp4499
g74
(dp4500
sg83
g4485
sg76
(lp4501
g69
(g70
g71
NtRp4502
(dp4503
g74
(dp4504
g82
I5
ssg83
g4498
sg76
(lp4505
g3268
asbasbasbag69
(g85
g71
NtRp4506
(dp4507
g74
(dp4508
sg83
g3771
sg76
(lp4509
g69
(g90
g71
NtRp4510
(dp4511
g74
(dp4512
g94
g95
ssg83
g4506
sg76
(lp4513
S'status'
p4514
asbag69
(g90
g71
NtRp4515
(dp4516
g74
(dp4517
g101
g102
ssg83
g4506
sg76
(lp4518
S':'
asbag69
(g90
g71
NtRp4519
(dp4520
g74
(dp4521
sg83
g4506
sg76
(lp4522
g69
(g70
g71
NtRp4523
(dp4524
g74
(dp4525
g82
I5
ssg83
g4519
sg76
(lp4526
S'200'
p4527
asbasbasbag69
(g85
g71
NtRp4528
(dp4529
g74
(dp4530
sg83
g3771
sg76
(lp4531
g69
(g90
g71
NtRp4532
(dp4533
g74
(dp4534
g94
g95
ssg83
g4528
sg76
(lp4535
S'view'
p4536
asbag69
(g90
g71
NtRp4537
(dp4538
g74
(dp4539
g101
g102
ssg83
g4528
sg76
(lp4540
S':'
asbag69
(g90
g71
NtRp4541
(dp4542
g74
(dp4543
sg83
g4528
sg76
(lp4544
g69
(g70
g71
NtRp4545
(dp4546
g74
(dp4547
g82
I5
ssg83
g4541
sg76
(lp4548
S'initial/user.html'
p4549
asbasbasbasbasbsS'locals'
p4550
(dp4551
S'self'
p4552
S"<Storage {'verify_email_onaccept': [], 'register...membership', 'retrieve_username_next': '/index'}>"
p4553
sS'value'
p4554
S"['register']"
p4555
sS'key'
p4556
S"'actions_disable'"
p4557
sssS'traceback'
p4558
S'Traceback (most recent call last):\n  File "/var/www/web2py_curso/gluon/restricted.py", line 212, in restricted\n    exec ccode in environment\n  File "/var/www/web2py_curso/applications/projeto/models/config.py", line 32, in <module>\n    auth.settings.actions_disable = [\'register\']\n  File "/var/www/web2py_curso/gluon/storage.py", line 164, in __setattr__\n    raise SyntaxError(\'setting key \\\'%s\\\' does not exist\' % key)\nSyntaxError: setting key \'actions_disable\' does not exist\n'
p4559
s.