(dp1
S'output'
p2
S"<type 'exceptions.NameError'> global name 'bd' is not defined"
p3
sS'layer'
p4
S'/var/www/web2py_curso/applications/projeto/controllers/manager.py'
p5
sS'code'
p6
S'@auth.requires_login()\ndef category():\n\tform = SQLFORM(db.category, formstyle=\'divs\', submit_button=\'Enviar\', _class=\'admform\', _id=\'formblog\')\n\n\tif form.process().accepted:\n\t\tresponse.flash = "Sucesso"\n\telif form.errors:\n\t\tresponse.flash = "erro"\n\telse:\n\t\tresponse.flash = "Preencha o form"\n\n\treturn dict(form=form)\n\n@auth.requires_membership(\'admin\')\ndef blogs():\n\tform = SQLFORM(db.blog, formstyle=\'divs\', submit_button=\'Enviar\', _class=\'admform\', _id=\'formblog\')\n\n\tif form.process().accepted:\n\t\tresponse.flash = "Sucesso"\n\telif form.errors:\n\t\tresponse.flash = "erro"\n\telse:\n\t\tresponse.flash = "Preencha o form"\n\n\treturn dict(form=form)\n\ndef usuarios():\n\tform = SQLFORM(bd.auth_user)\n\n\treturn dict(form=form)\nresponse._vars=response._caller(usuarios)\n'
p7
sS'snapshot'
p8
(dp9
S'exception'
p10
(dp11
S'__hash__'
p12
S"<method-wrapper '__hash__' of exceptions.NameError object>"
p13
sS'__setattr__'
p14
S"<method-wrapper '__setattr__' of exceptions.NameError object>"
p15
sS'__reduce_ex__'
p16
S'<built-in method __reduce_ex__ of exceptions.NameError object>'
p17
sS'__getslice__'
p18
S"<method-wrapper '__getslice__' of exceptions.NameError object>"
p19
sS'__getitem__'
p20
S"<method-wrapper '__getitem__' of exceptions.NameError object>"
p21
sS'__setstate__'
p22
S'<built-in method __setstate__ of exceptions.NameError object>'
p23
sS'args'
p24
S'("global name \'bd\' is not defined",)'
p25
sS'__reduce__'
p26
S'<built-in method __reduce__ of exceptions.NameError object>'
p27
sS'__str__'
p28
S"<method-wrapper '__str__' of exceptions.NameError object>"
p29
sS'__format__'
p30
S'<built-in method __format__ of exceptions.NameError object>'
p31
sS'__getattribute__'
p32
S"<method-wrapper '__getattribute__' of exceptions.NameError object>"
p33
sS'__class__'
p34
S"<type 'exceptions.NameError'>"
p35
sS'__unicode__'
p36
S'<built-in method __unicode__ of exceptions.NameError object>'
p37
sS'__delattr__'
p38
S"<method-wrapper '__delattr__' of exceptions.NameError object>"
p39
sS'__subclasshook__'
p40
S'<built-in method __subclasshook__ of type object>'
p41
sS'__repr__'
p42
S"<method-wrapper '__repr__' of exceptions.NameError object>"
p43
sS'__dict__'
p44
S'{}'
p45
sS'__sizeof__'
p46
S'<built-in method __sizeof__ of exceptions.NameError object>'
p47
sS'__doc__'
p48
S"'Name not found globally.'"
p49
sS'__init__'
p50
S"<method-wrapper '__init__' of exceptions.NameError object>"
p51
sS'__new__'
p52
S'<built-in method __new__ of type object>'
p53
ssS'evalue'
p54
S"global name 'bd' is not defined"
p55
sS'request'
p56
ccopy_reg
_reconstructor
p57
(cgluon.html
BEAUTIFY
p58
c__builtin__
object
p59
NtRp60
(dp61
S'attributes'
p62
(dp63
sS'components'
p64
(lp65
g57
(cgluon.html
TABLE
p66
g59
NtRp67
(dp68
g62
(dp69
S'level'
p70
I5
ssS'parent'
p71
Nsg64
(lp72
g57
(cgluon.html
TR
p73
g59
NtRp74
(dp75
g62
(dp76
sg71
g67
sg64
(lp77
g57
(cgluon.html
TD
p78
g59
NtRp79
(dp80
g62
(dp81
S'_style'
p82
S'font-weight:bold;vertical-align:top'
p83
ssg71
g74
sg64
(lp84
S'ajax'
p85
asbag57
(g78
g59
NtRp86
(dp87
g62
(dp88
S'_valign'
p89
S'top'
p90
ssg71
g74
sg64
(lp91
S':'
asbag57
(g78
g59
NtRp92
(dp93
g62
(dp94
sg71
g74
sg64
(lp95
g57
(g58
g59
NtRp96
(dp97
g62
(dp98
g70
I5
ssg71
g92
sg64
(lp99
S'False'
p100
asbasbasbag57
(g73
g59
NtRp101
(dp102
g62
(dp103
sg71
g67
sg64
(lp104
g57
(g78
g59
NtRp105
(dp106
g62
(dp107
g82
g83
ssg71
g101
sg64
(lp108
S'application'
p109
asbag57
(g78
g59
NtRp110
(dp111
g62
(dp112
g89
g90
ssg71
g101
sg64
(lp113
S':'
asbag57
(g78
g59
NtRp114
(dp115
g62
(dp116
sg71
g101
sg64
(lp117
g57
(g58
g59
NtRp118
(dp119
g62
(dp120
g70
I5
ssg71
g114
sg64
(lp121
S'projeto'
p122
asbasbasbag57
(g73
g59
NtRp123
(dp124
g62
(dp125
sg71
g67
sg64
(lp126
g57
(g78
g59
NtRp127
(dp128
g62
(dp129
g82
g83
ssg71
g123
sg64
(lp130
g24
asbag57
(g78
g59
NtRp131
(dp132
g62
(dp133
g89
g90
ssg71
g123
sg64
(lp134
S':'
asbag57
(g78
g59
NtRp135
(dp136
g62
(dp137
sg71
g123
sg64
(lp138
g57
(g58
g59
NtRp139
(dp140
g62
(dp141
g70
I5
ssg71
g135
sg64
(lp142
g57
(g66
g59
NtRp143
(dp144
g62
(dp145
g70
I4
ssg71
Nsg64
(lp146
sbasbasbasbag57
(g73
g59
NtRp147
(dp148
g62
(dp149
sg71
g67
sg64
(lp150
g57
(g78
g59
NtRp151
(dp152
g62
(dp153
g82
g83
ssg71
g147
sg64
(lp154
S'body'
p155
asbag57
(g78
g59
NtRp156
(dp157
g62
(dp158
g89
g90
ssg71
g147
sg64
(lp159
S':'
asbag57
(g78
g59
NtRp160
(dp161
g62
(dp162
sg71
g147
sg64
(lp163
g57
(g58
g59
NtRp164
(dp165
g62
(dp166
g70
I5
ssg71
g160
sg64
(lp167
S'<cStringIO.StringO object at 0x7fb4b015cb58>'
p168
asbasbasbag57
(g73
g59
NtRp169
(dp170
g62
(dp171
sg71
g67
sg64
(lp172
g57
(g78
g59
NtRp173
(dp174
g62
(dp175
g82
g83
ssg71
g169
sg64
(lp176
S'cid'
p177
asbag57
(g78
g59
NtRp178
(dp179
g62
(dp180
g89
g90
ssg71
g169
sg64
(lp181
S':'
asbag57
(g78
g59
NtRp182
(dp183
g62
(dp184
sg71
g169
sg64
(lp185
g57
(g58
g59
NtRp186
(dp187
g62
(dp188
g70
I5
ssg71
g182
sg64
(lp189
S'None'
p190
asbasbasbag57
(g73
g59
NtRp191
(dp192
g62
(dp193
sg71
g67
sg64
(lp194
g57
(g78
g59
NtRp195
(dp196
g62
(dp197
g82
g83
ssg71
g191
sg64
(lp198
S'client'
p199
asbag57
(g78
g59
NtRp200
(dp201
g62
(dp202
g89
g90
ssg71
g191
sg64
(lp203
S':'
asbag57
(g78
g59
NtRp204
(dp205
g62
(dp206
sg71
g191
sg64
(lp207
g57
(g58
g59
NtRp208
(dp209
g62
(dp210
g70
I5
ssg71
g204
sg64
(lp211
S'127.0.0.1'
p212
asbasbasbag57
(g73
g59
NtRp213
(dp214
g62
(dp215
sg71
g67
sg64
(lp216
g57
(g78
g59
NtRp217
(dp218
g62
(dp219
g82
g83
ssg71
g213
sg64
(lp220
S'controller'
p221
asbag57
(g78
g59
NtRp222
(dp223
g62
(dp224
g89
g90
ssg71
g213
sg64
(lp225
S':'
asbag57
(g78
g59
NtRp226
(dp227
g62
(dp228
sg71
g213
sg64
(lp229
g57
(g58
g59
NtRp230
(dp231
g62
(dp232
g70
I5
ssg71
g226
sg64
(lp233
S'manager'
p234
asbasbasbag57
(g73
g59
NtRp235
(dp236
g62
(dp237
sg71
g67
sg64
(lp238
g57
(g78
g59
NtRp239
(dp240
g62
(dp241
g82
g83
ssg71
g235
sg64
(lp242
S'cookies'
p243
asbag57
(g78
g59
NtRp244
(dp245
g62
(dp246
g89
g90
ssg71
g235
sg64
(lp247
S':'
asbag57
(g78
g59
NtRp248
(dp249
g62
(dp250
sg71
g235
sg64
(lp251
g57
(g58
g59
NtRp252
(dp253
g62
(dp254
g70
I5
ssg71
g248
sg64
(lp255
g57
(g66
g59
NtRp256
(dp257
g62
(dp258
g70
I4
ssg71
Nsg64
(lp259
g57
(g73
g59
NtRp260
(dp261
g62
(dp262
sg71
g256
sg64
(lp263
g57
(g78
g59
NtRp264
(dp265
g62
(dp266
g82
g83
ssg71
g260
sg64
(lp267
S'admin'
p268
asbag57
(g78
g59
NtRp269
(dp270
g62
(dp271
g89
g90
ssg71
g260
sg64
(lp272
S':'
asbag57
(g78
g59
NtRp273
(dp274
g62
(dp275
sg71
g260
sg64
(lp276
g57
(g58
g59
NtRp277
(dp278
g62
(dp279
g70
I4
ssg71
g273
sg64
(lp280
S'admin'
p281
ag57
(g66
g59
NtRp282
(dp283
g62
(dp284
g70
I3
ssg71
Nsg64
(lp285
g57
(g73
g59
NtRp286
(dp287
g62
(dp288
sg71
g282
sg64
(lp289
g57
(g78
g59
NtRp290
(dp291
g62
(dp292
g82
g83
ssg71
g286
sg64
(lp293
S'comment'
p294
asbag57
(g78
g59
NtRp295
(dp296
g62
(dp297
g89
g90
ssg71
g286
sg64
(lp298
S':'
asbag57
(g78
g59
NtRp299
(dp300
g62
(dp301
sg71
g286
sg64
(lp302
g57
(g58
g59
NtRp303
(dp304
g62
(dp305
g70
I3
ssg71
g299
sg64
(lp306
S''
asbasbasbag57
(g73
g59
NtRp307
(dp308
g62
(dp309
sg71
g282
sg64
(lp310
g57
(g78
g59
NtRp311
(dp312
g62
(dp313
g82
g83
ssg71
g307
sg64
(lp314
S'domain'
p315
asbag57
(g78
g59
NtRp316
(dp317
g62
(dp318
g89
g90
ssg71
g307
sg64
(lp319
S':'
asbag57
(g78
g59
NtRp320
(dp321
g62
(dp322
sg71
g307
sg64
(lp323
g57
(g58
g59
NtRp324
(dp325
g62
(dp326
g70
I3
ssg71
g320
sg64
(lp327
S''
asbasbasbag57
(g73
g59
NtRp328
(dp329
g62
(dp330
sg71
g282
sg64
(lp331
g57
(g78
g59
NtRp332
(dp333
g62
(dp334
g82
g83
ssg71
g328
sg64
(lp335
S'expires'
p336
asbag57
(g78
g59
NtRp337
(dp338
g62
(dp339
g89
g90
ssg71
g328
sg64
(lp340
S':'
asbag57
(g78
g59
NtRp341
(dp342
g62
(dp343
sg71
g328
sg64
(lp344
g57
(g58
g59
NtRp345
(dp346
g62
(dp347
g70
I3
ssg71
g341
sg64
(lp348
S''
asbasbasbag57
(g73
g59
NtRp349
(dp350
g62
(dp351
sg71
g282
sg64
(lp352
g57
(g78
g59
NtRp353
(dp354
g62
(dp355
g82
g83
ssg71
g349
sg64
(lp356
S'httponly'
p357
asbag57
(g78
g59
NtRp358
(dp359
g62
(dp360
g89
g90
ssg71
g349
sg64
(lp361
S':'
asbag57
(g78
g59
NtRp362
(dp363
g62
(dp364
sg71
g349
sg64
(lp365
g57
(g58
g59
NtRp366
(dp367
g62
(dp368
g70
I3
ssg71
g362
sg64
(lp369
S''
asbasbasbag57
(g73
g59
NtRp370
(dp371
g62
(dp372
sg71
g282
sg64
(lp373
g57
(g78
g59
NtRp374
(dp375
g62
(dp376
g82
g83
ssg71
g370
sg64
(lp377
S'max-age'
p378
asbag57
(g78
g59
NtRp379
(dp380
g62
(dp381
g89
g90
ssg71
g370
sg64
(lp382
S':'
asbag57
(g78
g59
NtRp383
(dp384
g62
(dp385
sg71
g370
sg64
(lp386
g57
(g58
g59
NtRp387
(dp388
g62
(dp389
g70
I3
ssg71
g383
sg64
(lp390
S''
asbasbasbag57
(g73
g59
NtRp391
(dp392
g62
(dp393
sg71
g282
sg64
(lp394
g57
(g78
g59
NtRp395
(dp396
g62
(dp397
g82
g83
ssg71
g391
sg64
(lp398
S'path'
p399
asbag57
(g78
g59
NtRp400
(dp401
g62
(dp402
g89
g90
ssg71
g391
sg64
(lp403
S':'
asbag57
(g78
g59
NtRp404
(dp405
g62
(dp406
sg71
g391
sg64
(lp407
g57
(g58
g59
NtRp408
(dp409
g62
(dp410
g70
I3
ssg71
g404
sg64
(lp411
S''
asbasbasbag57
(g73
g59
NtRp412
(dp413
g62
(dp414
sg71
g282
sg64
(lp415
g57
(g78
g59
NtRp416
(dp417
g62
(dp418
g82
g83
ssg71
g412
sg64
(lp419
S'secure'
p420
asbag57
(g78
g59
NtRp421
(dp422
g62
(dp423
g89
g90
ssg71
g412
sg64
(lp424
S':'
asbag57
(g78
g59
NtRp425
(dp426
g62
(dp427
sg71
g412
sg64
(lp428
g57
(g58
g59
NtRp429
(dp430
g62
(dp431
g70
I3
ssg71
g425
sg64
(lp432
S''
asbasbasbag57
(g73
g59
NtRp433
(dp434
g62
(dp435
sg71
g282
sg64
(lp436
g57
(g78
g59
NtRp437
(dp438
g62
(dp439
g82
g83
ssg71
g433
sg64
(lp440
S'version'
p441
asbag57
(g78
g59
NtRp442
(dp443
g62
(dp444
g89
g90
ssg71
g433
sg64
(lp445
S':'
asbag57
(g78
g59
NtRp446
(dp447
g62
(dp448
sg71
g433
sg64
(lp449
g57
(g58
g59
NtRp450
(dp451
g62
(dp452
g70
I3
ssg71
g446
sg64
(lp453
S''
asbasbasbasbasbasbasbag57
(g73
g59
NtRp454
(dp455
g62
(dp456
sg71
g256
sg64
(lp457
g57
(g78
g59
NtRp458
(dp459
g62
(dp460
g82
g83
ssg71
g454
sg64
(lp461
S'cookie'
p462
asbag57
(g78
g59
NtRp463
(dp464
g62
(dp465
g89
g90
ssg71
g454
sg64
(lp466
S':'
asbag57
(g78
g59
NtRp467
(dp468
g62
(dp469
sg71
g454
sg64
(lp470
g57
(g58
g59
NtRp471
(dp472
g62
(dp473
g70
I4
ssg71
g467
sg64
(lp474
S'1649423593'
p475
ag57
(g66
g59
NtRp476
(dp477
g62
(dp478
g70
I3
ssg71
Nsg64
(lp479
g57
(g73
g59
NtRp480
(dp481
g62
(dp482
sg71
g476
sg64
(lp483
g57
(g78
g59
NtRp484
(dp485
g62
(dp486
g82
g83
ssg71
g480
sg64
(lp487
g294
asbag57
(g78
g59
NtRp488
(dp489
g62
(dp490
g89
g90
ssg71
g480
sg64
(lp491
S':'
asbag57
(g78
g59
NtRp492
(dp493
g62
(dp494
sg71
g480
sg64
(lp495
g57
(g58
g59
NtRp496
(dp497
g62
(dp498
g70
I3
ssg71
g492
sg64
(lp499
S''
asbasbasbag57
(g73
g59
NtRp500
(dp501
g62
(dp502
sg71
g476
sg64
(lp503
g57
(g78
g59
NtRp504
(dp505
g62
(dp506
g82
g83
ssg71
g500
sg64
(lp507
g315
asbag57
(g78
g59
NtRp508
(dp509
g62
(dp510
g89
g90
ssg71
g500
sg64
(lp511
S':'
asbag57
(g78
g59
NtRp512
(dp513
g62
(dp514
sg71
g500
sg64
(lp515
g57
(g58
g59
NtRp516
(dp517
g62
(dp518
g70
I3
ssg71
g512
sg64
(lp519
S''
asbasbasbag57
(g73
g59
NtRp520
(dp521
g62
(dp522
sg71
g476
sg64
(lp523
g57
(g78
g59
NtRp524
(dp525
g62
(dp526
g82
g83
ssg71
g520
sg64
(lp527
g336
asbag57
(g78
g59
NtRp528
(dp529
g62
(dp530
g89
g90
ssg71
g520
sg64
(lp531
S':'
asbag57
(g78
g59
NtRp532
(dp533
g62
(dp534
sg71
g520
sg64
(lp535
g57
(g58
g59
NtRp536
(dp537
g62
(dp538
g70
I3
ssg71
g532
sg64
(lp539
S''
asbasbasbag57
(g73
g59
NtRp540
(dp541
g62
(dp542
sg71
g476
sg64
(lp543
g57
(g78
g59
NtRp544
(dp545
g62
(dp546
g82
g83
ssg71
g540
sg64
(lp547
g357
asbag57
(g78
g59
NtRp548
(dp549
g62
(dp550
g89
g90
ssg71
g540
sg64
(lp551
S':'
asbag57
(g78
g59
NtRp552
(dp553
g62
(dp554
sg71
g540
sg64
(lp555
g57
(g58
g59
NtRp556
(dp557
g62
(dp558
g70
I3
ssg71
g552
sg64
(lp559
S''
asbasbasbag57
(g73
g59
NtRp560
(dp561
g62
(dp562
sg71
g476
sg64
(lp563
g57
(g78
g59
NtRp564
(dp565
g62
(dp566
g82
g83
ssg71
g560
sg64
(lp567
g378
asbag57
(g78
g59
NtRp568
(dp569
g62
(dp570
g89
g90
ssg71
g560
sg64
(lp571
S':'
asbag57
(g78
g59
NtRp572
(dp573
g62
(dp574
sg71
g560
sg64
(lp575
g57
(g58
g59
NtRp576
(dp577
g62
(dp578
g70
I3
ssg71
g572
sg64
(lp579
S''
asbasbasbag57
(g73
g59
NtRp580
(dp581
g62
(dp582
sg71
g476
sg64
(lp583
g57
(g78
g59
NtRp584
(dp585
g62
(dp586
g82
g83
ssg71
g580
sg64
(lp587
g399
asbag57
(g78
g59
NtRp588
(dp589
g62
(dp590
g89
g90
ssg71
g580
sg64
(lp591
S':'
asbag57
(g78
g59
NtRp592
(dp593
g62
(dp594
sg71
g580
sg64
(lp595
g57
(g58
g59
NtRp596
(dp597
g62
(dp598
g70
I3
ssg71
g592
sg64
(lp599
S''
asbasbasbag57
(g73
g59
NtRp600
(dp601
g62
(dp602
sg71
g476
sg64
(lp603
g57
(g78
g59
NtRp604
(dp605
g62
(dp606
g82
g83
ssg71
g600
sg64
(lp607
g420
asbag57
(g78
g59
NtRp608
(dp609
g62
(dp610
g89
g90
ssg71
g600
sg64
(lp611
S':'
asbag57
(g78
g59
NtRp612
(dp613
g62
(dp614
sg71
g600
sg64
(lp615
g57
(g58
g59
NtRp616
(dp617
g62
(dp618
g70
I3
ssg71
g612
sg64
(lp619
S''
asbasbasbag57
(g73
g59
NtRp620
(dp621
g62
(dp622
sg71
g476
sg64
(lp623
g57
(g78
g59
NtRp624
(dp625
g62
(dp626
g82
g83
ssg71
g620
sg64
(lp627
g441
asbag57
(g78
g59
NtRp628
(dp629
g62
(dp630
g89
g90
ssg71
g620
sg64
(lp631
S':'
asbag57
(g78
g59
NtRp632
(dp633
g62
(dp634
sg71
g620
sg64
(lp635
g57
(g58
g59
NtRp636
(dp637
g62
(dp638
g70
I3
ssg71
g632
sg64
(lp639
S''
asbasbasbasbasbasbasbag57
(g73
g59
NtRp640
(dp641
g62
(dp642
sg71
g256
sg64
(lp643
g57
(g78
g59
NtRp644
(dp645
g62
(dp646
g82
g83
ssg71
g640
sg64
(lp647
S'hw_type'
p648
asbag57
(g78
g59
NtRp649
(dp650
g62
(dp651
g89
g90
ssg71
g640
sg64
(lp652
S':'
asbag57
(g78
g59
NtRp653
(dp654
g62
(dp655
sg71
g640
sg64
(lp656
g57
(g58
g59
NtRp657
(dp658
g62
(dp659
g70
I4
ssg71
g653
sg64
(lp660
S'MX60'
p661
ag57
(g66
g59
NtRp662
(dp663
g62
(dp664
g70
I3
ssg71
Nsg64
(lp665
g57
(g73
g59
NtRp666
(dp667
g62
(dp668
sg71
g662
sg64
(lp669
g57
(g78
g59
NtRp670
(dp671
g62
(dp672
g82
g83
ssg71
g666
sg64
(lp673
g294
asbag57
(g78
g59
NtRp674
(dp675
g62
(dp676
g89
g90
ssg71
g666
sg64
(lp677
S':'
asbag57
(g78
g59
NtRp678
(dp679
g62
(dp680
sg71
g666
sg64
(lp681
g57
(g58
g59
NtRp682
(dp683
g62
(dp684
g70
I3
ssg71
g678
sg64
(lp685
S''
asbasbasbag57
(g73
g59
NtRp686
(dp687
g62
(dp688
sg71
g662
sg64
(lp689
g57
(g78
g59
NtRp690
(dp691
g62
(dp692
g82
g83
ssg71
g686
sg64
(lp693
g315
asbag57
(g78
g59
NtRp694
(dp695
g62
(dp696
g89
g90
ssg71
g686
sg64
(lp697
S':'
asbag57
(g78
g59
NtRp698
(dp699
g62
(dp700
sg71
g686
sg64
(lp701
g57
(g58
g59
NtRp702
(dp703
g62
(dp704
g70
I3
ssg71
g698
sg64
(lp705
S''
asbasbasbag57
(g73
g59
NtRp706
(dp707
g62
(dp708
sg71
g662
sg64
(lp709
g57
(g78
g59
NtRp710
(dp711
g62
(dp712
g82
g83
ssg71
g706
sg64
(lp713
g336
asbag57
(g78
g59
NtRp714
(dp715
g62
(dp716
g89
g90
ssg71
g706
sg64
(lp717
S':'
asbag57
(g78
g59
NtRp718
(dp719
g62
(dp720
sg71
g706
sg64
(lp721
g57
(g58
g59
NtRp722
(dp723
g62
(dp724
g70
I3
ssg71
g718
sg64
(lp725
S''
asbasbasbag57
(g73
g59
NtRp726
(dp727
g62
(dp728
sg71
g662
sg64
(lp729
g57
(g78
g59
NtRp730
(dp731
g62
(dp732
g82
g83
ssg71
g726
sg64
(lp733
g357
asbag57
(g78
g59
NtRp734
(dp735
g62
(dp736
g89
g90
ssg71
g726
sg64
(lp737
S':'
asbag57
(g78
g59
NtRp738
(dp739
g62
(dp740
sg71
g726
sg64
(lp741
g57
(g58
g59
NtRp742
(dp743
g62
(dp744
g70
I3
ssg71
g738
sg64
(lp745
S''
asbasbasbag57
(g73
g59
NtRp746
(dp747
g62
(dp748
sg71
g662
sg64
(lp749
g57
(g78
g59
NtRp750
(dp751
g62
(dp752
g82
g83
ssg71
g746
sg64
(lp753
g378
asbag57
(g78
g59
NtRp754
(dp755
g62
(dp756
g89
g90
ssg71
g746
sg64
(lp757
S':'
asbag57
(g78
g59
NtRp758
(dp759
g62
(dp760
sg71
g746
sg64
(lp761
g57
(g58
g59
NtRp762
(dp763
g62
(dp764
g70
I3
ssg71
g758
sg64
(lp765
S''
asbasbasbag57
(g73
g59
NtRp766
(dp767
g62
(dp768
sg71
g662
sg64
(lp769
g57
(g78
g59
NtRp770
(dp771
g62
(dp772
g82
g83
ssg71
g766
sg64
(lp773
g399
asbag57
(g78
g59
NtRp774
(dp775
g62
(dp776
g89
g90
ssg71
g766
sg64
(lp777
S':'
asbag57
(g78
g59
NtRp778
(dp779
g62
(dp780
sg71
g766
sg64
(lp781
g57
(g58
g59
NtRp782
(dp783
g62
(dp784
g70
I3
ssg71
g778
sg64
(lp785
S''
asbasbasbag57
(g73
g59
NtRp786
(dp787
g62
(dp788
sg71
g662
sg64
(lp789
g57
(g78
g59
NtRp790
(dp791
g62
(dp792
g82
g83
ssg71
g786
sg64
(lp793
g420
asbag57
(g78
g59
NtRp794
(dp795
g62
(dp796
g89
g90
ssg71
g786
sg64
(lp797
S':'
asbag57
(g78
g59
NtRp798
(dp799
g62
(dp800
sg71
g786
sg64
(lp801
g57
(g58
g59
NtRp802
(dp803
g62
(dp804
g70
I3
ssg71
g798
sg64
(lp805
S''
asbasbasbag57
(g73
g59
NtRp806
(dp807
g62
(dp808
sg71
g662
sg64
(lp809
g57
(g78
g59
NtRp810
(dp811
g62
(dp812
g82
g83
ssg71
g806
sg64
(lp813
g441
asbag57
(g78
g59
NtRp814
(dp815
g62
(dp816
g89
g90
ssg71
g806
sg64
(lp817
S':'
asbag57
(g78
g59
NtRp818
(dp819
g62
(dp820
sg71
g806
sg64
(lp821
g57
(g58
g59
NtRp822
(dp823
g62
(dp824
g70
I3
ssg71
g818
sg64
(lp825
S''
asbasbasbasbasbasbasbag57
(g73
g59
NtRp826
(dp827
g62
(dp828
sg71
g256
sg64
(lp829
g57
(g78
g59
NtRp830
(dp831
g62
(dp832
g82
g83
ssg71
g826
sg64
(lp833
S'hw_version'
p834
asbag57
(g78
g59
NtRp835
(dp836
g62
(dp837
g89
g90
ssg71
g826
sg64
(lp838
S':'
asbag57
(g78
g59
NtRp839
(dp840
g62
(dp841
sg71
g826
sg64
(lp842
g57
(g58
g59
NtRp843
(dp844
g62
(dp845
g70
I4
ssg71
g839
sg64
(lp846
S'Rev%201.9.82.316'
p847
ag57
(g66
g59
NtRp848
(dp849
g62
(dp850
g70
I3
ssg71
Nsg64
(lp851
g57
(g73
g59
NtRp852
(dp853
g62
(dp854
sg71
g848
sg64
(lp855
g57
(g78
g59
NtRp856
(dp857
g62
(dp858
g82
g83
ssg71
g852
sg64
(lp859
g294
asbag57
(g78
g59
NtRp860
(dp861
g62
(dp862
g89
g90
ssg71
g852
sg64
(lp863
S':'
asbag57
(g78
g59
NtRp864
(dp865
g62
(dp866
sg71
g852
sg64
(lp867
g57
(g58
g59
NtRp868
(dp869
g62
(dp870
g70
I3
ssg71
g864
sg64
(lp871
S''
asbasbasbag57
(g73
g59
NtRp872
(dp873
g62
(dp874
sg71
g848
sg64
(lp875
g57
(g78
g59
NtRp876
(dp877
g62
(dp878
g82
g83
ssg71
g872
sg64
(lp879
g315
asbag57
(g78
g59
NtRp880
(dp881
g62
(dp882
g89
g90
ssg71
g872
sg64
(lp883
S':'
asbag57
(g78
g59
NtRp884
(dp885
g62
(dp886
sg71
g872
sg64
(lp887
g57
(g58
g59
NtRp888
(dp889
g62
(dp890
g70
I3
ssg71
g884
sg64
(lp891
S''
asbasbasbag57
(g73
g59
NtRp892
(dp893
g62
(dp894
sg71
g848
sg64
(lp895
g57
(g78
g59
NtRp896
(dp897
g62
(dp898
g82
g83
ssg71
g892
sg64
(lp899
g336
asbag57
(g78
g59
NtRp900
(dp901
g62
(dp902
g89
g90
ssg71
g892
sg64
(lp903
S':'
asbag57
(g78
g59
NtRp904
(dp905
g62
(dp906
sg71
g892
sg64
(lp907
g57
(g58
g59
NtRp908
(dp909
g62
(dp910
g70
I3
ssg71
g904
sg64
(lp911
S''
asbasbasbag57
(g73
g59
NtRp912
(dp913
g62
(dp914
sg71
g848
sg64
(lp915
g57
(g78
g59
NtRp916
(dp917
g62
(dp918
g82
g83
ssg71
g912
sg64
(lp919
g357
asbag57
(g78
g59
NtRp920
(dp921
g62
(dp922
g89
g90
ssg71
g912
sg64
(lp923
S':'
asbag57
(g78
g59
NtRp924
(dp925
g62
(dp926
sg71
g912
sg64
(lp927
g57
(g58
g59
NtRp928
(dp929
g62
(dp930
g70
I3
ssg71
g924
sg64
(lp931
S''
asbasbasbag57
(g73
g59
NtRp932
(dp933
g62
(dp934
sg71
g848
sg64
(lp935
g57
(g78
g59
NtRp936
(dp937
g62
(dp938
g82
g83
ssg71
g932
sg64
(lp939
g378
asbag57
(g78
g59
NtRp940
(dp941
g62
(dp942
g89
g90
ssg71
g932
sg64
(lp943
S':'
asbag57
(g78
g59
NtRp944
(dp945
g62
(dp946
sg71
g932
sg64
(lp947
g57
(g58
g59
NtRp948
(dp949
g62
(dp950
g70
I3
ssg71
g944
sg64
(lp951
S''
asbasbasbag57
(g73
g59
NtRp952
(dp953
g62
(dp954
sg71
g848
sg64
(lp955
g57
(g78
g59
NtRp956
(dp957
g62
(dp958
g82
g83
ssg71
g952
sg64
(lp959
g399
asbag57
(g78
g59
NtRp960
(dp961
g62
(dp962
g89
g90
ssg71
g952
sg64
(lp963
S':'
asbag57
(g78
g59
NtRp964
(dp965
g62
(dp966
sg71
g952
sg64
(lp967
g57
(g58
g59
NtRp968
(dp969
g62
(dp970
g70
I3
ssg71
g964
sg64
(lp971
S''
asbasbasbag57
(g73
g59
NtRp972
(dp973
g62
(dp974
sg71
g848
sg64
(lp975
g57
(g78
g59
NtRp976
(dp977
g62
(dp978
g82
g83
ssg71
g972
sg64
(lp979
g420
asbag57
(g78
g59
NtRp980
(dp981
g62
(dp982
g89
g90
ssg71
g972
sg64
(lp983
S':'
asbag57
(g78
g59
NtRp984
(dp985
g62
(dp986
sg71
g972
sg64
(lp987
g57
(g58
g59
NtRp988
(dp989
g62
(dp990
g70
I3
ssg71
g984
sg64
(lp991
S''
asbasbasbag57
(g73
g59
NtRp992
(dp993
g62
(dp994
sg71
g848
sg64
(lp995
g57
(g78
g59
NtRp996
(dp997
g62
(dp998
g82
g83
ssg71
g992
sg64
(lp999
g441
asbag57
(g78
g59
NtRp1000
(dp1001
g62
(dp1002
g89
g90
ssg71
g992
sg64
(lp1003
S':'
asbag57
(g78
g59
NtRp1004
(dp1005
g62
(dp1006
sg71
g992
sg64
(lp1007
g57
(g58
g59
NtRp1008
(dp1009
g62
(dp1010
g70
I3
ssg71
g1004
sg64
(lp1011
S''
asbasbasbasbasbasbasbag57
(g73
g59
NtRp1012
(dp1013
g62
(dp1014
sg71
g256
sg64
(lp1015
g57
(g78
g59
NtRp1016
(dp1017
g62
(dp1018
g82
g83
ssg71
g1012
sg64
(lp1019
S'language'
p1020
asbag57
(g78
g59
NtRp1021
(dp1022
g62
(dp1023
g89
g90
ssg71
g1012
sg64
(lp1024
S':'
asbag57
(g78
g59
NtRp1025
(dp1026
g62
(dp1027
sg71
g1012
sg64
(lp1028
g57
(g58
g59
NtRp1029
(dp1030
g62
(dp1031
g70
I4
ssg71
g1025
sg64
(lp1032
S'1'
ag57
(g66
g59
NtRp1033
(dp1034
g62
(dp1035
g70
I3
ssg71
Nsg64
(lp1036
g57
(g73
g59
NtRp1037
(dp1038
g62
(dp1039
sg71
g1033
sg64
(lp1040
g57
(g78
g59
NtRp1041
(dp1042
g62
(dp1043
g82
g83
ssg71
g1037
sg64
(lp1044
g294
asbag57
(g78
g59
NtRp1045
(dp1046
g62
(dp1047
g89
g90
ssg71
g1037
sg64
(lp1048
S':'
asbag57
(g78
g59
NtRp1049
(dp1050
g62
(dp1051
sg71
g1037
sg64
(lp1052
g57
(g58
g59
NtRp1053
(dp1054
g62
(dp1055
g70
I3
ssg71
g1049
sg64
(lp1056
S''
asbasbasbag57
(g73
g59
NtRp1057
(dp1058
g62
(dp1059
sg71
g1033
sg64
(lp1060
g57
(g78
g59
NtRp1061
(dp1062
g62
(dp1063
g82
g83
ssg71
g1057
sg64
(lp1064
g315
asbag57
(g78
g59
NtRp1065
(dp1066
g62
(dp1067
g89
g90
ssg71
g1057
sg64
(lp1068
S':'
asbag57
(g78
g59
NtRp1069
(dp1070
g62
(dp1071
sg71
g1057
sg64
(lp1072
g57
(g58
g59
NtRp1073
(dp1074
g62
(dp1075
g70
I3
ssg71
g1069
sg64
(lp1076
S''
asbasbasbag57
(g73
g59
NtRp1077
(dp1078
g62
(dp1079
sg71
g1033
sg64
(lp1080
g57
(g78
g59
NtRp1081
(dp1082
g62
(dp1083
g82
g83
ssg71
g1077
sg64
(lp1084
g336
asbag57
(g78
g59
NtRp1085
(dp1086
g62
(dp1087
g89
g90
ssg71
g1077
sg64
(lp1088
S':'
asbag57
(g78
g59
NtRp1089
(dp1090
g62
(dp1091
sg71
g1077
sg64
(lp1092
g57
(g58
g59
NtRp1093
(dp1094
g62
(dp1095
g70
I3
ssg71
g1089
sg64
(lp1096
S''
asbasbasbag57
(g73
g59
NtRp1097
(dp1098
g62
(dp1099
sg71
g1033
sg64
(lp1100
g57
(g78
g59
NtRp1101
(dp1102
g62
(dp1103
g82
g83
ssg71
g1097
sg64
(lp1104
g357
asbag57
(g78
g59
NtRp1105
(dp1106
g62
(dp1107
g89
g90
ssg71
g1097
sg64
(lp1108
S':'
asbag57
(g78
g59
NtRp1109
(dp1110
g62
(dp1111
sg71
g1097
sg64
(lp1112
g57
(g58
g59
NtRp1113
(dp1114
g62
(dp1115
g70
I3
ssg71
g1109
sg64
(lp1116
S''
asbasbasbag57
(g73
g59
NtRp1117
(dp1118
g62
(dp1119
sg71
g1033
sg64
(lp1120
g57
(g78
g59
NtRp1121
(dp1122
g62
(dp1123
g82
g83
ssg71
g1117
sg64
(lp1124
g378
asbag57
(g78
g59
NtRp1125
(dp1126
g62
(dp1127
g89
g90
ssg71
g1117
sg64
(lp1128
S':'
asbag57
(g78
g59
NtRp1129
(dp1130
g62
(dp1131
sg71
g1117
sg64
(lp1132
g57
(g58
g59
NtRp1133
(dp1134
g62
(dp1135
g70
I3
ssg71
g1129
sg64
(lp1136
S''
asbasbasbag57
(g73
g59
NtRp1137
(dp1138
g62
(dp1139
sg71
g1033
sg64
(lp1140
g57
(g78
g59
NtRp1141
(dp1142
g62
(dp1143
g82
g83
ssg71
g1137
sg64
(lp1144
g399
asbag57
(g78
g59
NtRp1145
(dp1146
g62
(dp1147
g89
g90
ssg71
g1137
sg64
(lp1148
S':'
asbag57
(g78
g59
NtRp1149
(dp1150
g62
(dp1151
sg71
g1137
sg64
(lp1152
g57
(g58
g59
NtRp1153
(dp1154
g62
(dp1155
g70
I3
ssg71
g1149
sg64
(lp1156
S''
asbasbasbag57
(g73
g59
NtRp1157
(dp1158
g62
(dp1159
sg71
g1033
sg64
(lp1160
g57
(g78
g59
NtRp1161
(dp1162
g62
(dp1163
g82
g83
ssg71
g1157
sg64
(lp1164
g420
asbag57
(g78
g59
NtRp1165
(dp1166
g62
(dp1167
g89
g90
ssg71
g1157
sg64
(lp1168
S':'
asbag57
(g78
g59
NtRp1169
(dp1170
g62
(dp1171
sg71
g1157
sg64
(lp1172
g57
(g58
g59
NtRp1173
(dp1174
g62
(dp1175
g70
I3
ssg71
g1169
sg64
(lp1176
S''
asbasbasbag57
(g73
g59
NtRp1177
(dp1178
g62
(dp1179
sg71
g1033
sg64
(lp1180
g57
(g78
g59
NtRp1181
(dp1182
g62
(dp1183
g82
g83
ssg71
g1177
sg64
(lp1184
g441
asbag57
(g78
g59
NtRp1185
(dp1186
g62
(dp1187
g89
g90
ssg71
g1177
sg64
(lp1188
S':'
asbag57
(g78
g59
NtRp1189
(dp1190
g62
(dp1191
sg71
g1177
sg64
(lp1192
g57
(g58
g59
NtRp1193
(dp1194
g62
(dp1195
g70
I3
ssg71
g1189
sg64
(lp1196
S''
asbasbasbasbasbasbasbag57
(g73
g59
NtRp1197
(dp1198
g62
(dp1199
sg71
g256
sg64
(lp1200
g57
(g78
g59
NtRp1201
(dp1202
g62
(dp1203
g82
g83
ssg71
g1197
sg64
(lp1204
S'model'
p1205
asbag57
(g78
g59
NtRp1206
(dp1207
g62
(dp1208
g89
g90
ssg71
g1197
sg64
(lp1209
S':'
asbag57
(g78
g59
NtRp1210
(dp1211
g62
(dp1212
sg71
g1197
sg64
(lp1213
g57
(g58
g59
NtRp1214
(dp1215
g62
(dp1216
g70
I4
ssg71
g1210
sg64
(lp1217
S'MX'
p1218
ag57
(g66
g59
NtRp1219
(dp1220
g62
(dp1221
g70
I3
ssg71
Nsg64
(lp1222
g57
(g73
g59
NtRp1223
(dp1224
g62
(dp1225
sg71
g1219
sg64
(lp1226
g57
(g78
g59
NtRp1227
(dp1228
g62
(dp1229
g82
g83
ssg71
g1223
sg64
(lp1230
g294
asbag57
(g78
g59
NtRp1231
(dp1232
g62
(dp1233
g89
g90
ssg71
g1223
sg64
(lp1234
S':'
asbag57
(g78
g59
NtRp1235
(dp1236
g62
(dp1237
sg71
g1223
sg64
(lp1238
g57
(g58
g59
NtRp1239
(dp1240
g62
(dp1241
g70
I3
ssg71
g1235
sg64
(lp1242
S''
asbasbasbag57
(g73
g59
NtRp1243
(dp1244
g62
(dp1245
sg71
g1219
sg64
(lp1246
g57
(g78
g59
NtRp1247
(dp1248
g62
(dp1249
g82
g83
ssg71
g1243
sg64
(lp1250
g315
asbag57
(g78
g59
NtRp1251
(dp1252
g62
(dp1253
g89
g90
ssg71
g1243
sg64
(lp1254
S':'
asbag57
(g78
g59
NtRp1255
(dp1256
g62
(dp1257
sg71
g1243
sg64
(lp1258
g57
(g58
g59
NtRp1259
(dp1260
g62
(dp1261
g70
I3
ssg71
g1255
sg64
(lp1262
S''
asbasbasbag57
(g73
g59
NtRp1263
(dp1264
g62
(dp1265
sg71
g1219
sg64
(lp1266
g57
(g78
g59
NtRp1267
(dp1268
g62
(dp1269
g82
g83
ssg71
g1263
sg64
(lp1270
g336
asbag57
(g78
g59
NtRp1271
(dp1272
g62
(dp1273
g89
g90
ssg71
g1263
sg64
(lp1274
S':'
asbag57
(g78
g59
NtRp1275
(dp1276
g62
(dp1277
sg71
g1263
sg64
(lp1278
g57
(g58
g59
NtRp1279
(dp1280
g62
(dp1281
g70
I3
ssg71
g1275
sg64
(lp1282
S''
asbasbasbag57
(g73
g59
NtRp1283
(dp1284
g62
(dp1285
sg71
g1219
sg64
(lp1286
g57
(g78
g59
NtRp1287
(dp1288
g62
(dp1289
g82
g83
ssg71
g1283
sg64
(lp1290
g357
asbag57
(g78
g59
NtRp1291
(dp1292
g62
(dp1293
g89
g90
ssg71
g1283
sg64
(lp1294
S':'
asbag57
(g78
g59
NtRp1295
(dp1296
g62
(dp1297
sg71
g1283
sg64
(lp1298
g57
(g58
g59
NtRp1299
(dp1300
g62
(dp1301
g70
I3
ssg71
g1295
sg64
(lp1302
S''
asbasbasbag57
(g73
g59
NtRp1303
(dp1304
g62
(dp1305
sg71
g1219
sg64
(lp1306
g57
(g78
g59
NtRp1307
(dp1308
g62
(dp1309
g82
g83
ssg71
g1303
sg64
(lp1310
g378
asbag57
(g78
g59
NtRp1311
(dp1312
g62
(dp1313
g89
g90
ssg71
g1303
sg64
(lp1314
S':'
asbag57
(g78
g59
NtRp1315
(dp1316
g62
(dp1317
sg71
g1303
sg64
(lp1318
g57
(g58
g59
NtRp1319
(dp1320
g62
(dp1321
g70
I3
ssg71
g1315
sg64
(lp1322
S''
asbasbasbag57
(g73
g59
NtRp1323
(dp1324
g62
(dp1325
sg71
g1219
sg64
(lp1326
g57
(g78
g59
NtRp1327
(dp1328
g62
(dp1329
g82
g83
ssg71
g1323
sg64
(lp1330
g399
asbag57
(g78
g59
NtRp1331
(dp1332
g62
(dp1333
g89
g90
ssg71
g1323
sg64
(lp1334
S':'
asbag57
(g78
g59
NtRp1335
(dp1336
g62
(dp1337
sg71
g1323
sg64
(lp1338
g57
(g58
g59
NtRp1339
(dp1340
g62
(dp1341
g70
I3
ssg71
g1335
sg64
(lp1342
S''
asbasbasbag57
(g73
g59
NtRp1343
(dp1344
g62
(dp1345
sg71
g1219
sg64
(lp1346
g57
(g78
g59
NtRp1347
(dp1348
g62
(dp1349
g82
g83
ssg71
g1343
sg64
(lp1350
g420
asbag57
(g78
g59
NtRp1351
(dp1352
g62
(dp1353
g89
g90
ssg71
g1343
sg64
(lp1354
S':'
asbag57
(g78
g59
NtRp1355
(dp1356
g62
(dp1357
sg71
g1343
sg64
(lp1358
g57
(g58
g59
NtRp1359
(dp1360
g62
(dp1361
g70
I3
ssg71
g1355
sg64
(lp1362
S''
asbasbasbag57
(g73
g59
NtRp1363
(dp1364
g62
(dp1365
sg71
g1219
sg64
(lp1366
g57
(g78
g59
NtRp1367
(dp1368
g62
(dp1369
g82
g83
ssg71
g1363
sg64
(lp1370
g441
asbag57
(g78
g59
NtRp1371
(dp1372
g62
(dp1373
g89
g90
ssg71
g1363
sg64
(lp1374
S':'
asbag57
(g78
g59
NtRp1375
(dp1376
g62
(dp1377
sg71
g1363
sg64
(lp1378
g57
(g58
g59
NtRp1379
(dp1380
g62
(dp1381
g70
I3
ssg71
g1375
sg64
(lp1382
S''
asbasbasbasbasbasbasbag57
(g73
g59
NtRp1383
(dp1384
g62
(dp1385
sg71
g256
sg64
(lp1386
g57
(g78
g59
NtRp1387
(dp1388
g62
(dp1389
g82
g83
ssg71
g1383
sg64
(lp1390
S'nr'
p1391
asbag57
(g78
g59
NtRp1392
(dp1393
g62
(dp1394
g89
g90
ssg71
g1383
sg64
(lp1395
S':'
asbag57
(g78
g59
NtRp1396
(dp1397
g62
(dp1398
sg71
g1383
sg64
(lp1399
g57
(g58
g59
NtRp1400
(dp1401
g62
(dp1402
g70
I4
ssg71
g1396
sg64
(lp1403
S'1'
ag57
(g66
g59
NtRp1404
(dp1405
g62
(dp1406
g70
I3
ssg71
Nsg64
(lp1407
g57
(g73
g59
NtRp1408
(dp1409
g62
(dp1410
sg71
g1404
sg64
(lp1411
g57
(g78
g59
NtRp1412
(dp1413
g62
(dp1414
g82
g83
ssg71
g1408
sg64
(lp1415
g294
asbag57
(g78
g59
NtRp1416
(dp1417
g62
(dp1418
g89
g90
ssg71
g1408
sg64
(lp1419
S':'
asbag57
(g78
g59
NtRp1420
(dp1421
g62
(dp1422
sg71
g1408
sg64
(lp1423
g57
(g58
g59
NtRp1424
(dp1425
g62
(dp1426
g70
I3
ssg71
g1420
sg64
(lp1427
S''
asbasbasbag57
(g73
g59
NtRp1428
(dp1429
g62
(dp1430
sg71
g1404
sg64
(lp1431
g57
(g78
g59
NtRp1432
(dp1433
g62
(dp1434
g82
g83
ssg71
g1428
sg64
(lp1435
g315
asbag57
(g78
g59
NtRp1436
(dp1437
g62
(dp1438
g89
g90
ssg71
g1428
sg64
(lp1439
S':'
asbag57
(g78
g59
NtRp1440
(dp1441
g62
(dp1442
sg71
g1428
sg64
(lp1443
g57
(g58
g59
NtRp1444
(dp1445
g62
(dp1446
g70
I3
ssg71
g1440
sg64
(lp1447
S''
asbasbasbag57
(g73
g59
NtRp1448
(dp1449
g62
(dp1450
sg71
g1404
sg64
(lp1451
g57
(g78
g59
NtRp1452
(dp1453
g62
(dp1454
g82
g83
ssg71
g1448
sg64
(lp1455
g336
asbag57
(g78
g59
NtRp1456
(dp1457
g62
(dp1458
g89
g90
ssg71
g1448
sg64
(lp1459
S':'
asbag57
(g78
g59
NtRp1460
(dp1461
g62
(dp1462
sg71
g1448
sg64
(lp1463
g57
(g58
g59
NtRp1464
(dp1465
g62
(dp1466
g70
I3
ssg71
g1460
sg64
(lp1467
S''
asbasbasbag57
(g73
g59
NtRp1468
(dp1469
g62
(dp1470
sg71
g1404
sg64
(lp1471
g57
(g78
g59
NtRp1472
(dp1473
g62
(dp1474
g82
g83
ssg71
g1468
sg64
(lp1475
g357
asbag57
(g78
g59
NtRp1476
(dp1477
g62
(dp1478
g89
g90
ssg71
g1468
sg64
(lp1479
S':'
asbag57
(g78
g59
NtRp1480
(dp1481
g62
(dp1482
sg71
g1468
sg64
(lp1483
g57
(g58
g59
NtRp1484
(dp1485
g62
(dp1486
g70
I3
ssg71
g1480
sg64
(lp1487
S''
asbasbasbag57
(g73
g59
NtRp1488
(dp1489
g62
(dp1490
sg71
g1404
sg64
(lp1491
g57
(g78
g59
NtRp1492
(dp1493
g62
(dp1494
g82
g83
ssg71
g1488
sg64
(lp1495
g378
asbag57
(g78
g59
NtRp1496
(dp1497
g62
(dp1498
g89
g90
ssg71
g1488
sg64
(lp1499
S':'
asbag57
(g78
g59
NtRp1500
(dp1501
g62
(dp1502
sg71
g1488
sg64
(lp1503
g57
(g58
g59
NtRp1504
(dp1505
g62
(dp1506
g70
I3
ssg71
g1500
sg64
(lp1507
S''
asbasbasbag57
(g73
g59
NtRp1508
(dp1509
g62
(dp1510
sg71
g1404
sg64
(lp1511
g57
(g78
g59
NtRp1512
(dp1513
g62
(dp1514
g82
g83
ssg71
g1508
sg64
(lp1515
g399
asbag57
(g78
g59
NtRp1516
(dp1517
g62
(dp1518
g89
g90
ssg71
g1508
sg64
(lp1519
S':'
asbag57
(g78
g59
NtRp1520
(dp1521
g62
(dp1522
sg71
g1508
sg64
(lp1523
g57
(g58
g59
NtRp1524
(dp1525
g62
(dp1526
g70
I3
ssg71
g1520
sg64
(lp1527
S''
asbasbasbag57
(g73
g59
NtRp1528
(dp1529
g62
(dp1530
sg71
g1404
sg64
(lp1531
g57
(g78
g59
NtRp1532
(dp1533
g62
(dp1534
g82
g83
ssg71
g1528
sg64
(lp1535
g420
asbag57
(g78
g59
NtRp1536
(dp1537
g62
(dp1538
g89
g90
ssg71
g1528
sg64
(lp1539
S':'
asbag57
(g78
g59
NtRp1540
(dp1541
g62
(dp1542
sg71
g1528
sg64
(lp1543
g57
(g58
g59
NtRp1544
(dp1545
g62
(dp1546
g70
I3
ssg71
g1540
sg64
(lp1547
S''
asbasbasbag57
(g73
g59
NtRp1548
(dp1549
g62
(dp1550
sg71
g1404
sg64
(lp1551
g57
(g78
g59
NtRp1552
(dp1553
g62
(dp1554
g82
g83
ssg71
g1548
sg64
(lp1555
g441
asbag57
(g78
g59
NtRp1556
(dp1557
g62
(dp1558
g89
g90
ssg71
g1548
sg64
(lp1559
S':'
asbag57
(g78
g59
NtRp1560
(dp1561
g62
(dp1562
sg71
g1548
sg64
(lp1563
g57
(g58
g59
NtRp1564
(dp1565
g62
(dp1566
g70
I3
ssg71
g1560
sg64
(lp1567
S''
asbasbasbasbasbasbasbag57
(g73
g59
NtRp1568
(dp1569
g62
(dp1570
sg71
g256
sg64
(lp1571
g57
(g78
g59
NtRp1572
(dp1573
g62
(dp1574
g82
g83
ssg71
g1568
sg64
(lp1575
S'session_id_admin'
p1576
asbag57
(g78
g59
NtRp1577
(dp1578
g62
(dp1579
g89
g90
ssg71
g1568
sg64
(lp1580
S':'
asbag57
(g78
g59
NtRp1581
(dp1582
g62
(dp1583
sg71
g1568
sg64
(lp1584
g57
(g58
g59
NtRp1585
(dp1586
g62
(dp1587
g70
I4
ssg71
g1581
sg64
(lp1588
S'127.0.0.1-2137e5fc-73b0-4fcd-be7b-d2f46e1918b1'
p1589
ag57
(g66
g59
NtRp1590
(dp1591
g62
(dp1592
g70
I3
ssg71
Nsg64
(lp1593
g57
(g73
g59
NtRp1594
(dp1595
g62
(dp1596
sg71
g1590
sg64
(lp1597
g57
(g78
g59
NtRp1598
(dp1599
g62
(dp1600
g82
g83
ssg71
g1594
sg64
(lp1601
g294
asbag57
(g78
g59
NtRp1602
(dp1603
g62
(dp1604
g89
g90
ssg71
g1594
sg64
(lp1605
S':'
asbag57
(g78
g59
NtRp1606
(dp1607
g62
(dp1608
sg71
g1594
sg64
(lp1609
g57
(g58
g59
NtRp1610
(dp1611
g62
(dp1612
g70
I3
ssg71
g1606
sg64
(lp1613
S''
asbasbasbag57
(g73
g59
NtRp1614
(dp1615
g62
(dp1616
sg71
g1590
sg64
(lp1617
g57
(g78
g59
NtRp1618
(dp1619
g62
(dp1620
g82
g83
ssg71
g1614
sg64
(lp1621
g315
asbag57
(g78
g59
NtRp1622
(dp1623
g62
(dp1624
g89
g90
ssg71
g1614
sg64
(lp1625
S':'
asbag57
(g78
g59
NtRp1626
(dp1627
g62
(dp1628
sg71
g1614
sg64
(lp1629
g57
(g58
g59
NtRp1630
(dp1631
g62
(dp1632
g70
I3
ssg71
g1626
sg64
(lp1633
S''
asbasbasbag57
(g73
g59
NtRp1634
(dp1635
g62
(dp1636
sg71
g1590
sg64
(lp1637
g57
(g78
g59
NtRp1638
(dp1639
g62
(dp1640
g82
g83
ssg71
g1634
sg64
(lp1641
g336
asbag57
(g78
g59
NtRp1642
(dp1643
g62
(dp1644
g89
g90
ssg71
g1634
sg64
(lp1645
S':'
asbag57
(g78
g59
NtRp1646
(dp1647
g62
(dp1648
sg71
g1634
sg64
(lp1649
g57
(g58
g59
NtRp1650
(dp1651
g62
(dp1652
g70
I3
ssg71
g1646
sg64
(lp1653
S''
asbasbasbag57
(g73
g59
NtRp1654
(dp1655
g62
(dp1656
sg71
g1590
sg64
(lp1657
g57
(g78
g59
NtRp1658
(dp1659
g62
(dp1660
g82
g83
ssg71
g1654
sg64
(lp1661
g357
asbag57
(g78
g59
NtRp1662
(dp1663
g62
(dp1664
g89
g90
ssg71
g1654
sg64
(lp1665
S':'
asbag57
(g78
g59
NtRp1666
(dp1667
g62
(dp1668
sg71
g1654
sg64
(lp1669
g57
(g58
g59
NtRp1670
(dp1671
g62
(dp1672
g70
I3
ssg71
g1666
sg64
(lp1673
S''
asbasbasbag57
(g73
g59
NtRp1674
(dp1675
g62
(dp1676
sg71
g1590
sg64
(lp1677
g57
(g78
g59
NtRp1678
(dp1679
g62
(dp1680
g82
g83
ssg71
g1674
sg64
(lp1681
g378
asbag57
(g78
g59
NtRp1682
(dp1683
g62
(dp1684
g89
g90
ssg71
g1674
sg64
(lp1685
S':'
asbag57
(g78
g59
NtRp1686
(dp1687
g62
(dp1688
sg71
g1674
sg64
(lp1689
g57
(g58
g59
NtRp1690
(dp1691
g62
(dp1692
g70
I3
ssg71
g1686
sg64
(lp1693
S''
asbasbasbag57
(g73
g59
NtRp1694
(dp1695
g62
(dp1696
sg71
g1590
sg64
(lp1697
g57
(g78
g59
NtRp1698
(dp1699
g62
(dp1700
g82
g83
ssg71
g1694
sg64
(lp1701
g399
asbag57
(g78
g59
NtRp1702
(dp1703
g62
(dp1704
g89
g90
ssg71
g1694
sg64
(lp1705
S':'
asbag57
(g78
g59
NtRp1706
(dp1707
g62
(dp1708
sg71
g1694
sg64
(lp1709
g57
(g58
g59
NtRp1710
(dp1711
g62
(dp1712
g70
I3
ssg71
g1706
sg64
(lp1713
S''
asbasbasbag57
(g73
g59
NtRp1714
(dp1715
g62
(dp1716
sg71
g1590
sg64
(lp1717
g57
(g78
g59
NtRp1718
(dp1719
g62
(dp1720
g82
g83
ssg71
g1714
sg64
(lp1721
g420
asbag57
(g78
g59
NtRp1722
(dp1723
g62
(dp1724
g89
g90
ssg71
g1714
sg64
(lp1725
S':'
asbag57
(g78
g59
NtRp1726
(dp1727
g62
(dp1728
sg71
g1714
sg64
(lp1729
g57
(g58
g59
NtRp1730
(dp1731
g62
(dp1732
g70
I3
ssg71
g1726
sg64
(lp1733
S''
asbasbasbag57
(g73
g59
NtRp1734
(dp1735
g62
(dp1736
sg71
g1590
sg64
(lp1737
g57
(g78
g59
NtRp1738
(dp1739
g62
(dp1740
g82
g83
ssg71
g1734
sg64
(lp1741
g441
asbag57
(g78
g59
NtRp1742
(dp1743
g62
(dp1744
g89
g90
ssg71
g1734
sg64
(lp1745
S':'
asbag57
(g78
g59
NtRp1746
(dp1747
g62
(dp1748
sg71
g1734
sg64
(lp1749
g57
(g58
g59
NtRp1750
(dp1751
g62
(dp1752
g70
I3
ssg71
g1746
sg64
(lp1753
S''
asbasbasbasbasbasbasbag57
(g73
g59
NtRp1754
(dp1755
g62
(dp1756
sg71
g256
sg64
(lp1757
g57
(g78
g59
NtRp1758
(dp1759
g62
(dp1760
g82
g83
ssg71
g1754
sg64
(lp1761
S'session_id_projeto'
p1762
asbag57
(g78
g59
NtRp1763
(dp1764
g62
(dp1765
g89
g90
ssg71
g1754
sg64
(lp1766
S':'
asbag57
(g78
g59
NtRp1767
(dp1768
g62
(dp1769
sg71
g1754
sg64
(lp1770
g57
(g58
g59
NtRp1771
(dp1772
g62
(dp1773
g70
I4
ssg71
g1767
sg64
(lp1774
S'127.0.0.1-b8c6a9b4-3ce7-4a48-b40d-12b6c8d18d0a'
p1775
ag57
(g66
g59
NtRp1776
(dp1777
g62
(dp1778
g70
I3
ssg71
Nsg64
(lp1779
g57
(g73
g59
NtRp1780
(dp1781
g62
(dp1782
sg71
g1776
sg64
(lp1783
g57
(g78
g59
NtRp1784
(dp1785
g62
(dp1786
g82
g83
ssg71
g1780
sg64
(lp1787
g294
asbag57
(g78
g59
NtRp1788
(dp1789
g62
(dp1790
g89
g90
ssg71
g1780
sg64
(lp1791
S':'
asbag57
(g78
g59
NtRp1792
(dp1793
g62
(dp1794
sg71
g1780
sg64
(lp1795
g57
(g58
g59
NtRp1796
(dp1797
g62
(dp1798
g70
I3
ssg71
g1792
sg64
(lp1799
S''
asbasbasbag57
(g73
g59
NtRp1800
(dp1801
g62
(dp1802
sg71
g1776
sg64
(lp1803
g57
(g78
g59
NtRp1804
(dp1805
g62
(dp1806
g82
g83
ssg71
g1800
sg64
(lp1807
g315
asbag57
(g78
g59
NtRp1808
(dp1809
g62
(dp1810
g89
g90
ssg71
g1800
sg64
(lp1811
S':'
asbag57
(g78
g59
NtRp1812
(dp1813
g62
(dp1814
sg71
g1800
sg64
(lp1815
g57
(g58
g59
NtRp1816
(dp1817
g62
(dp1818
g70
I3
ssg71
g1812
sg64
(lp1819
S''
asbasbasbag57
(g73
g59
NtRp1820
(dp1821
g62
(dp1822
sg71
g1776
sg64
(lp1823
g57
(g78
g59
NtRp1824
(dp1825
g62
(dp1826
g82
g83
ssg71
g1820
sg64
(lp1827
g336
asbag57
(g78
g59
NtRp1828
(dp1829
g62
(dp1830
g89
g90
ssg71
g1820
sg64
(lp1831
S':'
asbag57
(g78
g59
NtRp1832
(dp1833
g62
(dp1834
sg71
g1820
sg64
(lp1835
g57
(g58
g59
NtRp1836
(dp1837
g62
(dp1838
g70
I3
ssg71
g1832
sg64
(lp1839
S''
asbasbasbag57
(g73
g59
NtRp1840
(dp1841
g62
(dp1842
sg71
g1776
sg64
(lp1843
g57
(g78
g59
NtRp1844
(dp1845
g62
(dp1846
g82
g83
ssg71
g1840
sg64
(lp1847
g357
asbag57
(g78
g59
NtRp1848
(dp1849
g62
(dp1850
g89
g90
ssg71
g1840
sg64
(lp1851
S':'
asbag57
(g78
g59
NtRp1852
(dp1853
g62
(dp1854
sg71
g1840
sg64
(lp1855
g57
(g58
g59
NtRp1856
(dp1857
g62
(dp1858
g70
I3
ssg71
g1852
sg64
(lp1859
S''
asbasbasbag57
(g73
g59
NtRp1860
(dp1861
g62
(dp1862
sg71
g1776
sg64
(lp1863
g57
(g78
g59
NtRp1864
(dp1865
g62
(dp1866
g82
g83
ssg71
g1860
sg64
(lp1867
g378
asbag57
(g78
g59
NtRp1868
(dp1869
g62
(dp1870
g89
g90
ssg71
g1860
sg64
(lp1871
S':'
asbag57
(g78
g59
NtRp1872
(dp1873
g62
(dp1874
sg71
g1860
sg64
(lp1875
g57
(g58
g59
NtRp1876
(dp1877
g62
(dp1878
g70
I3
ssg71
g1872
sg64
(lp1879
S''
asbasbasbag57
(g73
g59
NtRp1880
(dp1881
g62
(dp1882
sg71
g1776
sg64
(lp1883
g57
(g78
g59
NtRp1884
(dp1885
g62
(dp1886
g82
g83
ssg71
g1880
sg64
(lp1887
g399
asbag57
(g78
g59
NtRp1888
(dp1889
g62
(dp1890
g89
g90
ssg71
g1880
sg64
(lp1891
S':'
asbag57
(g78
g59
NtRp1892
(dp1893
g62
(dp1894
sg71
g1880
sg64
(lp1895
g57
(g58
g59
NtRp1896
(dp1897
g62
(dp1898
g70
I3
ssg71
g1892
sg64
(lp1899
S''
asbasbasbag57
(g73
g59
NtRp1900
(dp1901
g62
(dp1902
sg71
g1776
sg64
(lp1903
g57
(g78
g59
NtRp1904
(dp1905
g62
(dp1906
g82
g83
ssg71
g1900
sg64
(lp1907
g420
asbag57
(g78
g59
NtRp1908
(dp1909
g62
(dp1910
g89
g90
ssg71
g1900
sg64
(lp1911
S':'
asbag57
(g78
g59
NtRp1912
(dp1913
g62
(dp1914
sg71
g1900
sg64
(lp1915
g57
(g58
g59
NtRp1916
(dp1917
g62
(dp1918
g70
I3
ssg71
g1912
sg64
(lp1919
S''
asbasbasbag57
(g73
g59
NtRp1920
(dp1921
g62
(dp1922
sg71
g1776
sg64
(lp1923
g57
(g78
g59
NtRp1924
(dp1925
g62
(dp1926
g82
g83
ssg71
g1920
sg64
(lp1927
g441
asbag57
(g78
g59
NtRp1928
(dp1929
g62
(dp1930
g89
g90
ssg71
g1920
sg64
(lp1931
S':'
asbag57
(g78
g59
NtRp1932
(dp1933
g62
(dp1934
sg71
g1920
sg64
(lp1935
g57
(g58
g59
NtRp1936
(dp1937
g62
(dp1938
g70
I3
ssg71
g1932
sg64
(lp1939
S''
asbasbasbasbasbasbasbag57
(g73
g59
NtRp1940
(dp1941
g62
(dp1942
sg71
g256
sg64
(lp1943
g57
(g78
g59
NtRp1944
(dp1945
g62
(dp1946
g82
g83
ssg71
g1940
sg64
(lp1947
S'types'
p1948
asbag57
(g78
g59
NtRp1949
(dp1950
g62
(dp1951
g89
g90
ssg71
g1940
sg64
(lp1952
S':'
asbag57
(g78
g59
NtRp1953
(dp1954
g62
(dp1955
sg71
g1940
sg64
(lp1956
g57
(g58
g59
NtRp1957
(dp1958
g62
(dp1959
g70
I4
ssg71
g1953
sg64
(lp1960
S'Rev%201.0.1%20MX60-32S%20%20Kernel%201.0.11%20%28F%29'
p1961
ag57
(g66
g59
NtRp1962
(dp1963
g62
(dp1964
g70
I3
ssg71
Nsg64
(lp1965
g57
(g73
g59
NtRp1966
(dp1967
g62
(dp1968
sg71
g1962
sg64
(lp1969
g57
(g78
g59
NtRp1970
(dp1971
g62
(dp1972
g82
g83
ssg71
g1966
sg64
(lp1973
g294
asbag57
(g78
g59
NtRp1974
(dp1975
g62
(dp1976
g89
g90
ssg71
g1966
sg64
(lp1977
S':'
asbag57
(g78
g59
NtRp1978
(dp1979
g62
(dp1980
sg71
g1966
sg64
(lp1981
g57
(g58
g59
NtRp1982
(dp1983
g62
(dp1984
g70
I3
ssg71
g1978
sg64
(lp1985
S''
asbasbasbag57
(g73
g59
NtRp1986
(dp1987
g62
(dp1988
sg71
g1962
sg64
(lp1989
g57
(g78
g59
NtRp1990
(dp1991
g62
(dp1992
g82
g83
ssg71
g1986
sg64
(lp1993
g315
asbag57
(g78
g59
NtRp1994
(dp1995
g62
(dp1996
g89
g90
ssg71
g1986
sg64
(lp1997
S':'
asbag57
(g78
g59
NtRp1998
(dp1999
g62
(dp2000
sg71
g1986
sg64
(lp2001
g57
(g58
g59
NtRp2002
(dp2003
g62
(dp2004
g70
I3
ssg71
g1998
sg64
(lp2005
S''
asbasbasbag57
(g73
g59
NtRp2006
(dp2007
g62
(dp2008
sg71
g1962
sg64
(lp2009
g57
(g78
g59
NtRp2010
(dp2011
g62
(dp2012
g82
g83
ssg71
g2006
sg64
(lp2013
g336
asbag57
(g78
g59
NtRp2014
(dp2015
g62
(dp2016
g89
g90
ssg71
g2006
sg64
(lp2017
S':'
asbag57
(g78
g59
NtRp2018
(dp2019
g62
(dp2020
sg71
g2006
sg64
(lp2021
g57
(g58
g59
NtRp2022
(dp2023
g62
(dp2024
g70
I3
ssg71
g2018
sg64
(lp2025
S''
asbasbasbag57
(g73
g59
NtRp2026
(dp2027
g62
(dp2028
sg71
g1962
sg64
(lp2029
g57
(g78
g59
NtRp2030
(dp2031
g62
(dp2032
g82
g83
ssg71
g2026
sg64
(lp2033
g357
asbag57
(g78
g59
NtRp2034
(dp2035
g62
(dp2036
g89
g90
ssg71
g2026
sg64
(lp2037
S':'
asbag57
(g78
g59
NtRp2038
(dp2039
g62
(dp2040
sg71
g2026
sg64
(lp2041
g57
(g58
g59
NtRp2042
(dp2043
g62
(dp2044
g70
I3
ssg71
g2038
sg64
(lp2045
S''
asbasbasbag57
(g73
g59
NtRp2046
(dp2047
g62
(dp2048
sg71
g1962
sg64
(lp2049
g57
(g78
g59
NtRp2050
(dp2051
g62
(dp2052
g82
g83
ssg71
g2046
sg64
(lp2053
g378
asbag57
(g78
g59
NtRp2054
(dp2055
g62
(dp2056
g89
g90
ssg71
g2046
sg64
(lp2057
S':'
asbag57
(g78
g59
NtRp2058
(dp2059
g62
(dp2060
sg71
g2046
sg64
(lp2061
g57
(g58
g59
NtRp2062
(dp2063
g62
(dp2064
g70
I3
ssg71
g2058
sg64
(lp2065
S''
asbasbasbag57
(g73
g59
NtRp2066
(dp2067
g62
(dp2068
sg71
g1962
sg64
(lp2069
g57
(g78
g59
NtRp2070
(dp2071
g62
(dp2072
g82
g83
ssg71
g2066
sg64
(lp2073
g399
asbag57
(g78
g59
NtRp2074
(dp2075
g62
(dp2076
g89
g90
ssg71
g2066
sg64
(lp2077
S':'
asbag57
(g78
g59
NtRp2078
(dp2079
g62
(dp2080
sg71
g2066
sg64
(lp2081
g57
(g58
g59
NtRp2082
(dp2083
g62
(dp2084
g70
I3
ssg71
g2078
sg64
(lp2085
S''
asbasbasbag57
(g73
g59
NtRp2086
(dp2087
g62
(dp2088
sg71
g1962
sg64
(lp2089
g57
(g78
g59
NtRp2090
(dp2091
g62
(dp2092
g82
g83
ssg71
g2086
sg64
(lp2093
g420
asbag57
(g78
g59
NtRp2094
(dp2095
g62
(dp2096
g89
g90
ssg71
g2086
sg64
(lp2097
S':'
asbag57
(g78
g59
NtRp2098
(dp2099
g62
(dp2100
sg71
g2086
sg64
(lp2101
g57
(g58
g59
NtRp2102
(dp2103
g62
(dp2104
g70
I3
ssg71
g2098
sg64
(lp2105
S''
asbasbasbag57
(g73
g59
NtRp2106
(dp2107
g62
(dp2108
sg71
g1962
sg64
(lp2109
g57
(g78
g59
NtRp2110
(dp2111
g62
(dp2112
g82
g83
ssg71
g2106
sg64
(lp2113
g441
asbag57
(g78
g59
NtRp2114
(dp2115
g62
(dp2116
g89
g90
ssg71
g2106
sg64
(lp2117
S':'
asbag57
(g78
g59
NtRp2118
(dp2119
g62
(dp2120
sg71
g2106
sg64
(lp2121
g57
(g58
g59
NtRp2122
(dp2123
g62
(dp2124
g70
I3
ssg71
g2118
sg64
(lp2125
S''
asbasbasbasbasbasbasbasbasbasbasbag57
(g73
g59
NtRp2126
(dp2127
g62
(dp2128
sg71
g67
sg64
(lp2129
g57
(g78
g59
NtRp2130
(dp2131
g62
(dp2132
g82
g83
ssg71
g2126
sg64
(lp2133
S'env'
p2134
asbag57
(g78
g59
NtRp2135
(dp2136
g62
(dp2137
g89
g90
ssg71
g2126
sg64
(lp2138
S':'
asbag57
(g78
g59
NtRp2139
(dp2140
g62
(dp2141
sg71
g2126
sg64
(lp2142
g57
(g58
g59
NtRp2143
(dp2144
g62
(dp2145
g70
I5
ssg71
g2139
sg64
(lp2146
g57
(g66
g59
NtRp2147
(dp2148
g62
(dp2149
g70
I4
ssg71
Nsg64
(lp2150
g57
(g73
g59
NtRp2151
(dp2152
g62
(dp2153
sg71
g2147
sg64
(lp2154
g57
(g78
g59
NtRp2155
(dp2156
g62
(dp2157
g82
g83
ssg71
g2151
sg64
(lp2158
S'app_folders'
p2159
asbag57
(g78
g59
NtRp2160
(dp2161
g62
(dp2162
g89
g90
ssg71
g2151
sg64
(lp2163
S':'
asbag57
(g78
g59
NtRp2164
(dp2165
g62
(dp2166
sg71
g2151
sg64
(lp2167
g57
(g58
g59
NtRp2168
(dp2169
g62
(dp2170
g70
I4
ssg71
g2164
sg64
(lp2171
S"set(['/var/www/web2py_curso/applications/admin/', '/var/www/web2py_curso/applications/projeto/'])"
p2172
asbasbasbag57
(g73
g59
NtRp2173
(dp2174
g62
(dp2175
sg71
g2147
sg64
(lp2176
g57
(g78
g59
NtRp2177
(dp2178
g62
(dp2179
g82
g83
ssg71
g2173
sg64
(lp2180
S'applications_parent'
p2181
asbag57
(g78
g59
NtRp2182
(dp2183
g62
(dp2184
g89
g90
ssg71
g2173
sg64
(lp2185
S':'
asbag57
(g78
g59
NtRp2186
(dp2187
g62
(dp2188
sg71
g2173
sg64
(lp2189
g57
(g58
g59
NtRp2190
(dp2191
g62
(dp2192
g70
I4
ssg71
g2186
sg64
(lp2193
S'/var/www/web2py_curso'
p2194
asbasbasbag57
(g73
g59
NtRp2195
(dp2196
g62
(dp2197
sg71
g2147
sg64
(lp2198
g57
(g78
g59
NtRp2199
(dp2200
g62
(dp2201
g82
g83
ssg71
g2195
sg64
(lp2202
S'cmd_args'
p2203
asbag57
(g78
g59
NtRp2204
(dp2205
g62
(dp2206
g89
g90
ssg71
g2195
sg64
(lp2207
S':'
asbag57
(g78
g59
NtRp2208
(dp2209
g62
(dp2210
sg71
g2195
sg64
(lp2211
g57
(g58
g59
NtRp2212
(dp2213
g62
(dp2214
g70
I4
ssg71
g2208
sg64
(lp2215
g57
(g66
g59
NtRp2216
(dp2217
g62
(dp2218
g70
I3
ssg71
Nsg64
(lp2219
sbasbasbasbag57
(g73
g59
NtRp2220
(dp2221
g62
(dp2222
sg71
g2147
sg64
(lp2223
g57
(g78
g59
NtRp2224
(dp2225
g62
(dp2226
g82
g83
ssg71
g2220
sg64
(lp2227
S'cmd_options'
p2228
asbag57
(g78
g59
NtRp2229
(dp2230
g62
(dp2231
g89
g90
ssg71
g2220
sg64
(lp2232
S':'
asbag57
(g78
g59
NtRp2233
(dp2234
g62
(dp2235
sg71
g2220
sg64
(lp2236
g57
(g58
g59
NtRp2237
(dp2238
g62
(dp2239
g70
I4
ssg71
g2233
sg64
(lp2240
S"<Values at 0x335a1b8: {'verbose': False, 'ip': '127.0.0.1', 'with_scheduler': False, 'ips': [], 'shutdown_timeout': 5, 'taskbar': False, 'port': 8000, 'maxthreads': None, 'softcron': False, 'server_name': 'fernado-desktop', 'bpython': False, 'nogui': False, 'pid_filename': 'httpserver.pid', 'extcron': False, 'runcron': False, 'run_system_tests': False, 'test': None, 'folder': '/var/www/web2py_curso', 'config': '', 'minthreads': None, 'winservice': '', 'shell': None, 'run': '', 'log_filename': 'httpserver.log', 'debuglevel': 30, 'args': [''], 'socket_timeout': 5, 'ssl_ca_certificate': None, 'scheduler': None, 'profiler_filename': None, 'ssl_private_key': '', 'scheduler_groups': None, 'password': '123456', 'request_queue_size': 5, 'ssl_certificate': '', 'cronjob': False, 'numthreads': None, 'quiet': False, 'interfaces': None, 'import_models': False, 'timeout': 10, 'plain': False, 'nobanner': False}>"
p2241
asbasbasbag57
(g73
g59
NtRp2242
(dp2243
g62
(dp2244
sg71
g2147
sg64
(lp2245
g57
(g78
g59
NtRp2246
(dp2247
g62
(dp2248
g82
g83
ssg71
g2242
sg64
(lp2249
S'db_sessions'
p2250
asbag57
(g78
g59
NtRp2251
(dp2252
g62
(dp2253
g89
g90
ssg71
g2242
sg64
(lp2254
S':'
asbag57
(g78
g59
NtRp2255
(dp2256
g62
(dp2257
sg71
g2242
sg64
(lp2258
g57
(g58
g59
NtRp2259
(dp2260
g62
(dp2261
g70
I4
ssg71
g2255
sg64
(lp2262
S'set([])'
p2263
asbasbasbag57
(g73
g59
NtRp2264
(dp2265
g62
(dp2266
sg71
g2147
sg64
(lp2267
g57
(g78
g59
NtRp2268
(dp2269
g62
(dp2270
g82
g83
ssg71
g2264
sg64
(lp2271
S'debugging'
p2272
asbag57
(g78
g59
NtRp2273
(dp2274
g62
(dp2275
g89
g90
ssg71
g2264
sg64
(lp2276
S':'
asbag57
(g78
g59
NtRp2277
(dp2278
g62
(dp2279
sg71
g2264
sg64
(lp2280
g57
(g58
g59
NtRp2281
(dp2282
g62
(dp2283
g70
I4
ssg71
g2277
sg64
(lp2284
g100
asbasbasbag57
(g73
g59
NtRp2285
(dp2286
g62
(dp2287
sg71
g2147
sg64
(lp2288
g57
(g78
g59
NtRp2289
(dp2290
g62
(dp2291
g82
g83
ssg71
g2285
sg64
(lp2292
S'gluon_parent'
p2293
asbag57
(g78
g59
NtRp2294
(dp2295
g62
(dp2296
g89
g90
ssg71
g2285
sg64
(lp2297
S':'
asbag57
(g78
g59
NtRp2298
(dp2299
g62
(dp2300
sg71
g2285
sg64
(lp2301
g57
(g58
g59
NtRp2302
(dp2303
g62
(dp2304
g70
I4
ssg71
g2298
sg64
(lp2305
S'/var/www/web2py_curso'
p2306
asbasbasbag57
(g73
g59
NtRp2307
(dp2308
g62
(dp2309
sg71
g2147
sg64
(lp2310
g57
(g78
g59
NtRp2311
(dp2312
g62
(dp2313
g82
g83
ssg71
g2307
sg64
(lp2314
S'http_accept'
p2315
asbag57
(g78
g59
NtRp2316
(dp2317
g62
(dp2318
g89
g90
ssg71
g2307
sg64
(lp2319
S':'
asbag57
(g78
g59
NtRp2320
(dp2321
g62
(dp2322
sg71
g2307
sg64
(lp2323
g57
(g58
g59
NtRp2324
(dp2325
g62
(dp2326
g70
I4
ssg71
g2320
sg64
(lp2327
S'text/html,application/xhtml+xml,application/xml;q=0.9,*/*;q=0.8'
p2328
asbasbasbag57
(g73
g59
NtRp2329
(dp2330
g62
(dp2331
sg71
g2147
sg64
(lp2332
g57
(g78
g59
NtRp2333
(dp2334
g62
(dp2335
g82
g83
ssg71
g2329
sg64
(lp2336
S'http_accept_charset'
p2337
asbag57
(g78
g59
NtRp2338
(dp2339
g62
(dp2340
g89
g90
ssg71
g2329
sg64
(lp2341
S':'
asbag57
(g78
g59
NtRp2342
(dp2343
g62
(dp2344
sg71
g2329
sg64
(lp2345
g57
(g58
g59
NtRp2346
(dp2347
g62
(dp2348
g70
I4
ssg71
g2342
sg64
(lp2349
S'ISO-8859-1,utf-8;q=0.7,*;q=0.3'
p2350
asbasbasbag57
(g73
g59
NtRp2351
(dp2352
g62
(dp2353
sg71
g2147
sg64
(lp2354
g57
(g78
g59
NtRp2355
(dp2356
g62
(dp2357
g82
g83
ssg71
g2351
sg64
(lp2358
S'http_accept_encoding'
p2359
asbag57
(g78
g59
NtRp2360
(dp2361
g62
(dp2362
g89
g90
ssg71
g2351
sg64
(lp2363
S':'
asbag57
(g78
g59
NtRp2364
(dp2365
g62
(dp2366
sg71
g2351
sg64
(lp2367
g57
(g58
g59
NtRp2368
(dp2369
g62
(dp2370
g70
I4
ssg71
g2364
sg64
(lp2371
S'gzip,deflate,sdch'
p2372
asbasbasbag57
(g73
g59
NtRp2373
(dp2374
g62
(dp2375
sg71
g2147
sg64
(lp2376
g57
(g78
g59
NtRp2377
(dp2378
g62
(dp2379
g82
g83
ssg71
g2373
sg64
(lp2380
S'http_accept_language'
p2381
asbag57
(g78
g59
NtRp2382
(dp2383
g62
(dp2384
g89
g90
ssg71
g2373
sg64
(lp2385
S':'
asbag57
(g78
g59
NtRp2386
(dp2387
g62
(dp2388
sg71
g2373
sg64
(lp2389
g57
(g58
g59
NtRp2390
(dp2391
g62
(dp2392
g70
I4
ssg71
g2386
sg64
(lp2393
S'pt-BR,pt;q=0.8,en-US;q=0.6,en;q=0.4'
p2394
asbasbasbag57
(g73
g59
NtRp2395
(dp2396
g62
(dp2397
sg71
g2147
sg64
(lp2398
g57
(g78
g59
NtRp2399
(dp2400
g62
(dp2401
g82
g83
ssg71
g2395
sg64
(lp2402
S'http_connection'
p2403
asbag57
(g78
g59
NtRp2404
(dp2405
g62
(dp2406
g89
g90
ssg71
g2395
sg64
(lp2407
S':'
asbag57
(g78
g59
NtRp2408
(dp2409
g62
(dp2410
sg71
g2395
sg64
(lp2411
g57
(g58
g59
NtRp2412
(dp2413
g62
(dp2414
g70
I4
ssg71
g2408
sg64
(lp2415
S'keep-alive'
p2416
asbasbasbag57
(g73
g59
NtRp2417
(dp2418
g62
(dp2419
sg71
g2147
sg64
(lp2420
g57
(g78
g59
NtRp2421
(dp2422
g62
(dp2423
g82
g83
ssg71
g2417
sg64
(lp2424
S'http_cookie'
p2425
asbag57
(g78
g59
NtRp2426
(dp2427
g62
(dp2428
g89
g90
ssg71
g2417
sg64
(lp2429
S':'
asbag57
(g78
g59
NtRp2430
(dp2431
g62
(dp2432
sg71
g2417
sg64
(lp2433
g57
(g58
g59
NtRp2434
(dp2435
g62
(dp2436
g70
I4
ssg71
g2430
sg64
(lp2437
S'hw_type=MX60; hw_version=Rev%201.9.82.316; types=Rev%201.0.1%20MX60-32S%20%20Kernel%201.0.11%20%28F%29; admin=admin; cookie=1649423593; model=MX; nr=1; language=1; session_id_admin=127.0.0.1-2137e5fc-73b0-4fcd-be7b-d2f46e1918b1; session_id_projeto=127.0.0.1-b8c6a9b4-3ce7-4a48-b40d-12b6c8d18d0a'
p2438
asbasbasbag57
(g73
g59
NtRp2439
(dp2440
g62
(dp2441
sg71
g2147
sg64
(lp2442
g57
(g78
g59
NtRp2443
(dp2444
g62
(dp2445
g82
g83
ssg71
g2439
sg64
(lp2446
S'http_host'
p2447
asbag57
(g78
g59
NtRp2448
(dp2449
g62
(dp2450
g89
g90
ssg71
g2439
sg64
(lp2451
S':'
asbag57
(g78
g59
NtRp2452
(dp2453
g62
(dp2454
sg71
g2439
sg64
(lp2455
g57
(g58
g59
NtRp2456
(dp2457
g62
(dp2458
g70
I4
ssg71
g2452
sg64
(lp2459
S'127.0.0.1:8000'
p2460
asbasbasbag57
(g73
g59
NtRp2461
(dp2462
g62
(dp2463
sg71
g2147
sg64
(lp2464
g57
(g78
g59
NtRp2465
(dp2466
g62
(dp2467
g82
g83
ssg71
g2461
sg64
(lp2468
S'http_user_agent'
p2469
asbag57
(g78
g59
NtRp2470
(dp2471
g62
(dp2472
g89
g90
ssg71
g2461
sg64
(lp2473
S':'
asbag57
(g78
g59
NtRp2474
(dp2475
g62
(dp2476
sg71
g2461
sg64
(lp2477
g57
(g58
g59
NtRp2478
(dp2479
g62
(dp2480
g70
I4
ssg71
g2474
sg64
(lp2481
S'Mozilla/5.0 (X11; Linux x86_64) AppleWebKit/537.4 (KHTML, like Gecko) Ubuntu/12.10 Chromium/22.0.1229.94 Chrome/22.0.1229.94 Safari/537.4'
p2482
asbasbasbag57
(g73
g59
NtRp2483
(dp2484
g62
(dp2485
sg71
g2147
sg64
(lp2486
g57
(g78
g59
NtRp2487
(dp2488
g62
(dp2489
g82
g83
ssg71
g2483
sg64
(lp2490
S'is_jython'
p2491
asbag57
(g78
g59
NtRp2492
(dp2493
g62
(dp2494
g89
g90
ssg71
g2483
sg64
(lp2495
S':'
asbag57
(g78
g59
NtRp2496
(dp2497
g62
(dp2498
sg71
g2483
sg64
(lp2499
g57
(g58
g59
NtRp2500
(dp2501
g62
(dp2502
g70
I4
ssg71
g2496
sg64
(lp2503
g100
asbasbasbag57
(g73
g59
NtRp2504
(dp2505
g62
(dp2506
sg71
g2147
sg64
(lp2507
g57
(g78
g59
NtRp2508
(dp2509
g62
(dp2510
g82
g83
ssg71
g2504
sg64
(lp2511
S'is_pypy'
p2512
asbag57
(g78
g59
NtRp2513
(dp2514
g62
(dp2515
g89
g90
ssg71
g2504
sg64
(lp2516
S':'
asbag57
(g78
g59
NtRp2517
(dp2518
g62
(dp2519
sg71
g2504
sg64
(lp2520
g57
(g58
g59
NtRp2521
(dp2522
g62
(dp2523
g70
I4
ssg71
g2517
sg64
(lp2524
g100
asbasbasbag57
(g73
g59
NtRp2525
(dp2526
g62
(dp2527
sg71
g2147
sg64
(lp2528
g57
(g78
g59
NtRp2529
(dp2530
g62
(dp2531
g82
g83
ssg71
g2525
sg64
(lp2532
S'local_hosts'
p2533
asbag57
(g78
g59
NtRp2534
(dp2535
g62
(dp2536
g89
g90
ssg71
g2525
sg64
(lp2537
S':'
asbag57
(g78
g59
NtRp2538
(dp2539
g62
(dp2540
sg71
g2525
sg64
(lp2541
g57
(g58
g59
NtRp2542
(dp2543
g62
(dp2544
g70
I4
ssg71
g2538
sg64
(lp2545
g57
(g66
g59
NtRp2546
(dp2547
g62
(dp2548
g70
I3
ssg71
Nsg64
(lp2549
g57
(g73
g59
NtRp2550
(dp2551
g62
(dp2552
sg71
g2546
sg64
(lp2553
g57
(g78
g59
NtRp2554
(dp2555
g62
(dp2556
sg71
g2550
sg64
(lp2557
g57
(g58
g59
NtRp2558
(dp2559
g62
(dp2560
g70
I3
ssg71
g2554
sg64
(lp2561
S'127.0.1.1'
p2562
asbasbasbag57
(g73
g59
NtRp2563
(dp2564
g62
(dp2565
sg71
g2546
sg64
(lp2566
g57
(g78
g59
NtRp2567
(dp2568
g62
(dp2569
sg71
g2563
sg64
(lp2570
g57
(g58
g59
NtRp2571
(dp2572
g62
(dp2573
g70
I3
ssg71
g2567
sg64
(lp2574
S'::1'
p2575
asbasbasbag57
(g73
g59
NtRp2576
(dp2577
g62
(dp2578
sg71
g2546
sg64
(lp2579
g57
(g78
g59
NtRp2580
(dp2581
g62
(dp2582
sg71
g2576
sg64
(lp2583
g57
(g58
g59
NtRp2584
(dp2585
g62
(dp2586
g70
I3
ssg71
g2580
sg64
(lp2587
S'fernado-desktop'
p2588
asbasbasbag57
(g73
g59
NtRp2589
(dp2590
g62
(dp2591
sg71
g2546
sg64
(lp2592
g57
(g78
g59
NtRp2593
(dp2594
g62
(dp2595
sg71
g2589
sg64
(lp2596
g57
(g58
g59
NtRp2597
(dp2598
g62
(dp2599
g70
I3
ssg71
g2593
sg64
(lp2600
S'::ffff:127.0.0.1'
p2601
asbasbasbag57
(g73
g59
NtRp2602
(dp2603
g62
(dp2604
sg71
g2546
sg64
(lp2605
g57
(g78
g59
NtRp2606
(dp2607
g62
(dp2608
sg71
g2602
sg64
(lp2609
g57
(g58
g59
NtRp2610
(dp2611
g62
(dp2612
g70
I3
ssg71
g2606
sg64
(lp2613
S'127.0.0.1'
p2614
asbasbasbasbasbasbasbag57
(g73
g59
NtRp2615
(dp2616
g62
(dp2617
sg71
g2147
sg64
(lp2618
g57
(g78
g59
NtRp2619
(dp2620
g62
(dp2621
g82
g83
ssg71
g2615
sg64
(lp2622
S'path_info'
p2623
asbag57
(g78
g59
NtRp2624
(dp2625
g62
(dp2626
g89
g90
ssg71
g2615
sg64
(lp2627
S':'
asbag57
(g78
g59
NtRp2628
(dp2629
g62
(dp2630
sg71
g2615
sg64
(lp2631
g57
(g58
g59
NtRp2632
(dp2633
g62
(dp2634
g70
I4
ssg71
g2628
sg64
(lp2635
S'/manager/usuarios'
p2636
asbasbasbag57
(g73
g59
NtRp2637
(dp2638
g62
(dp2639
sg71
g2147
sg64
(lp2640
g57
(g78
g59
NtRp2641
(dp2642
g62
(dp2643
g82
g83
ssg71
g2637
sg64
(lp2644
S'query_string'
p2645
asbag57
(g78
g59
NtRp2646
(dp2647
g62
(dp2648
g89
g90
ssg71
g2637
sg64
(lp2649
S':'
asbag57
(g78
g59
NtRp2650
(dp2651
g62
(dp2652
sg71
g2637
sg64
(lp2653
g57
(g58
g59
NtRp2654
(dp2655
g62
(dp2656
g70
I4
ssg71
g2650
sg64
(lp2657
S''
asbasbasbag57
(g73
g59
NtRp2658
(dp2659
g62
(dp2660
sg71
g2147
sg64
(lp2661
g57
(g78
g59
NtRp2662
(dp2663
g62
(dp2664
g82
g83
ssg71
g2658
sg64
(lp2665
S'remote_addr'
p2666
asbag57
(g78
g59
NtRp2667
(dp2668
g62
(dp2669
g89
g90
ssg71
g2658
sg64
(lp2670
S':'
asbag57
(g78
g59
NtRp2671
(dp2672
g62
(dp2673
sg71
g2658
sg64
(lp2674
g57
(g58
g59
NtRp2675
(dp2676
g62
(dp2677
g70
I4
ssg71
g2671
sg64
(lp2678
g212
asbasbasbag57
(g73
g59
NtRp2679
(dp2680
g62
(dp2681
sg71
g2147
sg64
(lp2682
g57
(g78
g59
NtRp2683
(dp2684
g62
(dp2685
g82
g83
ssg71
g2679
sg64
(lp2686
S'remote_port'
p2687
asbag57
(g78
g59
NtRp2688
(dp2689
g62
(dp2690
g89
g90
ssg71
g2679
sg64
(lp2691
S':'
asbag57
(g78
g59
NtRp2692
(dp2693
g62
(dp2694
sg71
g2679
sg64
(lp2695
g57
(g58
g59
NtRp2696
(dp2697
g62
(dp2698
g70
I4
ssg71
g2692
sg64
(lp2699
S'37671'
p2700
asbasbasbag57
(g73
g59
NtRp2701
(dp2702
g62
(dp2703
sg71
g2147
sg64
(lp2704
g57
(g78
g59
NtRp2705
(dp2706
g62
(dp2707
g82
g83
ssg71
g2701
sg64
(lp2708
S'request_method'
p2709
asbag57
(g78
g59
NtRp2710
(dp2711
g62
(dp2712
g89
g90
ssg71
g2701
sg64
(lp2713
S':'
asbag57
(g78
g59
NtRp2714
(dp2715
g62
(dp2716
sg71
g2701
sg64
(lp2717
g57
(g58
g59
NtRp2718
(dp2719
g62
(dp2720
g70
I4
ssg71
g2714
sg64
(lp2721
S'GET'
p2722
asbasbasbag57
(g73
g59
NtRp2723
(dp2724
g62
(dp2725
sg71
g2147
sg64
(lp2726
g57
(g78
g59
NtRp2727
(dp2728
g62
(dp2729
g82
g83
ssg71
g2723
sg64
(lp2730
S'request_uri'
p2731
asbag57
(g78
g59
NtRp2732
(dp2733
g62
(dp2734
g89
g90
ssg71
g2723
sg64
(lp2735
S':'
asbag57
(g78
g59
NtRp2736
(dp2737
g62
(dp2738
sg71
g2723
sg64
(lp2739
g57
(g58
g59
NtRp2740
(dp2741
g62
(dp2742
g70
I4
ssg71
g2736
sg64
(lp2743
S'/projeto/manager/usuarios'
p2744
asbasbasbag57
(g73
g59
NtRp2745
(dp2746
g62
(dp2747
sg71
g2147
sg64
(lp2748
g57
(g78
g59
NtRp2749
(dp2750
g62
(dp2751
g82
g83
ssg71
g2745
sg64
(lp2752
S'script_name'
p2753
asbag57
(g78
g59
NtRp2754
(dp2755
g62
(dp2756
g89
g90
ssg71
g2745
sg64
(lp2757
S':'
asbag57
(g78
g59
NtRp2758
(dp2759
g62
(dp2760
sg71
g2745
sg64
(lp2761
g57
(g58
g59
NtRp2762
(dp2763
g62
(dp2764
g70
I4
ssg71
g2758
sg64
(lp2765
S''
asbasbasbag57
(g73
g59
NtRp2766
(dp2767
g62
(dp2768
sg71
g2147
sg64
(lp2769
g57
(g78
g59
NtRp2770
(dp2771
g62
(dp2772
g82
g83
ssg71
g2766
sg64
(lp2773
S'server_name'
p2774
asbag57
(g78
g59
NtRp2775
(dp2776
g62
(dp2777
g89
g90
ssg71
g2766
sg64
(lp2778
S':'
asbag57
(g78
g59
NtRp2779
(dp2780
g62
(dp2781
sg71
g2766
sg64
(lp2782
g57
(g58
g59
NtRp2783
(dp2784
g62
(dp2785
g70
I4
ssg71
g2779
sg64
(lp2786
S'fernado-desktop'
p2787
asbasbasbag57
(g73
g59
NtRp2788
(dp2789
g62
(dp2790
sg71
g2147
sg64
(lp2791
g57
(g78
g59
NtRp2792
(dp2793
g62
(dp2794
g82
g83
ssg71
g2788
sg64
(lp2795
S'server_port'
p2796
asbag57
(g78
g59
NtRp2797
(dp2798
g62
(dp2799
g89
g90
ssg71
g2788
sg64
(lp2800
S':'
asbag57
(g78
g59
NtRp2801
(dp2802
g62
(dp2803
sg71
g2788
sg64
(lp2804
g57
(g58
g59
NtRp2805
(dp2806
g62
(dp2807
g70
I4
ssg71
g2801
sg64
(lp2808
S'8000'
p2809
asbasbasbag57
(g73
g59
NtRp2810
(dp2811
g62
(dp2812
sg71
g2147
sg64
(lp2813
g57
(g78
g59
NtRp2814
(dp2815
g62
(dp2816
g82
g83
ssg71
g2810
sg64
(lp2817
S'server_protocol'
p2818
asbag57
(g78
g59
NtRp2819
(dp2820
g62
(dp2821
g89
g90
ssg71
g2810
sg64
(lp2822
S':'
asbag57
(g78
g59
NtRp2823
(dp2824
g62
(dp2825
sg71
g2810
sg64
(lp2826
g57
(g58
g59
NtRp2827
(dp2828
g62
(dp2829
g70
I4
ssg71
g2823
sg64
(lp2830
S'HTTP/1.1'
p2831
asbasbasbag57
(g73
g59
NtRp2832
(dp2833
g62
(dp2834
sg71
g2147
sg64
(lp2835
g57
(g78
g59
NtRp2836
(dp2837
g62
(dp2838
g82
g83
ssg71
g2832
sg64
(lp2839
S'server_software'
p2840
asbag57
(g78
g59
NtRp2841
(dp2842
g62
(dp2843
g89
g90
ssg71
g2832
sg64
(lp2844
S':'
asbag57
(g78
g59
NtRp2845
(dp2846
g62
(dp2847
sg71
g2832
sg64
(lp2848
g57
(g58
g59
NtRp2849
(dp2850
g62
(dp2851
g70
I4
ssg71
g2845
sg64
(lp2852
S'Rocket 1.2.6'
p2853
asbasbasbag57
(g73
g59
NtRp2854
(dp2855
g62
(dp2856
sg71
g2147
sg64
(lp2857
g57
(g78
g59
NtRp2858
(dp2859
g62
(dp2860
g82
g83
ssg71
g2854
sg64
(lp2861
S'web2py_original_uri'
p2862
asbag57
(g78
g59
NtRp2863
(dp2864
g62
(dp2865
g89
g90
ssg71
g2854
sg64
(lp2866
S':'
asbag57
(g78
g59
NtRp2867
(dp2868
g62
(dp2869
sg71
g2854
sg64
(lp2870
g57
(g58
g59
NtRp2871
(dp2872
g62
(dp2873
g70
I4
ssg71
g2867
sg64
(lp2874
g2636
asbasbasbag57
(g73
g59
NtRp2875
(dp2876
g62
(dp2877
sg71
g2147
sg64
(lp2878
g57
(g78
g59
NtRp2879
(dp2880
g62
(dp2881
g82
g83
ssg71
g2875
sg64
(lp2882
S'web2py_path'
p2883
asbag57
(g78
g59
NtRp2884
(dp2885
g62
(dp2886
g89
g90
ssg71
g2875
sg64
(lp2887
S':'
asbag57
(g78
g59
NtRp2888
(dp2889
g62
(dp2890
sg71
g2875
sg64
(lp2891
g57
(g58
g59
NtRp2892
(dp2893
g62
(dp2894
g70
I4
ssg71
g2888
sg64
(lp2895
g2194
asbasbasbag57
(g73
g59
NtRp2896
(dp2897
g62
(dp2898
sg71
g2147
sg64
(lp2899
g57
(g78
g59
NtRp2900
(dp2901
g62
(dp2902
g82
g83
ssg71
g2896
sg64
(lp2903
S'web2py_version'
p2904
asbag57
(g78
g59
NtRp2905
(dp2906
g62
(dp2907
g89
g90
ssg71
g2896
sg64
(lp2908
S':'
asbag57
(g78
g59
NtRp2909
(dp2910
g62
(dp2911
sg71
g2896
sg64
(lp2912
g57
(g58
g59
NtRp2913
(dp2914
g62
(dp2915
g70
I4
ssg71
g2909
sg64
(lp2916
g57
(g66
g59
NtRp2917
(dp2918
g62
(dp2919
g70
I3
ssg71
Nsg64
(lp2920
g57
(g73
g59
NtRp2921
(dp2922
g62
(dp2923
sg71
g2917
sg64
(lp2924
g57
(g78
g59
NtRp2925
(dp2926
g62
(dp2927
sg71
g2921
sg64
(lp2928
g57
(g58
g59
NtRp2929
(dp2930
g62
(dp2931
g70
I3
ssg71
g2925
sg64
(lp2932
S'2'
asbasbasbag57
(g73
g59
NtRp2933
(dp2934
g62
(dp2935
sg71
g2917
sg64
(lp2936
g57
(g78
g59
NtRp2937
(dp2938
g62
(dp2939
sg71
g2933
sg64
(lp2940
g57
(g58
g59
NtRp2941
(dp2942
g62
(dp2943
g70
I3
ssg71
g2937
sg64
(lp2944
S'3'
asbasbasbag57
(g73
g59
NtRp2945
(dp2946
g62
(dp2947
sg71
g2917
sg64
(lp2948
g57
(g78
g59
NtRp2949
(dp2950
g62
(dp2951
sg71
g2945
sg64
(lp2952
g57
(g58
g59
NtRp2953
(dp2954
g62
(dp2955
g70
I3
ssg71
g2949
sg64
(lp2956
S'2'
asbasbasbag57
(g73
g59
NtRp2957
(dp2958
g62
(dp2959
sg71
g2917
sg64
(lp2960
g57
(g78
g59
NtRp2961
(dp2962
g62
(dp2963
sg71
g2957
sg64
(lp2964
g57
(g58
g59
NtRp2965
(dp2966
g62
(dp2967
g70
I3
ssg71
g2961
sg64
(lp2968
S'datetime.datetime(2012, 12, 17, 15, 3, 30)'
p2969
asbasbasbag57
(g73
g59
NtRp2970
(dp2971
g62
(dp2972
sg71
g2917
sg64
(lp2973
g57
(g78
g59
NtRp2974
(dp2975
g62
(dp2976
sg71
g2970
sg64
(lp2977
g57
(g58
g59
NtRp2978
(dp2979
g62
(dp2980
g70
I3
ssg71
g2974
sg64
(lp2981
S'stable'
p2982
asbasbasbasbasbasbasbag57
(g73
g59
NtRp2983
(dp2984
g62
(dp2985
sg71
g2147
sg64
(lp2986
g57
(g78
g59
NtRp2987
(dp2988
g62
(dp2989
g82
g83
ssg71
g2983
sg64
(lp2990
S'wsgi_errors'
p2991
asbag57
(g78
g59
NtRp2992
(dp2993
g62
(dp2994
g89
g90
ssg71
g2983
sg64
(lp2995
S':'
asbag57
(g78
g59
NtRp2996
(dp2997
g62
(dp2998
sg71
g2983
sg64
(lp2999
g57
(g58
g59
NtRp3000
(dp3001
g62
(dp3002
g70
I4
ssg71
g2996
sg64
(lp3003
S"<open file '<stderr>', mode 'w' at 0x7fb4dd175270>"
p3004
asbasbasbag57
(g73
g59
NtRp3005
(dp3006
g62
(dp3007
sg71
g2147
sg64
(lp3008
g57
(g78
g59
NtRp3009
(dp3010
g62
(dp3011
g82
g83
ssg71
g3005
sg64
(lp3012
S'wsgi_file_wrapper'
p3013
asbag57
(g78
g59
NtRp3014
(dp3015
g62
(dp3016
g89
g90
ssg71
g3005
sg64
(lp3017
S':'
asbag57
(g78
g59
NtRp3018
(dp3019
g62
(dp3020
sg71
g3005
sg64
(lp3021
g57
(g58
g59
NtRp3022
(dp3023
g62
(dp3024
g70
I4
ssg71
g3018
sg64
(lp3025
S'<class wsgiref.util.FileWrapper at 0x37136d0>'
p3026
asbasbasbag57
(g73
g59
NtRp3027
(dp3028
g62
(dp3029
sg71
g2147
sg64
(lp3030
g57
(g78
g59
NtRp3031
(dp3032
g62
(dp3033
g82
g83
ssg71
g3027
sg64
(lp3034
S'wsgi_input'
p3035
asbag57
(g78
g59
NtRp3036
(dp3037
g62
(dp3038
g89
g90
ssg71
g3027
sg64
(lp3039
S':'
asbag57
(g78
g59
NtRp3040
(dp3041
g62
(dp3042
sg71
g3027
sg64
(lp3043
g57
(g58
g59
NtRp3044
(dp3045
g62
(dp3046
g70
I4
ssg71
g3040
sg64
(lp3047
S'<socket._fileobject object at 0x27a3950>'
p3048
asbasbasbag57
(g73
g59
NtRp3049
(dp3050
g62
(dp3051
sg71
g2147
sg64
(lp3052
g57
(g78
g59
NtRp3053
(dp3054
g62
(dp3055
g82
g83
ssg71
g3049
sg64
(lp3056
S'wsgi_multiprocess'
p3057
asbag57
(g78
g59
NtRp3058
(dp3059
g62
(dp3060
g89
g90
ssg71
g3049
sg64
(lp3061
S':'
asbag57
(g78
g59
NtRp3062
(dp3063
g62
(dp3064
sg71
g3049
sg64
(lp3065
g57
(g58
g59
NtRp3066
(dp3067
g62
(dp3068
g70
I4
ssg71
g3062
sg64
(lp3069
g100
asbasbasbag57
(g73
g59
NtRp3070
(dp3071
g62
(dp3072
sg71
g2147
sg64
(lp3073
g57
(g78
g59
NtRp3074
(dp3075
g62
(dp3076
g82
g83
ssg71
g3070
sg64
(lp3077
S'wsgi_multithread'
p3078
asbag57
(g78
g59
NtRp3079
(dp3080
g62
(dp3081
g89
g90
ssg71
g3070
sg64
(lp3082
S':'
asbag57
(g78
g59
NtRp3083
(dp3084
g62
(dp3085
sg71
g3070
sg64
(lp3086
g57
(g58
g59
NtRp3087
(dp3088
g62
(dp3089
g70
I4
ssg71
g3083
sg64
(lp3090
S'True'
p3091
asbasbasbag57
(g73
g59
NtRp3092
(dp3093
g62
(dp3094
sg71
g2147
sg64
(lp3095
g57
(g78
g59
NtRp3096
(dp3097
g62
(dp3098
g82
g83
ssg71
g3092
sg64
(lp3099
S'wsgi_run_once'
p3100
asbag57
(g78
g59
NtRp3101
(dp3102
g62
(dp3103
g89
g90
ssg71
g3092
sg64
(lp3104
S':'
asbag57
(g78
g59
NtRp3105
(dp3106
g62
(dp3107
sg71
g3092
sg64
(lp3108
g57
(g58
g59
NtRp3109
(dp3110
g62
(dp3111
g70
I4
ssg71
g3105
sg64
(lp3112
g100
asbasbasbag57
(g73
g59
NtRp3113
(dp3114
g62
(dp3115
sg71
g2147
sg64
(lp3116
g57
(g78
g59
NtRp3117
(dp3118
g62
(dp3119
g82
g83
ssg71
g3113
sg64
(lp3120
S'wsgi_url_scheme'
p3121
asbag57
(g78
g59
NtRp3122
(dp3123
g62
(dp3124
g89
g90
ssg71
g3113
sg64
(lp3125
S':'
asbag57
(g78
g59
NtRp3126
(dp3127
g62
(dp3128
sg71
g3113
sg64
(lp3129
g57
(g58
g59
NtRp3130
(dp3131
g62
(dp3132
g70
I4
ssg71
g3126
sg64
(lp3133
S'http'
p3134
asbasbasbag57
(g73
g59
NtRp3135
(dp3136
g62
(dp3137
sg71
g2147
sg64
(lp3138
g57
(g78
g59
NtRp3139
(dp3140
g62
(dp3141
g82
g83
ssg71
g3135
sg64
(lp3142
S'wsgi_version'
p3143
asbag57
(g78
g59
NtRp3144
(dp3145
g62
(dp3146
g89
g90
ssg71
g3135
sg64
(lp3147
S':'
asbag57
(g78
g59
NtRp3148
(dp3149
g62
(dp3150
sg71
g3135
sg64
(lp3151
g57
(g58
g59
NtRp3152
(dp3153
g62
(dp3154
g70
I4
ssg71
g3148
sg64
(lp3155
g57
(g66
g59
NtRp3156
(dp3157
g62
(dp3158
g70
I3
ssg71
Nsg64
(lp3159
g57
(g73
g59
NtRp3160
(dp3161
g62
(dp3162
sg71
g3156
sg64
(lp3163
g57
(g78
g59
NtRp3164
(dp3165
g62
(dp3166
sg71
g3160
sg64
(lp3167
g57
(g58
g59
NtRp3168
(dp3169
g62
(dp3170
g70
I3
ssg71
g3164
sg64
(lp3171
S'1'
asbasbasbag57
(g73
g59
NtRp3172
(dp3173
g62
(dp3174
sg71
g3156
sg64
(lp3175
g57
(g78
g59
NtRp3176
(dp3177
g62
(dp3178
sg71
g3172
sg64
(lp3179
g57
(g58
g59
NtRp3180
(dp3181
g62
(dp3182
g70
I3
ssg71
g3176
sg64
(lp3183
S'0'
asbasbasbasbasbasbasbasbasbasbasbag57
(g73
g59
NtRp3184
(dp3185
g62
(dp3186
sg71
g67
sg64
(lp3187
g57
(g78
g59
NtRp3188
(dp3189
g62
(dp3190
g82
g83
ssg71
g3184
sg64
(lp3191
S'extension'
p3192
asbag57
(g78
g59
NtRp3193
(dp3194
g62
(dp3195
g89
g90
ssg71
g3184
sg64
(lp3196
S':'
asbag57
(g78
g59
NtRp3197
(dp3198
g62
(dp3199
sg71
g3184
sg64
(lp3200
g57
(g58
g59
NtRp3201
(dp3202
g62
(dp3203
g70
I5
ssg71
g3197
sg64
(lp3204
S'html'
p3205
asbasbasbag57
(g73
g59
NtRp3206
(dp3207
g62
(dp3208
sg71
g67
sg64
(lp3209
g57
(g78
g59
NtRp3210
(dp3211
g62
(dp3212
g82
g83
ssg71
g3206
sg64
(lp3213
S'folder'
p3214
asbag57
(g78
g59
NtRp3215
(dp3216
g62
(dp3217
g89
g90
ssg71
g3206
sg64
(lp3218
S':'
asbag57
(g78
g59
NtRp3219
(dp3220
g62
(dp3221
sg71
g3206
sg64
(lp3222
g57
(g58
g59
NtRp3223
(dp3224
g62
(dp3225
g70
I5
ssg71
g3219
sg64
(lp3226
S'/var/www/web2py_curso/applications/projeto/'
p3227
asbasbasbag57
(g73
g59
NtRp3228
(dp3229
g62
(dp3230
sg71
g67
sg64
(lp3231
g57
(g78
g59
NtRp3232
(dp3233
g62
(dp3234
g82
g83
ssg71
g3228
sg64
(lp3235
S'function'
p3236
asbag57
(g78
g59
NtRp3237
(dp3238
g62
(dp3239
g89
g90
ssg71
g3228
sg64
(lp3240
S':'
asbag57
(g78
g59
NtRp3241
(dp3242
g62
(dp3243
sg71
g3228
sg64
(lp3244
g57
(g58
g59
NtRp3245
(dp3246
g62
(dp3247
g70
I5
ssg71
g3241
sg64
(lp3248
S'usuarios'
p3249
asbasbasbag57
(g73
g59
NtRp3250
(dp3251
g62
(dp3252
sg71
g67
sg64
(lp3253
g57
(g78
g59
NtRp3254
(dp3255
g62
(dp3256
g82
g83
ssg71
g3250
sg64
(lp3257
S'get_vars'
p3258
asbag57
(g78
g59
NtRp3259
(dp3260
g62
(dp3261
g89
g90
ssg71
g3250
sg64
(lp3262
S':'
asbag57
(g78
g59
NtRp3263
(dp3264
g62
(dp3265
sg71
g3250
sg64
(lp3266
g57
(g58
g59
NtRp3267
(dp3268
g62
(dp3269
g70
I5
ssg71
g3263
sg64
(lp3270
g57
(g66
g59
NtRp3271
(dp3272
g62
(dp3273
g70
I4
ssg71
Nsg64
(lp3274
sbasbasbasbag57
(g73
g59
NtRp3275
(dp3276
g62
(dp3277
sg71
g67
sg64
(lp3278
g57
(g78
g59
NtRp3279
(dp3280
g62
(dp3281
g82
g83
ssg71
g3275
sg64
(lp3282
S'global_settings'
p3283
asbag57
(g78
g59
NtRp3284
(dp3285
g62
(dp3286
g89
g90
ssg71
g3275
sg64
(lp3287
S':'
asbag57
(g78
g59
NtRp3288
(dp3289
g62
(dp3290
sg71
g3275
sg64
(lp3291
g57
(g58
g59
NtRp3292
(dp3293
g62
(dp3294
g70
I5
ssg71
g3288
sg64
(lp3295
g57
(g66
g59
NtRp3296
(dp3297
g62
(dp3298
g70
I4
ssg71
Nsg64
(lp3299
g57
(g73
g59
NtRp3300
(dp3301
g62
(dp3302
sg71
g3296
sg64
(lp3303
g57
(g78
g59
NtRp3304
(dp3305
g62
(dp3306
g82
g83
ssg71
g3300
sg64
(lp3307
g2159
asbag57
(g78
g59
NtRp3308
(dp3309
g62
(dp3310
g89
g90
ssg71
g3300
sg64
(lp3311
S':'
asbag57
(g78
g59
NtRp3312
(dp3313
g62
(dp3314
sg71
g3300
sg64
(lp3315
g57
(g58
g59
NtRp3316
(dp3317
g62
(dp3318
g70
I4
ssg71
g3312
sg64
(lp3319
S"set(['/var/www/web2py_curso/applications/admin/', '/var/www/web2py_curso/applications/projeto/'])"
p3320
asbasbasbag57
(g73
g59
NtRp3321
(dp3322
g62
(dp3323
sg71
g3296
sg64
(lp3324
g57
(g78
g59
NtRp3325
(dp3326
g62
(dp3327
g82
g83
ssg71
g3321
sg64
(lp3328
g2181
asbag57
(g78
g59
NtRp3329
(dp3330
g62
(dp3331
g89
g90
ssg71
g3321
sg64
(lp3332
S':'
asbag57
(g78
g59
NtRp3333
(dp3334
g62
(dp3335
sg71
g3321
sg64
(lp3336
g57
(g58
g59
NtRp3337
(dp3338
g62
(dp3339
g70
I4
ssg71
g3333
sg64
(lp3340
g2194
asbasbasbag57
(g73
g59
NtRp3341
(dp3342
g62
(dp3343
sg71
g3296
sg64
(lp3344
g57
(g78
g59
NtRp3345
(dp3346
g62
(dp3347
g82
g83
ssg71
g3341
sg64
(lp3348
g2203
asbag57
(g78
g59
NtRp3349
(dp3350
g62
(dp3351
g89
g90
ssg71
g3341
sg64
(lp3352
S':'
asbag57
(g78
g59
NtRp3353
(dp3354
g62
(dp3355
sg71
g3341
sg64
(lp3356
g57
(g58
g59
NtRp3357
(dp3358
g62
(dp3359
g70
I4
ssg71
g3353
sg64
(lp3360
g57
(g66
g59
NtRp3361
(dp3362
g62
(dp3363
g70
I3
ssg71
Nsg64
(lp3364
sbasbasbasbag57
(g73
g59
NtRp3365
(dp3366
g62
(dp3367
sg71
g3296
sg64
(lp3368
g57
(g78
g59
NtRp3369
(dp3370
g62
(dp3371
g82
g83
ssg71
g3365
sg64
(lp3372
g2228
asbag57
(g78
g59
NtRp3373
(dp3374
g62
(dp3375
g89
g90
ssg71
g3365
sg64
(lp3376
S':'
asbag57
(g78
g59
NtRp3377
(dp3378
g62
(dp3379
sg71
g3365
sg64
(lp3380
g57
(g58
g59
NtRp3381
(dp3382
g62
(dp3383
g70
I4
ssg71
g3377
sg64
(lp3384
S"<Values at 0x335a1b8: {'verbose': False, 'ip': '127.0.0.1', 'with_scheduler': False, 'ips': [], 'shutdown_timeout': 5, 'taskbar': False, 'port': 8000, 'maxthreads': None, 'softcron': False, 'server_name': 'fernado-desktop', 'bpython': False, 'nogui': False, 'pid_filename': 'httpserver.pid', 'extcron': False, 'runcron': False, 'run_system_tests': False, 'test': None, 'folder': '/var/www/web2py_curso', 'config': '', 'minthreads': None, 'winservice': '', 'shell': None, 'run': '', 'log_filename': 'httpserver.log', 'debuglevel': 30, 'args': [''], 'socket_timeout': 5, 'ssl_ca_certificate': None, 'scheduler': None, 'profiler_filename': None, 'ssl_private_key': '', 'scheduler_groups': None, 'password': '123456', 'request_queue_size': 5, 'ssl_certificate': '', 'cronjob': False, 'numthreads': None, 'quiet': False, 'interfaces': None, 'import_models': False, 'timeout': 10, 'plain': False, 'nobanner': False}>"
p3385
asbasbasbag57
(g73
g59
NtRp3386
(dp3387
g62
(dp3388
sg71
g3296
sg64
(lp3389
g57
(g78
g59
NtRp3390
(dp3391
g62
(dp3392
g82
g83
ssg71
g3386
sg64
(lp3393
g2250
asbag57
(g78
g59
NtRp3394
(dp3395
g62
(dp3396
g89
g90
ssg71
g3386
sg64
(lp3397
S':'
asbag57
(g78
g59
NtRp3398
(dp3399
g62
(dp3400
sg71
g3386
sg64
(lp3401
g57
(g58
g59
NtRp3402
(dp3403
g62
(dp3404
g70
I4
ssg71
g3398
sg64
(lp3405
S'set([])'
p3406
asbasbasbag57
(g73
g59
NtRp3407
(dp3408
g62
(dp3409
sg71
g3296
sg64
(lp3410
g57
(g78
g59
NtRp3411
(dp3412
g62
(dp3413
g82
g83
ssg71
g3407
sg64
(lp3414
g2272
asbag57
(g78
g59
NtRp3415
(dp3416
g62
(dp3417
g89
g90
ssg71
g3407
sg64
(lp3418
S':'
asbag57
(g78
g59
NtRp3419
(dp3420
g62
(dp3421
sg71
g3407
sg64
(lp3422
g57
(g58
g59
NtRp3423
(dp3424
g62
(dp3425
g70
I4
ssg71
g3419
sg64
(lp3426
g100
asbasbasbag57
(g73
g59
NtRp3427
(dp3428
g62
(dp3429
sg71
g3296
sg64
(lp3430
g57
(g78
g59
NtRp3431
(dp3432
g62
(dp3433
g82
g83
ssg71
g3427
sg64
(lp3434
g2293
asbag57
(g78
g59
NtRp3435
(dp3436
g62
(dp3437
g89
g90
ssg71
g3427
sg64
(lp3438
S':'
asbag57
(g78
g59
NtRp3439
(dp3440
g62
(dp3441
sg71
g3427
sg64
(lp3442
g57
(g58
g59
NtRp3443
(dp3444
g62
(dp3445
g70
I4
ssg71
g3439
sg64
(lp3446
g2306
asbasbasbag57
(g73
g59
NtRp3447
(dp3448
g62
(dp3449
sg71
g3296
sg64
(lp3450
g57
(g78
g59
NtRp3451
(dp3452
g62
(dp3453
g82
g83
ssg71
g3447
sg64
(lp3454
g2491
asbag57
(g78
g59
NtRp3455
(dp3456
g62
(dp3457
g89
g90
ssg71
g3447
sg64
(lp3458
S':'
asbag57
(g78
g59
NtRp3459
(dp3460
g62
(dp3461
sg71
g3447
sg64
(lp3462
g57
(g58
g59
NtRp3463
(dp3464
g62
(dp3465
g70
I4
ssg71
g3459
sg64
(lp3466
g100
asbasbasbag57
(g73
g59
NtRp3467
(dp3468
g62
(dp3469
sg71
g3296
sg64
(lp3470
g57
(g78
g59
NtRp3471
(dp3472
g62
(dp3473
g82
g83
ssg71
g3467
sg64
(lp3474
g2512
asbag57
(g78
g59
NtRp3475
(dp3476
g62
(dp3477
g89
g90
ssg71
g3467
sg64
(lp3478
S':'
asbag57
(g78
g59
NtRp3479
(dp3480
g62
(dp3481
sg71
g3467
sg64
(lp3482
g57
(g58
g59
NtRp3483
(dp3484
g62
(dp3485
g70
I4
ssg71
g3479
sg64
(lp3486
g100
asbasbasbag57
(g73
g59
NtRp3487
(dp3488
g62
(dp3489
sg71
g3296
sg64
(lp3490
g57
(g78
g59
NtRp3491
(dp3492
g62
(dp3493
g82
g83
ssg71
g3487
sg64
(lp3494
g2533
asbag57
(g78
g59
NtRp3495
(dp3496
g62
(dp3497
g89
g90
ssg71
g3487
sg64
(lp3498
S':'
asbag57
(g78
g59
NtRp3499
(dp3500
g62
(dp3501
sg71
g3487
sg64
(lp3502
g57
(g58
g59
NtRp3503
(dp3504
g62
(dp3505
g70
I4
ssg71
g3499
sg64
(lp3506
g57
(g66
g59
NtRp3507
(dp3508
g62
(dp3509
g70
I3
ssg71
Nsg64
(lp3510
g57
(g73
g59
NtRp3511
(dp3512
g62
(dp3513
sg71
g3507
sg64
(lp3514
g57
(g78
g59
NtRp3515
(dp3516
g62
(dp3517
sg71
g3511
sg64
(lp3518
g57
(g58
g59
NtRp3519
(dp3520
g62
(dp3521
g70
I3
ssg71
g3515
sg64
(lp3522
g2562
asbasbasbag57
(g73
g59
NtRp3523
(dp3524
g62
(dp3525
sg71
g3507
sg64
(lp3526
g57
(g78
g59
NtRp3527
(dp3528
g62
(dp3529
sg71
g3523
sg64
(lp3530
g57
(g58
g59
NtRp3531
(dp3532
g62
(dp3533
g70
I3
ssg71
g3527
sg64
(lp3534
g2575
asbasbasbag57
(g73
g59
NtRp3535
(dp3536
g62
(dp3537
sg71
g3507
sg64
(lp3538
g57
(g78
g59
NtRp3539
(dp3540
g62
(dp3541
sg71
g3535
sg64
(lp3542
g57
(g58
g59
NtRp3543
(dp3544
g62
(dp3545
g70
I3
ssg71
g3539
sg64
(lp3546
g2588
asbasbasbag57
(g73
g59
NtRp3547
(dp3548
g62
(dp3549
sg71
g3507
sg64
(lp3550
g57
(g78
g59
NtRp3551
(dp3552
g62
(dp3553
sg71
g3547
sg64
(lp3554
g57
(g58
g59
NtRp3555
(dp3556
g62
(dp3557
g70
I3
ssg71
g3551
sg64
(lp3558
g2601
asbasbasbag57
(g73
g59
NtRp3559
(dp3560
g62
(dp3561
sg71
g3507
sg64
(lp3562
g57
(g78
g59
NtRp3563
(dp3564
g62
(dp3565
sg71
g3559
sg64
(lp3566
g57
(g58
g59
NtRp3567
(dp3568
g62
(dp3569
g70
I3
ssg71
g3563
sg64
(lp3570
g2614
asbasbasbasbasbasbasbag57
(g73
g59
NtRp3571
(dp3572
g62
(dp3573
sg71
g3296
sg64
(lp3574
g57
(g78
g59
NtRp3575
(dp3576
g62
(dp3577
g82
g83
ssg71
g3571
sg64
(lp3578
g2904
asbag57
(g78
g59
NtRp3579
(dp3580
g62
(dp3581
g89
g90
ssg71
g3571
sg64
(lp3582
S':'
asbag57
(g78
g59
NtRp3583
(dp3584
g62
(dp3585
sg71
g3571
sg64
(lp3586
g57
(g58
g59
NtRp3587
(dp3588
g62
(dp3589
g70
I4
ssg71
g3583
sg64
(lp3590
g57
(g66
g59
NtRp3591
(dp3592
g62
(dp3593
g70
I3
ssg71
Nsg64
(lp3594
g57
(g73
g59
NtRp3595
(dp3596
g62
(dp3597
sg71
g3591
sg64
(lp3598
g57
(g78
g59
NtRp3599
(dp3600
g62
(dp3601
sg71
g3595
sg64
(lp3602
g57
(g58
g59
NtRp3603
(dp3604
g62
(dp3605
g70
I3
ssg71
g3599
sg64
(lp3606
S'2'
asbasbasbag57
(g73
g59
NtRp3607
(dp3608
g62
(dp3609
sg71
g3591
sg64
(lp3610
g57
(g78
g59
NtRp3611
(dp3612
g62
(dp3613
sg71
g3607
sg64
(lp3614
g57
(g58
g59
NtRp3615
(dp3616
g62
(dp3617
g70
I3
ssg71
g3611
sg64
(lp3618
S'3'
asbasbasbag57
(g73
g59
NtRp3619
(dp3620
g62
(dp3621
sg71
g3591
sg64
(lp3622
g57
(g78
g59
NtRp3623
(dp3624
g62
(dp3625
sg71
g3619
sg64
(lp3626
g57
(g58
g59
NtRp3627
(dp3628
g62
(dp3629
g70
I3
ssg71
g3623
sg64
(lp3630
S'2'
asbasbasbag57
(g73
g59
NtRp3631
(dp3632
g62
(dp3633
sg71
g3591
sg64
(lp3634
g57
(g78
g59
NtRp3635
(dp3636
g62
(dp3637
sg71
g3631
sg64
(lp3638
g57
(g58
g59
NtRp3639
(dp3640
g62
(dp3641
g70
I3
ssg71
g3635
sg64
(lp3642
S'datetime.datetime(2012, 12, 17, 15, 3, 30)'
p3643
asbasbasbag57
(g73
g59
NtRp3644
(dp3645
g62
(dp3646
sg71
g3591
sg64
(lp3647
g57
(g78
g59
NtRp3648
(dp3649
g62
(dp3650
sg71
g3644
sg64
(lp3651
g57
(g58
g59
NtRp3652
(dp3653
g62
(dp3654
g70
I3
ssg71
g3648
sg64
(lp3655
g2982
asbasbasbasbasbasbasbasbasbasbasbag57
(g73
g59
NtRp3656
(dp3657
g62
(dp3658
sg71
g67
sg64
(lp3659
g57
(g78
g59
NtRp3660
(dp3661
g62
(dp3662
g82
g83
ssg71
g3656
sg64
(lp3663
S'is_https'
p3664
asbag57
(g78
g59
NtRp3665
(dp3666
g62
(dp3667
g89
g90
ssg71
g3656
sg64
(lp3668
S':'
asbag57
(g78
g59
NtRp3669
(dp3670
g62
(dp3671
sg71
g3656
sg64
(lp3672
g57
(g58
g59
NtRp3673
(dp3674
g62
(dp3675
g70
I5
ssg71
g3669
sg64
(lp3676
g100
asbasbasbag57
(g73
g59
NtRp3677
(dp3678
g62
(dp3679
sg71
g67
sg64
(lp3680
g57
(g78
g59
NtRp3681
(dp3682
g62
(dp3683
g82
g83
ssg71
g3677
sg64
(lp3684
S'is_local'
p3685
asbag57
(g78
g59
NtRp3686
(dp3687
g62
(dp3688
g89
g90
ssg71
g3677
sg64
(lp3689
S':'
asbag57
(g78
g59
NtRp3690
(dp3691
g62
(dp3692
sg71
g3677
sg64
(lp3693
g57
(g58
g59
NtRp3694
(dp3695
g62
(dp3696
g70
I5
ssg71
g3690
sg64
(lp3697
g3091
asbasbasbag57
(g73
g59
NtRp3698
(dp3699
g62
(dp3700
sg71
g67
sg64
(lp3701
g57
(g78
g59
NtRp3702
(dp3703
g62
(dp3704
g82
g83
ssg71
g3698
sg64
(lp3705
S'is_restful'
p3706
asbag57
(g78
g59
NtRp3707
(dp3708
g62
(dp3709
g89
g90
ssg71
g3698
sg64
(lp3710
S':'
asbag57
(g78
g59
NtRp3711
(dp3712
g62
(dp3713
sg71
g3698
sg64
(lp3714
g57
(g58
g59
NtRp3715
(dp3716
g62
(dp3717
g70
I5
ssg71
g3711
sg64
(lp3718
g100
asbasbasbag57
(g73
g59
NtRp3719
(dp3720
g62
(dp3721
sg71
g67
sg64
(lp3722
g57
(g78
g59
NtRp3723
(dp3724
g62
(dp3725
g82
g83
ssg71
g3719
sg64
(lp3726
S'now'
p3727
asbag57
(g78
g59
NtRp3728
(dp3729
g62
(dp3730
g89
g90
ssg71
g3719
sg64
(lp3731
S':'
asbag57
(g78
g59
NtRp3732
(dp3733
g62
(dp3734
sg71
g3719
sg64
(lp3735
g57
(g58
g59
NtRp3736
(dp3737
g62
(dp3738
g70
I5
ssg71
g3732
sg64
(lp3739
S'datetime.datetime(2013, 2, 4, 12, 6, 8, 289712)'
p3740
asbasbasbag57
(g73
g59
NtRp3741
(dp3742
g62
(dp3743
sg71
g67
sg64
(lp3744
g57
(g78
g59
NtRp3745
(dp3746
g62
(dp3747
g82
g83
ssg71
g3741
sg64
(lp3748
S'post_vars'
p3749
asbag57
(g78
g59
NtRp3750
(dp3751
g62
(dp3752
g89
g90
ssg71
g3741
sg64
(lp3753
S':'
asbag57
(g78
g59
NtRp3754
(dp3755
g62
(dp3756
sg71
g3741
sg64
(lp3757
g57
(g58
g59
NtRp3758
(dp3759
g62
(dp3760
g70
I5
ssg71
g3754
sg64
(lp3761
g57
(g66
g59
NtRp3762
(dp3763
g62
(dp3764
g70
I4
ssg71
Nsg64
(lp3765
sbasbasbasbag57
(g73
g59
NtRp3766
(dp3767
g62
(dp3768
sg71
g67
sg64
(lp3769
g57
(g78
g59
NtRp3770
(dp3771
g62
(dp3772
g82
g83
ssg71
g3766
sg64
(lp3773
S'url'
p3774
asbag57
(g78
g59
NtRp3775
(dp3776
g62
(dp3777
g89
g90
ssg71
g3766
sg64
(lp3778
S':'
asbag57
(g78
g59
NtRp3779
(dp3780
g62
(dp3781
sg71
g3766
sg64
(lp3782
g57
(g58
g59
NtRp3783
(dp3784
g62
(dp3785
g70
I5
ssg71
g3779
sg64
(lp3786
g2636
asbasbasbag57
(g73
g59
NtRp3787
(dp3788
g62
(dp3789
sg71
g67
sg64
(lp3790
g57
(g78
g59
NtRp3791
(dp3792
g62
(dp3793
g82
g83
ssg71
g3787
sg64
(lp3794
S'utcnow'
p3795
asbag57
(g78
g59
NtRp3796
(dp3797
g62
(dp3798
g89
g90
ssg71
g3787
sg64
(lp3799
S':'
asbag57
(g78
g59
NtRp3800
(dp3801
g62
(dp3802
sg71
g3787
sg64
(lp3803
g57
(g58
g59
NtRp3804
(dp3805
g62
(dp3806
g70
I5
ssg71
g3800
sg64
(lp3807
S'datetime.datetime(2013, 2, 4, 14, 6, 8, 289759)'
p3808
asbasbasbag57
(g73
g59
NtRp3809
(dp3810
g62
(dp3811
sg71
g67
sg64
(lp3812
g57
(g78
g59
NtRp3813
(dp3814
g62
(dp3815
g82
g83
ssg71
g3809
sg64
(lp3816
S'uuid'
p3817
asbag57
(g78
g59
NtRp3818
(dp3819
g62
(dp3820
g89
g90
ssg71
g3809
sg64
(lp3821
S':'
asbag57
(g78
g59
NtRp3822
(dp3823
g62
(dp3824
sg71
g3809
sg64
(lp3825
g57
(g58
g59
NtRp3826
(dp3827
g62
(dp3828
g70
I5
ssg71
g3822
sg64
(lp3829
S'projeto/127.0.0.1.2013-02-04.12-06-08.7a50e5a5-6dc2-429d-937c-adc1367c911e'
p3830
asbasbasbag57
(g73
g59
NtRp3831
(dp3832
g62
(dp3833
sg71
g67
sg64
(lp3834
g57
(g78
g59
NtRp3835
(dp3836
g62
(dp3837
g82
g83
ssg71
g3831
sg64
(lp3838
S'vars'
p3839
asbag57
(g78
g59
NtRp3840
(dp3841
g62
(dp3842
g89
g90
ssg71
g3831
sg64
(lp3843
S':'
asbag57
(g78
g59
NtRp3844
(dp3845
g62
(dp3846
sg71
g3831
sg64
(lp3847
g57
(g58
g59
NtRp3848
(dp3849
g62
(dp3850
g70
I5
ssg71
g3844
sg64
(lp3851
g57
(g66
g59
NtRp3852
(dp3853
g62
(dp3854
g70
I4
ssg71
Nsg64
(lp3855
sbasbasbasbag57
(g73
g59
NtRp3856
(dp3857
g62
(dp3858
sg71
g67
sg64
(lp3859
g57
(g78
g59
NtRp3860
(dp3861
g62
(dp3862
g82
g83
ssg71
g3856
sg64
(lp3863
S'wsgi'
p3864
asbag57
(g78
g59
NtRp3865
(dp3866
g62
(dp3867
g89
g90
ssg71
g3856
sg64
(lp3868
S':'
asbag57
(g78
g59
NtRp3869
(dp3870
g62
(dp3871
sg71
g3856
sg64
(lp3872
g57
(g58
g59
NtRp3873
(dp3874
g62
(dp3875
g70
I5
ssg71
g3869
sg64
(lp3876
g57
(g66
g59
NtRp3877
(dp3878
g62
(dp3879
g70
I4
ssg71
Nsg64
(lp3880
g57
(g73
g59
NtRp3881
(dp3882
g62
(dp3883
sg71
g3877
sg64
(lp3884
g57
(g78
g59
NtRp3885
(dp3886
g62
(dp3887
g82
g83
ssg71
g3881
sg64
(lp3888
S'environ'
p3889
asbag57
(g78
g59
NtRp3890
(dp3891
g62
(dp3892
g89
g90
ssg71
g3881
sg64
(lp3893
S':'
asbag57
(g78
g59
NtRp3894
(dp3895
g62
(dp3896
sg71
g3881
sg64
(lp3897
g57
(g58
g59
NtRp3898
(dp3899
g62
(dp3900
g70
I4
ssg71
g3894
sg64
(lp3901
g57
(g66
g59
NtRp3902
(dp3903
g62
(dp3904
g70
I3
ssg71
Nsg64
(lp3905
g57
(g73
g59
NtRp3906
(dp3907
g62
(dp3908
sg71
g3902
sg64
(lp3909
g57
(g78
g59
NtRp3910
(dp3911
g62
(dp3912
g82
g83
ssg71
g3906
sg64
(lp3913
S'HTTP_ACCEPT'
p3914
asbag57
(g78
g59
NtRp3915
(dp3916
g62
(dp3917
g89
g90
ssg71
g3906
sg64
(lp3918
S':'
asbag57
(g78
g59
NtRp3919
(dp3920
g62
(dp3921
sg71
g3906
sg64
(lp3922
g57
(g58
g59
NtRp3923
(dp3924
g62
(dp3925
g70
I3
ssg71
g3919
sg64
(lp3926
g2328
asbasbasbag57
(g73
g59
NtRp3927
(dp3928
g62
(dp3929
sg71
g3902
sg64
(lp3930
g57
(g78
g59
NtRp3931
(dp3932
g62
(dp3933
g82
g83
ssg71
g3927
sg64
(lp3934
S'HTTP_ACCEPT_CHARSET'
p3935
asbag57
(g78
g59
NtRp3936
(dp3937
g62
(dp3938
g89
g90
ssg71
g3927
sg64
(lp3939
S':'
asbag57
(g78
g59
NtRp3940
(dp3941
g62
(dp3942
sg71
g3927
sg64
(lp3943
g57
(g58
g59
NtRp3944
(dp3945
g62
(dp3946
g70
I3
ssg71
g3940
sg64
(lp3947
g2350
asbasbasbag57
(g73
g59
NtRp3948
(dp3949
g62
(dp3950
sg71
g3902
sg64
(lp3951
g57
(g78
g59
NtRp3952
(dp3953
g62
(dp3954
g82
g83
ssg71
g3948
sg64
(lp3955
S'HTTP_ACCEPT_ENCODING'
p3956
asbag57
(g78
g59
NtRp3957
(dp3958
g62
(dp3959
g89
g90
ssg71
g3948
sg64
(lp3960
S':'
asbag57
(g78
g59
NtRp3961
(dp3962
g62
(dp3963
sg71
g3948
sg64
(lp3964
g57
(g58
g59
NtRp3965
(dp3966
g62
(dp3967
g70
I3
ssg71
g3961
sg64
(lp3968
g2372
asbasbasbag57
(g73
g59
NtRp3969
(dp3970
g62
(dp3971
sg71
g3902
sg64
(lp3972
g57
(g78
g59
NtRp3973
(dp3974
g62
(dp3975
g82
g83
ssg71
g3969
sg64
(lp3976
S'HTTP_ACCEPT_LANGUAGE'
p3977
asbag57
(g78
g59
NtRp3978
(dp3979
g62
(dp3980
g89
g90
ssg71
g3969
sg64
(lp3981
S':'
asbag57
(g78
g59
NtRp3982
(dp3983
g62
(dp3984
sg71
g3969
sg64
(lp3985
g57
(g58
g59
NtRp3986
(dp3987
g62
(dp3988
g70
I3
ssg71
g3982
sg64
(lp3989
g2394
asbasbasbag57
(g73
g59
NtRp3990
(dp3991
g62
(dp3992
sg71
g3902
sg64
(lp3993
g57
(g78
g59
NtRp3994
(dp3995
g62
(dp3996
g82
g83
ssg71
g3990
sg64
(lp3997
S'HTTP_CONNECTION'
p3998
asbag57
(g78
g59
NtRp3999
(dp4000
g62
(dp4001
g89
g90
ssg71
g3990
sg64
(lp4002
S':'
asbag57
(g78
g59
NtRp4003
(dp4004
g62
(dp4005
sg71
g3990
sg64
(lp4006
g57
(g58
g59
NtRp4007
(dp4008
g62
(dp4009
g70
I3
ssg71
g4003
sg64
(lp4010
g2416
asbasbasbag57
(g73
g59
NtRp4011
(dp4012
g62
(dp4013
sg71
g3902
sg64
(lp4014
g57
(g78
g59
NtRp4015
(dp4016
g62
(dp4017
g82
g83
ssg71
g4011
sg64
(lp4018
S'HTTP_COOKIE'
p4019
asbag57
(g78
g59
NtRp4020
(dp4021
g62
(dp4022
g89
g90
ssg71
g4011
sg64
(lp4023
S':'
asbag57
(g78
g59
NtRp4024
(dp4025
g62
(dp4026
sg71
g4011
sg64
(lp4027
g57
(g58
g59
NtRp4028
(dp4029
g62
(dp4030
g70
I3
ssg71
g4024
sg64
(lp4031
g2438
asbasbasbag57
(g73
g59
NtRp4032
(dp4033
g62
(dp4034
sg71
g3902
sg64
(lp4035
g57
(g78
g59
NtRp4036
(dp4037
g62
(dp4038
g82
g83
ssg71
g4032
sg64
(lp4039
S'HTTP_HOST'
p4040
asbag57
(g78
g59
NtRp4041
(dp4042
g62
(dp4043
g89
g90
ssg71
g4032
sg64
(lp4044
S':'
asbag57
(g78
g59
NtRp4045
(dp4046
g62
(dp4047
sg71
g4032
sg64
(lp4048
g57
(g58
g59
NtRp4049
(dp4050
g62
(dp4051
g70
I3
ssg71
g4045
sg64
(lp4052
g2460
asbasbasbag57
(g73
g59
NtRp4053
(dp4054
g62
(dp4055
sg71
g3902
sg64
(lp4056
g57
(g78
g59
NtRp4057
(dp4058
g62
(dp4059
g82
g83
ssg71
g4053
sg64
(lp4060
S'HTTP_USER_AGENT'
p4061
asbag57
(g78
g59
NtRp4062
(dp4063
g62
(dp4064
g89
g90
ssg71
g4053
sg64
(lp4065
S':'
asbag57
(g78
g59
NtRp4066
(dp4067
g62
(dp4068
sg71
g4053
sg64
(lp4069
g57
(g58
g59
NtRp4070
(dp4071
g62
(dp4072
g70
I3
ssg71
g4066
sg64
(lp4073
g2482
asbasbasbag57
(g73
g59
NtRp4074
(dp4075
g62
(dp4076
sg71
g3902
sg64
(lp4077
g57
(g78
g59
NtRp4078
(dp4079
g62
(dp4080
g82
g83
ssg71
g4074
sg64
(lp4081
S'PATH_INFO'
p4082
asbag57
(g78
g59
NtRp4083
(dp4084
g62
(dp4085
g89
g90
ssg71
g4074
sg64
(lp4086
S':'
asbag57
(g78
g59
NtRp4087
(dp4088
g62
(dp4089
sg71
g4074
sg64
(lp4090
g57
(g58
g59
NtRp4091
(dp4092
g62
(dp4093
g70
I3
ssg71
g4087
sg64
(lp4094
g2636
asbasbasbag57
(g73
g59
NtRp4095
(dp4096
g62
(dp4097
sg71
g3902
sg64
(lp4098
g57
(g78
g59
NtRp4099
(dp4100
g62
(dp4101
g82
g83
ssg71
g4095
sg64
(lp4102
S'QUERY_STRING'
p4103
asbag57
(g78
g59
NtRp4104
(dp4105
g62
(dp4106
g89
g90
ssg71
g4095
sg64
(lp4107
S':'
asbag57
(g78
g59
NtRp4108
(dp4109
g62
(dp4110
sg71
g4095
sg64
(lp4111
g57
(g58
g59
NtRp4112
(dp4113
g62
(dp4114
g70
I3
ssg71
g4108
sg64
(lp4115
S''
asbasbasbag57
(g73
g59
NtRp4116
(dp4117
g62
(dp4118
sg71
g3902
sg64
(lp4119
g57
(g78
g59
NtRp4120
(dp4121
g62
(dp4122
g82
g83
ssg71
g4116
sg64
(lp4123
S'REMOTE_ADDR'
p4124
asbag57
(g78
g59
NtRp4125
(dp4126
g62
(dp4127
g89
g90
ssg71
g4116
sg64
(lp4128
S':'
asbag57
(g78
g59
NtRp4129
(dp4130
g62
(dp4131
sg71
g4116
sg64
(lp4132
g57
(g58
g59
NtRp4133
(dp4134
g62
(dp4135
g70
I3
ssg71
g4129
sg64
(lp4136
g212
asbasbasbag57
(g73
g59
NtRp4137
(dp4138
g62
(dp4139
sg71
g3902
sg64
(lp4140
g57
(g78
g59
NtRp4141
(dp4142
g62
(dp4143
g82
g83
ssg71
g4137
sg64
(lp4144
S'REMOTE_PORT'
p4145
asbag57
(g78
g59
NtRp4146
(dp4147
g62
(dp4148
g89
g90
ssg71
g4137
sg64
(lp4149
S':'
asbag57
(g78
g59
NtRp4150
(dp4151
g62
(dp4152
sg71
g4137
sg64
(lp4153
g57
(g58
g59
NtRp4154
(dp4155
g62
(dp4156
g70
I3
ssg71
g4150
sg64
(lp4157
g2700
asbasbasbag57
(g73
g59
NtRp4158
(dp4159
g62
(dp4160
sg71
g3902
sg64
(lp4161
g57
(g78
g59
NtRp4162
(dp4163
g62
(dp4164
g82
g83
ssg71
g4158
sg64
(lp4165
S'REQUEST_METHOD'
p4166
asbag57
(g78
g59
NtRp4167
(dp4168
g62
(dp4169
g89
g90
ssg71
g4158
sg64
(lp4170
S':'
asbag57
(g78
g59
NtRp4171
(dp4172
g62
(dp4173
sg71
g4158
sg64
(lp4174
g57
(g58
g59
NtRp4175
(dp4176
g62
(dp4177
g70
I3
ssg71
g4171
sg64
(lp4178
g2722
asbasbasbag57
(g73
g59
NtRp4179
(dp4180
g62
(dp4181
sg71
g3902
sg64
(lp4182
g57
(g78
g59
NtRp4183
(dp4184
g62
(dp4185
g82
g83
ssg71
g4179
sg64
(lp4186
S'REQUEST_URI'
p4187
asbag57
(g78
g59
NtRp4188
(dp4189
g62
(dp4190
g89
g90
ssg71
g4179
sg64
(lp4191
S':'
asbag57
(g78
g59
NtRp4192
(dp4193
g62
(dp4194
sg71
g4179
sg64
(lp4195
g57
(g58
g59
NtRp4196
(dp4197
g62
(dp4198
g70
I3
ssg71
g4192
sg64
(lp4199
g2744
asbasbasbag57
(g73
g59
NtRp4200
(dp4201
g62
(dp4202
sg71
g3902
sg64
(lp4203
g57
(g78
g59
NtRp4204
(dp4205
g62
(dp4206
g82
g83
ssg71
g4200
sg64
(lp4207
S'SCRIPT_NAME'
p4208
asbag57
(g78
g59
NtRp4209
(dp4210
g62
(dp4211
g89
g90
ssg71
g4200
sg64
(lp4212
S':'
asbag57
(g78
g59
NtRp4213
(dp4214
g62
(dp4215
sg71
g4200
sg64
(lp4216
g57
(g58
g59
NtRp4217
(dp4218
g62
(dp4219
g70
I3
ssg71
g4213
sg64
(lp4220
S''
asbasbasbag57
(g73
g59
NtRp4221
(dp4222
g62
(dp4223
sg71
g3902
sg64
(lp4224
g57
(g78
g59
NtRp4225
(dp4226
g62
(dp4227
g82
g83
ssg71
g4221
sg64
(lp4228
S'SERVER_NAME'
p4229
asbag57
(g78
g59
NtRp4230
(dp4231
g62
(dp4232
g89
g90
ssg71
g4221
sg64
(lp4233
S':'
asbag57
(g78
g59
NtRp4234
(dp4235
g62
(dp4236
sg71
g4221
sg64
(lp4237
g57
(g58
g59
NtRp4238
(dp4239
g62
(dp4240
g70
I3
ssg71
g4234
sg64
(lp4241
g2787
asbasbasbag57
(g73
g59
NtRp4242
(dp4243
g62
(dp4244
sg71
g3902
sg64
(lp4245
g57
(g78
g59
NtRp4246
(dp4247
g62
(dp4248
g82
g83
ssg71
g4242
sg64
(lp4249
S'SERVER_PORT'
p4250
asbag57
(g78
g59
NtRp4251
(dp4252
g62
(dp4253
g89
g90
ssg71
g4242
sg64
(lp4254
S':'
asbag57
(g78
g59
NtRp4255
(dp4256
g62
(dp4257
sg71
g4242
sg64
(lp4258
g57
(g58
g59
NtRp4259
(dp4260
g62
(dp4261
g70
I3
ssg71
g4255
sg64
(lp4262
g2809
asbasbasbag57
(g73
g59
NtRp4263
(dp4264
g62
(dp4265
sg71
g3902
sg64
(lp4266
g57
(g78
g59
NtRp4267
(dp4268
g62
(dp4269
g82
g83
ssg71
g4263
sg64
(lp4270
S'SERVER_PROTOCOL'
p4271
asbag57
(g78
g59
NtRp4272
(dp4273
g62
(dp4274
g89
g90
ssg71
g4263
sg64
(lp4275
S':'
asbag57
(g78
g59
NtRp4276
(dp4277
g62
(dp4278
sg71
g4263
sg64
(lp4279
g57
(g58
g59
NtRp4280
(dp4281
g62
(dp4282
g70
I3
ssg71
g4276
sg64
(lp4283
g2831
asbasbasbag57
(g73
g59
NtRp4284
(dp4285
g62
(dp4286
sg71
g3902
sg64
(lp4287
g57
(g78
g59
NtRp4288
(dp4289
g62
(dp4290
g82
g83
ssg71
g4284
sg64
(lp4291
S'SERVER_SOFTWARE'
p4292
asbag57
(g78
g59
NtRp4293
(dp4294
g62
(dp4295
g89
g90
ssg71
g4284
sg64
(lp4296
S':'
asbag57
(g78
g59
NtRp4297
(dp4298
g62
(dp4299
sg71
g4284
sg64
(lp4300
g57
(g58
g59
NtRp4301
(dp4302
g62
(dp4303
g70
I3
ssg71
g4297
sg64
(lp4304
g2853
asbasbasbag57
(g73
g59
NtRp4305
(dp4306
g62
(dp4307
sg71
g3902
sg64
(lp4308
g57
(g78
g59
NtRp4309
(dp4310
g62
(dp4311
g82
g83
ssg71
g4305
sg64
(lp4312
S'WEB2PY_ORIGINAL_URI'
p4313
asbag57
(g78
g59
NtRp4314
(dp4315
g62
(dp4316
g89
g90
ssg71
g4305
sg64
(lp4317
S':'
asbag57
(g78
g59
NtRp4318
(dp4319
g62
(dp4320
sg71
g4305
sg64
(lp4321
g57
(g58
g59
NtRp4322
(dp4323
g62
(dp4324
g70
I3
ssg71
g4318
sg64
(lp4325
g2636
asbasbasbag57
(g73
g59
NtRp4326
(dp4327
g62
(dp4328
sg71
g3902
sg64
(lp4329
g57
(g78
g59
NtRp4330
(dp4331
g62
(dp4332
g82
g83
ssg71
g4326
sg64
(lp4333
S'wsgi.errors'
p4334
asbag57
(g78
g59
NtRp4335
(dp4336
g62
(dp4337
g89
g90
ssg71
g4326
sg64
(lp4338
S':'
asbag57
(g78
g59
NtRp4339
(dp4340
g62
(dp4341
sg71
g4326
sg64
(lp4342
g57
(g58
g59
NtRp4343
(dp4344
g62
(dp4345
g70
I3
ssg71
g4339
sg64
(lp4346
S"<open file '<stderr>', mode 'w' at 0x7fb4dd175270>"
p4347
asbasbasbag57
(g73
g59
NtRp4348
(dp4349
g62
(dp4350
sg71
g3902
sg64
(lp4351
g57
(g78
g59
NtRp4352
(dp4353
g62
(dp4354
g82
g83
ssg71
g4348
sg64
(lp4355
S'wsgi.file_wrapper'
p4356
asbag57
(g78
g59
NtRp4357
(dp4358
g62
(dp4359
g89
g90
ssg71
g4348
sg64
(lp4360
S':'
asbag57
(g78
g59
NtRp4361
(dp4362
g62
(dp4363
sg71
g4348
sg64
(lp4364
g57
(g58
g59
NtRp4365
(dp4366
g62
(dp4367
g70
I3
ssg71
g4361
sg64
(lp4368
S'<class wsgiref.util.FileWrapper at 0x37136d0>'
p4369
asbasbasbag57
(g73
g59
NtRp4370
(dp4371
g62
(dp4372
sg71
g3902
sg64
(lp4373
g57
(g78
g59
NtRp4374
(dp4375
g62
(dp4376
g82
g83
ssg71
g4370
sg64
(lp4377
S'wsgi.input'
p4378
asbag57
(g78
g59
NtRp4379
(dp4380
g62
(dp4381
g89
g90
ssg71
g4370
sg64
(lp4382
S':'
asbag57
(g78
g59
NtRp4383
(dp4384
g62
(dp4385
sg71
g4370
sg64
(lp4386
g57
(g58
g59
NtRp4387
(dp4388
g62
(dp4389
g70
I3
ssg71
g4383
sg64
(lp4390
S'<cStringIO.StringO object at 0x7fb4b015cb58>'
p4391
asbasbasbag57
(g73
g59
NtRp4392
(dp4393
g62
(dp4394
sg71
g3902
sg64
(lp4395
g57
(g78
g59
NtRp4396
(dp4397
g62
(dp4398
g82
g83
ssg71
g4392
sg64
(lp4399
S'wsgi.multiprocess'
p4400
asbag57
(g78
g59
NtRp4401
(dp4402
g62
(dp4403
g89
g90
ssg71
g4392
sg64
(lp4404
S':'
asbag57
(g78
g59
NtRp4405
(dp4406
g62
(dp4407
sg71
g4392
sg64
(lp4408
g57
(g58
g59
NtRp4409
(dp4410
g62
(dp4411
g70
I3
ssg71
g4405
sg64
(lp4412
g100
asbasbasbag57
(g73
g59
NtRp4413
(dp4414
g62
(dp4415
sg71
g3902
sg64
(lp4416
g57
(g78
g59
NtRp4417
(dp4418
g62
(dp4419
g82
g83
ssg71
g4413
sg64
(lp4420
S'wsgi.multithread'
p4421
asbag57
(g78
g59
NtRp4422
(dp4423
g62
(dp4424
g89
g90
ssg71
g4413
sg64
(lp4425
S':'
asbag57
(g78
g59
NtRp4426
(dp4427
g62
(dp4428
sg71
g4413
sg64
(lp4429
g57
(g58
g59
NtRp4430
(dp4431
g62
(dp4432
g70
I3
ssg71
g4426
sg64
(lp4433
g3091
asbasbasbag57
(g73
g59
NtRp4434
(dp4435
g62
(dp4436
sg71
g3902
sg64
(lp4437
g57
(g78
g59
NtRp4438
(dp4439
g62
(dp4440
g82
g83
ssg71
g4434
sg64
(lp4441
S'wsgi.run_once'
p4442
asbag57
(g78
g59
NtRp4443
(dp4444
g62
(dp4445
g89
g90
ssg71
g4434
sg64
(lp4446
S':'
asbag57
(g78
g59
NtRp4447
(dp4448
g62
(dp4449
sg71
g4434
sg64
(lp4450
g57
(g58
g59
NtRp4451
(dp4452
g62
(dp4453
g70
I3
ssg71
g4447
sg64
(lp4454
g100
asbasbasbag57
(g73
g59
NtRp4455
(dp4456
g62
(dp4457
sg71
g3902
sg64
(lp4458
g57
(g78
g59
NtRp4459
(dp4460
g62
(dp4461
g82
g83
ssg71
g4455
sg64
(lp4462
S'wsgi.url_scheme'
p4463
asbag57
(g78
g59
NtRp4464
(dp4465
g62
(dp4466
g89
g90
ssg71
g4455
sg64
(lp4467
S':'
asbag57
(g78
g59
NtRp4468
(dp4469
g62
(dp4470
sg71
g4455
sg64
(lp4471
g57
(g58
g59
NtRp4472
(dp4473
g62
(dp4474
g70
I3
ssg71
g4468
sg64
(lp4475
g3134
asbasbasbag57
(g73
g59
NtRp4476
(dp4477
g62
(dp4478
sg71
g3902
sg64
(lp4479
g57
(g78
g59
NtRp4480
(dp4481
g62
(dp4482
g82
g83
ssg71
g4476
sg64
(lp4483
S'wsgi.version'
p4484
asbag57
(g78
g59
NtRp4485
(dp4486
g62
(dp4487
g89
g90
ssg71
g4476
sg64
(lp4488
S':'
asbag57
(g78
g59
NtRp4489
(dp4490
g62
(dp4491
sg71
g4476
sg64
(lp4492
g57
(g58
g59
NtRp4493
(dp4494
g62
(dp4495
g70
I3
ssg71
g4489
sg64
(lp4496
S'1'
asbasbasbasbasbasbasbasbasbasbasbasbasbsS'frames'
p4497
(lp4498
(dp4499
S'file'
p4500
S'/var/www/web2py_curso/gluon/restricted.py'
p4501
sS'dump'
p4502
(dp4503
S'environment'
p4504
S"{'A': <class 'gluon.html.A'>, 'Auth': <class 'gluon.tools.Auth'>, 'B': <class 'gluon.html.B'>, 'BEAUTIFY': <class 'gluon.html.BEAUTIFY'>, 'BODY': <class 'gluon.html.BODY'>, 'BR': <class 'gluon.html.BR'>, 'BUTTON': <class 'gluon.html.BUTTON'>, 'Blog': <Table blog (id,title,description)>, 'CAT': <class 'gluon.html.CAT'>, 'CENTER': <class 'gluon.html.CENTER'>, ...}"
p4505
sS'ccode'
p4506
S'<code object <module> at 0x7fb4d0111430, file "/...ications/projeto/controllers/manager.py", line 1>'
p4507
ssS'lnum'
p4508
I212
sS'lines'
p4509
(dp4510
I207
S'    try:'
p4511
sI208
S'        if isinstance(code, types.CodeType):'
p4512
sI209
S'            ccode = code'
p4513
sI210
S'        else:'
p4514
sI211
S'            ccode = compile2(code, layer)'
p4515
sI212
S'        exec ccode in environment'
p4516
sI213
S'    except HTTP:'
p4517
sI214
S'        raise'
p4518
sI215
S'    except RestrictedError:'
p4519
sI216
S'        # do not encapsulate (obfuscate) the original RestrictedError'
p4520
ssS'call'
p4521
S"(code='@auth.requires_login()\\ndef category():\\n\\tform = S...=form)\\nresponse._vars=response._caller(usuarios)\\n', environment={'A': <class 'gluon.html.A'>, 'Auth': <class 'gluon.tools.Auth'>, 'B': <class 'gluon.html.B'>, 'BEAUTIFY': <class 'gluon.html.BEAUTIFY'>, 'BODY': <class 'gluon.html.BODY'>, 'BR': <class 'gluon.html.BR'>, 'BUTTON': <class 'gluon.html.BUTTON'>, 'Blog': <Table blog (id,title,description)>, 'CAT': <class 'gluon.html.CAT'>, 'CENTER': <class 'gluon.html.CENTER'>, ...}, layer='/var/www/web2py_curso/applications/projeto/controllers/manager.py')"
p4522
sS'func'
p4523
S'restricted'
p4524
sa(dp4525
g4500
S'/var/www/web2py_curso/applications/projeto/controllers/manager.py'
p4526
sg4502
(dp4527
sg4508
I31
sg4509
(dp4528
I21
S'\t\tresponse.flash = "erro"'
p4529
sI22
S'\telse:'
p4530
sI23
S'\t\tresponse.flash = "Preencha o form"'
p4531
sI24
S''
sI25
S'\treturn dict(form=form)'
p4532
sI26
S''
sI27
S'def usuarios():'
p4533
sI28
S'\tform = SQLFORM(bd.auth_user)'
p4534
sI29
S''
sI30
S'\treturn dict(form=form)'
p4535
ssg4521
S'()'
p4536
sg4523
S'<module>'
p4537
sa(dp4538
g4500
S'/var/www/web2py_curso/gluon/globals.py'
p4539
sg4502
(dp4540
S'self'
p4541
S'undefined'
p4542
sS'f'
S'<function usuarios>'
p4543
ssg4508
I193
sg4509
(dp4544
I192
S'        self._vars = None'
p4545
sI193
S'        self._caller = lambda f: f()'
p4546
sI194
S'        self._view_environment = None'
p4547
sI195
S'        self._custom_commit = None'
p4548
sI196
S'        self._custom_rollback = None'
p4549
sI197
S''
sI188
S'        self.menu = []             # used by the default view layout'
p4550
sI189
S'        self.files = []            # used by web2py_ajax.html'
p4551
sI190
S'        self.generic_patterns = []  # patterns to allow generic views'
p4552
sI191
S"        self.delimiters = ('{{', '}}')"
p4553
ssg4521
S'(f=<function usuarios>)'
p4554
sg4523
S'<lambda>'
p4555
sa(dp4556
g4500
S'/var/www/web2py_curso/applications/projeto/controllers/manager.py'
p4557
sg4502
(dp4558
S'bd'
p4559
g4542
sS'global SQLFORM'
p4560
S"<class 'gluon.sqlhtml.SQLFORM'>"
p4561
sS'form'
p4562
g4542
ssg4508
I28
sg4509
(dp4563
I21
S'\t\tresponse.flash = "erro"'
p4564
sI22
S'\telse:'
p4565
sI23
S'\t\tresponse.flash = "Preencha o form"'
p4566
sI24
S''
sI25
S'\treturn dict(form=form)'
p4567
sI26
S''
sI27
S'def usuarios():'
p4568
sI28
S'\tform = SQLFORM(bd.auth_user)'
p4569
sI29
S''
sI30
S'\treturn dict(form=form)'
p4570
ssg4521
S'()'
p4571
sg4523
S'usuarios'
p4572
sasS'pyver'
p4573
S'Python 2.7.3: /usr/bin/python'
p4574
sS'session'
p4575
g57
(g58
g59
NtRp4576
(dp4577
g62
(dp4578
sg64
(lp4579
g57
(g66
g59
NtRp4580
(dp4581
g62
(dp4582
g70
I5
ssg71
Nsg64
(lp4583
g57
(g73
g59
NtRp4584
(dp4585
g62
(dp4586
sg71
g4580
sg64
(lp4587
g57
(g78
g59
NtRp4588
(dp4589
g62
(dp4590
g82
g83
ssg71
g4584
sg64
(lp4591
S'auth'
p4592
asbag57
(g78
g59
NtRp4593
(dp4594
g62
(dp4595
g89
g90
ssg71
g4584
sg64
(lp4596
S':'
asbag57
(g78
g59
NtRp4597
(dp4598
g62
(dp4599
sg71
g4584
sg64
(lp4600
g57
(g58
g59
NtRp4601
(dp4602
g62
(dp4603
g70
I5
ssg71
g4597
sg64
(lp4604
g57
(g66
g59
NtRp4605
(dp4606
g62
(dp4607
g70
I4
ssg71
Nsg64
(lp4608
g57
(g73
g59
NtRp4609
(dp4610
g62
(dp4611
sg71
g4605
sg64
(lp4612
g57
(g78
g59
NtRp4613
(dp4614
g62
(dp4615
g82
g83
ssg71
g4609
sg64
(lp4616
S'expiration'
p4617
asbag57
(g78
g59
NtRp4618
(dp4619
g62
(dp4620
g89
g90
ssg71
g4609
sg64
(lp4621
S':'
asbag57
(g78
g59
NtRp4622
(dp4623
g62
(dp4624
sg71
g4609
sg64
(lp4625
g57
(g58
g59
NtRp4626
(dp4627
g62
(dp4628
g70
I4
ssg71
g4622
sg64
(lp4629
S'3600'
p4630
asbasbasbag57
(g73
g59
NtRp4631
(dp4632
g62
(dp4633
sg71
g4605
sg64
(lp4634
g57
(g78
g59
NtRp4635
(dp4636
g62
(dp4637
g82
g83
ssg71
g4631
sg64
(lp4638
S'hmac_key'
p4639
asbag57
(g78
g59
NtRp4640
(dp4641
g62
(dp4642
g89
g90
ssg71
g4631
sg64
(lp4643
S':'
asbag57
(g78
g59
NtRp4644
(dp4645
g62
(dp4646
sg71
g4631
sg64
(lp4647
g57
(g58
g59
NtRp4648
(dp4649
g62
(dp4650
g70
I4
ssg71
g4644
sg64
(lp4651
S'06d5f56b-88f9-4901-9c78-d174d90978a3'
p4652
asbasbasbag57
(g73
g59
NtRp4653
(dp4654
g62
(dp4655
sg71
g4605
sg64
(lp4656
g57
(g78
g59
NtRp4657
(dp4658
g62
(dp4659
g82
g83
ssg71
g4653
sg64
(lp4660
S'last_visit'
p4661
asbag57
(g78
g59
NtRp4662
(dp4663
g62
(dp4664
g89
g90
ssg71
g4653
sg64
(lp4665
S':'
asbag57
(g78
g59
NtRp4666
(dp4667
g62
(dp4668
sg71
g4653
sg64
(lp4669
g57
(g58
g59
NtRp4670
(dp4671
g62
(dp4672
g70
I4
ssg71
g4666
sg64
(lp4673
S'datetime.datetime(2013, 2, 4, 12, 6, 8, 289712)'
p4674
asbasbasbag57
(g73
g59
NtRp4675
(dp4676
g62
(dp4677
sg71
g4605
sg64
(lp4678
g57
(g78
g59
NtRp4679
(dp4680
g62
(dp4681
g82
g83
ssg71
g4675
sg64
(lp4682
S'remember'
p4683
asbag57
(g78
g59
NtRp4684
(dp4685
g62
(dp4686
g89
g90
ssg71
g4675
sg64
(lp4687
S':'
asbag57
(g78
g59
NtRp4688
(dp4689
g62
(dp4690
sg71
g4675
sg64
(lp4691
g57
(g58
g59
NtRp4692
(dp4693
g62
(dp4694
g70
I4
ssg71
g4688
sg64
(lp4695
g100
asbasbasbag57
(g73
g59
NtRp4696
(dp4697
g62
(dp4698
sg71
g4605
sg64
(lp4699
g57
(g78
g59
NtRp4700
(dp4701
g62
(dp4702
g82
g83
ssg71
g4696
sg64
(lp4703
S'user'
p4704
asbag57
(g78
g59
NtRp4705
(dp4706
g62
(dp4707
g89
g90
ssg71
g4696
sg64
(lp4708
S':'
asbag57
(g78
g59
NtRp4709
(dp4710
g62
(dp4711
sg71
g4696
sg64
(lp4712
g57
(g58
g59
NtRp4713
(dp4714
g62
(dp4715
g70
I4
ssg71
g4709
sg64
(lp4716
g57
(g66
g59
NtRp4717
(dp4718
g62
(dp4719
g70
I3
ssg71
Nsg64
(lp4720
g57
(g73
g59
NtRp4721
(dp4722
g62
(dp4723
sg71
g4717
sg64
(lp4724
g57
(g78
g59
NtRp4725
(dp4726
g62
(dp4727
g82
g83
ssg71
g4721
sg64
(lp4728
S'bio'
p4729
asbag57
(g78
g59
NtRp4730
(dp4731
g62
(dp4732
g89
g90
ssg71
g4721
sg64
(lp4733
S':'
asbag57
(g78
g59
NtRp4734
(dp4735
g62
(dp4736
sg71
g4721
sg64
(lp4737
g57
(g58
g59
NtRp4738
(dp4739
g62
(dp4740
g70
I3
ssg71
g4734
sg64
(lp4741
S'None'
p4742
asbasbasbag57
(g73
g59
NtRp4743
(dp4744
g62
(dp4745
sg71
g4717
sg64
(lp4746
g57
(g78
g59
NtRp4747
(dp4748
g62
(dp4749
g82
g83
ssg71
g4743
sg64
(lp4750
S'email'
p4751
asbag57
(g78
g59
NtRp4752
(dp4753
g62
(dp4754
g89
g90
ssg71
g4743
sg64
(lp4755
S':'
asbag57
(g78
g59
NtRp4756
(dp4757
g62
(dp4758
sg71
g4743
sg64
(lp4759
g57
(g58
g59
NtRp4760
(dp4761
g62
(dp4762
g70
I3
ssg71
g4756
sg64
(lp4763
S'fernando@ad2.com.br'
p4764
asbasbasbag57
(g73
g59
NtRp4765
(dp4766
g62
(dp4767
sg71
g4717
sg64
(lp4768
g57
(g78
g59
NtRp4769
(dp4770
g62
(dp4771
g82
g83
ssg71
g4765
sg64
(lp4772
S'first_name'
p4773
asbag57
(g78
g59
NtRp4774
(dp4775
g62
(dp4776
g89
g90
ssg71
g4765
sg64
(lp4777
S':'
asbag57
(g78
g59
NtRp4778
(dp4779
g62
(dp4780
sg71
g4765
sg64
(lp4781
g57
(g58
g59
NtRp4782
(dp4783
g62
(dp4784
g70
I3
ssg71
g4778
sg64
(lp4785
S'Dend'
p4786
asbasbasbag57
(g73
g59
NtRp4787
(dp4788
g62
(dp4789
sg71
g4717
sg64
(lp4790
g57
(g78
g59
NtRp4791
(dp4792
g62
(dp4793
g82
g83
ssg71
g4787
sg64
(lp4794
S'gender'
p4795
asbag57
(g78
g59
NtRp4796
(dp4797
g62
(dp4798
g89
g90
ssg71
g4787
sg64
(lp4799
S':'
asbag57
(g78
g59
NtRp4800
(dp4801
g62
(dp4802
sg71
g4787
sg64
(lp4803
g57
(g58
g59
NtRp4804
(dp4805
g62
(dp4806
g70
I3
ssg71
g4800
sg64
(lp4807
S'masculino'
p4808
asbasbasbag57
(g73
g59
NtRp4809
(dp4810
g62
(dp4811
sg71
g4717
sg64
(lp4812
g57
(g78
g59
NtRp4813
(dp4814
g62
(dp4815
g82
g83
ssg71
g4809
sg64
(lp4816
S'id'
p4817
asbag57
(g78
g59
NtRp4818
(dp4819
g62
(dp4820
g89
g90
ssg71
g4809
sg64
(lp4821
S':'
asbag57
(g78
g59
NtRp4822
(dp4823
g62
(dp4824
sg71
g4809
sg64
(lp4825
g57
(g58
g59
NtRp4826
(dp4827
g62
(dp4828
g70
I3
ssg71
g4822
sg64
(lp4829
S'5'
asbasbasbag57
(g73
g59
NtRp4830
(dp4831
g62
(dp4832
sg71
g4717
sg64
(lp4833
g57
(g78
g59
NtRp4834
(dp4835
g62
(dp4836
g82
g83
ssg71
g4830
sg64
(lp4837
S'last_name'
p4838
asbag57
(g78
g59
NtRp4839
(dp4840
g62
(dp4841
g89
g90
ssg71
g4830
sg64
(lp4842
S':'
asbag57
(g78
g59
NtRp4843
(dp4844
g62
(dp4845
sg71
g4830
sg64
(lp4846
g57
(g58
g59
NtRp4847
(dp4848
g62
(dp4849
g70
I3
ssg71
g4843
sg64
(lp4850
S'delkson'
p4851
asbasbasbag57
(g73
g59
NtRp4852
(dp4853
g62
(dp4854
sg71
g4717
sg64
(lp4855
g57
(g78
g59
NtRp4856
(dp4857
g62
(dp4858
g82
g83
ssg71
g4852
sg64
(lp4859
S'photo'
p4860
asbag57
(g78
g59
NtRp4861
(dp4862
g62
(dp4863
g89
g90
ssg71
g4852
sg64
(lp4864
S':'
asbag57
(g78
g59
NtRp4865
(dp4866
g62
(dp4867
sg71
g4852
sg64
(lp4868
g57
(g58
g59
NtRp4869
(dp4870
g62
(dp4871
g70
I3
ssg71
g4865
sg64
(lp4872
S'auth_user.photo.852c1e9d624a7670.746563686e6f6c6f676965735f7068702e706e67.png'
p4873
asbasbasbag57
(g73
g59
NtRp4874
(dp4875
g62
(dp4876
sg71
g4717
sg64
(lp4877
g57
(g78
g59
NtRp4878
(dp4879
g62
(dp4880
g82
g83
ssg71
g4874
sg64
(lp4881
S'registration_id'
p4882
asbag57
(g78
g59
NtRp4883
(dp4884
g62
(dp4885
g89
g90
ssg71
g4874
sg64
(lp4886
S':'
asbag57
(g78
g59
NtRp4887
(dp4888
g62
(dp4889
sg71
g4874
sg64
(lp4890
g57
(g58
g59
NtRp4891
(dp4892
g62
(dp4893
g70
I3
ssg71
g4887
sg64
(lp4894
S''
asbasbasbag57
(g73
g59
NtRp4895
(dp4896
g62
(dp4897
sg71
g4717
sg64
(lp4898
g57
(g78
g59
NtRp4899
(dp4900
g62
(dp4901
g82
g83
ssg71
g4895
sg64
(lp4902
S'registration_key'
p4903
asbag57
(g78
g59
NtRp4904
(dp4905
g62
(dp4906
g89
g90
ssg71
g4895
sg64
(lp4907
S':'
asbag57
(g78
g59
NtRp4908
(dp4909
g62
(dp4910
sg71
g4895
sg64
(lp4911
g57
(g58
g59
NtRp4912
(dp4913
g62
(dp4914
g70
I3
ssg71
g4908
sg64
(lp4915
S''
asbasbasbag57
(g73
g59
NtRp4916
(dp4917
g62
(dp4918
sg71
g4717
sg64
(lp4919
g57
(g78
g59
NtRp4920
(dp4921
g62
(dp4922
g82
g83
ssg71
g4916
sg64
(lp4923
S'reset_password_key'
p4924
asbag57
(g78
g59
NtRp4925
(dp4926
g62
(dp4927
g89
g90
ssg71
g4916
sg64
(lp4928
S':'
asbag57
(g78
g59
NtRp4929
(dp4930
g62
(dp4931
sg71
g4916
sg64
(lp4932
g57
(g58
g59
NtRp4933
(dp4934
g62
(dp4935
g70
I3
ssg71
g4929
sg64
(lp4936
S''
asbasbasbasbasbasbasbag57
(g73
g59
NtRp4937
(dp4938
g62
(dp4939
sg71
g4605
sg64
(lp4940
g57
(g78
g59
NtRp4941
(dp4942
g62
(dp4943
g82
g83
ssg71
g4937
sg64
(lp4944
S'user_groups'
p4945
asbag57
(g78
g59
NtRp4946
(dp4947
g62
(dp4948
g89
g90
ssg71
g4937
sg64
(lp4949
S':'
asbag57
(g78
g59
NtRp4950
(dp4951
g62
(dp4952
sg71
g4937
sg64
(lp4953
g57
(g58
g59
NtRp4954
(dp4955
g62
(dp4956
g70
I4
ssg71
g4950
sg64
(lp4957
g57
(g66
g59
NtRp4958
(dp4959
g62
(dp4960
g70
I3
ssg71
Nsg64
(lp4961
g57
(g73
g59
NtRp4962
(dp4963
g62
(dp4964
sg71
g4958
sg64
(lp4965
g57
(g78
g59
NtRp4966
(dp4967
g62
(dp4968
g82
g83
ssg71
g4962
sg64
(lp4969
S'5'
asbag57
(g78
g59
NtRp4970
(dp4971
g62
(dp4972
g89
g90
ssg71
g4962
sg64
(lp4973
S':'
asbag57
(g78
g59
NtRp4974
(dp4975
g62
(dp4976
sg71
g4962
sg64
(lp4977
g57
(g58
g59
NtRp4978
(dp4979
g62
(dp4980
g70
I3
ssg71
g4974
sg64
(lp4981
S'user_5'
p4982
asbasbasbag57
(g73
g59
NtRp4983
(dp4984
g62
(dp4985
sg71
g4958
sg64
(lp4986
g57
(g78
g59
NtRp4987
(dp4988
g62
(dp4989
g82
g83
ssg71
g4983
sg64
(lp4990
S'7'
asbag57
(g78
g59
NtRp4991
(dp4992
g62
(dp4993
g89
g90
ssg71
g4983
sg64
(lp4994
S':'
asbag57
(g78
g59
NtRp4995
(dp4996
g62
(dp4997
sg71
g4983
sg64
(lp4998
g57
(g58
g59
NtRp4999
(dp5000
g62
(dp5001
g70
I3
ssg71
g4995
sg64
(lp5002
S'admin'
p5003
asbasbasbasbasbasbasbasbasbasbasbag57
(g73
g59
NtRp5004
(dp5005
g62
(dp5006
sg71
g4580
sg64
(lp5007
g57
(g78
g59
NtRp5008
(dp5009
g62
(dp5010
g82
g83
ssg71
g5004
sg64
(lp5011
S'flash'
p5012
asbag57
(g78
g59
NtRp5013
(dp5014
g62
(dp5015
g89
g90
ssg71
g5004
sg64
(lp5016
S':'
asbag57
(g78
g59
NtRp5017
(dp5018
g62
(dp5019
sg71
g5004
sg64
(lp5020
g57
(g58
g59
NtRp5021
(dp5022
g62
(dp5023
g70
I5
ssg71
g5017
sg64
(lp5024
S'None'
p5025
asbasbasbag57
(g73
g59
NtRp5026
(dp5027
g62
(dp5028
sg71
g4580
sg64
(lp5029
g57
(g78
g59
NtRp5030
(dp5031
g62
(dp5032
g82
g83
ssg71
g5026
sg64
(lp5033
S'last_orderby'
p5034
asbag57
(g78
g59
NtRp5035
(dp5036
g62
(dp5037
g89
g90
ssg71
g5026
sg64
(lp5038
S':'
asbag57
(g78
g59
NtRp5039
(dp5040
g62
(dp5041
sg71
g5026
sg64
(lp5042
g57
(g58
g59
NtRp5043
(dp5044
g62
(dp5045
g70
I5
ssg71
g5039
sg64
(lp5046
S'None'
p5047
asbasbasbag57
(g73
g59
NtRp5048
(dp5049
g62
(dp5050
sg71
g4580
sg64
(lp5051
g57
(g78
g59
NtRp5052
(dp5053
g62
(dp5054
g82
g83
ssg71
g5048
sg64
(lp5055
S'last_query'
p5056
asbag57
(g78
g59
NtRp5057
(dp5058
g62
(dp5059
g89
g90
ssg71
g5048
sg64
(lp5060
S':'
asbag57
(g78
g59
NtRp5061
(dp5062
g62
(dp5063
sg71
g5048
sg64
(lp5064
g57
(g58
g59
NtRp5065
(dp5066
g62
(dp5067
g70
I5
ssg71
g5061
sg64
(lp5068
S'db.post.id>0'
p5069
asbasbasbasbasbsS'etype'
p5070
S"<type 'exceptions.NameError'>"
p5071
sS'date'
p5072
S'Mon Feb  4 12:06:08 2013'
p5073
sS'response'
p5074
g57
(g58
g59
NtRp5075
(dp5076
g62
(dp5077
sg64
(lp5078
g57
(g66
g59
NtRp5079
(dp5080
g62
(dp5081
g70
I5
ssg71
Nsg64
(lp5082
g57
(g73
g59
NtRp5083
(dp5084
g62
(dp5085
sg71
g5079
sg64
(lp5086
g57
(g78
g59
NtRp5087
(dp5088
g62
(dp5089
g82
g83
ssg71
g5083
sg64
(lp5090
g155
asbag57
(g78
g59
NtRp5091
(dp5092
g62
(dp5093
g89
g90
ssg71
g5083
sg64
(lp5094
S':'
asbag57
(g78
g59
NtRp5095
(dp5096
g62
(dp5097
sg71
g5083
sg64
(lp5098
g57
(g58
g59
NtRp5099
(dp5100
g62
(dp5101
g70
I5
ssg71
g5095
sg64
(lp5102
S'<cStringIO.StringO object at 0x336c7d8>'
p5103
asbasbasbag57
(g73
g59
NtRp5104
(dp5105
g62
(dp5106
sg71
g5079
sg64
(lp5107
g57
(g78
g59
NtRp5108
(dp5109
g62
(dp5110
g82
g83
ssg71
g5104
sg64
(lp5111
g243
asbag57
(g78
g59
NtRp5112
(dp5113
g62
(dp5114
g89
g90
ssg71
g5104
sg64
(lp5115
S':'
asbag57
(g78
g59
NtRp5116
(dp5117
g62
(dp5118
sg71
g5104
sg64
(lp5119
g57
(g58
g59
NtRp5120
(dp5121
g62
(dp5122
g70
I5
ssg71
g5116
sg64
(lp5123
g57
(g66
g59
NtRp5124
(dp5125
g62
(dp5126
g70
I4
ssg71
Nsg64
(lp5127
g57
(g73
g59
NtRp5128
(dp5129
g62
(dp5130
sg71
g5124
sg64
(lp5131
g57
(g78
g59
NtRp5132
(dp5133
g62
(dp5134
g82
g83
ssg71
g5128
sg64
(lp5135
S'session_id_projeto'
p5136
asbag57
(g78
g59
NtRp5137
(dp5138
g62
(dp5139
g89
g90
ssg71
g5128
sg64
(lp5140
S':'
asbag57
(g78
g59
NtRp5141
(dp5142
g62
(dp5143
sg71
g5128
sg64
(lp5144
g57
(g58
g59
NtRp5145
(dp5146
g62
(dp5147
g70
I4
ssg71
g5141
sg64
(lp5148
g1775
ag57
(g66
g59
NtRp5149
(dp5150
g62
(dp5151
g70
I3
ssg71
Nsg64
(lp5152
g57
(g73
g59
NtRp5153
(dp5154
g62
(dp5155
sg71
g5149
sg64
(lp5156
g57
(g78
g59
NtRp5157
(dp5158
g62
(dp5159
g82
g83
ssg71
g5153
sg64
(lp5160
g294
asbag57
(g78
g59
NtRp5161
(dp5162
g62
(dp5163
g89
g90
ssg71
g5153
sg64
(lp5164
S':'
asbag57
(g78
g59
NtRp5165
(dp5166
g62
(dp5167
sg71
g5153
sg64
(lp5168
g57
(g58
g59
NtRp5169
(dp5170
g62
(dp5171
g70
I3
ssg71
g5165
sg64
(lp5172
S''
asbasbasbag57
(g73
g59
NtRp5173
(dp5174
g62
(dp5175
sg71
g5149
sg64
(lp5176
g57
(g78
g59
NtRp5177
(dp5178
g62
(dp5179
g82
g83
ssg71
g5173
sg64
(lp5180
g315
asbag57
(g78
g59
NtRp5181
(dp5182
g62
(dp5183
g89
g90
ssg71
g5173
sg64
(lp5184
S':'
asbag57
(g78
g59
NtRp5185
(dp5186
g62
(dp5187
sg71
g5173
sg64
(lp5188
g57
(g58
g59
NtRp5189
(dp5190
g62
(dp5191
g70
I3
ssg71
g5185
sg64
(lp5192
S''
asbasbasbag57
(g73
g59
NtRp5193
(dp5194
g62
(dp5195
sg71
g5149
sg64
(lp5196
g57
(g78
g59
NtRp5197
(dp5198
g62
(dp5199
g82
g83
ssg71
g5193
sg64
(lp5200
g336
asbag57
(g78
g59
NtRp5201
(dp5202
g62
(dp5203
g89
g90
ssg71
g5193
sg64
(lp5204
S':'
asbag57
(g78
g59
NtRp5205
(dp5206
g62
(dp5207
sg71
g5193
sg64
(lp5208
g57
(g58
g59
NtRp5209
(dp5210
g62
(dp5211
g70
I3
ssg71
g5205
sg64
(lp5212
S''
asbasbasbag57
(g73
g59
NtRp5213
(dp5214
g62
(dp5215
sg71
g5149
sg64
(lp5216
g57
(g78
g59
NtRp5217
(dp5218
g62
(dp5219
g82
g83
ssg71
g5213
sg64
(lp5220
g357
asbag57
(g78
g59
NtRp5221
(dp5222
g62
(dp5223
g89
g90
ssg71
g5213
sg64
(lp5224
S':'
asbag57
(g78
g59
NtRp5225
(dp5226
g62
(dp5227
sg71
g5213
sg64
(lp5228
g57
(g58
g59
NtRp5229
(dp5230
g62
(dp5231
g70
I3
ssg71
g5225
sg64
(lp5232
S''
asbasbasbag57
(g73
g59
NtRp5233
(dp5234
g62
(dp5235
sg71
g5149
sg64
(lp5236
g57
(g78
g59
NtRp5237
(dp5238
g62
(dp5239
g82
g83
ssg71
g5233
sg64
(lp5240
g378
asbag57
(g78
g59
NtRp5241
(dp5242
g62
(dp5243
g89
g90
ssg71
g5233
sg64
(lp5244
S':'
asbag57
(g78
g59
NtRp5245
(dp5246
g62
(dp5247
sg71
g5233
sg64
(lp5248
g57
(g58
g59
NtRp5249
(dp5250
g62
(dp5251
g70
I3
ssg71
g5245
sg64
(lp5252
S''
asbasbasbag57
(g73
g59
NtRp5253
(dp5254
g62
(dp5255
sg71
g5149
sg64
(lp5256
g57
(g78
g59
NtRp5257
(dp5258
g62
(dp5259
g82
g83
ssg71
g5253
sg64
(lp5260
g399
asbag57
(g78
g59
NtRp5261
(dp5262
g62
(dp5263
g89
g90
ssg71
g5253
sg64
(lp5264
S':'
asbag57
(g78
g59
NtRp5265
(dp5266
g62
(dp5267
sg71
g5253
sg64
(lp5268
g57
(g58
g59
NtRp5269
(dp5270
g62
(dp5271
g70
I3
ssg71
g5265
sg64
(lp5272
S'/'
asbasbasbag57
(g73
g59
NtRp5273
(dp5274
g62
(dp5275
sg71
g5149
sg64
(lp5276
g57
(g78
g59
NtRp5277
(dp5278
g62
(dp5279
g82
g83
ssg71
g5273
sg64
(lp5280
g420
asbag57
(g78
g59
NtRp5281
(dp5282
g62
(dp5283
g89
g90
ssg71
g5273
sg64
(lp5284
S':'
asbag57
(g78
g59
NtRp5285
(dp5286
g62
(dp5287
sg71
g5273
sg64
(lp5288
g57
(g58
g59
NtRp5289
(dp5290
g62
(dp5291
g70
I3
ssg71
g5285
sg64
(lp5292
S''
asbasbasbag57
(g73
g59
NtRp5293
(dp5294
g62
(dp5295
sg71
g5149
sg64
(lp5296
g57
(g78
g59
NtRp5297
(dp5298
g62
(dp5299
g82
g83
ssg71
g5293
sg64
(lp5300
g441
asbag57
(g78
g59
NtRp5301
(dp5302
g62
(dp5303
g89
g90
ssg71
g5293
sg64
(lp5304
S':'
asbag57
(g78
g59
NtRp5305
(dp5306
g62
(dp5307
sg71
g5293
sg64
(lp5308
g57
(g58
g59
NtRp5309
(dp5310
g62
(dp5311
g70
I3
ssg71
g5305
sg64
(lp5312
S''
asbasbasbasbasbasbasbasbasbasbasbag57
(g73
g59
NtRp5313
(dp5314
g62
(dp5315
sg71
g5079
sg64
(lp5316
g57
(g78
g59
NtRp5317
(dp5318
g62
(dp5319
g82
g83
ssg71
g5313
sg64
(lp5320
S'delimiters'
p5321
asbag57
(g78
g59
NtRp5322
(dp5323
g62
(dp5324
g89
g90
ssg71
g5313
sg64
(lp5325
S':'
asbag57
(g78
g59
NtRp5326
(dp5327
g62
(dp5328
sg71
g5313
sg64
(lp5329
g57
(g58
g59
NtRp5330
(dp5331
g62
(dp5332
g70
I5
ssg71
g5326
sg64
(lp5333
g57
(g66
g59
NtRp5334
(dp5335
g62
(dp5336
g70
I4
ssg71
Nsg64
(lp5337
g57
(g73
g59
NtRp5338
(dp5339
g62
(dp5340
sg71
g5334
sg64
(lp5341
g57
(g78
g59
NtRp5342
(dp5343
g62
(dp5344
sg71
g5338
sg64
(lp5345
g57
(g58
g59
NtRp5346
(dp5347
g62
(dp5348
g70
I4
ssg71
g5342
sg64
(lp5349
S'{{'
p5350
asbasbasbag57
(g73
g59
NtRp5351
(dp5352
g62
(dp5353
sg71
g5334
sg64
(lp5354
g57
(g78
g59
NtRp5355
(dp5356
g62
(dp5357
sg71
g5351
sg64
(lp5358
g57
(g58
g59
NtRp5359
(dp5360
g62
(dp5361
g70
I4
ssg71
g5355
sg64
(lp5362
S'}}'
p5363
asbasbasbasbasbasbasbag57
(g73
g59
NtRp5364
(dp5365
g62
(dp5366
sg71
g5079
sg64
(lp5367
g57
(g78
g59
NtRp5368
(dp5369
g62
(dp5370
g82
g83
ssg71
g5364
sg64
(lp5371
S'files'
p5372
asbag57
(g78
g59
NtRp5373
(dp5374
g62
(dp5375
g89
g90
ssg71
g5364
sg64
(lp5376
S':'
asbag57
(g78
g59
NtRp5377
(dp5378
g62
(dp5379
sg71
g5364
sg64
(lp5380
g57
(g58
g59
NtRp5381
(dp5382
g62
(dp5383
g70
I5
ssg71
g5377
sg64
(lp5384
g57
(g66
g59
NtRp5385
(dp5386
g62
(dp5387
g70
I4
ssg71
Nsg64
(lp5388
sbasbasbasbag57
(g73
g59
NtRp5389
(dp5390
g62
(dp5391
sg71
g5079
sg64
(lp5392
g57
(g78
g59
NtRp5393
(dp5394
g62
(dp5395
g82
g83
ssg71
g5389
sg64
(lp5396
S'flash'
p5397
asbag57
(g78
g59
NtRp5398
(dp5399
g62
(dp5400
g89
g90
ssg71
g5389
sg64
(lp5401
S':'
asbag57
(g78
g59
NtRp5402
(dp5403
g62
(dp5404
sg71
g5389
sg64
(lp5405
g57
(g58
g59
NtRp5406
(dp5407
g62
(dp5408
g70
I5
ssg71
g5402
sg64
(lp5409
S''
asbasbasbag57
(g73
g59
NtRp5410
(dp5411
g62
(dp5412
sg71
g5079
sg64
(lp5413
g57
(g78
g59
NtRp5414
(dp5415
g62
(dp5416
g82
g83
ssg71
g5410
sg64
(lp5417
S'generic_patterns'
p5418
asbag57
(g78
g59
NtRp5419
(dp5420
g62
(dp5421
g89
g90
ssg71
g5410
sg64
(lp5422
S':'
asbag57
(g78
g59
NtRp5423
(dp5424
g62
(dp5425
sg71
g5410
sg64
(lp5426
g57
(g58
g59
NtRp5427
(dp5428
g62
(dp5429
g70
I5
ssg71
g5423
sg64
(lp5430
g57
(g66
g59
NtRp5431
(dp5432
g62
(dp5433
g70
I4
ssg71
Nsg64
(lp5434
g57
(g73
g59
NtRp5435
(dp5436
g62
(dp5437
sg71
g5431
sg64
(lp5438
g57
(g78
g59
NtRp5439
(dp5440
g62
(dp5441
sg71
g5435
sg64
(lp5442
g57
(g58
g59
NtRp5443
(dp5444
g62
(dp5445
g70
I4
ssg71
g5439
sg64
(lp5446
S'*'
asbasbasbasbasbasbasbag57
(g73
g59
NtRp5447
(dp5448
g62
(dp5449
sg71
g5079
sg64
(lp5450
g57
(g78
g59
NtRp5451
(dp5452
g62
(dp5453
g82
g83
ssg71
g5447
sg64
(lp5454
S'headers'
p5455
asbag57
(g78
g59
NtRp5456
(dp5457
g62
(dp5458
g89
g90
ssg71
g5447
sg64
(lp5459
S':'
asbag57
(g78
g59
NtRp5460
(dp5461
g62
(dp5462
sg71
g5447
sg64
(lp5463
g57
(g58
g59
NtRp5464
(dp5465
g62
(dp5466
g70
I5
ssg71
g5460
sg64
(lp5467
g57
(g66
g59
NtRp5468
(dp5469
g62
(dp5470
g70
I4
ssg71
Nsg64
(lp5471
g57
(g73
g59
NtRp5472
(dp5473
g62
(dp5474
sg71
g5468
sg64
(lp5475
g57
(g78
g59
NtRp5476
(dp5477
g62
(dp5478
g82
g83
ssg71
g5472
sg64
(lp5479
S'X-Powered-By'
p5480
asbag57
(g78
g59
NtRp5481
(dp5482
g62
(dp5483
g89
g90
ssg71
g5472
sg64
(lp5484
S':'
asbag57
(g78
g59
NtRp5485
(dp5486
g62
(dp5487
sg71
g5472
sg64
(lp5488
g57
(g58
g59
NtRp5489
(dp5490
g62
(dp5491
g70
I4
ssg71
g5485
sg64
(lp5492
S'web2py'
p5493
asbasbasbasbasbasbasbag57
(g73
g59
NtRp5494
(dp5495
g62
(dp5496
sg71
g5079
sg64
(lp5497
g57
(g78
g59
NtRp5498
(dp5499
g62
(dp5500
g82
g83
ssg71
g5494
sg64
(lp5501
S'menu'
p5502
asbag57
(g78
g59
NtRp5503
(dp5504
g62
(dp5505
g89
g90
ssg71
g5494
sg64
(lp5506
S':'
asbag57
(g78
g59
NtRp5507
(dp5508
g62
(dp5509
sg71
g5494
sg64
(lp5510
g57
(g58
g59
NtRp5511
(dp5512
g62
(dp5513
g70
I5
ssg71
g5507
sg64
(lp5514
g57
(g66
g59
NtRp5515
(dp5516
g62
(dp5517
g70
I4
ssg71
Nsg64
(lp5518
sbasbasbasbag57
(g73
g59
NtRp5519
(dp5520
g62
(dp5521
sg71
g5079
sg64
(lp5522
g57
(g78
g59
NtRp5523
(dp5524
g62
(dp5525
g82
g83
ssg71
g5519
sg64
(lp5526
S'meta'
p5527
asbag57
(g78
g59
NtRp5528
(dp5529
g62
(dp5530
g89
g90
ssg71
g5519
sg64
(lp5531
S':'
asbag57
(g78
g59
NtRp5532
(dp5533
g62
(dp5534
sg71
g5519
sg64
(lp5535
g57
(g58
g59
NtRp5536
(dp5537
g62
(dp5538
g70
I5
ssg71
g5532
sg64
(lp5539
g57
(g66
g59
NtRp5540
(dp5541
g62
(dp5542
g70
I4
ssg71
Nsg64
(lp5543
g57
(g73
g59
NtRp5544
(dp5545
g62
(dp5546
sg71
g5540
sg64
(lp5547
g57
(g78
g59
NtRp5548
(dp5549
g62
(dp5550
g82
g83
ssg71
g5544
sg64
(lp5551
S'description'
p5552
asbag57
(g78
g59
NtRp5553
(dp5554
g62
(dp5555
g89
g90
ssg71
g5544
sg64
(lp5556
S':'
asbag57
(g78
g59
NtRp5557
(dp5558
g62
(dp5559
sg71
g5544
sg64
(lp5560
g57
(g58
g59
NtRp5561
(dp5562
g62
(dp5563
g70
I4
ssg71
g5557
sg64
(lp5564
S'blog do shedon'
p5565
asbasbasbag57
(g73
g59
NtRp5566
(dp5567
g62
(dp5568
sg71
g5540
sg64
(lp5569
g57
(g78
g59
NtRp5570
(dp5571
g62
(dp5572
g82
g83
ssg71
g5566
sg64
(lp5573
S'keywords'
p5574
asbag57
(g78
g59
NtRp5575
(dp5576
g62
(dp5577
g89
g90
ssg71
g5566
sg64
(lp5578
S':'
asbag57
(g78
g59
NtRp5579
(dp5580
g62
(dp5581
sg71
g5566
sg64
(lp5582
g57
(g58
g59
NtRp5583
(dp5584
g62
(dp5585
g70
I4
ssg71
g5579
sg64
(lp5586
S'chave, outra, e utra'
p5587
asbasbasbasbasbasbasbag57
(g73
g59
NtRp5588
(dp5589
g62
(dp5590
sg71
g5079
sg64
(lp5591
g57
(g78
g59
NtRp5592
(dp5593
g62
(dp5594
g82
g83
ssg71
g5588
sg64
(lp5595
S'models_to_run'
p5596
asbag57
(g78
g59
NtRp5597
(dp5598
g62
(dp5599
g89
g90
ssg71
g5588
sg64
(lp5600
S':'
asbag57
(g78
g59
NtRp5601
(dp5602
g62
(dp5603
sg71
g5588
sg64
(lp5604
g57
(g58
g59
NtRp5605
(dp5606
g62
(dp5607
g70
I5
ssg71
g5601
sg64
(lp5608
g57
(g66
g59
NtRp5609
(dp5610
g62
(dp5611
g70
I4
ssg71
Nsg64
(lp5612
g57
(g73
g59
NtRp5613
(dp5614
g62
(dp5615
sg71
g5609
sg64
(lp5616
g57
(g78
g59
NtRp5617
(dp5618
g62
(dp5619
sg71
g5613
sg64
(lp5620
g57
(g58
g59
NtRp5621
(dp5622
g62
(dp5623
g70
I4
ssg71
g5617
sg64
(lp5624
S'^\\w+\\.py$'
p5625
asbasbasbag57
(g73
g59
NtRp5626
(dp5627
g62
(dp5628
sg71
g5609
sg64
(lp5629
g57
(g78
g59
NtRp5630
(dp5631
g62
(dp5632
sg71
g5626
sg64
(lp5633
g57
(g58
g59
NtRp5634
(dp5635
g62
(dp5636
g70
I4
ssg71
g5630
sg64
(lp5637
S'^manager/\\w+\\.py$'
p5638
asbasbasbag57
(g73
g59
NtRp5639
(dp5640
g62
(dp5641
sg71
g5609
sg64
(lp5642
g57
(g78
g59
NtRp5643
(dp5644
g62
(dp5645
sg71
g5639
sg64
(lp5646
g57
(g58
g59
NtRp5647
(dp5648
g62
(dp5649
g70
I4
ssg71
g5643
sg64
(lp5650
S'^manager/usuarios/\\w+\\.py$'
p5651
asbasbasbasbasbasbasbag57
(g73
g59
NtRp5652
(dp5653
g62
(dp5654
sg71
g5079
sg64
(lp5655
g57
(g78
g59
NtRp5656
(dp5657
g62
(dp5658
g82
g83
ssg71
g5652
sg64
(lp5659
S'postprocessing'
p5660
asbag57
(g78
g59
NtRp5661
(dp5662
g62
(dp5663
g89
g90
ssg71
g5652
sg64
(lp5664
S':'
asbag57
(g78
g59
NtRp5665
(dp5666
g62
(dp5667
sg71
g5652
sg64
(lp5668
g57
(g58
g59
NtRp5669
(dp5670
g62
(dp5671
g70
I5
ssg71
g5665
sg64
(lp5672
g57
(g66
g59
NtRp5673
(dp5674
g62
(dp5675
g70
I4
ssg71
Nsg64
(lp5676
sbasbasbasbag57
(g73
g59
NtRp5677
(dp5678
g62
(dp5679
sg71
g5079
sg64
(lp5680
g57
(g78
g59
NtRp5681
(dp5682
g62
(dp5683
g82
g83
ssg71
g5677
sg64
(lp5684
S'session_cookie_expires'
p5685
asbag57
(g78
g59
NtRp5686
(dp5687
g62
(dp5688
g89
g90
ssg71
g5677
sg64
(lp5689
S':'
asbag57
(g78
g59
NtRp5690
(dp5691
g62
(dp5692
sg71
g5677
sg64
(lp5693
g57
(g58
g59
NtRp5694
(dp5695
g62
(dp5696
g70
I5
ssg71
g5690
sg64
(lp5697
S'None'
p5698
asbasbasbag57
(g73
g59
NtRp5699
(dp5700
g62
(dp5701
sg71
g5079
sg64
(lp5702
g57
(g78
g59
NtRp5703
(dp5704
g62
(dp5705
g82
g83
ssg71
g5699
sg64
(lp5706
S'session_data_name'
p5707
asbag57
(g78
g59
NtRp5708
(dp5709
g62
(dp5710
g89
g90
ssg71
g5699
sg64
(lp5711
S':'
asbag57
(g78
g59
NtRp5712
(dp5713
g62
(dp5714
sg71
g5699
sg64
(lp5715
g57
(g58
g59
NtRp5716
(dp5717
g62
(dp5718
g70
I5
ssg71
g5712
sg64
(lp5719
S'session_data_projeto'
p5720
asbasbasbag57
(g73
g59
NtRp5721
(dp5722
g62
(dp5723
sg71
g5079
sg64
(lp5724
g57
(g78
g59
NtRp5725
(dp5726
g62
(dp5727
g82
g83
ssg71
g5721
sg64
(lp5728
S'session_file'
p5729
asbag57
(g78
g59
NtRp5730
(dp5731
g62
(dp5732
g89
g90
ssg71
g5721
sg64
(lp5733
S':'
asbag57
(g78
g59
NtRp5734
(dp5735
g62
(dp5736
sg71
g5721
sg64
(lp5737
g57
(g58
g59
NtRp5738
(dp5739
g62
(dp5740
g70
I5
ssg71
g5734
sg64
(lp5741
S"<open file '/var/www/web2py_curso/applications/projeto/sessions/127.0.0.1-b8c6a9b4-3ce7-4a48-b40d-12b6c8d18d0a', mode 'rb+' at 0x7fb4b06a1a50>"
p5742
asbasbasbag57
(g73
g59
NtRp5743
(dp5744
g62
(dp5745
sg71
g5079
sg64
(lp5746
g57
(g78
g59
NtRp5747
(dp5748
g62
(dp5749
g82
g83
ssg71
g5743
sg64
(lp5750
S'session_filename'
p5751
asbag57
(g78
g59
NtRp5752
(dp5753
g62
(dp5754
g89
g90
ssg71
g5743
sg64
(lp5755
S':'
asbag57
(g78
g59
NtRp5756
(dp5757
g62
(dp5758
sg71
g5743
sg64
(lp5759
g57
(g58
g59
NtRp5760
(dp5761
g62
(dp5762
g70
I5
ssg71
g5756
sg64
(lp5763
S'/var/www/web2py_curso/applications/projeto/sessions/127.0.0.1-b8c6a9b4-3ce7-4a48-b40d-12b6c8d18d0a'
p5764
asbasbasbag57
(g73
g59
NtRp5765
(dp5766
g62
(dp5767
sg71
g5079
sg64
(lp5768
g57
(g78
g59
NtRp5769
(dp5770
g62
(dp5771
g82
g83
ssg71
g5765
sg64
(lp5772
S'session_id'
p5773
asbag57
(g78
g59
NtRp5774
(dp5775
g62
(dp5776
g89
g90
ssg71
g5765
sg64
(lp5777
S':'
asbag57
(g78
g59
NtRp5778
(dp5779
g62
(dp5780
sg71
g5765
sg64
(lp5781
g57
(g58
g59
NtRp5782
(dp5783
g62
(dp5784
g70
I5
ssg71
g5778
sg64
(lp5785
g1775
asbasbasbag57
(g73
g59
NtRp5786
(dp5787
g62
(dp5788
sg71
g5079
sg64
(lp5789
g57
(g78
g59
NtRp5790
(dp5791
g62
(dp5792
g82
g83
ssg71
g5786
sg64
(lp5793
S'session_id_name'
p5794
asbag57
(g78
g59
NtRp5795
(dp5796
g62
(dp5797
g89
g90
ssg71
g5786
sg64
(lp5798
S':'
asbag57
(g78
g59
NtRp5799
(dp5800
g62
(dp5801
sg71
g5786
sg64
(lp5802
g57
(g58
g59
NtRp5803
(dp5804
g62
(dp5805
g70
I5
ssg71
g5799
sg64
(lp5806
g5136
asbasbasbag57
(g73
g59
NtRp5807
(dp5808
g62
(dp5809
sg71
g5079
sg64
(lp5810
g57
(g78
g59
NtRp5811
(dp5812
g62
(dp5813
g82
g83
ssg71
g5807
sg64
(lp5814
S'session_locked'
p5815
asbag57
(g78
g59
NtRp5816
(dp5817
g62
(dp5818
g89
g90
ssg71
g5807
sg64
(lp5819
S':'
asbag57
(g78
g59
NtRp5820
(dp5821
g62
(dp5822
sg71
g5807
sg64
(lp5823
g57
(g58
g59
NtRp5824
(dp5825
g62
(dp5826
g70
I5
ssg71
g5820
sg64
(lp5827
g3091
asbasbasbag57
(g73
g59
NtRp5828
(dp5829
g62
(dp5830
sg71
g5079
sg64
(lp5831
g57
(g78
g59
NtRp5832
(dp5833
g62
(dp5834
g82
g83
ssg71
g5828
sg64
(lp5835
S'session_new'
p5836
asbag57
(g78
g59
NtRp5837
(dp5838
g62
(dp5839
g89
g90
ssg71
g5828
sg64
(lp5840
S':'
asbag57
(g78
g59
NtRp5841
(dp5842
g62
(dp5843
sg71
g5828
sg64
(lp5844
g57
(g58
g59
NtRp5845
(dp5846
g62
(dp5847
g70
I5
ssg71
g5841
sg64
(lp5848
g100
asbasbasbag57
(g73
g59
NtRp5849
(dp5850
g62
(dp5851
sg71
g5079
sg64
(lp5852
g57
(g78
g59
NtRp5853
(dp5854
g62
(dp5855
g82
g83
ssg71
g5849
sg64
(lp5856
S'session_storage_type'
p5857
asbag57
(g78
g59
NtRp5858
(dp5859
g62
(dp5860
g89
g90
ssg71
g5849
sg64
(lp5861
S':'
asbag57
(g78
g59
NtRp5862
(dp5863
g62
(dp5864
sg71
g5849
sg64
(lp5865
g57
(g58
g59
NtRp5866
(dp5867
g62
(dp5868
g70
I5
ssg71
g5862
sg64
(lp5869
g4500
asbasbasbag57
(g73
g59
NtRp5870
(dp5871
g62
(dp5872
sg71
g5079
sg64
(lp5873
g57
(g78
g59
NtRp5874
(dp5875
g62
(dp5876
g82
g83
ssg71
g5870
sg64
(lp5877
S'status'
p5878
asbag57
(g78
g59
NtRp5879
(dp5880
g62
(dp5881
g89
g90
ssg71
g5870
sg64
(lp5882
S':'
asbag57
(g78
g59
NtRp5883
(dp5884
g62
(dp5885
sg71
g5870
sg64
(lp5886
g57
(g58
g59
NtRp5887
(dp5888
g62
(dp5889
g70
I5
ssg71
g5883
sg64
(lp5890
S'200'
p5891
asbasbasbag57
(g73
g59
NtRp5892
(dp5893
g62
(dp5894
sg71
g5079
sg64
(lp5895
g57
(g78
g59
NtRp5896
(dp5897
g62
(dp5898
g82
g83
ssg71
g5892
sg64
(lp5899
S'subtitle'
p5900
asbag57
(g78
g59
NtRp5901
(dp5902
g62
(dp5903
g89
g90
ssg71
g5892
sg64
(lp5904
S':'
asbag57
(g78
g59
NtRp5905
(dp5906
g62
(dp5907
sg71
g5892
sg64
(lp5908
g57
(g58
g59
NtRp5909
(dp5910
g62
(dp5911
g70
I5
ssg71
g5905
sg64
(lp5912
S'O blog do sheldon'
p5913
asbasbasbag57
(g73
g59
NtRp5914
(dp5915
g62
(dp5916
sg71
g5079
sg64
(lp5917
g57
(g78
g59
NtRp5918
(dp5919
g62
(dp5920
g82
g83
ssg71
g5914
sg64
(lp5921
S'title'
p5922
asbag57
(g78
g59
NtRp5923
(dp5924
g62
(dp5925
g89
g90
ssg71
g5914
sg64
(lp5926
S':'
asbag57
(g78
g59
NtRp5927
(dp5928
g62
(dp5929
sg71
g5914
sg64
(lp5930
g57
(g58
g59
NtRp5931
(dp5932
g62
(dp5933
g70
I5
ssg71
g5927
sg64
(lp5934
S'Meu site magnifico'
p5935
asbasbasbag57
(g73
g59
NtRp5936
(dp5937
g62
(dp5938
sg71
g5079
sg64
(lp5939
g57
(g78
g59
NtRp5940
(dp5941
g62
(dp5942
g82
g83
ssg71
g5936
sg64
(lp5943
S'view'
p5944
asbag57
(g78
g59
NtRp5945
(dp5946
g62
(dp5947
g89
g90
ssg71
g5936
sg64
(lp5948
S':'
asbag57
(g78
g59
NtRp5949
(dp5950
g62
(dp5951
sg71
g5936
sg64
(lp5952
g57
(g58
g59
NtRp5953
(dp5954
g62
(dp5955
g70
I5
ssg71
g5949
sg64
(lp5956
S'manager/usuarios.html'
p5957
asbasbasbasbasbsS'locals'
p5958
(dp5959
ssS'traceback'
p5960
S'Traceback (most recent call last):\n  File "/var/www/web2py_curso/gluon/restricted.py", line 212, in restricted\n    exec ccode in environment\n  File "/var/www/web2py_curso/applications/projeto/controllers/manager.py", line 31, in <module>\n  File "/var/www/web2py_curso/gluon/globals.py", line 193, in <lambda>\n    self._caller = lambda f: f()\n  File "/var/www/web2py_curso/applications/projeto/controllers/manager.py", line 28, in usuarios\n    form = SQLFORM(bd.auth_user)\nNameError: global name \'bd\' is not defined\n'
p5961
s.