(dp1
S'output'
p2
S"<type 'exceptions.IndentationError'> expected an indented block (initial.py, line 14)"
p3
sS'layer'
p4
S'/var/www/web2py_curso/applications/projeto/controllers/initial.py'
p5
sS'code'
p6
S'# coding: utf-8\n\ndef home():\n\treturn "Bem Vindo"\n\ndef contact():\n\treturn "form"\n\ndef about():\n\treturn "sobre"\n\ndef user():\n\tif request.args(0) == \'register\':\n        db.auth_user.bio.writable = db.auth_user.bio.readable = False\n\treturn auth()\n\t\n\ndef download():\n\treturn response.download(request, db)\n\n\n\n\ndef teste():\n\tprint "Action index"\n\tprint request.args\n\tprint request.vars \t\n\tprint request.post_vars #somente entradas de formul\xc3\xa1rio\n    \tprint request.get_vars  #somente entradas de url\n    \t#nome = request.vars[\'nome\']\n        mensagem = "Bem Vindo"\n        form = "<form action=\'\' method=\'POST\'><input name=\'nome\' id=\'nome\'/><input type=\'Submit\'></form><br>"\n        if \'nome\' in request.vars:\n\t\tform = "<p>Bem vindo %(nome)s</p>" % request.vars + form\t\t\n\t\t#mensagem = mensagem + " usu\xc3\xa1rio %(nome)s" % request.vars\t#mostrando variavel da url\n        \t#mensagem = mensagem + " usu\xc3\xa1rio %s" %str(nome)\t\t\t#mostrando uma variavel local    \n\treturn form\n\ndef teste2():\n\treturn "<form><label>Nome</label><input /></form><br><a href=\'http://www.w3schools.com\'>Visit W3Schools</a>"\n\t#return dict(nome="fernando")\n\t#return response.render("teste.html", dict(nome="fernando"))\n\ndef soma(x, y):\n\treturn x + y\n\n \n\nresponse._vars=response._caller(user)\n'
p7
sS'snapshot'
p8
(dp9
S'exception'
p10
(dp11
S'__getslice__'
p12
S"<method-wrapper '__getslice__' of exceptions.IndentationError object>"
p13
sS'text'
p14
S"'        db.auth_user.bio.writable = db.auth_user.bio.readable = False\\n'"
p15
sS'__str__'
p16
S"<method-wrapper '__str__' of exceptions.IndentationError object>"
p17
sS'__reduce__'
p18
S'<built-in method __reduce__ of exceptions.IndentationError object>'
p19
sS'__dict__'
p20
S'{}'
p21
sS'__sizeof__'
p22
S'<built-in method __sizeof__ of exceptions.IndentationError object>'
p23
sS'__init__'
p24
S"<method-wrapper '__init__' of exceptions.IndentationError object>"
p25
sS'__setattr__'
p26
S"<method-wrapper '__setattr__' of exceptions.IndentationError object>"
p27
sS'__reduce_ex__'
p28
S'<built-in method __reduce_ex__ of exceptions.IndentationError object>'
p29
sS'__new__'
p30
S'<built-in method __new__ of type object>'
p31
sS'__format__'
p32
S'<built-in method __format__ of exceptions.IndentationError object>'
p33
sS'__class__'
p34
S"<type 'exceptions.IndentationError'>"
p35
sS'filename'
p36
S"'/var/www/web2py_curso/applications/projeto/controllers/initial.py'"
p37
sS'lineno'
p38
S'14'
p39
sS'msg'
p40
S"'expected an indented block'"
p41
sS'__doc__'
p42
S"'Improper indentation.'"
p43
sS'__getitem__'
p44
S"<method-wrapper '__getitem__' of exceptions.IndentationError object>"
p45
sS'__setstate__'
p46
S'<built-in method __setstate__ of exceptions.IndentationError object>'
p47
sS'__getattribute__'
p48
S"<method-wrapper '__getattribute__' of exceptions.IndentationError object>"
p49
sS'print_file_and_line'
p50
S'None'
p51
sS'args'
p52
S"('expected an indented block', ('/var/www/web2py_curso/applications/projeto/controllers/initial.py', 14, 10, '        db.auth_user.bio.writable = db.auth_user.bio.readable = False\\n'))"
p53
sS'__subclasshook__'
p54
S'<built-in method __subclasshook__ of type object>'
p55
sS'offset'
p56
S'10'
p57
sS'__unicode__'
p58
S'<built-in method __unicode__ of exceptions.IndentationError object>'
p59
sS'__delattr__'
p60
S"<method-wrapper '__delattr__' of exceptions.IndentationError object>"
p61
sS'__repr__'
p62
S"<method-wrapper '__repr__' of exceptions.IndentationError object>"
p63
sS'__hash__'
p64
S"<method-wrapper '__hash__' of exceptions.IndentationError object>"
p65
ssS'evalue'
p66
S'expected an indented block (initial.py, line 14)'
p67
sS'request'
p68
ccopy_reg
_reconstructor
p69
(cgluon.html
BEAUTIFY
p70
c__builtin__
object
p71
NtRp72
(dp73
S'attributes'
p74
(dp75
sS'components'
p76
(lp77
g69
(cgluon.html
TABLE
p78
g71
NtRp79
(dp80
g74
(dp81
S'level'
p82
I5
ssS'parent'
p83
Nsg76
(lp84
g69
(cgluon.html
TR
p85
g71
NtRp86
(dp87
g74
(dp88
sg83
g79
sg76
(lp89
g69
(cgluon.html
TD
p90
g71
NtRp91
(dp92
g74
(dp93
S'_style'
p94
S'font-weight:bold;vertical-align:top'
p95
ssg83
g86
sg76
(lp96
S'ajax'
p97
asbag69
(g90
g71
NtRp98
(dp99
g74
(dp100
S'_valign'
p101
S'top'
p102
ssg83
g86
sg76
(lp103
S':'
asbag69
(g90
g71
NtRp104
(dp105
g74
(dp106
sg83
g86
sg76
(lp107
g69
(g70
g71
NtRp108
(dp109
g74
(dp110
g82
I5
ssg83
g104
sg76
(lp111
S'False'
p112
asbasbasbag69
(g85
g71
NtRp113
(dp114
g74
(dp115
sg83
g79
sg76
(lp116
g69
(g90
g71
NtRp117
(dp118
g74
(dp119
g94
g95
ssg83
g113
sg76
(lp120
S'application'
p121
asbag69
(g90
g71
NtRp122
(dp123
g74
(dp124
g101
g102
ssg83
g113
sg76
(lp125
S':'
asbag69
(g90
g71
NtRp126
(dp127
g74
(dp128
sg83
g113
sg76
(lp129
g69
(g70
g71
NtRp130
(dp131
g74
(dp132
g82
I5
ssg83
g126
sg76
(lp133
S'projeto'
p134
asbasbasbag69
(g85
g71
NtRp135
(dp136
g74
(dp137
sg83
g79
sg76
(lp138
g69
(g90
g71
NtRp139
(dp140
g74
(dp141
g94
g95
ssg83
g135
sg76
(lp142
g52
asbag69
(g90
g71
NtRp143
(dp144
g74
(dp145
g101
g102
ssg83
g135
sg76
(lp146
S':'
asbag69
(g90
g71
NtRp147
(dp148
g74
(dp149
sg83
g135
sg76
(lp150
g69
(g70
g71
NtRp151
(dp152
g74
(dp153
g82
I5
ssg83
g147
sg76
(lp154
g69
(g78
g71
NtRp155
(dp156
g74
(dp157
g82
I4
ssg83
Nsg76
(lp158
g69
(g85
g71
NtRp159
(dp160
g74
(dp161
sg83
g155
sg76
(lp162
g69
(g90
g71
NtRp163
(dp164
g74
(dp165
sg83
g159
sg76
(lp166
g69
(g70
g71
NtRp167
(dp168
g74
(dp169
g82
I4
ssg83
g163
sg76
(lp170
S'register'
p171
asbasbasbasbasbasbasbag69
(g85
g71
NtRp172
(dp173
g74
(dp174
sg83
g79
sg76
(lp175
g69
(g90
g71
NtRp176
(dp177
g74
(dp178
g94
g95
ssg83
g172
sg76
(lp179
S'body'
p180
asbag69
(g90
g71
NtRp181
(dp182
g74
(dp183
g101
g102
ssg83
g172
sg76
(lp184
S':'
asbag69
(g90
g71
NtRp185
(dp186
g74
(dp187
sg83
g172
sg76
(lp188
g69
(g70
g71
NtRp189
(dp190
g74
(dp191
g82
I5
ssg83
g185
sg76
(lp192
S'<cStringIO.StringO object at 0x7f9820132bc8>'
p193
asbasbasbag69
(g85
g71
NtRp194
(dp195
g74
(dp196
sg83
g79
sg76
(lp197
g69
(g90
g71
NtRp198
(dp199
g74
(dp200
g94
g95
ssg83
g194
sg76
(lp201
S'cid'
p202
asbag69
(g90
g71
NtRp203
(dp204
g74
(dp205
g101
g102
ssg83
g194
sg76
(lp206
S':'
asbag69
(g90
g71
NtRp207
(dp208
g74
(dp209
sg83
g194
sg76
(lp210
g69
(g70
g71
NtRp211
(dp212
g74
(dp213
g82
I5
ssg83
g207
sg76
(lp214
S'None'
p215
asbasbasbag69
(g85
g71
NtRp216
(dp217
g74
(dp218
sg83
g79
sg76
(lp219
g69
(g90
g71
NtRp220
(dp221
g74
(dp222
g94
g95
ssg83
g216
sg76
(lp223
S'client'
p224
asbag69
(g90
g71
NtRp225
(dp226
g74
(dp227
g101
g102
ssg83
g216
sg76
(lp228
S':'
asbag69
(g90
g71
NtRp229
(dp230
g74
(dp231
sg83
g216
sg76
(lp232
g69
(g70
g71
NtRp233
(dp234
g74
(dp235
g82
I5
ssg83
g229
sg76
(lp236
S'127.0.0.1'
p237
asbasbasbag69
(g85
g71
NtRp238
(dp239
g74
(dp240
sg83
g79
sg76
(lp241
g69
(g90
g71
NtRp242
(dp243
g74
(dp244
g94
g95
ssg83
g238
sg76
(lp245
S'controller'
p246
asbag69
(g90
g71
NtRp247
(dp248
g74
(dp249
g101
g102
ssg83
g238
sg76
(lp250
S':'
asbag69
(g90
g71
NtRp251
(dp252
g74
(dp253
sg83
g238
sg76
(lp254
g69
(g70
g71
NtRp255
(dp256
g74
(dp257
g82
I5
ssg83
g251
sg76
(lp258
S'initial'
p259
asbasbasbag69
(g85
g71
NtRp260
(dp261
g74
(dp262
sg83
g79
sg76
(lp263
g69
(g90
g71
NtRp264
(dp265
g74
(dp266
g94
g95
ssg83
g260
sg76
(lp267
S'cookies'
p268
asbag69
(g90
g71
NtRp269
(dp270
g74
(dp271
g101
g102
ssg83
g260
sg76
(lp272
S':'
asbag69
(g90
g71
NtRp273
(dp274
g74
(dp275
sg83
g260
sg76
(lp276
g69
(g70
g71
NtRp277
(dp278
g74
(dp279
g82
I5
ssg83
g273
sg76
(lp280
g69
(g78
g71
NtRp281
(dp282
g74
(dp283
g82
I4
ssg83
Nsg76
(lp284
g69
(g85
g71
NtRp285
(dp286
g74
(dp287
sg83
g281
sg76
(lp288
g69
(g90
g71
NtRp289
(dp290
g74
(dp291
g94
g95
ssg83
g285
sg76
(lp292
S'session_id_admin'
p293
asbag69
(g90
g71
NtRp294
(dp295
g74
(dp296
g101
g102
ssg83
g285
sg76
(lp297
S':'
asbag69
(g90
g71
NtRp298
(dp299
g74
(dp300
sg83
g285
sg76
(lp301
g69
(g70
g71
NtRp302
(dp303
g74
(dp304
g82
I4
ssg83
g298
sg76
(lp305
S'127.0.0.1-f3e4b0cb-9e15-4e27-aeb8-da76724c4de5'
p306
ag69
(g78
g71
NtRp307
(dp308
g74
(dp309
g82
I3
ssg83
Nsg76
(lp310
g69
(g85
g71
NtRp311
(dp312
g74
(dp313
sg83
g307
sg76
(lp314
g69
(g90
g71
NtRp315
(dp316
g74
(dp317
g94
g95
ssg83
g311
sg76
(lp318
S'comment'
p319
asbag69
(g90
g71
NtRp320
(dp321
g74
(dp322
g101
g102
ssg83
g311
sg76
(lp323
S':'
asbag69
(g90
g71
NtRp324
(dp325
g74
(dp326
sg83
g311
sg76
(lp327
g69
(g70
g71
NtRp328
(dp329
g74
(dp330
g82
I3
ssg83
g324
sg76
(lp331
S''
asbasbasbag69
(g85
g71
NtRp332
(dp333
g74
(dp334
sg83
g307
sg76
(lp335
g69
(g90
g71
NtRp336
(dp337
g74
(dp338
g94
g95
ssg83
g332
sg76
(lp339
S'domain'
p340
asbag69
(g90
g71
NtRp341
(dp342
g74
(dp343
g101
g102
ssg83
g332
sg76
(lp344
S':'
asbag69
(g90
g71
NtRp345
(dp346
g74
(dp347
sg83
g332
sg76
(lp348
g69
(g70
g71
NtRp349
(dp350
g74
(dp351
g82
I3
ssg83
g345
sg76
(lp352
S''
asbasbasbag69
(g85
g71
NtRp353
(dp354
g74
(dp355
sg83
g307
sg76
(lp356
g69
(g90
g71
NtRp357
(dp358
g74
(dp359
g94
g95
ssg83
g353
sg76
(lp360
S'expires'
p361
asbag69
(g90
g71
NtRp362
(dp363
g74
(dp364
g101
g102
ssg83
g353
sg76
(lp365
S':'
asbag69
(g90
g71
NtRp366
(dp367
g74
(dp368
sg83
g353
sg76
(lp369
g69
(g70
g71
NtRp370
(dp371
g74
(dp372
g82
I3
ssg83
g366
sg76
(lp373
S''
asbasbasbag69
(g85
g71
NtRp374
(dp375
g74
(dp376
sg83
g307
sg76
(lp377
g69
(g90
g71
NtRp378
(dp379
g74
(dp380
g94
g95
ssg83
g374
sg76
(lp381
S'httponly'
p382
asbag69
(g90
g71
NtRp383
(dp384
g74
(dp385
g101
g102
ssg83
g374
sg76
(lp386
S':'
asbag69
(g90
g71
NtRp387
(dp388
g74
(dp389
sg83
g374
sg76
(lp390
g69
(g70
g71
NtRp391
(dp392
g74
(dp393
g82
I3
ssg83
g387
sg76
(lp394
S''
asbasbasbag69
(g85
g71
NtRp395
(dp396
g74
(dp397
sg83
g307
sg76
(lp398
g69
(g90
g71
NtRp399
(dp400
g74
(dp401
g94
g95
ssg83
g395
sg76
(lp402
S'max-age'
p403
asbag69
(g90
g71
NtRp404
(dp405
g74
(dp406
g101
g102
ssg83
g395
sg76
(lp407
S':'
asbag69
(g90
g71
NtRp408
(dp409
g74
(dp410
sg83
g395
sg76
(lp411
g69
(g70
g71
NtRp412
(dp413
g74
(dp414
g82
I3
ssg83
g408
sg76
(lp415
S''
asbasbasbag69
(g85
g71
NtRp416
(dp417
g74
(dp418
sg83
g307
sg76
(lp419
g69
(g90
g71
NtRp420
(dp421
g74
(dp422
g94
g95
ssg83
g416
sg76
(lp423
S'path'
p424
asbag69
(g90
g71
NtRp425
(dp426
g74
(dp427
g101
g102
ssg83
g416
sg76
(lp428
S':'
asbag69
(g90
g71
NtRp429
(dp430
g74
(dp431
sg83
g416
sg76
(lp432
g69
(g70
g71
NtRp433
(dp434
g74
(dp435
g82
I3
ssg83
g429
sg76
(lp436
S''
asbasbasbag69
(g85
g71
NtRp437
(dp438
g74
(dp439
sg83
g307
sg76
(lp440
g69
(g90
g71
NtRp441
(dp442
g74
(dp443
g94
g95
ssg83
g437
sg76
(lp444
S'secure'
p445
asbag69
(g90
g71
NtRp446
(dp447
g74
(dp448
g101
g102
ssg83
g437
sg76
(lp449
S':'
asbag69
(g90
g71
NtRp450
(dp451
g74
(dp452
sg83
g437
sg76
(lp453
g69
(g70
g71
NtRp454
(dp455
g74
(dp456
g82
I3
ssg83
g450
sg76
(lp457
S''
asbasbasbag69
(g85
g71
NtRp458
(dp459
g74
(dp460
sg83
g307
sg76
(lp461
g69
(g90
g71
NtRp462
(dp463
g74
(dp464
g94
g95
ssg83
g458
sg76
(lp465
S'version'
p466
asbag69
(g90
g71
NtRp467
(dp468
g74
(dp469
g101
g102
ssg83
g458
sg76
(lp470
S':'
asbag69
(g90
g71
NtRp471
(dp472
g74
(dp473
sg83
g458
sg76
(lp474
g69
(g70
g71
NtRp475
(dp476
g74
(dp477
g82
I3
ssg83
g471
sg76
(lp478
S''
asbasbasbasbasbasbasbag69
(g85
g71
NtRp479
(dp480
g74
(dp481
sg83
g281
sg76
(lp482
g69
(g90
g71
NtRp483
(dp484
g74
(dp485
g94
g95
ssg83
g479
sg76
(lp486
S'session_id_home'
p487
asbag69
(g90
g71
NtRp488
(dp489
g74
(dp490
g101
g102
ssg83
g479
sg76
(lp491
S':'
asbag69
(g90
g71
NtRp492
(dp493
g74
(dp494
sg83
g479
sg76
(lp495
g69
(g70
g71
NtRp496
(dp497
g74
(dp498
g82
I4
ssg83
g492
sg76
(lp499
S'127.0.0.1-2b8677ad-1026-452f-8f04-b3fb68dc6854'
p500
ag69
(g78
g71
NtRp501
(dp502
g74
(dp503
g82
I3
ssg83
Nsg76
(lp504
g69
(g85
g71
NtRp505
(dp506
g74
(dp507
sg83
g501
sg76
(lp508
g69
(g90
g71
NtRp509
(dp510
g74
(dp511
g94
g95
ssg83
g505
sg76
(lp512
g319
asbag69
(g90
g71
NtRp513
(dp514
g74
(dp515
g101
g102
ssg83
g505
sg76
(lp516
S':'
asbag69
(g90
g71
NtRp517
(dp518
g74
(dp519
sg83
g505
sg76
(lp520
g69
(g70
g71
NtRp521
(dp522
g74
(dp523
g82
I3
ssg83
g517
sg76
(lp524
S''
asbasbasbag69
(g85
g71
NtRp525
(dp526
g74
(dp527
sg83
g501
sg76
(lp528
g69
(g90
g71
NtRp529
(dp530
g74
(dp531
g94
g95
ssg83
g525
sg76
(lp532
g340
asbag69
(g90
g71
NtRp533
(dp534
g74
(dp535
g101
g102
ssg83
g525
sg76
(lp536
S':'
asbag69
(g90
g71
NtRp537
(dp538
g74
(dp539
sg83
g525
sg76
(lp540
g69
(g70
g71
NtRp541
(dp542
g74
(dp543
g82
I3
ssg83
g537
sg76
(lp544
S''
asbasbasbag69
(g85
g71
NtRp545
(dp546
g74
(dp547
sg83
g501
sg76
(lp548
g69
(g90
g71
NtRp549
(dp550
g74
(dp551
g94
g95
ssg83
g545
sg76
(lp552
g361
asbag69
(g90
g71
NtRp553
(dp554
g74
(dp555
g101
g102
ssg83
g545
sg76
(lp556
S':'
asbag69
(g90
g71
NtRp557
(dp558
g74
(dp559
sg83
g545
sg76
(lp560
g69
(g70
g71
NtRp561
(dp562
g74
(dp563
g82
I3
ssg83
g557
sg76
(lp564
S''
asbasbasbag69
(g85
g71
NtRp565
(dp566
g74
(dp567
sg83
g501
sg76
(lp568
g69
(g90
g71
NtRp569
(dp570
g74
(dp571
g94
g95
ssg83
g565
sg76
(lp572
g382
asbag69
(g90
g71
NtRp573
(dp574
g74
(dp575
g101
g102
ssg83
g565
sg76
(lp576
S':'
asbag69
(g90
g71
NtRp577
(dp578
g74
(dp579
sg83
g565
sg76
(lp580
g69
(g70
g71
NtRp581
(dp582
g74
(dp583
g82
I3
ssg83
g577
sg76
(lp584
S''
asbasbasbag69
(g85
g71
NtRp585
(dp586
g74
(dp587
sg83
g501
sg76
(lp588
g69
(g90
g71
NtRp589
(dp590
g74
(dp591
g94
g95
ssg83
g585
sg76
(lp592
g403
asbag69
(g90
g71
NtRp593
(dp594
g74
(dp595
g101
g102
ssg83
g585
sg76
(lp596
S':'
asbag69
(g90
g71
NtRp597
(dp598
g74
(dp599
sg83
g585
sg76
(lp600
g69
(g70
g71
NtRp601
(dp602
g74
(dp603
g82
I3
ssg83
g597
sg76
(lp604
S''
asbasbasbag69
(g85
g71
NtRp605
(dp606
g74
(dp607
sg83
g501
sg76
(lp608
g69
(g90
g71
NtRp609
(dp610
g74
(dp611
g94
g95
ssg83
g605
sg76
(lp612
g424
asbag69
(g90
g71
NtRp613
(dp614
g74
(dp615
g101
g102
ssg83
g605
sg76
(lp616
S':'
asbag69
(g90
g71
NtRp617
(dp618
g74
(dp619
sg83
g605
sg76
(lp620
g69
(g70
g71
NtRp621
(dp622
g74
(dp623
g82
I3
ssg83
g617
sg76
(lp624
S''
asbasbasbag69
(g85
g71
NtRp625
(dp626
g74
(dp627
sg83
g501
sg76
(lp628
g69
(g90
g71
NtRp629
(dp630
g74
(dp631
g94
g95
ssg83
g625
sg76
(lp632
g445
asbag69
(g90
g71
NtRp633
(dp634
g74
(dp635
g101
g102
ssg83
g625
sg76
(lp636
S':'
asbag69
(g90
g71
NtRp637
(dp638
g74
(dp639
sg83
g625
sg76
(lp640
g69
(g70
g71
NtRp641
(dp642
g74
(dp643
g82
I3
ssg83
g637
sg76
(lp644
S''
asbasbasbag69
(g85
g71
NtRp645
(dp646
g74
(dp647
sg83
g501
sg76
(lp648
g69
(g90
g71
NtRp649
(dp650
g74
(dp651
g94
g95
ssg83
g645
sg76
(lp652
g466
asbag69
(g90
g71
NtRp653
(dp654
g74
(dp655
g101
g102
ssg83
g645
sg76
(lp656
S':'
asbag69
(g90
g71
NtRp657
(dp658
g74
(dp659
sg83
g645
sg76
(lp660
g69
(g70
g71
NtRp661
(dp662
g74
(dp663
g82
I3
ssg83
g657
sg76
(lp664
S''
asbasbasbasbasbasbasbag69
(g85
g71
NtRp665
(dp666
g74
(dp667
sg83
g281
sg76
(lp668
g69
(g90
g71
NtRp669
(dp670
g74
(dp671
g94
g95
ssg83
g665
sg76
(lp672
S'session_id_projeto'
p673
asbag69
(g90
g71
NtRp674
(dp675
g74
(dp676
g101
g102
ssg83
g665
sg76
(lp677
S':'
asbag69
(g90
g71
NtRp678
(dp679
g74
(dp680
sg83
g665
sg76
(lp681
g69
(g70
g71
NtRp682
(dp683
g74
(dp684
g82
I4
ssg83
g678
sg76
(lp685
S'127.0.0.1-e368b264-444a-4dee-8b41-31155ff54a04'
p686
ag69
(g78
g71
NtRp687
(dp688
g74
(dp689
g82
I3
ssg83
Nsg76
(lp690
g69
(g85
g71
NtRp691
(dp692
g74
(dp693
sg83
g687
sg76
(lp694
g69
(g90
g71
NtRp695
(dp696
g74
(dp697
g94
g95
ssg83
g691
sg76
(lp698
g319
asbag69
(g90
g71
NtRp699
(dp700
g74
(dp701
g101
g102
ssg83
g691
sg76
(lp702
S':'
asbag69
(g90
g71
NtRp703
(dp704
g74
(dp705
sg83
g691
sg76
(lp706
g69
(g70
g71
NtRp707
(dp708
g74
(dp709
g82
I3
ssg83
g703
sg76
(lp710
S''
asbasbasbag69
(g85
g71
NtRp711
(dp712
g74
(dp713
sg83
g687
sg76
(lp714
g69
(g90
g71
NtRp715
(dp716
g74
(dp717
g94
g95
ssg83
g711
sg76
(lp718
g340
asbag69
(g90
g71
NtRp719
(dp720
g74
(dp721
g101
g102
ssg83
g711
sg76
(lp722
S':'
asbag69
(g90
g71
NtRp723
(dp724
g74
(dp725
sg83
g711
sg76
(lp726
g69
(g70
g71
NtRp727
(dp728
g74
(dp729
g82
I3
ssg83
g723
sg76
(lp730
S''
asbasbasbag69
(g85
g71
NtRp731
(dp732
g74
(dp733
sg83
g687
sg76
(lp734
g69
(g90
g71
NtRp735
(dp736
g74
(dp737
g94
g95
ssg83
g731
sg76
(lp738
g361
asbag69
(g90
g71
NtRp739
(dp740
g74
(dp741
g101
g102
ssg83
g731
sg76
(lp742
S':'
asbag69
(g90
g71
NtRp743
(dp744
g74
(dp745
sg83
g731
sg76
(lp746
g69
(g70
g71
NtRp747
(dp748
g74
(dp749
g82
I3
ssg83
g743
sg76
(lp750
S''
asbasbasbag69
(g85
g71
NtRp751
(dp752
g74
(dp753
sg83
g687
sg76
(lp754
g69
(g90
g71
NtRp755
(dp756
g74
(dp757
g94
g95
ssg83
g751
sg76
(lp758
g382
asbag69
(g90
g71
NtRp759
(dp760
g74
(dp761
g101
g102
ssg83
g751
sg76
(lp762
S':'
asbag69
(g90
g71
NtRp763
(dp764
g74
(dp765
sg83
g751
sg76
(lp766
g69
(g70
g71
NtRp767
(dp768
g74
(dp769
g82
I3
ssg83
g763
sg76
(lp770
S''
asbasbasbag69
(g85
g71
NtRp771
(dp772
g74
(dp773
sg83
g687
sg76
(lp774
g69
(g90
g71
NtRp775
(dp776
g74
(dp777
g94
g95
ssg83
g771
sg76
(lp778
g403
asbag69
(g90
g71
NtRp779
(dp780
g74
(dp781
g101
g102
ssg83
g771
sg76
(lp782
S':'
asbag69
(g90
g71
NtRp783
(dp784
g74
(dp785
sg83
g771
sg76
(lp786
g69
(g70
g71
NtRp787
(dp788
g74
(dp789
g82
I3
ssg83
g783
sg76
(lp790
S''
asbasbasbag69
(g85
g71
NtRp791
(dp792
g74
(dp793
sg83
g687
sg76
(lp794
g69
(g90
g71
NtRp795
(dp796
g74
(dp797
g94
g95
ssg83
g791
sg76
(lp798
g424
asbag69
(g90
g71
NtRp799
(dp800
g74
(dp801
g101
g102
ssg83
g791
sg76
(lp802
S':'
asbag69
(g90
g71
NtRp803
(dp804
g74
(dp805
sg83
g791
sg76
(lp806
g69
(g70
g71
NtRp807
(dp808
g74
(dp809
g82
I3
ssg83
g803
sg76
(lp810
S''
asbasbasbag69
(g85
g71
NtRp811
(dp812
g74
(dp813
sg83
g687
sg76
(lp814
g69
(g90
g71
NtRp815
(dp816
g74
(dp817
g94
g95
ssg83
g811
sg76
(lp818
g445
asbag69
(g90
g71
NtRp819
(dp820
g74
(dp821
g101
g102
ssg83
g811
sg76
(lp822
S':'
asbag69
(g90
g71
NtRp823
(dp824
g74
(dp825
sg83
g811
sg76
(lp826
g69
(g70
g71
NtRp827
(dp828
g74
(dp829
g82
I3
ssg83
g823
sg76
(lp830
S''
asbasbasbag69
(g85
g71
NtRp831
(dp832
g74
(dp833
sg83
g687
sg76
(lp834
g69
(g90
g71
NtRp835
(dp836
g74
(dp837
g94
g95
ssg83
g831
sg76
(lp838
g466
asbag69
(g90
g71
NtRp839
(dp840
g74
(dp841
g101
g102
ssg83
g831
sg76
(lp842
S':'
asbag69
(g90
g71
NtRp843
(dp844
g74
(dp845
sg83
g831
sg76
(lp846
g69
(g70
g71
NtRp847
(dp848
g74
(dp849
g82
I3
ssg83
g843
sg76
(lp850
S''
asbasbasbasbasbasbasbasbasbasbasbag69
(g85
g71
NtRp851
(dp852
g74
(dp853
sg83
g79
sg76
(lp854
g69
(g90
g71
NtRp855
(dp856
g74
(dp857
g94
g95
ssg83
g851
sg76
(lp858
S'env'
p859
asbag69
(g90
g71
NtRp860
(dp861
g74
(dp862
g101
g102
ssg83
g851
sg76
(lp863
S':'
asbag69
(g90
g71
NtRp864
(dp865
g74
(dp866
sg83
g851
sg76
(lp867
g69
(g70
g71
NtRp868
(dp869
g74
(dp870
g82
I5
ssg83
g864
sg76
(lp871
g69
(g78
g71
NtRp872
(dp873
g74
(dp874
g82
I4
ssg83
Nsg76
(lp875
g69
(g85
g71
NtRp876
(dp877
g74
(dp878
sg83
g872
sg76
(lp879
g69
(g90
g71
NtRp880
(dp881
g74
(dp882
g94
g95
ssg83
g876
sg76
(lp883
S'app_folders'
p884
asbag69
(g90
g71
NtRp885
(dp886
g74
(dp887
g101
g102
ssg83
g876
sg76
(lp888
S':'
asbag69
(g90
g71
NtRp889
(dp890
g74
(dp891
sg83
g876
sg76
(lp892
g69
(g70
g71
NtRp893
(dp894
g74
(dp895
g82
I4
ssg83
g889
sg76
(lp896
S"set(['/var/www/web2py_curso/applications/home/', '/var/www/web2py_curso/applications/projeto/'])"
p897
asbasbasbag69
(g85
g71
NtRp898
(dp899
g74
(dp900
sg83
g872
sg76
(lp901
g69
(g90
g71
NtRp902
(dp903
g74
(dp904
g94
g95
ssg83
g898
sg76
(lp905
S'applications_parent'
p906
asbag69
(g90
g71
NtRp907
(dp908
g74
(dp909
g101
g102
ssg83
g898
sg76
(lp910
S':'
asbag69
(g90
g71
NtRp911
(dp912
g74
(dp913
sg83
g898
sg76
(lp914
g69
(g70
g71
NtRp915
(dp916
g74
(dp917
g82
I4
ssg83
g911
sg76
(lp918
S'/var/www/web2py_curso'
p919
asbasbasbag69
(g85
g71
NtRp920
(dp921
g74
(dp922
sg83
g872
sg76
(lp923
g69
(g90
g71
NtRp924
(dp925
g74
(dp926
g94
g95
ssg83
g920
sg76
(lp927
S'cmd_args'
p928
asbag69
(g90
g71
NtRp929
(dp930
g74
(dp931
g101
g102
ssg83
g920
sg76
(lp932
S':'
asbag69
(g90
g71
NtRp933
(dp934
g74
(dp935
sg83
g920
sg76
(lp936
g69
(g70
g71
NtRp937
(dp938
g74
(dp939
g82
I4
ssg83
g933
sg76
(lp940
g69
(g78
g71
NtRp941
(dp942
g74
(dp943
g82
I3
ssg83
Nsg76
(lp944
sbasbasbasbag69
(g85
g71
NtRp945
(dp946
g74
(dp947
sg83
g872
sg76
(lp948
g69
(g90
g71
NtRp949
(dp950
g74
(dp951
g94
g95
ssg83
g945
sg76
(lp952
S'cmd_options'
p953
asbag69
(g90
g71
NtRp954
(dp955
g74
(dp956
g101
g102
ssg83
g945
sg76
(lp957
S':'
asbag69
(g90
g71
NtRp958
(dp959
g74
(dp960
sg83
g945
sg76
(lp961
g69
(g70
g71
NtRp962
(dp963
g74
(dp964
g82
I4
ssg83
g958
sg76
(lp965
S"<Values at 0x2d53488: {'verbose': False, 'ip': '127.0.0.1', 'with_scheduler': False, 'ips': [], 'shutdown_timeout': 5, 'taskbar': False, 'port': 8000, 'maxthreads': None, 'softcron': False, 'server_name': 'fernado-desktop', 'bpython': False, 'nogui': False, 'pid_filename': 'httpserver.pid', 'extcron': False, 'runcron': False, 'run_system_tests': False, 'test': None, 'folder': '/var/www/web2py_curso', 'config': '', 'minthreads': None, 'winservice': '', 'shell': None, 'run': '', 'log_filename': 'httpserver.log', 'debuglevel': 30, 'args': [''], 'socket_timeout': 5, 'ssl_ca_certificate': None, 'scheduler': None, 'profiler_filename': None, 'ssl_private_key': '', 'scheduler_groups': None, 'password': '123456', 'request_queue_size': 5, 'ssl_certificate': '', 'cronjob': False, 'numthreads': None, 'quiet': False, 'interfaces': None, 'import_models': False, 'timeout': 10, 'plain': False, 'nobanner': False}>"
p966
asbasbasbag69
(g85
g71
NtRp967
(dp968
g74
(dp969
sg83
g872
sg76
(lp970
g69
(g90
g71
NtRp971
(dp972
g74
(dp973
g94
g95
ssg83
g967
sg76
(lp974
S'db_sessions'
p975
asbag69
(g90
g71
NtRp976
(dp977
g74
(dp978
g101
g102
ssg83
g967
sg76
(lp979
S':'
asbag69
(g90
g71
NtRp980
(dp981
g74
(dp982
sg83
g967
sg76
(lp983
g69
(g70
g71
NtRp984
(dp985
g74
(dp986
g82
I4
ssg83
g980
sg76
(lp987
S'set([])'
p988
asbasbasbag69
(g85
g71
NtRp989
(dp990
g74
(dp991
sg83
g872
sg76
(lp992
g69
(g90
g71
NtRp993
(dp994
g74
(dp995
g94
g95
ssg83
g989
sg76
(lp996
S'debugging'
p997
asbag69
(g90
g71
NtRp998
(dp999
g74
(dp1000
g101
g102
ssg83
g989
sg76
(lp1001
S':'
asbag69
(g90
g71
NtRp1002
(dp1003
g74
(dp1004
sg83
g989
sg76
(lp1005
g69
(g70
g71
NtRp1006
(dp1007
g74
(dp1008
g82
I4
ssg83
g1002
sg76
(lp1009
g112
asbasbasbag69
(g85
g71
NtRp1010
(dp1011
g74
(dp1012
sg83
g872
sg76
(lp1013
g69
(g90
g71
NtRp1014
(dp1015
g74
(dp1016
g94
g95
ssg83
g1010
sg76
(lp1017
S'gluon_parent'
p1018
asbag69
(g90
g71
NtRp1019
(dp1020
g74
(dp1021
g101
g102
ssg83
g1010
sg76
(lp1022
S':'
asbag69
(g90
g71
NtRp1023
(dp1024
g74
(dp1025
sg83
g1010
sg76
(lp1026
g69
(g70
g71
NtRp1027
(dp1028
g74
(dp1029
g82
I4
ssg83
g1023
sg76
(lp1030
S'/var/www/web2py_curso'
p1031
asbasbasbag69
(g85
g71
NtRp1032
(dp1033
g74
(dp1034
sg83
g872
sg76
(lp1035
g69
(g90
g71
NtRp1036
(dp1037
g74
(dp1038
g94
g95
ssg83
g1032
sg76
(lp1039
S'http_accept'
p1040
asbag69
(g90
g71
NtRp1041
(dp1042
g74
(dp1043
g101
g102
ssg83
g1032
sg76
(lp1044
S':'
asbag69
(g90
g71
NtRp1045
(dp1046
g74
(dp1047
sg83
g1032
sg76
(lp1048
g69
(g70
g71
NtRp1049
(dp1050
g74
(dp1051
g82
I4
ssg83
g1045
sg76
(lp1052
S'text/html,application/xhtml+xml,application/xml;q=0.9,*/*;q=0.8'
p1053
asbasbasbag69
(g85
g71
NtRp1054
(dp1055
g74
(dp1056
sg83
g872
sg76
(lp1057
g69
(g90
g71
NtRp1058
(dp1059
g74
(dp1060
g94
g95
ssg83
g1054
sg76
(lp1061
S'http_accept_charset'
p1062
asbag69
(g90
g71
NtRp1063
(dp1064
g74
(dp1065
g101
g102
ssg83
g1054
sg76
(lp1066
S':'
asbag69
(g90
g71
NtRp1067
(dp1068
g74
(dp1069
sg83
g1054
sg76
(lp1070
g69
(g70
g71
NtRp1071
(dp1072
g74
(dp1073
g82
I4
ssg83
g1067
sg76
(lp1074
S'ISO-8859-1,utf-8;q=0.7,*;q=0.3'
p1075
asbasbasbag69
(g85
g71
NtRp1076
(dp1077
g74
(dp1078
sg83
g872
sg76
(lp1079
g69
(g90
g71
NtRp1080
(dp1081
g74
(dp1082
g94
g95
ssg83
g1076
sg76
(lp1083
S'http_accept_encoding'
p1084
asbag69
(g90
g71
NtRp1085
(dp1086
g74
(dp1087
g101
g102
ssg83
g1076
sg76
(lp1088
S':'
asbag69
(g90
g71
NtRp1089
(dp1090
g74
(dp1091
sg83
g1076
sg76
(lp1092
g69
(g70
g71
NtRp1093
(dp1094
g74
(dp1095
g82
I4
ssg83
g1089
sg76
(lp1096
S'gzip,deflate,sdch'
p1097
asbasbasbag69
(g85
g71
NtRp1098
(dp1099
g74
(dp1100
sg83
g872
sg76
(lp1101
g69
(g90
g71
NtRp1102
(dp1103
g74
(dp1104
g94
g95
ssg83
g1098
sg76
(lp1105
S'http_accept_language'
p1106
asbag69
(g90
g71
NtRp1107
(dp1108
g74
(dp1109
g101
g102
ssg83
g1098
sg76
(lp1110
S':'
asbag69
(g90
g71
NtRp1111
(dp1112
g74
(dp1113
sg83
g1098
sg76
(lp1114
g69
(g70
g71
NtRp1115
(dp1116
g74
(dp1117
g82
I4
ssg83
g1111
sg76
(lp1118
S'pt-BR,pt;q=0.8,en-US;q=0.6,en;q=0.4'
p1119
asbasbasbag69
(g85
g71
NtRp1120
(dp1121
g74
(dp1122
sg83
g872
sg76
(lp1123
g69
(g90
g71
NtRp1124
(dp1125
g74
(dp1126
g94
g95
ssg83
g1120
sg76
(lp1127
S'http_cache_control'
p1128
asbag69
(g90
g71
NtRp1129
(dp1130
g74
(dp1131
g101
g102
ssg83
g1120
sg76
(lp1132
S':'
asbag69
(g90
g71
NtRp1133
(dp1134
g74
(dp1135
sg83
g1120
sg76
(lp1136
g69
(g70
g71
NtRp1137
(dp1138
g74
(dp1139
g82
I4
ssg83
g1133
sg76
(lp1140
S'max-age=0'
p1141
asbasbasbag69
(g85
g71
NtRp1142
(dp1143
g74
(dp1144
sg83
g872
sg76
(lp1145
g69
(g90
g71
NtRp1146
(dp1147
g74
(dp1148
g94
g95
ssg83
g1142
sg76
(lp1149
S'http_connection'
p1150
asbag69
(g90
g71
NtRp1151
(dp1152
g74
(dp1153
g101
g102
ssg83
g1142
sg76
(lp1154
S':'
asbag69
(g90
g71
NtRp1155
(dp1156
g74
(dp1157
sg83
g1142
sg76
(lp1158
g69
(g70
g71
NtRp1159
(dp1160
g74
(dp1161
g82
I4
ssg83
g1155
sg76
(lp1162
S'keep-alive'
p1163
asbasbasbag69
(g85
g71
NtRp1164
(dp1165
g74
(dp1166
sg83
g872
sg76
(lp1167
g69
(g90
g71
NtRp1168
(dp1169
g74
(dp1170
g94
g95
ssg83
g1164
sg76
(lp1171
S'http_cookie'
p1172
asbag69
(g90
g71
NtRp1173
(dp1174
g74
(dp1175
g101
g102
ssg83
g1164
sg76
(lp1176
S':'
asbag69
(g90
g71
NtRp1177
(dp1178
g74
(dp1179
sg83
g1164
sg76
(lp1180
g69
(g70
g71
NtRp1181
(dp1182
g74
(dp1183
g82
I4
ssg83
g1177
sg76
(lp1184
S'session_id_admin=127.0.0.1-f3e4b0cb-9e15-4e27-aeb8-da76724c4de5; session_id_home=127.0.0.1-2b8677ad-1026-452f-8f04-b3fb68dc6854; session_id_projeto=127.0.0.1-e368b264-444a-4dee-8b41-31155ff54a04'
p1185
asbasbasbag69
(g85
g71
NtRp1186
(dp1187
g74
(dp1188
sg83
g872
sg76
(lp1189
g69
(g90
g71
NtRp1190
(dp1191
g74
(dp1192
g94
g95
ssg83
g1186
sg76
(lp1193
S'http_host'
p1194
asbag69
(g90
g71
NtRp1195
(dp1196
g74
(dp1197
g101
g102
ssg83
g1186
sg76
(lp1198
S':'
asbag69
(g90
g71
NtRp1199
(dp1200
g74
(dp1201
sg83
g1186
sg76
(lp1202
g69
(g70
g71
NtRp1203
(dp1204
g74
(dp1205
g82
I4
ssg83
g1199
sg76
(lp1206
S'127.0.0.1:8000'
p1207
asbasbasbag69
(g85
g71
NtRp1208
(dp1209
g74
(dp1210
sg83
g872
sg76
(lp1211
g69
(g90
g71
NtRp1212
(dp1213
g74
(dp1214
g94
g95
ssg83
g1208
sg76
(lp1215
S'http_user_agent'
p1216
asbag69
(g90
g71
NtRp1217
(dp1218
g74
(dp1219
g101
g102
ssg83
g1208
sg76
(lp1220
S':'
asbag69
(g90
g71
NtRp1221
(dp1222
g74
(dp1223
sg83
g1208
sg76
(lp1224
g69
(g70
g71
NtRp1225
(dp1226
g74
(dp1227
g82
I4
ssg83
g1221
sg76
(lp1228
S'Mozilla/5.0 (X11; Linux x86_64) AppleWebKit/537.4 (KHTML, like Gecko) Ubuntu/12.10 Chromium/22.0.1229.94 Chrome/22.0.1229.94 Safari/537.4'
p1229
asbasbasbag69
(g85
g71
NtRp1230
(dp1231
g74
(dp1232
sg83
g872
sg76
(lp1233
g69
(g90
g71
NtRp1234
(dp1235
g74
(dp1236
g94
g95
ssg83
g1230
sg76
(lp1237
S'is_jython'
p1238
asbag69
(g90
g71
NtRp1239
(dp1240
g74
(dp1241
g101
g102
ssg83
g1230
sg76
(lp1242
S':'
asbag69
(g90
g71
NtRp1243
(dp1244
g74
(dp1245
sg83
g1230
sg76
(lp1246
g69
(g70
g71
NtRp1247
(dp1248
g74
(dp1249
g82
I4
ssg83
g1243
sg76
(lp1250
g112
asbasbasbag69
(g85
g71
NtRp1251
(dp1252
g74
(dp1253
sg83
g872
sg76
(lp1254
g69
(g90
g71
NtRp1255
(dp1256
g74
(dp1257
g94
g95
ssg83
g1251
sg76
(lp1258
S'is_pypy'
p1259
asbag69
(g90
g71
NtRp1260
(dp1261
g74
(dp1262
g101
g102
ssg83
g1251
sg76
(lp1263
S':'
asbag69
(g90
g71
NtRp1264
(dp1265
g74
(dp1266
sg83
g1251
sg76
(lp1267
g69
(g70
g71
NtRp1268
(dp1269
g74
(dp1270
g82
I4
ssg83
g1264
sg76
(lp1271
g112
asbasbasbag69
(g85
g71
NtRp1272
(dp1273
g74
(dp1274
sg83
g872
sg76
(lp1275
g69
(g90
g71
NtRp1276
(dp1277
g74
(dp1278
g94
g95
ssg83
g1272
sg76
(lp1279
S'local_hosts'
p1280
asbag69
(g90
g71
NtRp1281
(dp1282
g74
(dp1283
g101
g102
ssg83
g1272
sg76
(lp1284
S':'
asbag69
(g90
g71
NtRp1285
(dp1286
g74
(dp1287
sg83
g1272
sg76
(lp1288
g69
(g70
g71
NtRp1289
(dp1290
g74
(dp1291
g82
I4
ssg83
g1285
sg76
(lp1292
g69
(g78
g71
NtRp1293
(dp1294
g74
(dp1295
g82
I3
ssg83
Nsg76
(lp1296
g69
(g85
g71
NtRp1297
(dp1298
g74
(dp1299
sg83
g1293
sg76
(lp1300
g69
(g90
g71
NtRp1301
(dp1302
g74
(dp1303
sg83
g1297
sg76
(lp1304
g69
(g70
g71
NtRp1305
(dp1306
g74
(dp1307
g82
I3
ssg83
g1301
sg76
(lp1308
S'127.0.1.1'
p1309
asbasbasbag69
(g85
g71
NtRp1310
(dp1311
g74
(dp1312
sg83
g1293
sg76
(lp1313
g69
(g90
g71
NtRp1314
(dp1315
g74
(dp1316
sg83
g1310
sg76
(lp1317
g69
(g70
g71
NtRp1318
(dp1319
g74
(dp1320
g82
I3
ssg83
g1314
sg76
(lp1321
S'::1'
p1322
asbasbasbag69
(g85
g71
NtRp1323
(dp1324
g74
(dp1325
sg83
g1293
sg76
(lp1326
g69
(g90
g71
NtRp1327
(dp1328
g74
(dp1329
sg83
g1323
sg76
(lp1330
g69
(g70
g71
NtRp1331
(dp1332
g74
(dp1333
g82
I3
ssg83
g1327
sg76
(lp1334
S'fernado-desktop'
p1335
asbasbasbag69
(g85
g71
NtRp1336
(dp1337
g74
(dp1338
sg83
g1293
sg76
(lp1339
g69
(g90
g71
NtRp1340
(dp1341
g74
(dp1342
sg83
g1336
sg76
(lp1343
g69
(g70
g71
NtRp1344
(dp1345
g74
(dp1346
g82
I3
ssg83
g1340
sg76
(lp1347
S'::ffff:127.0.0.1'
p1348
asbasbasbag69
(g85
g71
NtRp1349
(dp1350
g74
(dp1351
sg83
g1293
sg76
(lp1352
g69
(g90
g71
NtRp1353
(dp1354
g74
(dp1355
sg83
g1349
sg76
(lp1356
g69
(g70
g71
NtRp1357
(dp1358
g74
(dp1359
g82
I3
ssg83
g1353
sg76
(lp1360
S'127.0.0.1'
p1361
asbasbasbasbasbasbasbag69
(g85
g71
NtRp1362
(dp1363
g74
(dp1364
sg83
g872
sg76
(lp1365
g69
(g90
g71
NtRp1366
(dp1367
g74
(dp1368
g94
g95
ssg83
g1362
sg76
(lp1369
S'path_info'
p1370
asbag69
(g90
g71
NtRp1371
(dp1372
g74
(dp1373
g101
g102
ssg83
g1362
sg76
(lp1374
S':'
asbag69
(g90
g71
NtRp1375
(dp1376
g74
(dp1377
sg83
g1362
sg76
(lp1378
g69
(g70
g71
NtRp1379
(dp1380
g74
(dp1381
g82
I4
ssg83
g1375
sg76
(lp1382
S'/user/register'
p1383
asbasbasbag69
(g85
g71
NtRp1384
(dp1385
g74
(dp1386
sg83
g872
sg76
(lp1387
g69
(g90
g71
NtRp1388
(dp1389
g74
(dp1390
g94
g95
ssg83
g1384
sg76
(lp1391
S'query_string'
p1392
asbag69
(g90
g71
NtRp1393
(dp1394
g74
(dp1395
g101
g102
ssg83
g1384
sg76
(lp1396
S':'
asbag69
(g90
g71
NtRp1397
(dp1398
g74
(dp1399
sg83
g1384
sg76
(lp1400
g69
(g70
g71
NtRp1401
(dp1402
g74
(dp1403
g82
I4
ssg83
g1397
sg76
(lp1404
S'_next=/post/add'
p1405
asbasbasbag69
(g85
g71
NtRp1406
(dp1407
g74
(dp1408
sg83
g872
sg76
(lp1409
g69
(g90
g71
NtRp1410
(dp1411
g74
(dp1412
g94
g95
ssg83
g1406
sg76
(lp1413
S'remote_addr'
p1414
asbag69
(g90
g71
NtRp1415
(dp1416
g74
(dp1417
g101
g102
ssg83
g1406
sg76
(lp1418
S':'
asbag69
(g90
g71
NtRp1419
(dp1420
g74
(dp1421
sg83
g1406
sg76
(lp1422
g69
(g70
g71
NtRp1423
(dp1424
g74
(dp1425
g82
I4
ssg83
g1419
sg76
(lp1426
g237
asbasbasbag69
(g85
g71
NtRp1427
(dp1428
g74
(dp1429
sg83
g872
sg76
(lp1430
g69
(g90
g71
NtRp1431
(dp1432
g74
(dp1433
g94
g95
ssg83
g1427
sg76
(lp1434
S'remote_port'
p1435
asbag69
(g90
g71
NtRp1436
(dp1437
g74
(dp1438
g101
g102
ssg83
g1427
sg76
(lp1439
S':'
asbag69
(g90
g71
NtRp1440
(dp1441
g74
(dp1442
sg83
g1427
sg76
(lp1443
g69
(g70
g71
NtRp1444
(dp1445
g74
(dp1446
g82
I4
ssg83
g1440
sg76
(lp1447
S'59315'
p1448
asbasbasbag69
(g85
g71
NtRp1449
(dp1450
g74
(dp1451
sg83
g872
sg76
(lp1452
g69
(g90
g71
NtRp1453
(dp1454
g74
(dp1455
g94
g95
ssg83
g1449
sg76
(lp1456
S'request_method'
p1457
asbag69
(g90
g71
NtRp1458
(dp1459
g74
(dp1460
g101
g102
ssg83
g1449
sg76
(lp1461
S':'
asbag69
(g90
g71
NtRp1462
(dp1463
g74
(dp1464
sg83
g1449
sg76
(lp1465
g69
(g70
g71
NtRp1466
(dp1467
g74
(dp1468
g82
I4
ssg83
g1462
sg76
(lp1469
S'GET'
p1470
asbasbasbag69
(g85
g71
NtRp1471
(dp1472
g74
(dp1473
sg83
g872
sg76
(lp1474
g69
(g90
g71
NtRp1475
(dp1476
g74
(dp1477
g94
g95
ssg83
g1471
sg76
(lp1478
S'request_uri'
p1479
asbag69
(g90
g71
NtRp1480
(dp1481
g74
(dp1482
g101
g102
ssg83
g1471
sg76
(lp1483
S':'
asbag69
(g90
g71
NtRp1484
(dp1485
g74
(dp1486
sg83
g1471
sg76
(lp1487
g69
(g70
g71
NtRp1488
(dp1489
g74
(dp1490
g82
I4
ssg83
g1484
sg76
(lp1491
S'/projeto/initial/user/register?_next=/post/add'
p1492
asbasbasbag69
(g85
g71
NtRp1493
(dp1494
g74
(dp1495
sg83
g872
sg76
(lp1496
g69
(g90
g71
NtRp1497
(dp1498
g74
(dp1499
g94
g95
ssg83
g1493
sg76
(lp1500
S'script_name'
p1501
asbag69
(g90
g71
NtRp1502
(dp1503
g74
(dp1504
g101
g102
ssg83
g1493
sg76
(lp1505
S':'
asbag69
(g90
g71
NtRp1506
(dp1507
g74
(dp1508
sg83
g1493
sg76
(lp1509
g69
(g70
g71
NtRp1510
(dp1511
g74
(dp1512
g82
I4
ssg83
g1506
sg76
(lp1513
S''
asbasbasbag69
(g85
g71
NtRp1514
(dp1515
g74
(dp1516
sg83
g872
sg76
(lp1517
g69
(g90
g71
NtRp1518
(dp1519
g74
(dp1520
g94
g95
ssg83
g1514
sg76
(lp1521
S'server_name'
p1522
asbag69
(g90
g71
NtRp1523
(dp1524
g74
(dp1525
g101
g102
ssg83
g1514
sg76
(lp1526
S':'
asbag69
(g90
g71
NtRp1527
(dp1528
g74
(dp1529
sg83
g1514
sg76
(lp1530
g69
(g70
g71
NtRp1531
(dp1532
g74
(dp1533
g82
I4
ssg83
g1527
sg76
(lp1534
S'fernado-desktop'
p1535
asbasbasbag69
(g85
g71
NtRp1536
(dp1537
g74
(dp1538
sg83
g872
sg76
(lp1539
g69
(g90
g71
NtRp1540
(dp1541
g74
(dp1542
g94
g95
ssg83
g1536
sg76
(lp1543
S'server_port'
p1544
asbag69
(g90
g71
NtRp1545
(dp1546
g74
(dp1547
g101
g102
ssg83
g1536
sg76
(lp1548
S':'
asbag69
(g90
g71
NtRp1549
(dp1550
g74
(dp1551
sg83
g1536
sg76
(lp1552
g69
(g70
g71
NtRp1553
(dp1554
g74
(dp1555
g82
I4
ssg83
g1549
sg76
(lp1556
S'8000'
p1557
asbasbasbag69
(g85
g71
NtRp1558
(dp1559
g74
(dp1560
sg83
g872
sg76
(lp1561
g69
(g90
g71
NtRp1562
(dp1563
g74
(dp1564
g94
g95
ssg83
g1558
sg76
(lp1565
S'server_protocol'
p1566
asbag69
(g90
g71
NtRp1567
(dp1568
g74
(dp1569
g101
g102
ssg83
g1558
sg76
(lp1570
S':'
asbag69
(g90
g71
NtRp1571
(dp1572
g74
(dp1573
sg83
g1558
sg76
(lp1574
g69
(g70
g71
NtRp1575
(dp1576
g74
(dp1577
g82
I4
ssg83
g1571
sg76
(lp1578
S'HTTP/1.1'
p1579
asbasbasbag69
(g85
g71
NtRp1580
(dp1581
g74
(dp1582
sg83
g872
sg76
(lp1583
g69
(g90
g71
NtRp1584
(dp1585
g74
(dp1586
g94
g95
ssg83
g1580
sg76
(lp1587
S'server_software'
p1588
asbag69
(g90
g71
NtRp1589
(dp1590
g74
(dp1591
g101
g102
ssg83
g1580
sg76
(lp1592
S':'
asbag69
(g90
g71
NtRp1593
(dp1594
g74
(dp1595
sg83
g1580
sg76
(lp1596
g69
(g70
g71
NtRp1597
(dp1598
g74
(dp1599
g82
I4
ssg83
g1593
sg76
(lp1600
S'Rocket 1.2.6'
p1601
asbasbasbag69
(g85
g71
NtRp1602
(dp1603
g74
(dp1604
sg83
g872
sg76
(lp1605
g69
(g90
g71
NtRp1606
(dp1607
g74
(dp1608
g94
g95
ssg83
g1602
sg76
(lp1609
S'web2py_original_uri'
p1610
asbag69
(g90
g71
NtRp1611
(dp1612
g74
(dp1613
g101
g102
ssg83
g1602
sg76
(lp1614
S':'
asbag69
(g90
g71
NtRp1615
(dp1616
g74
(dp1617
sg83
g1602
sg76
(lp1618
g69
(g70
g71
NtRp1619
(dp1620
g74
(dp1621
g82
I4
ssg83
g1615
sg76
(lp1622
S'/user/register?_next=/post/add'
p1623
asbasbasbag69
(g85
g71
NtRp1624
(dp1625
g74
(dp1626
sg83
g872
sg76
(lp1627
g69
(g90
g71
NtRp1628
(dp1629
g74
(dp1630
g94
g95
ssg83
g1624
sg76
(lp1631
S'web2py_path'
p1632
asbag69
(g90
g71
NtRp1633
(dp1634
g74
(dp1635
g101
g102
ssg83
g1624
sg76
(lp1636
S':'
asbag69
(g90
g71
NtRp1637
(dp1638
g74
(dp1639
sg83
g1624
sg76
(lp1640
g69
(g70
g71
NtRp1641
(dp1642
g74
(dp1643
g82
I4
ssg83
g1637
sg76
(lp1644
g919
asbasbasbag69
(g85
g71
NtRp1645
(dp1646
g74
(dp1647
sg83
g872
sg76
(lp1648
g69
(g90
g71
NtRp1649
(dp1650
g74
(dp1651
g94
g95
ssg83
g1645
sg76
(lp1652
S'web2py_version'
p1653
asbag69
(g90
g71
NtRp1654
(dp1655
g74
(dp1656
g101
g102
ssg83
g1645
sg76
(lp1657
S':'
asbag69
(g90
g71
NtRp1658
(dp1659
g74
(dp1660
sg83
g1645
sg76
(lp1661
g69
(g70
g71
NtRp1662
(dp1663
g74
(dp1664
g82
I4
ssg83
g1658
sg76
(lp1665
g69
(g78
g71
NtRp1666
(dp1667
g74
(dp1668
g82
I3
ssg83
Nsg76
(lp1669
g69
(g85
g71
NtRp1670
(dp1671
g74
(dp1672
sg83
g1666
sg76
(lp1673
g69
(g90
g71
NtRp1674
(dp1675
g74
(dp1676
sg83
g1670
sg76
(lp1677
g69
(g70
g71
NtRp1678
(dp1679
g74
(dp1680
g82
I3
ssg83
g1674
sg76
(lp1681
S'2'
asbasbasbag69
(g85
g71
NtRp1682
(dp1683
g74
(dp1684
sg83
g1666
sg76
(lp1685
g69
(g90
g71
NtRp1686
(dp1687
g74
(dp1688
sg83
g1682
sg76
(lp1689
g69
(g70
g71
NtRp1690
(dp1691
g74
(dp1692
g82
I3
ssg83
g1686
sg76
(lp1693
S'3'
asbasbasbag69
(g85
g71
NtRp1694
(dp1695
g74
(dp1696
sg83
g1666
sg76
(lp1697
g69
(g90
g71
NtRp1698
(dp1699
g74
(dp1700
sg83
g1694
sg76
(lp1701
g69
(g70
g71
NtRp1702
(dp1703
g74
(dp1704
g82
I3
ssg83
g1698
sg76
(lp1705
S'2'
asbasbasbag69
(g85
g71
NtRp1706
(dp1707
g74
(dp1708
sg83
g1666
sg76
(lp1709
g69
(g90
g71
NtRp1710
(dp1711
g74
(dp1712
sg83
g1706
sg76
(lp1713
g69
(g70
g71
NtRp1714
(dp1715
g74
(dp1716
g82
I3
ssg83
g1710
sg76
(lp1717
S'datetime.datetime(2012, 12, 17, 15, 3, 30)'
p1718
asbasbasbag69
(g85
g71
NtRp1719
(dp1720
g74
(dp1721
sg83
g1666
sg76
(lp1722
g69
(g90
g71
NtRp1723
(dp1724
g74
(dp1725
sg83
g1719
sg76
(lp1726
g69
(g70
g71
NtRp1727
(dp1728
g74
(dp1729
g82
I3
ssg83
g1723
sg76
(lp1730
S'stable'
p1731
asbasbasbasbasbasbasbag69
(g85
g71
NtRp1732
(dp1733
g74
(dp1734
sg83
g872
sg76
(lp1735
g69
(g90
g71
NtRp1736
(dp1737
g74
(dp1738
g94
g95
ssg83
g1732
sg76
(lp1739
S'wsgi_errors'
p1740
asbag69
(g90
g71
NtRp1741
(dp1742
g74
(dp1743
g101
g102
ssg83
g1732
sg76
(lp1744
S':'
asbag69
(g90
g71
NtRp1745
(dp1746
g74
(dp1747
sg83
g1732
sg76
(lp1748
g69
(g70
g71
NtRp1749
(dp1750
g74
(dp1751
g82
I4
ssg83
g1745
sg76
(lp1752
S"<open file '<stderr>', mode 'w' at 0x7f9843337270>"
p1753
asbasbasbag69
(g85
g71
NtRp1754
(dp1755
g74
(dp1756
sg83
g872
sg76
(lp1757
g69
(g90
g71
NtRp1758
(dp1759
g74
(dp1760
g94
g95
ssg83
g1754
sg76
(lp1761
S'wsgi_file_wrapper'
p1762
asbag69
(g90
g71
NtRp1763
(dp1764
g74
(dp1765
g101
g102
ssg83
g1754
sg76
(lp1766
S':'
asbag69
(g90
g71
NtRp1767
(dp1768
g74
(dp1769
sg83
g1754
sg76
(lp1770
g69
(g70
g71
NtRp1771
(dp1772
g74
(dp1773
g82
I4
ssg83
g1767
sg76
(lp1774
S'<class wsgiref.util.FileWrapper at 0x2ca8a10>'
p1775
asbasbasbag69
(g85
g71
NtRp1776
(dp1777
g74
(dp1778
sg83
g872
sg76
(lp1779
g69
(g90
g71
NtRp1780
(dp1781
g74
(dp1782
g94
g95
ssg83
g1776
sg76
(lp1783
S'wsgi_input'
p1784
asbag69
(g90
g71
NtRp1785
(dp1786
g74
(dp1787
g101
g102
ssg83
g1776
sg76
(lp1788
S':'
asbag69
(g90
g71
NtRp1789
(dp1790
g74
(dp1791
sg83
g1776
sg76
(lp1792
g69
(g70
g71
NtRp1793
(dp1794
g74
(dp1795
g82
I4
ssg83
g1789
sg76
(lp1796
S'<socket._fileobject object at 0x7f9824072e50>'
p1797
asbasbasbag69
(g85
g71
NtRp1798
(dp1799
g74
(dp1800
sg83
g872
sg76
(lp1801
g69
(g90
g71
NtRp1802
(dp1803
g74
(dp1804
g94
g95
ssg83
g1798
sg76
(lp1805
S'wsgi_multiprocess'
p1806
asbag69
(g90
g71
NtRp1807
(dp1808
g74
(dp1809
g101
g102
ssg83
g1798
sg76
(lp1810
S':'
asbag69
(g90
g71
NtRp1811
(dp1812
g74
(dp1813
sg83
g1798
sg76
(lp1814
g69
(g70
g71
NtRp1815
(dp1816
g74
(dp1817
g82
I4
ssg83
g1811
sg76
(lp1818
g112
asbasbasbag69
(g85
g71
NtRp1819
(dp1820
g74
(dp1821
sg83
g872
sg76
(lp1822
g69
(g90
g71
NtRp1823
(dp1824
g74
(dp1825
g94
g95
ssg83
g1819
sg76
(lp1826
S'wsgi_multithread'
p1827
asbag69
(g90
g71
NtRp1828
(dp1829
g74
(dp1830
g101
g102
ssg83
g1819
sg76
(lp1831
S':'
asbag69
(g90
g71
NtRp1832
(dp1833
g74
(dp1834
sg83
g1819
sg76
(lp1835
g69
(g70
g71
NtRp1836
(dp1837
g74
(dp1838
g82
I4
ssg83
g1832
sg76
(lp1839
S'True'
p1840
asbasbasbag69
(g85
g71
NtRp1841
(dp1842
g74
(dp1843
sg83
g872
sg76
(lp1844
g69
(g90
g71
NtRp1845
(dp1846
g74
(dp1847
g94
g95
ssg83
g1841
sg76
(lp1848
S'wsgi_run_once'
p1849
asbag69
(g90
g71
NtRp1850
(dp1851
g74
(dp1852
g101
g102
ssg83
g1841
sg76
(lp1853
S':'
asbag69
(g90
g71
NtRp1854
(dp1855
g74
(dp1856
sg83
g1841
sg76
(lp1857
g69
(g70
g71
NtRp1858
(dp1859
g74
(dp1860
g82
I4
ssg83
g1854
sg76
(lp1861
g112
asbasbasbag69
(g85
g71
NtRp1862
(dp1863
g74
(dp1864
sg83
g872
sg76
(lp1865
g69
(g90
g71
NtRp1866
(dp1867
g74
(dp1868
g94
g95
ssg83
g1862
sg76
(lp1869
S'wsgi_url_scheme'
p1870
asbag69
(g90
g71
NtRp1871
(dp1872
g74
(dp1873
g101
g102
ssg83
g1862
sg76
(lp1874
S':'
asbag69
(g90
g71
NtRp1875
(dp1876
g74
(dp1877
sg83
g1862
sg76
(lp1878
g69
(g70
g71
NtRp1879
(dp1880
g74
(dp1881
g82
I4
ssg83
g1875
sg76
(lp1882
S'http'
p1883
asbasbasbag69
(g85
g71
NtRp1884
(dp1885
g74
(dp1886
sg83
g872
sg76
(lp1887
g69
(g90
g71
NtRp1888
(dp1889
g74
(dp1890
g94
g95
ssg83
g1884
sg76
(lp1891
S'wsgi_version'
p1892
asbag69
(g90
g71
NtRp1893
(dp1894
g74
(dp1895
g101
g102
ssg83
g1884
sg76
(lp1896
S':'
asbag69
(g90
g71
NtRp1897
(dp1898
g74
(dp1899
sg83
g1884
sg76
(lp1900
g69
(g70
g71
NtRp1901
(dp1902
g74
(dp1903
g82
I4
ssg83
g1897
sg76
(lp1904
g69
(g78
g71
NtRp1905
(dp1906
g74
(dp1907
g82
I3
ssg83
Nsg76
(lp1908
g69
(g85
g71
NtRp1909
(dp1910
g74
(dp1911
sg83
g1905
sg76
(lp1912
g69
(g90
g71
NtRp1913
(dp1914
g74
(dp1915
sg83
g1909
sg76
(lp1916
g69
(g70
g71
NtRp1917
(dp1918
g74
(dp1919
g82
I3
ssg83
g1913
sg76
(lp1920
S'1'
asbasbasbag69
(g85
g71
NtRp1921
(dp1922
g74
(dp1923
sg83
g1905
sg76
(lp1924
g69
(g90
g71
NtRp1925
(dp1926
g74
(dp1927
sg83
g1921
sg76
(lp1928
g69
(g70
g71
NtRp1929
(dp1930
g74
(dp1931
g82
I3
ssg83
g1925
sg76
(lp1932
S'0'
asbasbasbasbasbasbasbasbasbasbasbag69
(g85
g71
NtRp1933
(dp1934
g74
(dp1935
sg83
g79
sg76
(lp1936
g69
(g90
g71
NtRp1937
(dp1938
g74
(dp1939
g94
g95
ssg83
g1933
sg76
(lp1940
S'extension'
p1941
asbag69
(g90
g71
NtRp1942
(dp1943
g74
(dp1944
g101
g102
ssg83
g1933
sg76
(lp1945
S':'
asbag69
(g90
g71
NtRp1946
(dp1947
g74
(dp1948
sg83
g1933
sg76
(lp1949
g69
(g70
g71
NtRp1950
(dp1951
g74
(dp1952
g82
I5
ssg83
g1946
sg76
(lp1953
S'html'
p1954
asbasbasbag69
(g85
g71
NtRp1955
(dp1956
g74
(dp1957
sg83
g79
sg76
(lp1958
g69
(g90
g71
NtRp1959
(dp1960
g74
(dp1961
g94
g95
ssg83
g1955
sg76
(lp1962
S'folder'
p1963
asbag69
(g90
g71
NtRp1964
(dp1965
g74
(dp1966
g101
g102
ssg83
g1955
sg76
(lp1967
S':'
asbag69
(g90
g71
NtRp1968
(dp1969
g74
(dp1970
sg83
g1955
sg76
(lp1971
g69
(g70
g71
NtRp1972
(dp1973
g74
(dp1974
g82
I5
ssg83
g1968
sg76
(lp1975
S'/var/www/web2py_curso/applications/projeto/'
p1976
asbasbasbag69
(g85
g71
NtRp1977
(dp1978
g74
(dp1979
sg83
g79
sg76
(lp1980
g69
(g90
g71
NtRp1981
(dp1982
g74
(dp1983
g94
g95
ssg83
g1977
sg76
(lp1984
S'function'
p1985
asbag69
(g90
g71
NtRp1986
(dp1987
g74
(dp1988
g101
g102
ssg83
g1977
sg76
(lp1989
S':'
asbag69
(g90
g71
NtRp1990
(dp1991
g74
(dp1992
sg83
g1977
sg76
(lp1993
g69
(g70
g71
NtRp1994
(dp1995
g74
(dp1996
g82
I5
ssg83
g1990
sg76
(lp1997
S'user'
p1998
asbasbasbag69
(g85
g71
NtRp1999
(dp2000
g74
(dp2001
sg83
g79
sg76
(lp2002
g69
(g90
g71
NtRp2003
(dp2004
g74
(dp2005
g94
g95
ssg83
g1999
sg76
(lp2006
S'get_vars'
p2007
asbag69
(g90
g71
NtRp2008
(dp2009
g74
(dp2010
g101
g102
ssg83
g1999
sg76
(lp2011
S':'
asbag69
(g90
g71
NtRp2012
(dp2013
g74
(dp2014
sg83
g1999
sg76
(lp2015
g69
(g70
g71
NtRp2016
(dp2017
g74
(dp2018
g82
I5
ssg83
g2012
sg76
(lp2019
g69
(g78
g71
NtRp2020
(dp2021
g74
(dp2022
g82
I4
ssg83
Nsg76
(lp2023
sbasbasbasbag69
(g85
g71
NtRp2024
(dp2025
g74
(dp2026
sg83
g79
sg76
(lp2027
g69
(g90
g71
NtRp2028
(dp2029
g74
(dp2030
g94
g95
ssg83
g2024
sg76
(lp2031
S'global_settings'
p2032
asbag69
(g90
g71
NtRp2033
(dp2034
g74
(dp2035
g101
g102
ssg83
g2024
sg76
(lp2036
S':'
asbag69
(g90
g71
NtRp2037
(dp2038
g74
(dp2039
sg83
g2024
sg76
(lp2040
g69
(g70
g71
NtRp2041
(dp2042
g74
(dp2043
g82
I5
ssg83
g2037
sg76
(lp2044
g69
(g78
g71
NtRp2045
(dp2046
g74
(dp2047
g82
I4
ssg83
Nsg76
(lp2048
g69
(g85
g71
NtRp2049
(dp2050
g74
(dp2051
sg83
g2045
sg76
(lp2052
g69
(g90
g71
NtRp2053
(dp2054
g74
(dp2055
g94
g95
ssg83
g2049
sg76
(lp2056
g884
asbag69
(g90
g71
NtRp2057
(dp2058
g74
(dp2059
g101
g102
ssg83
g2049
sg76
(lp2060
S':'
asbag69
(g90
g71
NtRp2061
(dp2062
g74
(dp2063
sg83
g2049
sg76
(lp2064
g69
(g70
g71
NtRp2065
(dp2066
g74
(dp2067
g82
I4
ssg83
g2061
sg76
(lp2068
S"set(['/var/www/web2py_curso/applications/home/', '/var/www/web2py_curso/applications/projeto/'])"
p2069
asbasbasbag69
(g85
g71
NtRp2070
(dp2071
g74
(dp2072
sg83
g2045
sg76
(lp2073
g69
(g90
g71
NtRp2074
(dp2075
g74
(dp2076
g94
g95
ssg83
g2070
sg76
(lp2077
g906
asbag69
(g90
g71
NtRp2078
(dp2079
g74
(dp2080
g101
g102
ssg83
g2070
sg76
(lp2081
S':'
asbag69
(g90
g71
NtRp2082
(dp2083
g74
(dp2084
sg83
g2070
sg76
(lp2085
g69
(g70
g71
NtRp2086
(dp2087
g74
(dp2088
g82
I4
ssg83
g2082
sg76
(lp2089
g919
asbasbasbag69
(g85
g71
NtRp2090
(dp2091
g74
(dp2092
sg83
g2045
sg76
(lp2093
g69
(g90
g71
NtRp2094
(dp2095
g74
(dp2096
g94
g95
ssg83
g2090
sg76
(lp2097
g928
asbag69
(g90
g71
NtRp2098
(dp2099
g74
(dp2100
g101
g102
ssg83
g2090
sg76
(lp2101
S':'
asbag69
(g90
g71
NtRp2102
(dp2103
g74
(dp2104
sg83
g2090
sg76
(lp2105
g69
(g70
g71
NtRp2106
(dp2107
g74
(dp2108
g82
I4
ssg83
g2102
sg76
(lp2109
g69
(g78
g71
NtRp2110
(dp2111
g74
(dp2112
g82
I3
ssg83
Nsg76
(lp2113
sbasbasbasbag69
(g85
g71
NtRp2114
(dp2115
g74
(dp2116
sg83
g2045
sg76
(lp2117
g69
(g90
g71
NtRp2118
(dp2119
g74
(dp2120
g94
g95
ssg83
g2114
sg76
(lp2121
g953
asbag69
(g90
g71
NtRp2122
(dp2123
g74
(dp2124
g101
g102
ssg83
g2114
sg76
(lp2125
S':'
asbag69
(g90
g71
NtRp2126
(dp2127
g74
(dp2128
sg83
g2114
sg76
(lp2129
g69
(g70
g71
NtRp2130
(dp2131
g74
(dp2132
g82
I4
ssg83
g2126
sg76
(lp2133
S"<Values at 0x2d53488: {'verbose': False, 'ip': '127.0.0.1', 'with_scheduler': False, 'ips': [], 'shutdown_timeout': 5, 'taskbar': False, 'port': 8000, 'maxthreads': None, 'softcron': False, 'server_name': 'fernado-desktop', 'bpython': False, 'nogui': False, 'pid_filename': 'httpserver.pid', 'extcron': False, 'runcron': False, 'run_system_tests': False, 'test': None, 'folder': '/var/www/web2py_curso', 'config': '', 'minthreads': None, 'winservice': '', 'shell': None, 'run': '', 'log_filename': 'httpserver.log', 'debuglevel': 30, 'args': [''], 'socket_timeout': 5, 'ssl_ca_certificate': None, 'scheduler': None, 'profiler_filename': None, 'ssl_private_key': '', 'scheduler_groups': None, 'password': '123456', 'request_queue_size': 5, 'ssl_certificate': '', 'cronjob': False, 'numthreads': None, 'quiet': False, 'interfaces': None, 'import_models': False, 'timeout': 10, 'plain': False, 'nobanner': False}>"
p2134
asbasbasbag69
(g85
g71
NtRp2135
(dp2136
g74
(dp2137
sg83
g2045
sg76
(lp2138
g69
(g90
g71
NtRp2139
(dp2140
g74
(dp2141
g94
g95
ssg83
g2135
sg76
(lp2142
g975
asbag69
(g90
g71
NtRp2143
(dp2144
g74
(dp2145
g101
g102
ssg83
g2135
sg76
(lp2146
S':'
asbag69
(g90
g71
NtRp2147
(dp2148
g74
(dp2149
sg83
g2135
sg76
(lp2150
g69
(g70
g71
NtRp2151
(dp2152
g74
(dp2153
g82
I4
ssg83
g2147
sg76
(lp2154
S'set([])'
p2155
asbasbasbag69
(g85
g71
NtRp2156
(dp2157
g74
(dp2158
sg83
g2045
sg76
(lp2159
g69
(g90
g71
NtRp2160
(dp2161
g74
(dp2162
g94
g95
ssg83
g2156
sg76
(lp2163
g997
asbag69
(g90
g71
NtRp2164
(dp2165
g74
(dp2166
g101
g102
ssg83
g2156
sg76
(lp2167
S':'
asbag69
(g90
g71
NtRp2168
(dp2169
g74
(dp2170
sg83
g2156
sg76
(lp2171
g69
(g70
g71
NtRp2172
(dp2173
g74
(dp2174
g82
I4
ssg83
g2168
sg76
(lp2175
g112
asbasbasbag69
(g85
g71
NtRp2176
(dp2177
g74
(dp2178
sg83
g2045
sg76
(lp2179
g69
(g90
g71
NtRp2180
(dp2181
g74
(dp2182
g94
g95
ssg83
g2176
sg76
(lp2183
g1018
asbag69
(g90
g71
NtRp2184
(dp2185
g74
(dp2186
g101
g102
ssg83
g2176
sg76
(lp2187
S':'
asbag69
(g90
g71
NtRp2188
(dp2189
g74
(dp2190
sg83
g2176
sg76
(lp2191
g69
(g70
g71
NtRp2192
(dp2193
g74
(dp2194
g82
I4
ssg83
g2188
sg76
(lp2195
g1031
asbasbasbag69
(g85
g71
NtRp2196
(dp2197
g74
(dp2198
sg83
g2045
sg76
(lp2199
g69
(g90
g71
NtRp2200
(dp2201
g74
(dp2202
g94
g95
ssg83
g2196
sg76
(lp2203
g1238
asbag69
(g90
g71
NtRp2204
(dp2205
g74
(dp2206
g101
g102
ssg83
g2196
sg76
(lp2207
S':'
asbag69
(g90
g71
NtRp2208
(dp2209
g74
(dp2210
sg83
g2196
sg76
(lp2211
g69
(g70
g71
NtRp2212
(dp2213
g74
(dp2214
g82
I4
ssg83
g2208
sg76
(lp2215
g112
asbasbasbag69
(g85
g71
NtRp2216
(dp2217
g74
(dp2218
sg83
g2045
sg76
(lp2219
g69
(g90
g71
NtRp2220
(dp2221
g74
(dp2222
g94
g95
ssg83
g2216
sg76
(lp2223
g1259
asbag69
(g90
g71
NtRp2224
(dp2225
g74
(dp2226
g101
g102
ssg83
g2216
sg76
(lp2227
S':'
asbag69
(g90
g71
NtRp2228
(dp2229
g74
(dp2230
sg83
g2216
sg76
(lp2231
g69
(g70
g71
NtRp2232
(dp2233
g74
(dp2234
g82
I4
ssg83
g2228
sg76
(lp2235
g112
asbasbasbag69
(g85
g71
NtRp2236
(dp2237
g74
(dp2238
sg83
g2045
sg76
(lp2239
g69
(g90
g71
NtRp2240
(dp2241
g74
(dp2242
g94
g95
ssg83
g2236
sg76
(lp2243
g1280
asbag69
(g90
g71
NtRp2244
(dp2245
g74
(dp2246
g101
g102
ssg83
g2236
sg76
(lp2247
S':'
asbag69
(g90
g71
NtRp2248
(dp2249
g74
(dp2250
sg83
g2236
sg76
(lp2251
g69
(g70
g71
NtRp2252
(dp2253
g74
(dp2254
g82
I4
ssg83
g2248
sg76
(lp2255
g69
(g78
g71
NtRp2256
(dp2257
g74
(dp2258
g82
I3
ssg83
Nsg76
(lp2259
g69
(g85
g71
NtRp2260
(dp2261
g74
(dp2262
sg83
g2256
sg76
(lp2263
g69
(g90
g71
NtRp2264
(dp2265
g74
(dp2266
sg83
g2260
sg76
(lp2267
g69
(g70
g71
NtRp2268
(dp2269
g74
(dp2270
g82
I3
ssg83
g2264
sg76
(lp2271
g1309
asbasbasbag69
(g85
g71
NtRp2272
(dp2273
g74
(dp2274
sg83
g2256
sg76
(lp2275
g69
(g90
g71
NtRp2276
(dp2277
g74
(dp2278
sg83
g2272
sg76
(lp2279
g69
(g70
g71
NtRp2280
(dp2281
g74
(dp2282
g82
I3
ssg83
g2276
sg76
(lp2283
g1322
asbasbasbag69
(g85
g71
NtRp2284
(dp2285
g74
(dp2286
sg83
g2256
sg76
(lp2287
g69
(g90
g71
NtRp2288
(dp2289
g74
(dp2290
sg83
g2284
sg76
(lp2291
g69
(g70
g71
NtRp2292
(dp2293
g74
(dp2294
g82
I3
ssg83
g2288
sg76
(lp2295
g1335
asbasbasbag69
(g85
g71
NtRp2296
(dp2297
g74
(dp2298
sg83
g2256
sg76
(lp2299
g69
(g90
g71
NtRp2300
(dp2301
g74
(dp2302
sg83
g2296
sg76
(lp2303
g69
(g70
g71
NtRp2304
(dp2305
g74
(dp2306
g82
I3
ssg83
g2300
sg76
(lp2307
g1348
asbasbasbag69
(g85
g71
NtRp2308
(dp2309
g74
(dp2310
sg83
g2256
sg76
(lp2311
g69
(g90
g71
NtRp2312
(dp2313
g74
(dp2314
sg83
g2308
sg76
(lp2315
g69
(g70
g71
NtRp2316
(dp2317
g74
(dp2318
g82
I3
ssg83
g2312
sg76
(lp2319
g1361
asbasbasbasbasbasbasbag69
(g85
g71
NtRp2320
(dp2321
g74
(dp2322
sg83
g2045
sg76
(lp2323
g69
(g90
g71
NtRp2324
(dp2325
g74
(dp2326
g94
g95
ssg83
g2320
sg76
(lp2327
g1653
asbag69
(g90
g71
NtRp2328
(dp2329
g74
(dp2330
g101
g102
ssg83
g2320
sg76
(lp2331
S':'
asbag69
(g90
g71
NtRp2332
(dp2333
g74
(dp2334
sg83
g2320
sg76
(lp2335
g69
(g70
g71
NtRp2336
(dp2337
g74
(dp2338
g82
I4
ssg83
g2332
sg76
(lp2339
g69
(g78
g71
NtRp2340
(dp2341
g74
(dp2342
g82
I3
ssg83
Nsg76
(lp2343
g69
(g85
g71
NtRp2344
(dp2345
g74
(dp2346
sg83
g2340
sg76
(lp2347
g69
(g90
g71
NtRp2348
(dp2349
g74
(dp2350
sg83
g2344
sg76
(lp2351
g69
(g70
g71
NtRp2352
(dp2353
g74
(dp2354
g82
I3
ssg83
g2348
sg76
(lp2355
S'2'
asbasbasbag69
(g85
g71
NtRp2356
(dp2357
g74
(dp2358
sg83
g2340
sg76
(lp2359
g69
(g90
g71
NtRp2360
(dp2361
g74
(dp2362
sg83
g2356
sg76
(lp2363
g69
(g70
g71
NtRp2364
(dp2365
g74
(dp2366
g82
I3
ssg83
g2360
sg76
(lp2367
S'3'
asbasbasbag69
(g85
g71
NtRp2368
(dp2369
g74
(dp2370
sg83
g2340
sg76
(lp2371
g69
(g90
g71
NtRp2372
(dp2373
g74
(dp2374
sg83
g2368
sg76
(lp2375
g69
(g70
g71
NtRp2376
(dp2377
g74
(dp2378
g82
I3
ssg83
g2372
sg76
(lp2379
S'2'
asbasbasbag69
(g85
g71
NtRp2380
(dp2381
g74
(dp2382
sg83
g2340
sg76
(lp2383
g69
(g90
g71
NtRp2384
(dp2385
g74
(dp2386
sg83
g2380
sg76
(lp2387
g69
(g70
g71
NtRp2388
(dp2389
g74
(dp2390
g82
I3
ssg83
g2384
sg76
(lp2391
S'datetime.datetime(2012, 12, 17, 15, 3, 30)'
p2392
asbasbasbag69
(g85
g71
NtRp2393
(dp2394
g74
(dp2395
sg83
g2340
sg76
(lp2396
g69
(g90
g71
NtRp2397
(dp2398
g74
(dp2399
sg83
g2393
sg76
(lp2400
g69
(g70
g71
NtRp2401
(dp2402
g74
(dp2403
g82
I3
ssg83
g2397
sg76
(lp2404
g1731
asbasbasbasbasbasbasbasbasbasbasbag69
(g85
g71
NtRp2405
(dp2406
g74
(dp2407
sg83
g79
sg76
(lp2408
g69
(g90
g71
NtRp2409
(dp2410
g74
(dp2411
g94
g95
ssg83
g2405
sg76
(lp2412
S'is_https'
p2413
asbag69
(g90
g71
NtRp2414
(dp2415
g74
(dp2416
g101
g102
ssg83
g2405
sg76
(lp2417
S':'
asbag69
(g90
g71
NtRp2418
(dp2419
g74
(dp2420
sg83
g2405
sg76
(lp2421
g69
(g70
g71
NtRp2422
(dp2423
g74
(dp2424
g82
I5
ssg83
g2418
sg76
(lp2425
g112
asbasbasbag69
(g85
g71
NtRp2426
(dp2427
g74
(dp2428
sg83
g79
sg76
(lp2429
g69
(g90
g71
NtRp2430
(dp2431
g74
(dp2432
g94
g95
ssg83
g2426
sg76
(lp2433
S'is_local'
p2434
asbag69
(g90
g71
NtRp2435
(dp2436
g74
(dp2437
g101
g102
ssg83
g2426
sg76
(lp2438
S':'
asbag69
(g90
g71
NtRp2439
(dp2440
g74
(dp2441
sg83
g2426
sg76
(lp2442
g69
(g70
g71
NtRp2443
(dp2444
g74
(dp2445
g82
I5
ssg83
g2439
sg76
(lp2446
g1840
asbasbasbag69
(g85
g71
NtRp2447
(dp2448
g74
(dp2449
sg83
g79
sg76
(lp2450
g69
(g90
g71
NtRp2451
(dp2452
g74
(dp2453
g94
g95
ssg83
g2447
sg76
(lp2454
S'is_restful'
p2455
asbag69
(g90
g71
NtRp2456
(dp2457
g74
(dp2458
g101
g102
ssg83
g2447
sg76
(lp2459
S':'
asbag69
(g90
g71
NtRp2460
(dp2461
g74
(dp2462
sg83
g2447
sg76
(lp2463
g69
(g70
g71
NtRp2464
(dp2465
g74
(dp2466
g82
I5
ssg83
g2460
sg76
(lp2467
g112
asbasbasbag69
(g85
g71
NtRp2468
(dp2469
g74
(dp2470
sg83
g79
sg76
(lp2471
g69
(g90
g71
NtRp2472
(dp2473
g74
(dp2474
g94
g95
ssg83
g2468
sg76
(lp2475
S'now'
p2476
asbag69
(g90
g71
NtRp2477
(dp2478
g74
(dp2479
g101
g102
ssg83
g2468
sg76
(lp2480
S':'
asbag69
(g90
g71
NtRp2481
(dp2482
g74
(dp2483
sg83
g2468
sg76
(lp2484
g69
(g70
g71
NtRp2485
(dp2486
g74
(dp2487
g82
I5
ssg83
g2481
sg76
(lp2488
S'datetime.datetime(2013, 1, 24, 14, 35, 6, 121544)'
p2489
asbasbasbag69
(g85
g71
NtRp2490
(dp2491
g74
(dp2492
sg83
g79
sg76
(lp2493
g69
(g90
g71
NtRp2494
(dp2495
g74
(dp2496
g94
g95
ssg83
g2490
sg76
(lp2497
S'post_vars'
p2498
asbag69
(g90
g71
NtRp2499
(dp2500
g74
(dp2501
g101
g102
ssg83
g2490
sg76
(lp2502
S':'
asbag69
(g90
g71
NtRp2503
(dp2504
g74
(dp2505
sg83
g2490
sg76
(lp2506
g69
(g70
g71
NtRp2507
(dp2508
g74
(dp2509
g82
I5
ssg83
g2503
sg76
(lp2510
g69
(g78
g71
NtRp2511
(dp2512
g74
(dp2513
g82
I4
ssg83
Nsg76
(lp2514
sbasbasbasbag69
(g85
g71
NtRp2515
(dp2516
g74
(dp2517
sg83
g79
sg76
(lp2518
g69
(g90
g71
NtRp2519
(dp2520
g74
(dp2521
g94
g95
ssg83
g2515
sg76
(lp2522
S'url'
p2523
asbag69
(g90
g71
NtRp2524
(dp2525
g74
(dp2526
g101
g102
ssg83
g2515
sg76
(lp2527
S':'
asbag69
(g90
g71
NtRp2528
(dp2529
g74
(dp2530
sg83
g2515
sg76
(lp2531
g69
(g70
g71
NtRp2532
(dp2533
g74
(dp2534
g82
I5
ssg83
g2528
sg76
(lp2535
g1383
asbasbasbag69
(g85
g71
NtRp2536
(dp2537
g74
(dp2538
sg83
g79
sg76
(lp2539
g69
(g90
g71
NtRp2540
(dp2541
g74
(dp2542
g94
g95
ssg83
g2536
sg76
(lp2543
S'utcnow'
p2544
asbag69
(g90
g71
NtRp2545
(dp2546
g74
(dp2547
g101
g102
ssg83
g2536
sg76
(lp2548
S':'
asbag69
(g90
g71
NtRp2549
(dp2550
g74
(dp2551
sg83
g2536
sg76
(lp2552
g69
(g70
g71
NtRp2553
(dp2554
g74
(dp2555
g82
I5
ssg83
g2549
sg76
(lp2556
S'datetime.datetime(2013, 1, 24, 16, 35, 6, 121600)'
p2557
asbasbasbag69
(g85
g71
NtRp2558
(dp2559
g74
(dp2560
sg83
g79
sg76
(lp2561
g69
(g90
g71
NtRp2562
(dp2563
g74
(dp2564
g94
g95
ssg83
g2558
sg76
(lp2565
S'uuid'
p2566
asbag69
(g90
g71
NtRp2567
(dp2568
g74
(dp2569
g101
g102
ssg83
g2558
sg76
(lp2570
S':'
asbag69
(g90
g71
NtRp2571
(dp2572
g74
(dp2573
sg83
g2558
sg76
(lp2574
g69
(g70
g71
NtRp2575
(dp2576
g74
(dp2577
g82
I5
ssg83
g2571
sg76
(lp2578
S'projeto/127.0.0.1.2013-01-24.14-35-06.bc63d3c1-6cac-47d5-bc03-ba01af807826'
p2579
asbasbasbag69
(g85
g71
NtRp2580
(dp2581
g74
(dp2582
sg83
g79
sg76
(lp2583
g69
(g90
g71
NtRp2584
(dp2585
g74
(dp2586
g94
g95
ssg83
g2580
sg76
(lp2587
S'vars'
p2588
asbag69
(g90
g71
NtRp2589
(dp2590
g74
(dp2591
g101
g102
ssg83
g2580
sg76
(lp2592
S':'
asbag69
(g90
g71
NtRp2593
(dp2594
g74
(dp2595
sg83
g2580
sg76
(lp2596
g69
(g70
g71
NtRp2597
(dp2598
g74
(dp2599
g82
I5
ssg83
g2593
sg76
(lp2600
g69
(g78
g71
NtRp2601
(dp2602
g74
(dp2603
g82
I4
ssg83
Nsg76
(lp2604
sbasbasbasbag69
(g85
g71
NtRp2605
(dp2606
g74
(dp2607
sg83
g79
sg76
(lp2608
g69
(g90
g71
NtRp2609
(dp2610
g74
(dp2611
g94
g95
ssg83
g2605
sg76
(lp2612
S'wsgi'
p2613
asbag69
(g90
g71
NtRp2614
(dp2615
g74
(dp2616
g101
g102
ssg83
g2605
sg76
(lp2617
S':'
asbag69
(g90
g71
NtRp2618
(dp2619
g74
(dp2620
sg83
g2605
sg76
(lp2621
g69
(g70
g71
NtRp2622
(dp2623
g74
(dp2624
g82
I5
ssg83
g2618
sg76
(lp2625
g69
(g78
g71
NtRp2626
(dp2627
g74
(dp2628
g82
I4
ssg83
Nsg76
(lp2629
g69
(g85
g71
NtRp2630
(dp2631
g74
(dp2632
sg83
g2626
sg76
(lp2633
g69
(g90
g71
NtRp2634
(dp2635
g74
(dp2636
g94
g95
ssg83
g2630
sg76
(lp2637
S'environ'
p2638
asbag69
(g90
g71
NtRp2639
(dp2640
g74
(dp2641
g101
g102
ssg83
g2630
sg76
(lp2642
S':'
asbag69
(g90
g71
NtRp2643
(dp2644
g74
(dp2645
sg83
g2630
sg76
(lp2646
g69
(g70
g71
NtRp2647
(dp2648
g74
(dp2649
g82
I4
ssg83
g2643
sg76
(lp2650
g69
(g78
g71
NtRp2651
(dp2652
g74
(dp2653
g82
I3
ssg83
Nsg76
(lp2654
g69
(g85
g71
NtRp2655
(dp2656
g74
(dp2657
sg83
g2651
sg76
(lp2658
g69
(g90
g71
NtRp2659
(dp2660
g74
(dp2661
g94
g95
ssg83
g2655
sg76
(lp2662
S'HTTP_ACCEPT'
p2663
asbag69
(g90
g71
NtRp2664
(dp2665
g74
(dp2666
g101
g102
ssg83
g2655
sg76
(lp2667
S':'
asbag69
(g90
g71
NtRp2668
(dp2669
g74
(dp2670
sg83
g2655
sg76
(lp2671
g69
(g70
g71
NtRp2672
(dp2673
g74
(dp2674
g82
I3
ssg83
g2668
sg76
(lp2675
g1053
asbasbasbag69
(g85
g71
NtRp2676
(dp2677
g74
(dp2678
sg83
g2651
sg76
(lp2679
g69
(g90
g71
NtRp2680
(dp2681
g74
(dp2682
g94
g95
ssg83
g2676
sg76
(lp2683
S'HTTP_ACCEPT_CHARSET'
p2684
asbag69
(g90
g71
NtRp2685
(dp2686
g74
(dp2687
g101
g102
ssg83
g2676
sg76
(lp2688
S':'
asbag69
(g90
g71
NtRp2689
(dp2690
g74
(dp2691
sg83
g2676
sg76
(lp2692
g69
(g70
g71
NtRp2693
(dp2694
g74
(dp2695
g82
I3
ssg83
g2689
sg76
(lp2696
g1075
asbasbasbag69
(g85
g71
NtRp2697
(dp2698
g74
(dp2699
sg83
g2651
sg76
(lp2700
g69
(g90
g71
NtRp2701
(dp2702
g74
(dp2703
g94
g95
ssg83
g2697
sg76
(lp2704
S'HTTP_ACCEPT_ENCODING'
p2705
asbag69
(g90
g71
NtRp2706
(dp2707
g74
(dp2708
g101
g102
ssg83
g2697
sg76
(lp2709
S':'
asbag69
(g90
g71
NtRp2710
(dp2711
g74
(dp2712
sg83
g2697
sg76
(lp2713
g69
(g70
g71
NtRp2714
(dp2715
g74
(dp2716
g82
I3
ssg83
g2710
sg76
(lp2717
g1097
asbasbasbag69
(g85
g71
NtRp2718
(dp2719
g74
(dp2720
sg83
g2651
sg76
(lp2721
g69
(g90
g71
NtRp2722
(dp2723
g74
(dp2724
g94
g95
ssg83
g2718
sg76
(lp2725
S'HTTP_ACCEPT_LANGUAGE'
p2726
asbag69
(g90
g71
NtRp2727
(dp2728
g74
(dp2729
g101
g102
ssg83
g2718
sg76
(lp2730
S':'
asbag69
(g90
g71
NtRp2731
(dp2732
g74
(dp2733
sg83
g2718
sg76
(lp2734
g69
(g70
g71
NtRp2735
(dp2736
g74
(dp2737
g82
I3
ssg83
g2731
sg76
(lp2738
g1119
asbasbasbag69
(g85
g71
NtRp2739
(dp2740
g74
(dp2741
sg83
g2651
sg76
(lp2742
g69
(g90
g71
NtRp2743
(dp2744
g74
(dp2745
g94
g95
ssg83
g2739
sg76
(lp2746
S'HTTP_CACHE_CONTROL'
p2747
asbag69
(g90
g71
NtRp2748
(dp2749
g74
(dp2750
g101
g102
ssg83
g2739
sg76
(lp2751
S':'
asbag69
(g90
g71
NtRp2752
(dp2753
g74
(dp2754
sg83
g2739
sg76
(lp2755
g69
(g70
g71
NtRp2756
(dp2757
g74
(dp2758
g82
I3
ssg83
g2752
sg76
(lp2759
g1141
asbasbasbag69
(g85
g71
NtRp2760
(dp2761
g74
(dp2762
sg83
g2651
sg76
(lp2763
g69
(g90
g71
NtRp2764
(dp2765
g74
(dp2766
g94
g95
ssg83
g2760
sg76
(lp2767
S'HTTP_CONNECTION'
p2768
asbag69
(g90
g71
NtRp2769
(dp2770
g74
(dp2771
g101
g102
ssg83
g2760
sg76
(lp2772
S':'
asbag69
(g90
g71
NtRp2773
(dp2774
g74
(dp2775
sg83
g2760
sg76
(lp2776
g69
(g70
g71
NtRp2777
(dp2778
g74
(dp2779
g82
I3
ssg83
g2773
sg76
(lp2780
g1163
asbasbasbag69
(g85
g71
NtRp2781
(dp2782
g74
(dp2783
sg83
g2651
sg76
(lp2784
g69
(g90
g71
NtRp2785
(dp2786
g74
(dp2787
g94
g95
ssg83
g2781
sg76
(lp2788
S'HTTP_COOKIE'
p2789
asbag69
(g90
g71
NtRp2790
(dp2791
g74
(dp2792
g101
g102
ssg83
g2781
sg76
(lp2793
S':'
asbag69
(g90
g71
NtRp2794
(dp2795
g74
(dp2796
sg83
g2781
sg76
(lp2797
g69
(g70
g71
NtRp2798
(dp2799
g74
(dp2800
g82
I3
ssg83
g2794
sg76
(lp2801
g1185
asbasbasbag69
(g85
g71
NtRp2802
(dp2803
g74
(dp2804
sg83
g2651
sg76
(lp2805
g69
(g90
g71
NtRp2806
(dp2807
g74
(dp2808
g94
g95
ssg83
g2802
sg76
(lp2809
S'HTTP_HOST'
p2810
asbag69
(g90
g71
NtRp2811
(dp2812
g74
(dp2813
g101
g102
ssg83
g2802
sg76
(lp2814
S':'
asbag69
(g90
g71
NtRp2815
(dp2816
g74
(dp2817
sg83
g2802
sg76
(lp2818
g69
(g70
g71
NtRp2819
(dp2820
g74
(dp2821
g82
I3
ssg83
g2815
sg76
(lp2822
g1207
asbasbasbag69
(g85
g71
NtRp2823
(dp2824
g74
(dp2825
sg83
g2651
sg76
(lp2826
g69
(g90
g71
NtRp2827
(dp2828
g74
(dp2829
g94
g95
ssg83
g2823
sg76
(lp2830
S'HTTP_USER_AGENT'
p2831
asbag69
(g90
g71
NtRp2832
(dp2833
g74
(dp2834
g101
g102
ssg83
g2823
sg76
(lp2835
S':'
asbag69
(g90
g71
NtRp2836
(dp2837
g74
(dp2838
sg83
g2823
sg76
(lp2839
g69
(g70
g71
NtRp2840
(dp2841
g74
(dp2842
g82
I3
ssg83
g2836
sg76
(lp2843
g1229
asbasbasbag69
(g85
g71
NtRp2844
(dp2845
g74
(dp2846
sg83
g2651
sg76
(lp2847
g69
(g90
g71
NtRp2848
(dp2849
g74
(dp2850
g94
g95
ssg83
g2844
sg76
(lp2851
S'PATH_INFO'
p2852
asbag69
(g90
g71
NtRp2853
(dp2854
g74
(dp2855
g101
g102
ssg83
g2844
sg76
(lp2856
S':'
asbag69
(g90
g71
NtRp2857
(dp2858
g74
(dp2859
sg83
g2844
sg76
(lp2860
g69
(g70
g71
NtRp2861
(dp2862
g74
(dp2863
g82
I3
ssg83
g2857
sg76
(lp2864
g1383
asbasbasbag69
(g85
g71
NtRp2865
(dp2866
g74
(dp2867
sg83
g2651
sg76
(lp2868
g69
(g90
g71
NtRp2869
(dp2870
g74
(dp2871
g94
g95
ssg83
g2865
sg76
(lp2872
S'QUERY_STRING'
p2873
asbag69
(g90
g71
NtRp2874
(dp2875
g74
(dp2876
g101
g102
ssg83
g2865
sg76
(lp2877
S':'
asbag69
(g90
g71
NtRp2878
(dp2879
g74
(dp2880
sg83
g2865
sg76
(lp2881
g69
(g70
g71
NtRp2882
(dp2883
g74
(dp2884
g82
I3
ssg83
g2878
sg76
(lp2885
g1405
asbasbasbag69
(g85
g71
NtRp2886
(dp2887
g74
(dp2888
sg83
g2651
sg76
(lp2889
g69
(g90
g71
NtRp2890
(dp2891
g74
(dp2892
g94
g95
ssg83
g2886
sg76
(lp2893
S'REMOTE_ADDR'
p2894
asbag69
(g90
g71
NtRp2895
(dp2896
g74
(dp2897
g101
g102
ssg83
g2886
sg76
(lp2898
S':'
asbag69
(g90
g71
NtRp2899
(dp2900
g74
(dp2901
sg83
g2886
sg76
(lp2902
g69
(g70
g71
NtRp2903
(dp2904
g74
(dp2905
g82
I3
ssg83
g2899
sg76
(lp2906
g237
asbasbasbag69
(g85
g71
NtRp2907
(dp2908
g74
(dp2909
sg83
g2651
sg76
(lp2910
g69
(g90
g71
NtRp2911
(dp2912
g74
(dp2913
g94
g95
ssg83
g2907
sg76
(lp2914
S'REMOTE_PORT'
p2915
asbag69
(g90
g71
NtRp2916
(dp2917
g74
(dp2918
g101
g102
ssg83
g2907
sg76
(lp2919
S':'
asbag69
(g90
g71
NtRp2920
(dp2921
g74
(dp2922
sg83
g2907
sg76
(lp2923
g69
(g70
g71
NtRp2924
(dp2925
g74
(dp2926
g82
I3
ssg83
g2920
sg76
(lp2927
g1448
asbasbasbag69
(g85
g71
NtRp2928
(dp2929
g74
(dp2930
sg83
g2651
sg76
(lp2931
g69
(g90
g71
NtRp2932
(dp2933
g74
(dp2934
g94
g95
ssg83
g2928
sg76
(lp2935
S'REQUEST_METHOD'
p2936
asbag69
(g90
g71
NtRp2937
(dp2938
g74
(dp2939
g101
g102
ssg83
g2928
sg76
(lp2940
S':'
asbag69
(g90
g71
NtRp2941
(dp2942
g74
(dp2943
sg83
g2928
sg76
(lp2944
g69
(g70
g71
NtRp2945
(dp2946
g74
(dp2947
g82
I3
ssg83
g2941
sg76
(lp2948
g1470
asbasbasbag69
(g85
g71
NtRp2949
(dp2950
g74
(dp2951
sg83
g2651
sg76
(lp2952
g69
(g90
g71
NtRp2953
(dp2954
g74
(dp2955
g94
g95
ssg83
g2949
sg76
(lp2956
S'REQUEST_URI'
p2957
asbag69
(g90
g71
NtRp2958
(dp2959
g74
(dp2960
g101
g102
ssg83
g2949
sg76
(lp2961
S':'
asbag69
(g90
g71
NtRp2962
(dp2963
g74
(dp2964
sg83
g2949
sg76
(lp2965
g69
(g70
g71
NtRp2966
(dp2967
g74
(dp2968
g82
I3
ssg83
g2962
sg76
(lp2969
g1492
asbasbasbag69
(g85
g71
NtRp2970
(dp2971
g74
(dp2972
sg83
g2651
sg76
(lp2973
g69
(g90
g71
NtRp2974
(dp2975
g74
(dp2976
g94
g95
ssg83
g2970
sg76
(lp2977
S'SCRIPT_NAME'
p2978
asbag69
(g90
g71
NtRp2979
(dp2980
g74
(dp2981
g101
g102
ssg83
g2970
sg76
(lp2982
S':'
asbag69
(g90
g71
NtRp2983
(dp2984
g74
(dp2985
sg83
g2970
sg76
(lp2986
g69
(g70
g71
NtRp2987
(dp2988
g74
(dp2989
g82
I3
ssg83
g2983
sg76
(lp2990
S''
asbasbasbag69
(g85
g71
NtRp2991
(dp2992
g74
(dp2993
sg83
g2651
sg76
(lp2994
g69
(g90
g71
NtRp2995
(dp2996
g74
(dp2997
g94
g95
ssg83
g2991
sg76
(lp2998
S'SERVER_NAME'
p2999
asbag69
(g90
g71
NtRp3000
(dp3001
g74
(dp3002
g101
g102
ssg83
g2991
sg76
(lp3003
S':'
asbag69
(g90
g71
NtRp3004
(dp3005
g74
(dp3006
sg83
g2991
sg76
(lp3007
g69
(g70
g71
NtRp3008
(dp3009
g74
(dp3010
g82
I3
ssg83
g3004
sg76
(lp3011
g1535
asbasbasbag69
(g85
g71
NtRp3012
(dp3013
g74
(dp3014
sg83
g2651
sg76
(lp3015
g69
(g90
g71
NtRp3016
(dp3017
g74
(dp3018
g94
g95
ssg83
g3012
sg76
(lp3019
S'SERVER_PORT'
p3020
asbag69
(g90
g71
NtRp3021
(dp3022
g74
(dp3023
g101
g102
ssg83
g3012
sg76
(lp3024
S':'
asbag69
(g90
g71
NtRp3025
(dp3026
g74
(dp3027
sg83
g3012
sg76
(lp3028
g69
(g70
g71
NtRp3029
(dp3030
g74
(dp3031
g82
I3
ssg83
g3025
sg76
(lp3032
g1557
asbasbasbag69
(g85
g71
NtRp3033
(dp3034
g74
(dp3035
sg83
g2651
sg76
(lp3036
g69
(g90
g71
NtRp3037
(dp3038
g74
(dp3039
g94
g95
ssg83
g3033
sg76
(lp3040
S'SERVER_PROTOCOL'
p3041
asbag69
(g90
g71
NtRp3042
(dp3043
g74
(dp3044
g101
g102
ssg83
g3033
sg76
(lp3045
S':'
asbag69
(g90
g71
NtRp3046
(dp3047
g74
(dp3048
sg83
g3033
sg76
(lp3049
g69
(g70
g71
NtRp3050
(dp3051
g74
(dp3052
g82
I3
ssg83
g3046
sg76
(lp3053
g1579
asbasbasbag69
(g85
g71
NtRp3054
(dp3055
g74
(dp3056
sg83
g2651
sg76
(lp3057
g69
(g90
g71
NtRp3058
(dp3059
g74
(dp3060
g94
g95
ssg83
g3054
sg76
(lp3061
S'SERVER_SOFTWARE'
p3062
asbag69
(g90
g71
NtRp3063
(dp3064
g74
(dp3065
g101
g102
ssg83
g3054
sg76
(lp3066
S':'
asbag69
(g90
g71
NtRp3067
(dp3068
g74
(dp3069
sg83
g3054
sg76
(lp3070
g69
(g70
g71
NtRp3071
(dp3072
g74
(dp3073
g82
I3
ssg83
g3067
sg76
(lp3074
g1601
asbasbasbag69
(g85
g71
NtRp3075
(dp3076
g74
(dp3077
sg83
g2651
sg76
(lp3078
g69
(g90
g71
NtRp3079
(dp3080
g74
(dp3081
g94
g95
ssg83
g3075
sg76
(lp3082
S'WEB2PY_ORIGINAL_URI'
p3083
asbag69
(g90
g71
NtRp3084
(dp3085
g74
(dp3086
g101
g102
ssg83
g3075
sg76
(lp3087
S':'
asbag69
(g90
g71
NtRp3088
(dp3089
g74
(dp3090
sg83
g3075
sg76
(lp3091
g69
(g70
g71
NtRp3092
(dp3093
g74
(dp3094
g82
I3
ssg83
g3088
sg76
(lp3095
g1623
asbasbasbag69
(g85
g71
NtRp3096
(dp3097
g74
(dp3098
sg83
g2651
sg76
(lp3099
g69
(g90
g71
NtRp3100
(dp3101
g74
(dp3102
g94
g95
ssg83
g3096
sg76
(lp3103
S'wsgi.errors'
p3104
asbag69
(g90
g71
NtRp3105
(dp3106
g74
(dp3107
g101
g102
ssg83
g3096
sg76
(lp3108
S':'
asbag69
(g90
g71
NtRp3109
(dp3110
g74
(dp3111
sg83
g3096
sg76
(lp3112
g69
(g70
g71
NtRp3113
(dp3114
g74
(dp3115
g82
I3
ssg83
g3109
sg76
(lp3116
S"<open file '<stderr>', mode 'w' at 0x7f9843337270>"
p3117
asbasbasbag69
(g85
g71
NtRp3118
(dp3119
g74
(dp3120
sg83
g2651
sg76
(lp3121
g69
(g90
g71
NtRp3122
(dp3123
g74
(dp3124
g94
g95
ssg83
g3118
sg76
(lp3125
S'wsgi.file_wrapper'
p3126
asbag69
(g90
g71
NtRp3127
(dp3128
g74
(dp3129
g101
g102
ssg83
g3118
sg76
(lp3130
S':'
asbag69
(g90
g71
NtRp3131
(dp3132
g74
(dp3133
sg83
g3118
sg76
(lp3134
g69
(g70
g71
NtRp3135
(dp3136
g74
(dp3137
g82
I3
ssg83
g3131
sg76
(lp3138
S'<class wsgiref.util.FileWrapper at 0x2ca8a10>'
p3139
asbasbasbag69
(g85
g71
NtRp3140
(dp3141
g74
(dp3142
sg83
g2651
sg76
(lp3143
g69
(g90
g71
NtRp3144
(dp3145
g74
(dp3146
g94
g95
ssg83
g3140
sg76
(lp3147
S'wsgi.input'
p3148
asbag69
(g90
g71
NtRp3149
(dp3150
g74
(dp3151
g101
g102
ssg83
g3140
sg76
(lp3152
S':'
asbag69
(g90
g71
NtRp3153
(dp3154
g74
(dp3155
sg83
g3140
sg76
(lp3156
g69
(g70
g71
NtRp3157
(dp3158
g74
(dp3159
g82
I3
ssg83
g3153
sg76
(lp3160
S'<cStringIO.StringO object at 0x7f9820132bc8>'
p3161
asbasbasbag69
(g85
g71
NtRp3162
(dp3163
g74
(dp3164
sg83
g2651
sg76
(lp3165
g69
(g90
g71
NtRp3166
(dp3167
g74
(dp3168
g94
g95
ssg83
g3162
sg76
(lp3169
S'wsgi.multiprocess'
p3170
asbag69
(g90
g71
NtRp3171
(dp3172
g74
(dp3173
g101
g102
ssg83
g3162
sg76
(lp3174
S':'
asbag69
(g90
g71
NtRp3175
(dp3176
g74
(dp3177
sg83
g3162
sg76
(lp3178
g69
(g70
g71
NtRp3179
(dp3180
g74
(dp3181
g82
I3
ssg83
g3175
sg76
(lp3182
g112
asbasbasbag69
(g85
g71
NtRp3183
(dp3184
g74
(dp3185
sg83
g2651
sg76
(lp3186
g69
(g90
g71
NtRp3187
(dp3188
g74
(dp3189
g94
g95
ssg83
g3183
sg76
(lp3190
S'wsgi.multithread'
p3191
asbag69
(g90
g71
NtRp3192
(dp3193
g74
(dp3194
g101
g102
ssg83
g3183
sg76
(lp3195
S':'
asbag69
(g90
g71
NtRp3196
(dp3197
g74
(dp3198
sg83
g3183
sg76
(lp3199
g69
(g70
g71
NtRp3200
(dp3201
g74
(dp3202
g82
I3
ssg83
g3196
sg76
(lp3203
g1840
asbasbasbag69
(g85
g71
NtRp3204
(dp3205
g74
(dp3206
sg83
g2651
sg76
(lp3207
g69
(g90
g71
NtRp3208
(dp3209
g74
(dp3210
g94
g95
ssg83
g3204
sg76
(lp3211
S'wsgi.run_once'
p3212
asbag69
(g90
g71
NtRp3213
(dp3214
g74
(dp3215
g101
g102
ssg83
g3204
sg76
(lp3216
S':'
asbag69
(g90
g71
NtRp3217
(dp3218
g74
(dp3219
sg83
g3204
sg76
(lp3220
g69
(g70
g71
NtRp3221
(dp3222
g74
(dp3223
g82
I3
ssg83
g3217
sg76
(lp3224
g112
asbasbasbag69
(g85
g71
NtRp3225
(dp3226
g74
(dp3227
sg83
g2651
sg76
(lp3228
g69
(g90
g71
NtRp3229
(dp3230
g74
(dp3231
g94
g95
ssg83
g3225
sg76
(lp3232
S'wsgi.url_scheme'
p3233
asbag69
(g90
g71
NtRp3234
(dp3235
g74
(dp3236
g101
g102
ssg83
g3225
sg76
(lp3237
S':'
asbag69
(g90
g71
NtRp3238
(dp3239
g74
(dp3240
sg83
g3225
sg76
(lp3241
g69
(g70
g71
NtRp3242
(dp3243
g74
(dp3244
g82
I3
ssg83
g3238
sg76
(lp3245
g1883
asbasbasbag69
(g85
g71
NtRp3246
(dp3247
g74
(dp3248
sg83
g2651
sg76
(lp3249
g69
(g90
g71
NtRp3250
(dp3251
g74
(dp3252
g94
g95
ssg83
g3246
sg76
(lp3253
S'wsgi.version'
p3254
asbag69
(g90
g71
NtRp3255
(dp3256
g74
(dp3257
g101
g102
ssg83
g3246
sg76
(lp3258
S':'
asbag69
(g90
g71
NtRp3259
(dp3260
g74
(dp3261
sg83
g3246
sg76
(lp3262
g69
(g70
g71
NtRp3263
(dp3264
g74
(dp3265
g82
I3
ssg83
g3259
sg76
(lp3266
S'1'
asbasbasbasbasbasbasbasbasbasbasbasbasbsS'frames'
p3267
(lp3268
(dp3269
S'file'
p3270
S'/var/www/web2py_curso/gluon/restricted.py'
p3271
sS'dump'
p3272
(dp3273
S'code'
p3274
S'\'# coding: utf-8\\n\\ndef home():\\n\\treturn "Bem Vindo"... x + y\\n\\n \\n\\nresponse._vars=response._caller(user)\\n\''
p3275
sS'layer'
p3276
S"'/var/www/web2py_curso/applications/projeto/controllers/initial.py'"
p3277
sS'global compile2'
p3278
S'<function compile2>'
p3279
sS'ccode'
p3280
S'undefined'
p3281
ssS'lnum'
p3282
I211
sS'lines'
p3283
(dp3284
I206
S"    environment['__name__'] = '__restricted__'"
p3285
sI207
S'    try:'
p3286
sI208
S'        if isinstance(code, types.CodeType):'
p3287
sI209
S'            ccode = code'
p3288
sI210
S'        else:'
p3289
sI211
S'            ccode = compile2(code, layer)'
p3290
sI212
S'        exec ccode in environment'
p3291
sI213
S'    except HTTP:'
p3292
sI214
S'        raise'
p3293
sI215
S'    except RestrictedError:'
p3294
ssS'call'
p3295
S'(code=\'# coding: utf-8\\n\\ndef home():\\n\\treturn "Bem Vindo"... x + y\\n\\n \\n\\nresponse._vars=response._caller(user)\\n\', environment={\'A\': <class \'gluon.html.A\'>, \'Auth\': <class \'gluon.tools.Auth\'>, \'B\': <class \'gluon.html.B\'>, \'BEAUTIFY\': <class \'gluon.html.BEAUTIFY\'>, \'BODY\': <class \'gluon.html.BODY\'>, \'BR\': <class \'gluon.html.BR\'>, \'BUTTON\': <class \'gluon.html.BUTTON\'>, \'Blog\': <Table blog (id,title,description)>, \'CAT\': <class \'gluon.html.CAT\'>, \'CENTER\': <class \'gluon.html.CENTER\'>, ...}, layer=\'/var/www/web2py_curso/applications/projeto/controllers/initial.py\')'
p3296
sS'func'
p3297
S'restricted'
p3298
sa(dp3299
g3270
S'/var/www/web2py_curso/gluon/restricted.py'
p3300
sg3272
(dp3301
S'builtincompile'
p3302
S'<built-in function compile>'
p3303
sS'code'
p3304
S'\'# coding: utf-8\\n\\ndef home():\\n\\treturn "Bem Vindo"... x + y\\n\\n \\n\\nresponse._vars=response._caller(user)\\n\''
p3305
sS'code.rstrip'
p3306
S'<built-in method rstrip of str object>'
p3307
sS').replace'
p3308
g3281
sS'layer'
p3309
S"'/var/www/web2py_curso/applications/projeto/controllers/initial.py'"
p3310
ssg3282
I194
sg3283
(dp3311
I192
S"    The +'\\n' is necessary else compile fails when code ends in a comment."
p3312
sI193
S'    """'
p3313
sI194
S"    return compile(code.rstrip().replace('\\r\\n', '\\n') + '\\n', layer, 'exec')"
p3314
sI195
S''
sI196
S''
sI197
S"def restricted(code, environment=None, layer='Unknown'):"
p3315
sI198
S'    """'
p3316
sI189
S''
sI190
S'def compile2(code, layer):'
p3317
sI191
S'    """'
p3318
ssg3295
S'(code=\'# coding: utf-8\\n\\ndef home():\\n\\treturn "Bem Vindo"... x + y\\n\\n \\n\\nresponse._vars=response._caller(user)\\n\', layer=\'/var/www/web2py_curso/applications/projeto/controllers/initial.py\')'
p3319
sg3297
S'compile2'
p3320
sasS'pyver'
p3321
S'Python 2.7.3: /usr/bin/python'
p3322
sS'session'
p3323
g69
(g70
g71
NtRp3324
(dp3325
g74
(dp3326
sg76
(lp3327
g69
(g78
g71
NtRp3328
(dp3329
g74
(dp3330
g82
I5
ssg83
Nsg76
(lp3331
g69
(g85
g71
NtRp3332
(dp3333
g74
(dp3334
sg83
g3328
sg76
(lp3335
g69
(g90
g71
NtRp3336
(dp3337
g74
(dp3338
g94
g95
ssg83
g3332
sg76
(lp3339
S'flash'
p3340
asbag69
(g90
g71
NtRp3341
(dp3342
g74
(dp3343
g101
g102
ssg83
g3332
sg76
(lp3344
S':'
asbag69
(g90
g71
NtRp3345
(dp3346
g74
(dp3347
sg83
g3332
sg76
(lp3348
g69
(g70
g71
NtRp3349
(dp3350
g74
(dp3351
g82
I5
ssg83
g3345
sg76
(lp3352
S'None'
p3353
asbasbasbasbasbsS'etype'
p3354
S"<type 'exceptions.IndentationError'>"
p3355
sS'date'
p3356
S'Thu Jan 24 14:35:06 2013'
p3357
sS'response'
p3358
g69
(g70
g71
NtRp3359
(dp3360
g74
(dp3361
sg76
(lp3362
g69
(g78
g71
NtRp3363
(dp3364
g74
(dp3365
g82
I5
ssg83
Nsg76
(lp3366
g69
(g85
g71
NtRp3367
(dp3368
g74
(dp3369
sg83
g3363
sg76
(lp3370
g69
(g90
g71
NtRp3371
(dp3372
g74
(dp3373
g94
g95
ssg83
g3367
sg76
(lp3374
g180
asbag69
(g90
g71
NtRp3375
(dp3376
g74
(dp3377
g101
g102
ssg83
g3367
sg76
(lp3378
S':'
asbag69
(g90
g71
NtRp3379
(dp3380
g74
(dp3381
sg83
g3367
sg76
(lp3382
g69
(g70
g71
NtRp3383
(dp3384
g74
(dp3385
g82
I5
ssg83
g3379
sg76
(lp3386
S'<cStringIO.StringO object at 0x7f9824157bc8>'
p3387
asbasbasbag69
(g85
g71
NtRp3388
(dp3389
g74
(dp3390
sg83
g3363
sg76
(lp3391
g69
(g90
g71
NtRp3392
(dp3393
g74
(dp3394
g94
g95
ssg83
g3388
sg76
(lp3395
g268
asbag69
(g90
g71
NtRp3396
(dp3397
g74
(dp3398
g101
g102
ssg83
g3388
sg76
(lp3399
S':'
asbag69
(g90
g71
NtRp3400
(dp3401
g74
(dp3402
sg83
g3388
sg76
(lp3403
g69
(g70
g71
NtRp3404
(dp3405
g74
(dp3406
g82
I5
ssg83
g3400
sg76
(lp3407
g69
(g78
g71
NtRp3408
(dp3409
g74
(dp3410
g82
I4
ssg83
Nsg76
(lp3411
g69
(g85
g71
NtRp3412
(dp3413
g74
(dp3414
sg83
g3408
sg76
(lp3415
g69
(g90
g71
NtRp3416
(dp3417
g74
(dp3418
g94
g95
ssg83
g3412
sg76
(lp3419
S'session_id_projeto'
p3420
asbag69
(g90
g71
NtRp3421
(dp3422
g74
(dp3423
g101
g102
ssg83
g3412
sg76
(lp3424
S':'
asbag69
(g90
g71
NtRp3425
(dp3426
g74
(dp3427
sg83
g3412
sg76
(lp3428
g69
(g70
g71
NtRp3429
(dp3430
g74
(dp3431
g82
I4
ssg83
g3425
sg76
(lp3432
g686
ag69
(g78
g71
NtRp3433
(dp3434
g74
(dp3435
g82
I3
ssg83
Nsg76
(lp3436
g69
(g85
g71
NtRp3437
(dp3438
g74
(dp3439
sg83
g3433
sg76
(lp3440
g69
(g90
g71
NtRp3441
(dp3442
g74
(dp3443
g94
g95
ssg83
g3437
sg76
(lp3444
g319
asbag69
(g90
g71
NtRp3445
(dp3446
g74
(dp3447
g101
g102
ssg83
g3437
sg76
(lp3448
S':'
asbag69
(g90
g71
NtRp3449
(dp3450
g74
(dp3451
sg83
g3437
sg76
(lp3452
g69
(g70
g71
NtRp3453
(dp3454
g74
(dp3455
g82
I3
ssg83
g3449
sg76
(lp3456
S''
asbasbasbag69
(g85
g71
NtRp3457
(dp3458
g74
(dp3459
sg83
g3433
sg76
(lp3460
g69
(g90
g71
NtRp3461
(dp3462
g74
(dp3463
g94
g95
ssg83
g3457
sg76
(lp3464
g340
asbag69
(g90
g71
NtRp3465
(dp3466
g74
(dp3467
g101
g102
ssg83
g3457
sg76
(lp3468
S':'
asbag69
(g90
g71
NtRp3469
(dp3470
g74
(dp3471
sg83
g3457
sg76
(lp3472
g69
(g70
g71
NtRp3473
(dp3474
g74
(dp3475
g82
I3
ssg83
g3469
sg76
(lp3476
S''
asbasbasbag69
(g85
g71
NtRp3477
(dp3478
g74
(dp3479
sg83
g3433
sg76
(lp3480
g69
(g90
g71
NtRp3481
(dp3482
g74
(dp3483
g94
g95
ssg83
g3477
sg76
(lp3484
g361
asbag69
(g90
g71
NtRp3485
(dp3486
g74
(dp3487
g101
g102
ssg83
g3477
sg76
(lp3488
S':'
asbag69
(g90
g71
NtRp3489
(dp3490
g74
(dp3491
sg83
g3477
sg76
(lp3492
g69
(g70
g71
NtRp3493
(dp3494
g74
(dp3495
g82
I3
ssg83
g3489
sg76
(lp3496
S''
asbasbasbag69
(g85
g71
NtRp3497
(dp3498
g74
(dp3499
sg83
g3433
sg76
(lp3500
g69
(g90
g71
NtRp3501
(dp3502
g74
(dp3503
g94
g95
ssg83
g3497
sg76
(lp3504
g382
asbag69
(g90
g71
NtRp3505
(dp3506
g74
(dp3507
g101
g102
ssg83
g3497
sg76
(lp3508
S':'
asbag69
(g90
g71
NtRp3509
(dp3510
g74
(dp3511
sg83
g3497
sg76
(lp3512
g69
(g70
g71
NtRp3513
(dp3514
g74
(dp3515
g82
I3
ssg83
g3509
sg76
(lp3516
S''
asbasbasbag69
(g85
g71
NtRp3517
(dp3518
g74
(dp3519
sg83
g3433
sg76
(lp3520
g69
(g90
g71
NtRp3521
(dp3522
g74
(dp3523
g94
g95
ssg83
g3517
sg76
(lp3524
g403
asbag69
(g90
g71
NtRp3525
(dp3526
g74
(dp3527
g101
g102
ssg83
g3517
sg76
(lp3528
S':'
asbag69
(g90
g71
NtRp3529
(dp3530
g74
(dp3531
sg83
g3517
sg76
(lp3532
g69
(g70
g71
NtRp3533
(dp3534
g74
(dp3535
g82
I3
ssg83
g3529
sg76
(lp3536
S''
asbasbasbag69
(g85
g71
NtRp3537
(dp3538
g74
(dp3539
sg83
g3433
sg76
(lp3540
g69
(g90
g71
NtRp3541
(dp3542
g74
(dp3543
g94
g95
ssg83
g3537
sg76
(lp3544
g424
asbag69
(g90
g71
NtRp3545
(dp3546
g74
(dp3547
g101
g102
ssg83
g3537
sg76
(lp3548
S':'
asbag69
(g90
g71
NtRp3549
(dp3550
g74
(dp3551
sg83
g3537
sg76
(lp3552
g69
(g70
g71
NtRp3553
(dp3554
g74
(dp3555
g82
I3
ssg83
g3549
sg76
(lp3556
S'/'
asbasbasbag69
(g85
g71
NtRp3557
(dp3558
g74
(dp3559
sg83
g3433
sg76
(lp3560
g69
(g90
g71
NtRp3561
(dp3562
g74
(dp3563
g94
g95
ssg83
g3557
sg76
(lp3564
g445
asbag69
(g90
g71
NtRp3565
(dp3566
g74
(dp3567
g101
g102
ssg83
g3557
sg76
(lp3568
S':'
asbag69
(g90
g71
NtRp3569
(dp3570
g74
(dp3571
sg83
g3557
sg76
(lp3572
g69
(g70
g71
NtRp3573
(dp3574
g74
(dp3575
g82
I3
ssg83
g3569
sg76
(lp3576
S''
asbasbasbag69
(g85
g71
NtRp3577
(dp3578
g74
(dp3579
sg83
g3433
sg76
(lp3580
g69
(g90
g71
NtRp3581
(dp3582
g74
(dp3583
g94
g95
ssg83
g3577
sg76
(lp3584
g466
asbag69
(g90
g71
NtRp3585
(dp3586
g74
(dp3587
g101
g102
ssg83
g3577
sg76
(lp3588
S':'
asbag69
(g90
g71
NtRp3589
(dp3590
g74
(dp3591
sg83
g3577
sg76
(lp3592
g69
(g70
g71
NtRp3593
(dp3594
g74
(dp3595
g82
I3
ssg83
g3589
sg76
(lp3596
S''
asbasbasbasbasbasbasbasbasbasbasbag69
(g85
g71
NtRp3597
(dp3598
g74
(dp3599
sg83
g3363
sg76
(lp3600
g69
(g90
g71
NtRp3601
(dp3602
g74
(dp3603
g94
g95
ssg83
g3597
sg76
(lp3604
S'delimiters'
p3605
asbag69
(g90
g71
NtRp3606
(dp3607
g74
(dp3608
g101
g102
ssg83
g3597
sg76
(lp3609
S':'
asbag69
(g90
g71
NtRp3610
(dp3611
g74
(dp3612
sg83
g3597
sg76
(lp3613
g69
(g70
g71
NtRp3614
(dp3615
g74
(dp3616
g82
I5
ssg83
g3610
sg76
(lp3617
g69
(g78
g71
NtRp3618
(dp3619
g74
(dp3620
g82
I4
ssg83
Nsg76
(lp3621
g69
(g85
g71
NtRp3622
(dp3623
g74
(dp3624
sg83
g3618
sg76
(lp3625
g69
(g90
g71
NtRp3626
(dp3627
g74
(dp3628
sg83
g3622
sg76
(lp3629
g69
(g70
g71
NtRp3630
(dp3631
g74
(dp3632
g82
I4
ssg83
g3626
sg76
(lp3633
S'{{'
p3634
asbasbasbag69
(g85
g71
NtRp3635
(dp3636
g74
(dp3637
sg83
g3618
sg76
(lp3638
g69
(g90
g71
NtRp3639
(dp3640
g74
(dp3641
sg83
g3635
sg76
(lp3642
g69
(g70
g71
NtRp3643
(dp3644
g74
(dp3645
g82
I4
ssg83
g3639
sg76
(lp3646
S'}}'
p3647
asbasbasbasbasbasbasbag69
(g85
g71
NtRp3648
(dp3649
g74
(dp3650
sg83
g3363
sg76
(lp3651
g69
(g90
g71
NtRp3652
(dp3653
g74
(dp3654
g94
g95
ssg83
g3648
sg76
(lp3655
S'files'
p3656
asbag69
(g90
g71
NtRp3657
(dp3658
g74
(dp3659
g101
g102
ssg83
g3648
sg76
(lp3660
S':'
asbag69
(g90
g71
NtRp3661
(dp3662
g74
(dp3663
sg83
g3648
sg76
(lp3664
g69
(g70
g71
NtRp3665
(dp3666
g74
(dp3667
g82
I5
ssg83
g3661
sg76
(lp3668
g69
(g78
g71
NtRp3669
(dp3670
g74
(dp3671
g82
I4
ssg83
Nsg76
(lp3672
sbasbasbasbag69
(g85
g71
NtRp3673
(dp3674
g74
(dp3675
sg83
g3363
sg76
(lp3676
g69
(g90
g71
NtRp3677
(dp3678
g74
(dp3679
g94
g95
ssg83
g3673
sg76
(lp3680
S'flash'
p3681
asbag69
(g90
g71
NtRp3682
(dp3683
g74
(dp3684
g101
g102
ssg83
g3673
sg76
(lp3685
S':'
asbag69
(g90
g71
NtRp3686
(dp3687
g74
(dp3688
sg83
g3673
sg76
(lp3689
g69
(g70
g71
NtRp3690
(dp3691
g74
(dp3692
g82
I5
ssg83
g3686
sg76
(lp3693
S''
asbasbasbag69
(g85
g71
NtRp3694
(dp3695
g74
(dp3696
sg83
g3363
sg76
(lp3697
g69
(g90
g71
NtRp3698
(dp3699
g74
(dp3700
g94
g95
ssg83
g3694
sg76
(lp3701
S'generic_patterns'
p3702
asbag69
(g90
g71
NtRp3703
(dp3704
g74
(dp3705
g101
g102
ssg83
g3694
sg76
(lp3706
S':'
asbag69
(g90
g71
NtRp3707
(dp3708
g74
(dp3709
sg83
g3694
sg76
(lp3710
g69
(g70
g71
NtRp3711
(dp3712
g74
(dp3713
g82
I5
ssg83
g3707
sg76
(lp3714
g69
(g78
g71
NtRp3715
(dp3716
g74
(dp3717
g82
I4
ssg83
Nsg76
(lp3718
sbasbasbasbag69
(g85
g71
NtRp3719
(dp3720
g74
(dp3721
sg83
g3363
sg76
(lp3722
g69
(g90
g71
NtRp3723
(dp3724
g74
(dp3725
g94
g95
ssg83
g3719
sg76
(lp3726
S'headers'
p3727
asbag69
(g90
g71
NtRp3728
(dp3729
g74
(dp3730
g101
g102
ssg83
g3719
sg76
(lp3731
S':'
asbag69
(g90
g71
NtRp3732
(dp3733
g74
(dp3734
sg83
g3719
sg76
(lp3735
g69
(g70
g71
NtRp3736
(dp3737
g74
(dp3738
g82
I5
ssg83
g3732
sg76
(lp3739
g69
(g78
g71
NtRp3740
(dp3741
g74
(dp3742
g82
I4
ssg83
Nsg76
(lp3743
g69
(g85
g71
NtRp3744
(dp3745
g74
(dp3746
sg83
g3740
sg76
(lp3747
g69
(g90
g71
NtRp3748
(dp3749
g74
(dp3750
g94
g95
ssg83
g3744
sg76
(lp3751
S'X-Powered-By'
p3752
asbag69
(g90
g71
NtRp3753
(dp3754
g74
(dp3755
g101
g102
ssg83
g3744
sg76
(lp3756
S':'
asbag69
(g90
g71
NtRp3757
(dp3758
g74
(dp3759
sg83
g3744
sg76
(lp3760
g69
(g70
g71
NtRp3761
(dp3762
g74
(dp3763
g82
I4
ssg83
g3757
sg76
(lp3764
S'web2py'
p3765
asbasbasbasbasbasbasbag69
(g85
g71
NtRp3766
(dp3767
g74
(dp3768
sg83
g3363
sg76
(lp3769
g69
(g90
g71
NtRp3770
(dp3771
g74
(dp3772
g94
g95
ssg83
g3766
sg76
(lp3773
S'menu'
p3774
asbag69
(g90
g71
NtRp3775
(dp3776
g74
(dp3777
g101
g102
ssg83
g3766
sg76
(lp3778
S':'
asbag69
(g90
g71
NtRp3779
(dp3780
g74
(dp3781
sg83
g3766
sg76
(lp3782
g69
(g70
g71
NtRp3783
(dp3784
g74
(dp3785
g82
I5
ssg83
g3779
sg76
(lp3786
g69
(g78
g71
NtRp3787
(dp3788
g74
(dp3789
g82
I4
ssg83
Nsg76
(lp3790
sbasbasbasbag69
(g85
g71
NtRp3791
(dp3792
g74
(dp3793
sg83
g3363
sg76
(lp3794
g69
(g90
g71
NtRp3795
(dp3796
g74
(dp3797
g94
g95
ssg83
g3791
sg76
(lp3798
S'meta'
p3799
asbag69
(g90
g71
NtRp3800
(dp3801
g74
(dp3802
g101
g102
ssg83
g3791
sg76
(lp3803
S':'
asbag69
(g90
g71
NtRp3804
(dp3805
g74
(dp3806
sg83
g3791
sg76
(lp3807
g69
(g70
g71
NtRp3808
(dp3809
g74
(dp3810
g82
I5
ssg83
g3804
sg76
(lp3811
g69
(g78
g71
NtRp3812
(dp3813
g74
(dp3814
g82
I4
ssg83
Nsg76
(lp3815
sbasbasbasbag69
(g85
g71
NtRp3816
(dp3817
g74
(dp3818
sg83
g3363
sg76
(lp3819
g69
(g90
g71
NtRp3820
(dp3821
g74
(dp3822
g94
g95
ssg83
g3816
sg76
(lp3823
S'models_to_run'
p3824
asbag69
(g90
g71
NtRp3825
(dp3826
g74
(dp3827
g101
g102
ssg83
g3816
sg76
(lp3828
S':'
asbag69
(g90
g71
NtRp3829
(dp3830
g74
(dp3831
sg83
g3816
sg76
(lp3832
g69
(g70
g71
NtRp3833
(dp3834
g74
(dp3835
g82
I5
ssg83
g3829
sg76
(lp3836
g69
(g78
g71
NtRp3837
(dp3838
g74
(dp3839
g82
I4
ssg83
Nsg76
(lp3840
g69
(g85
g71
NtRp3841
(dp3842
g74
(dp3843
sg83
g3837
sg76
(lp3844
g69
(g90
g71
NtRp3845
(dp3846
g74
(dp3847
sg83
g3841
sg76
(lp3848
g69
(g70
g71
NtRp3849
(dp3850
g74
(dp3851
g82
I4
ssg83
g3845
sg76
(lp3852
S'^\\w+\\.py$'
p3853
asbasbasbag69
(g85
g71
NtRp3854
(dp3855
g74
(dp3856
sg83
g3837
sg76
(lp3857
g69
(g90
g71
NtRp3858
(dp3859
g74
(dp3860
sg83
g3854
sg76
(lp3861
g69
(g70
g71
NtRp3862
(dp3863
g74
(dp3864
g82
I4
ssg83
g3858
sg76
(lp3865
S'^initial/\\w+\\.py$'
p3866
asbasbasbag69
(g85
g71
NtRp3867
(dp3868
g74
(dp3869
sg83
g3837
sg76
(lp3870
g69
(g90
g71
NtRp3871
(dp3872
g74
(dp3873
sg83
g3867
sg76
(lp3874
g69
(g70
g71
NtRp3875
(dp3876
g74
(dp3877
g82
I4
ssg83
g3871
sg76
(lp3878
S'^initial/user/\\w+\\.py$'
p3879
asbasbasbasbasbasbasbag69
(g85
g71
NtRp3880
(dp3881
g74
(dp3882
sg83
g3363
sg76
(lp3883
g69
(g90
g71
NtRp3884
(dp3885
g74
(dp3886
g94
g95
ssg83
g3880
sg76
(lp3887
S'postprocessing'
p3888
asbag69
(g90
g71
NtRp3889
(dp3890
g74
(dp3891
g101
g102
ssg83
g3880
sg76
(lp3892
S':'
asbag69
(g90
g71
NtRp3893
(dp3894
g74
(dp3895
sg83
g3880
sg76
(lp3896
g69
(g70
g71
NtRp3897
(dp3898
g74
(dp3899
g82
I5
ssg83
g3893
sg76
(lp3900
g69
(g78
g71
NtRp3901
(dp3902
g74
(dp3903
g82
I4
ssg83
Nsg76
(lp3904
sbasbasbasbag69
(g85
g71
NtRp3905
(dp3906
g74
(dp3907
sg83
g3363
sg76
(lp3908
g69
(g90
g71
NtRp3909
(dp3910
g74
(dp3911
g94
g95
ssg83
g3905
sg76
(lp3912
S'session_cookie_expires'
p3913
asbag69
(g90
g71
NtRp3914
(dp3915
g74
(dp3916
g101
g102
ssg83
g3905
sg76
(lp3917
S':'
asbag69
(g90
g71
NtRp3918
(dp3919
g74
(dp3920
sg83
g3905
sg76
(lp3921
g69
(g70
g71
NtRp3922
(dp3923
g74
(dp3924
g82
I5
ssg83
g3918
sg76
(lp3925
S'None'
p3926
asbasbasbag69
(g85
g71
NtRp3927
(dp3928
g74
(dp3929
sg83
g3363
sg76
(lp3930
g69
(g90
g71
NtRp3931
(dp3932
g74
(dp3933
g94
g95
ssg83
g3927
sg76
(lp3934
S'session_data_name'
p3935
asbag69
(g90
g71
NtRp3936
(dp3937
g74
(dp3938
g101
g102
ssg83
g3927
sg76
(lp3939
S':'
asbag69
(g90
g71
NtRp3940
(dp3941
g74
(dp3942
sg83
g3927
sg76
(lp3943
g69
(g70
g71
NtRp3944
(dp3945
g74
(dp3946
g82
I5
ssg83
g3940
sg76
(lp3947
S'session_data_projeto'
p3948
asbasbasbag69
(g85
g71
NtRp3949
(dp3950
g74
(dp3951
sg83
g3363
sg76
(lp3952
g69
(g90
g71
NtRp3953
(dp3954
g74
(dp3955
g94
g95
ssg83
g3949
sg76
(lp3956
S'session_file'
p3957
asbag69
(g90
g71
NtRp3958
(dp3959
g74
(dp3960
g101
g102
ssg83
g3949
sg76
(lp3961
S':'
asbag69
(g90
g71
NtRp3962
(dp3963
g74
(dp3964
sg83
g3949
sg76
(lp3965
g69
(g70
g71
NtRp3966
(dp3967
g74
(dp3968
g82
I5
ssg83
g3962
sg76
(lp3969
S"<open file '/var/www/web2py_curso/applications/projeto/sessions/127.0.0.1-e368b264-444a-4dee-8b41-31155ff54a04', mode 'rb+' at 0x7f982407fdb0>"
p3970
asbasbasbag69
(g85
g71
NtRp3971
(dp3972
g74
(dp3973
sg83
g3363
sg76
(lp3974
g69
(g90
g71
NtRp3975
(dp3976
g74
(dp3977
g94
g95
ssg83
g3971
sg76
(lp3978
S'session_filename'
p3979
asbag69
(g90
g71
NtRp3980
(dp3981
g74
(dp3982
g101
g102
ssg83
g3971
sg76
(lp3983
S':'
asbag69
(g90
g71
NtRp3984
(dp3985
g74
(dp3986
sg83
g3971
sg76
(lp3987
g69
(g70
g71
NtRp3988
(dp3989
g74
(dp3990
g82
I5
ssg83
g3984
sg76
(lp3991
S'/var/www/web2py_curso/applications/projeto/sessions/127.0.0.1-e368b264-444a-4dee-8b41-31155ff54a04'
p3992
asbasbasbag69
(g85
g71
NtRp3993
(dp3994
g74
(dp3995
sg83
g3363
sg76
(lp3996
g69
(g90
g71
NtRp3997
(dp3998
g74
(dp3999
g94
g95
ssg83
g3993
sg76
(lp4000
S'session_id'
p4001
asbag69
(g90
g71
NtRp4002
(dp4003
g74
(dp4004
g101
g102
ssg83
g3993
sg76
(lp4005
S':'
asbag69
(g90
g71
NtRp4006
(dp4007
g74
(dp4008
sg83
g3993
sg76
(lp4009
g69
(g70
g71
NtRp4010
(dp4011
g74
(dp4012
g82
I5
ssg83
g4006
sg76
(lp4013
g686
asbasbasbag69
(g85
g71
NtRp4014
(dp4015
g74
(dp4016
sg83
g3363
sg76
(lp4017
g69
(g90
g71
NtRp4018
(dp4019
g74
(dp4020
g94
g95
ssg83
g4014
sg76
(lp4021
S'session_id_name'
p4022
asbag69
(g90
g71
NtRp4023
(dp4024
g74
(dp4025
g101
g102
ssg83
g4014
sg76
(lp4026
S':'
asbag69
(g90
g71
NtRp4027
(dp4028
g74
(dp4029
sg83
g4014
sg76
(lp4030
g69
(g70
g71
NtRp4031
(dp4032
g74
(dp4033
g82
I5
ssg83
g4027
sg76
(lp4034
g3420
asbasbasbag69
(g85
g71
NtRp4035
(dp4036
g74
(dp4037
sg83
g3363
sg76
(lp4038
g69
(g90
g71
NtRp4039
(dp4040
g74
(dp4041
g94
g95
ssg83
g4035
sg76
(lp4042
S'session_locked'
p4043
asbag69
(g90
g71
NtRp4044
(dp4045
g74
(dp4046
g101
g102
ssg83
g4035
sg76
(lp4047
S':'
asbag69
(g90
g71
NtRp4048
(dp4049
g74
(dp4050
sg83
g4035
sg76
(lp4051
g69
(g70
g71
NtRp4052
(dp4053
g74
(dp4054
g82
I5
ssg83
g4048
sg76
(lp4055
g1840
asbasbasbag69
(g85
g71
NtRp4056
(dp4057
g74
(dp4058
sg83
g3363
sg76
(lp4059
g69
(g90
g71
NtRp4060
(dp4061
g74
(dp4062
g94
g95
ssg83
g4056
sg76
(lp4063
S'session_new'
p4064
asbag69
(g90
g71
NtRp4065
(dp4066
g74
(dp4067
g101
g102
ssg83
g4056
sg76
(lp4068
S':'
asbag69
(g90
g71
NtRp4069
(dp4070
g74
(dp4071
sg83
g4056
sg76
(lp4072
g69
(g70
g71
NtRp4073
(dp4074
g74
(dp4075
g82
I5
ssg83
g4069
sg76
(lp4076
g112
asbasbasbag69
(g85
g71
NtRp4077
(dp4078
g74
(dp4079
sg83
g3363
sg76
(lp4080
g69
(g90
g71
NtRp4081
(dp4082
g74
(dp4083
g94
g95
ssg83
g4077
sg76
(lp4084
S'session_storage_type'
p4085
asbag69
(g90
g71
NtRp4086
(dp4087
g74
(dp4088
g101
g102
ssg83
g4077
sg76
(lp4089
S':'
asbag69
(g90
g71
NtRp4090
(dp4091
g74
(dp4092
sg83
g4077
sg76
(lp4093
g69
(g70
g71
NtRp4094
(dp4095
g74
(dp4096
g82
I5
ssg83
g4090
sg76
(lp4097
g3270
asbasbasbag69
(g85
g71
NtRp4098
(dp4099
g74
(dp4100
sg83
g3363
sg76
(lp4101
g69
(g90
g71
NtRp4102
(dp4103
g74
(dp4104
g94
g95
ssg83
g4098
sg76
(lp4105
S'status'
p4106
asbag69
(g90
g71
NtRp4107
(dp4108
g74
(dp4109
g101
g102
ssg83
g4098
sg76
(lp4110
S':'
asbag69
(g90
g71
NtRp4111
(dp4112
g74
(dp4113
sg83
g4098
sg76
(lp4114
g69
(g70
g71
NtRp4115
(dp4116
g74
(dp4117
g82
I5
ssg83
g4111
sg76
(lp4118
S'200'
p4119
asbasbasbag69
(g85
g71
NtRp4120
(dp4121
g74
(dp4122
sg83
g3363
sg76
(lp4123
g69
(g90
g71
NtRp4124
(dp4125
g74
(dp4126
g94
g95
ssg83
g4120
sg76
(lp4127
S'view'
p4128
asbag69
(g90
g71
NtRp4129
(dp4130
g74
(dp4131
g101
g102
ssg83
g4120
sg76
(lp4132
S':'
asbag69
(g90
g71
NtRp4133
(dp4134
g74
(dp4135
sg83
g4120
sg76
(lp4136
g69
(g70
g71
NtRp4137
(dp4138
g74
(dp4139
g82
I5
ssg83
g4133
sg76
(lp4140
S'initial/user.html'
p4141
asbasbasbasbasbsS'locals'
p4142
(dp4143
g4
S"'/var/www/web2py_curso/applications/projeto/controllers/initial.py'"
p4144
sg6
S'\'# coding: utf-8\\n\\ndef home():\\n\\treturn "Bem Vindo"... x + y\\n\\n \\n\\nresponse._vars=response._caller(user)\\n\''
p4145
sssS'traceback'
p4146
S'Traceback (most recent call last):\n  File "/var/www/web2py_curso/gluon/restricted.py", line 211, in restricted\n    ccode = compile2(code, layer)\n  File "/var/www/web2py_curso/gluon/restricted.py", line 194, in compile2\n    return compile(code.rstrip().replace(\'\\r\\n\', \'\\n\') + \'\\n\', layer, \'exec\')\n  File "/var/www/web2py_curso/applications/projeto/controllers/initial.py", line 14\n    db.auth_user.bio.writable = db.auth_user.bio.readable = False\n     ^\nIndentationError: expected an indented block\n'
p4147
s.