(dp1
S'output'
p2
S"<type 'exceptions.SyntaxError'> invalid syntax (default.py, line 7)"
p3
sS'layer'
p4
S'/var/www/web2py_curso/applications/projeto/controllers/default.py'
p5
sS'code'
p6
S'# coding: utf-8\n\ndef index():\n\tprint "Action index"\n\tprint request.args\n\tprint request.vars\n        if nome in request.args\n        mensagem = "Bem Vindo %nome" % request.vars\n\treturn mensagem\n\ndef contato():\n\treturn "<form><label>Nome</label><input /></form><br><a href=\'http://www.w3schools.com\'>Visit W3Schools</a>"\n\t#return dict(nome="fernando")\n\t#return response.render("teste.html", dict(nome="fernando"))\n\ndef soma(x, y):\n\treturn x + y\n\n \n\nresponse._vars=response._caller(index)\n'
p7
sS'snapshot'
p8
(dp9
S'exception'
p10
(dp11
S'__getslice__'
p12
S"<method-wrapper '__getslice__' of exceptions.SyntaxError object>"
p13
sS'text'
p14
S"'        if nome in request.args\\n'"
p15
sS'__str__'
p16
S"<method-wrapper '__str__' of exceptions.SyntaxError object>"
p17
sS'__reduce__'
p18
S'<built-in method __reduce__ of exceptions.SyntaxError object>'
p19
sS'__dict__'
p20
S'{}'
p21
sS'__sizeof__'
p22
S'<built-in method __sizeof__ of exceptions.SyntaxError object>'
p23
sS'__init__'
p24
S"<method-wrapper '__init__' of exceptions.SyntaxError object>"
p25
sS'__setattr__'
p26
S"<method-wrapper '__setattr__' of exceptions.SyntaxError object>"
p27
sS'__reduce_ex__'
p28
S'<built-in method __reduce_ex__ of exceptions.SyntaxError object>'
p29
sS'__new__'
p30
S'<built-in method __new__ of type object>'
p31
sS'__format__'
p32
S'<built-in method __format__ of exceptions.SyntaxError object>'
p33
sS'__class__'
p34
S"<type 'exceptions.SyntaxError'>"
p35
sS'filename'
p36
S"'/var/www/web2py_curso/applications/projeto/controllers/default.py'"
p37
sS'lineno'
p38
S'7'
sS'msg'
p39
S"'invalid syntax'"
p40
sS'__doc__'
p41
S"'Invalid syntax.'"
p42
sS'__getitem__'
p43
S"<method-wrapper '__getitem__' of exceptions.SyntaxError object>"
p44
sS'__setstate__'
p45
S'<built-in method __setstate__ of exceptions.SyntaxError object>'
p46
sS'__getattribute__'
p47
S"<method-wrapper '__getattribute__' of exceptions.SyntaxError object>"
p48
sS'print_file_and_line'
p49
S'None'
p50
sS'args'
p51
S"('invalid syntax', ('/var/www/web2py_curso/applications/projeto/controllers/default.py', 7, 32, '        if nome in request.args\\n'))"
p52
sS'__subclasshook__'
p53
S'<built-in method __subclasshook__ of type object>'
p54
sS'offset'
p55
S'32'
p56
sS'__unicode__'
p57
S'<built-in method __unicode__ of exceptions.SyntaxError object>'
p58
sS'__delattr__'
p59
S"<method-wrapper '__delattr__' of exceptions.SyntaxError object>"
p60
sS'__repr__'
p61
S"<method-wrapper '__repr__' of exceptions.SyntaxError object>"
p62
sS'__hash__'
p63
S"<method-wrapper '__hash__' of exceptions.SyntaxError object>"
p64
ssS'evalue'
p65
S'invalid syntax (default.py, line 7)'
p66
sS'request'
p67
ccopy_reg
_reconstructor
p68
(cgluon.html
BEAUTIFY
p69
c__builtin__
object
p70
NtRp71
(dp72
S'attributes'
p73
(dp74
sS'components'
p75
(lp76
g68
(cgluon.html
TABLE
p77
g70
NtRp78
(dp79
g73
(dp80
S'level'
p81
I5
ssS'parent'
p82
Nsg75
(lp83
g68
(cgluon.html
TR
p84
g70
NtRp85
(dp86
g73
(dp87
sg82
g78
sg75
(lp88
g68
(cgluon.html
TD
p89
g70
NtRp90
(dp91
g73
(dp92
S'_style'
p93
S'font-weight:bold;vertical-align:top'
p94
ssg82
g85
sg75
(lp95
S'ajax'
p96
asbag68
(g89
g70
NtRp97
(dp98
g73
(dp99
S'_valign'
p100
S'top'
p101
ssg82
g85
sg75
(lp102
S':'
asbag68
(g89
g70
NtRp103
(dp104
g73
(dp105
sg82
g85
sg75
(lp106
g68
(g69
g70
NtRp107
(dp108
g73
(dp109
g81
I5
ssg82
g103
sg75
(lp110
S'False'
p111
asbasbasbag68
(g84
g70
NtRp112
(dp113
g73
(dp114
sg82
g78
sg75
(lp115
g68
(g89
g70
NtRp116
(dp117
g73
(dp118
g93
g94
ssg82
g112
sg75
(lp119
S'application'
p120
asbag68
(g89
g70
NtRp121
(dp122
g73
(dp123
g100
g101
ssg82
g112
sg75
(lp124
S':'
asbag68
(g89
g70
NtRp125
(dp126
g73
(dp127
sg82
g112
sg75
(lp128
g68
(g69
g70
NtRp129
(dp130
g73
(dp131
g81
I5
ssg82
g125
sg75
(lp132
S'projeto'
p133
asbasbasbag68
(g84
g70
NtRp134
(dp135
g73
(dp136
sg82
g78
sg75
(lp137
g68
(g89
g70
NtRp138
(dp139
g73
(dp140
g93
g94
ssg82
g134
sg75
(lp141
g51
asbag68
(g89
g70
NtRp142
(dp143
g73
(dp144
g100
g101
ssg82
g134
sg75
(lp145
S':'
asbag68
(g89
g70
NtRp146
(dp147
g73
(dp148
sg82
g134
sg75
(lp149
g68
(g69
g70
NtRp150
(dp151
g73
(dp152
g81
I5
ssg82
g146
sg75
(lp153
g68
(g77
g70
NtRp154
(dp155
g73
(dp156
g81
I4
ssg82
Nsg75
(lp157
sbasbasbasbag68
(g84
g70
NtRp158
(dp159
g73
(dp160
sg82
g78
sg75
(lp161
g68
(g89
g70
NtRp162
(dp163
g73
(dp164
g93
g94
ssg82
g158
sg75
(lp165
S'body'
p166
asbag68
(g89
g70
NtRp167
(dp168
g73
(dp169
g100
g101
ssg82
g158
sg75
(lp170
S':'
asbag68
(g89
g70
NtRp171
(dp172
g73
(dp173
sg82
g158
sg75
(lp174
g68
(g69
g70
NtRp175
(dp176
g73
(dp177
g81
I5
ssg82
g171
sg75
(lp178
S'<cStringIO.StringO object at 0x7fde082ae6f8>'
p179
asbasbasbag68
(g84
g70
NtRp180
(dp181
g73
(dp182
sg82
g78
sg75
(lp183
g68
(g89
g70
NtRp184
(dp185
g73
(dp186
g93
g94
ssg82
g180
sg75
(lp187
S'cid'
p188
asbag68
(g89
g70
NtRp189
(dp190
g73
(dp191
g100
g101
ssg82
g180
sg75
(lp192
S':'
asbag68
(g89
g70
NtRp193
(dp194
g73
(dp195
sg82
g180
sg75
(lp196
g68
(g69
g70
NtRp197
(dp198
g73
(dp199
g81
I5
ssg82
g193
sg75
(lp200
S'None'
p201
asbasbasbag68
(g84
g70
NtRp202
(dp203
g73
(dp204
sg82
g78
sg75
(lp205
g68
(g89
g70
NtRp206
(dp207
g73
(dp208
g93
g94
ssg82
g202
sg75
(lp209
S'client'
p210
asbag68
(g89
g70
NtRp211
(dp212
g73
(dp213
g100
g101
ssg82
g202
sg75
(lp214
S':'
asbag68
(g89
g70
NtRp215
(dp216
g73
(dp217
sg82
g202
sg75
(lp218
g68
(g69
g70
NtRp219
(dp220
g73
(dp221
g81
I5
ssg82
g215
sg75
(lp222
S'127.0.0.1'
p223
asbasbasbag68
(g84
g70
NtRp224
(dp225
g73
(dp226
sg82
g78
sg75
(lp227
g68
(g89
g70
NtRp228
(dp229
g73
(dp230
g93
g94
ssg82
g224
sg75
(lp231
S'controller'
p232
asbag68
(g89
g70
NtRp233
(dp234
g73
(dp235
g100
g101
ssg82
g224
sg75
(lp236
S':'
asbag68
(g89
g70
NtRp237
(dp238
g73
(dp239
sg82
g224
sg75
(lp240
g68
(g69
g70
NtRp241
(dp242
g73
(dp243
g81
I5
ssg82
g237
sg75
(lp244
S'default'
p245
asbasbasbag68
(g84
g70
NtRp246
(dp247
g73
(dp248
sg82
g78
sg75
(lp249
g68
(g89
g70
NtRp250
(dp251
g73
(dp252
g93
g94
ssg82
g246
sg75
(lp253
S'cookies'
p254
asbag68
(g89
g70
NtRp255
(dp256
g73
(dp257
g100
g101
ssg82
g246
sg75
(lp258
S':'
asbag68
(g89
g70
NtRp259
(dp260
g73
(dp261
sg82
g246
sg75
(lp262
g68
(g69
g70
NtRp263
(dp264
g73
(dp265
g81
I5
ssg82
g259
sg75
(lp266
g68
(g77
g70
NtRp267
(dp268
g73
(dp269
g81
I4
ssg82
Nsg75
(lp270
g68
(g84
g70
NtRp271
(dp272
g73
(dp273
sg82
g267
sg75
(lp274
g68
(g89
g70
NtRp275
(dp276
g73
(dp277
g93
g94
ssg82
g271
sg75
(lp278
S'session_id_admin'
p279
asbag68
(g89
g70
NtRp280
(dp281
g73
(dp282
g100
g101
ssg82
g271
sg75
(lp283
S':'
asbag68
(g89
g70
NtRp284
(dp285
g73
(dp286
sg82
g271
sg75
(lp287
g68
(g69
g70
NtRp288
(dp289
g73
(dp290
g81
I4
ssg82
g284
sg75
(lp291
S'127.0.0.1-6b19d69e-1405-460b-b17e-ad0b8deb3490'
p292
ag68
(g77
g70
NtRp293
(dp294
g73
(dp295
g81
I3
ssg82
Nsg75
(lp296
g68
(g84
g70
NtRp297
(dp298
g73
(dp299
sg82
g293
sg75
(lp300
g68
(g89
g70
NtRp301
(dp302
g73
(dp303
g93
g94
ssg82
g297
sg75
(lp304
S'comment'
p305
asbag68
(g89
g70
NtRp306
(dp307
g73
(dp308
g100
g101
ssg82
g297
sg75
(lp309
S':'
asbag68
(g89
g70
NtRp310
(dp311
g73
(dp312
sg82
g297
sg75
(lp313
g68
(g69
g70
NtRp314
(dp315
g73
(dp316
g81
I3
ssg82
g310
sg75
(lp317
S''
asbasbasbag68
(g84
g70
NtRp318
(dp319
g73
(dp320
sg82
g293
sg75
(lp321
g68
(g89
g70
NtRp322
(dp323
g73
(dp324
g93
g94
ssg82
g318
sg75
(lp325
S'domain'
p326
asbag68
(g89
g70
NtRp327
(dp328
g73
(dp329
g100
g101
ssg82
g318
sg75
(lp330
S':'
asbag68
(g89
g70
NtRp331
(dp332
g73
(dp333
sg82
g318
sg75
(lp334
g68
(g69
g70
NtRp335
(dp336
g73
(dp337
g81
I3
ssg82
g331
sg75
(lp338
S''
asbasbasbag68
(g84
g70
NtRp339
(dp340
g73
(dp341
sg82
g293
sg75
(lp342
g68
(g89
g70
NtRp343
(dp344
g73
(dp345
g93
g94
ssg82
g339
sg75
(lp346
S'expires'
p347
asbag68
(g89
g70
NtRp348
(dp349
g73
(dp350
g100
g101
ssg82
g339
sg75
(lp351
S':'
asbag68
(g89
g70
NtRp352
(dp353
g73
(dp354
sg82
g339
sg75
(lp355
g68
(g69
g70
NtRp356
(dp357
g73
(dp358
g81
I3
ssg82
g352
sg75
(lp359
S''
asbasbasbag68
(g84
g70
NtRp360
(dp361
g73
(dp362
sg82
g293
sg75
(lp363
g68
(g89
g70
NtRp364
(dp365
g73
(dp366
g93
g94
ssg82
g360
sg75
(lp367
S'httponly'
p368
asbag68
(g89
g70
NtRp369
(dp370
g73
(dp371
g100
g101
ssg82
g360
sg75
(lp372
S':'
asbag68
(g89
g70
NtRp373
(dp374
g73
(dp375
sg82
g360
sg75
(lp376
g68
(g69
g70
NtRp377
(dp378
g73
(dp379
g81
I3
ssg82
g373
sg75
(lp380
S''
asbasbasbag68
(g84
g70
NtRp381
(dp382
g73
(dp383
sg82
g293
sg75
(lp384
g68
(g89
g70
NtRp385
(dp386
g73
(dp387
g93
g94
ssg82
g381
sg75
(lp388
S'max-age'
p389
asbag68
(g89
g70
NtRp390
(dp391
g73
(dp392
g100
g101
ssg82
g381
sg75
(lp393
S':'
asbag68
(g89
g70
NtRp394
(dp395
g73
(dp396
sg82
g381
sg75
(lp397
g68
(g69
g70
NtRp398
(dp399
g73
(dp400
g81
I3
ssg82
g394
sg75
(lp401
S''
asbasbasbag68
(g84
g70
NtRp402
(dp403
g73
(dp404
sg82
g293
sg75
(lp405
g68
(g89
g70
NtRp406
(dp407
g73
(dp408
g93
g94
ssg82
g402
sg75
(lp409
S'path'
p410
asbag68
(g89
g70
NtRp411
(dp412
g73
(dp413
g100
g101
ssg82
g402
sg75
(lp414
S':'
asbag68
(g89
g70
NtRp415
(dp416
g73
(dp417
sg82
g402
sg75
(lp418
g68
(g69
g70
NtRp419
(dp420
g73
(dp421
g81
I3
ssg82
g415
sg75
(lp422
S''
asbasbasbag68
(g84
g70
NtRp423
(dp424
g73
(dp425
sg82
g293
sg75
(lp426
g68
(g89
g70
NtRp427
(dp428
g73
(dp429
g93
g94
ssg82
g423
sg75
(lp430
S'secure'
p431
asbag68
(g89
g70
NtRp432
(dp433
g73
(dp434
g100
g101
ssg82
g423
sg75
(lp435
S':'
asbag68
(g89
g70
NtRp436
(dp437
g73
(dp438
sg82
g423
sg75
(lp439
g68
(g69
g70
NtRp440
(dp441
g73
(dp442
g81
I3
ssg82
g436
sg75
(lp443
S''
asbasbasbag68
(g84
g70
NtRp444
(dp445
g73
(dp446
sg82
g293
sg75
(lp447
g68
(g89
g70
NtRp448
(dp449
g73
(dp450
g93
g94
ssg82
g444
sg75
(lp451
S'version'
p452
asbag68
(g89
g70
NtRp453
(dp454
g73
(dp455
g100
g101
ssg82
g444
sg75
(lp456
S':'
asbag68
(g89
g70
NtRp457
(dp458
g73
(dp459
sg82
g444
sg75
(lp460
g68
(g69
g70
NtRp461
(dp462
g73
(dp463
g81
I3
ssg82
g457
sg75
(lp464
S''
asbasbasbasbasbasbasbag68
(g84
g70
NtRp465
(dp466
g73
(dp467
sg82
g267
sg75
(lp468
g68
(g89
g70
NtRp469
(dp470
g73
(dp471
g93
g94
ssg82
g465
sg75
(lp472
S'session_id_home'
p473
asbag68
(g89
g70
NtRp474
(dp475
g73
(dp476
g100
g101
ssg82
g465
sg75
(lp477
S':'
asbag68
(g89
g70
NtRp478
(dp479
g73
(dp480
sg82
g465
sg75
(lp481
g68
(g69
g70
NtRp482
(dp483
g73
(dp484
g81
I4
ssg82
g478
sg75
(lp485
S'127.0.0.1-61c26c04-034b-4717-a3a3-84ec434f1b9b'
p486
ag68
(g77
g70
NtRp487
(dp488
g73
(dp489
g81
I3
ssg82
Nsg75
(lp490
g68
(g84
g70
NtRp491
(dp492
g73
(dp493
sg82
g487
sg75
(lp494
g68
(g89
g70
NtRp495
(dp496
g73
(dp497
g93
g94
ssg82
g491
sg75
(lp498
g305
asbag68
(g89
g70
NtRp499
(dp500
g73
(dp501
g100
g101
ssg82
g491
sg75
(lp502
S':'
asbag68
(g89
g70
NtRp503
(dp504
g73
(dp505
sg82
g491
sg75
(lp506
g68
(g69
g70
NtRp507
(dp508
g73
(dp509
g81
I3
ssg82
g503
sg75
(lp510
S''
asbasbasbag68
(g84
g70
NtRp511
(dp512
g73
(dp513
sg82
g487
sg75
(lp514
g68
(g89
g70
NtRp515
(dp516
g73
(dp517
g93
g94
ssg82
g511
sg75
(lp518
g326
asbag68
(g89
g70
NtRp519
(dp520
g73
(dp521
g100
g101
ssg82
g511
sg75
(lp522
S':'
asbag68
(g89
g70
NtRp523
(dp524
g73
(dp525
sg82
g511
sg75
(lp526
g68
(g69
g70
NtRp527
(dp528
g73
(dp529
g81
I3
ssg82
g523
sg75
(lp530
S''
asbasbasbag68
(g84
g70
NtRp531
(dp532
g73
(dp533
sg82
g487
sg75
(lp534
g68
(g89
g70
NtRp535
(dp536
g73
(dp537
g93
g94
ssg82
g531
sg75
(lp538
g347
asbag68
(g89
g70
NtRp539
(dp540
g73
(dp541
g100
g101
ssg82
g531
sg75
(lp542
S':'
asbag68
(g89
g70
NtRp543
(dp544
g73
(dp545
sg82
g531
sg75
(lp546
g68
(g69
g70
NtRp547
(dp548
g73
(dp549
g81
I3
ssg82
g543
sg75
(lp550
S''
asbasbasbag68
(g84
g70
NtRp551
(dp552
g73
(dp553
sg82
g487
sg75
(lp554
g68
(g89
g70
NtRp555
(dp556
g73
(dp557
g93
g94
ssg82
g551
sg75
(lp558
g368
asbag68
(g89
g70
NtRp559
(dp560
g73
(dp561
g100
g101
ssg82
g551
sg75
(lp562
S':'
asbag68
(g89
g70
NtRp563
(dp564
g73
(dp565
sg82
g551
sg75
(lp566
g68
(g69
g70
NtRp567
(dp568
g73
(dp569
g81
I3
ssg82
g563
sg75
(lp570
S''
asbasbasbag68
(g84
g70
NtRp571
(dp572
g73
(dp573
sg82
g487
sg75
(lp574
g68
(g89
g70
NtRp575
(dp576
g73
(dp577
g93
g94
ssg82
g571
sg75
(lp578
g389
asbag68
(g89
g70
NtRp579
(dp580
g73
(dp581
g100
g101
ssg82
g571
sg75
(lp582
S':'
asbag68
(g89
g70
NtRp583
(dp584
g73
(dp585
sg82
g571
sg75
(lp586
g68
(g69
g70
NtRp587
(dp588
g73
(dp589
g81
I3
ssg82
g583
sg75
(lp590
S''
asbasbasbag68
(g84
g70
NtRp591
(dp592
g73
(dp593
sg82
g487
sg75
(lp594
g68
(g89
g70
NtRp595
(dp596
g73
(dp597
g93
g94
ssg82
g591
sg75
(lp598
g410
asbag68
(g89
g70
NtRp599
(dp600
g73
(dp601
g100
g101
ssg82
g591
sg75
(lp602
S':'
asbag68
(g89
g70
NtRp603
(dp604
g73
(dp605
sg82
g591
sg75
(lp606
g68
(g69
g70
NtRp607
(dp608
g73
(dp609
g81
I3
ssg82
g603
sg75
(lp610
S''
asbasbasbag68
(g84
g70
NtRp611
(dp612
g73
(dp613
sg82
g487
sg75
(lp614
g68
(g89
g70
NtRp615
(dp616
g73
(dp617
g93
g94
ssg82
g611
sg75
(lp618
g431
asbag68
(g89
g70
NtRp619
(dp620
g73
(dp621
g100
g101
ssg82
g611
sg75
(lp622
S':'
asbag68
(g89
g70
NtRp623
(dp624
g73
(dp625
sg82
g611
sg75
(lp626
g68
(g69
g70
NtRp627
(dp628
g73
(dp629
g81
I3
ssg82
g623
sg75
(lp630
S''
asbasbasbag68
(g84
g70
NtRp631
(dp632
g73
(dp633
sg82
g487
sg75
(lp634
g68
(g89
g70
NtRp635
(dp636
g73
(dp637
g93
g94
ssg82
g631
sg75
(lp638
g452
asbag68
(g89
g70
NtRp639
(dp640
g73
(dp641
g100
g101
ssg82
g631
sg75
(lp642
S':'
asbag68
(g89
g70
NtRp643
(dp644
g73
(dp645
sg82
g631
sg75
(lp646
g68
(g69
g70
NtRp647
(dp648
g73
(dp649
g81
I3
ssg82
g643
sg75
(lp650
S''
asbasbasbasbasbasbasbag68
(g84
g70
NtRp651
(dp652
g73
(dp653
sg82
g267
sg75
(lp654
g68
(g89
g70
NtRp655
(dp656
g73
(dp657
g93
g94
ssg82
g651
sg75
(lp658
S'session_id_projeto'
p659
asbag68
(g89
g70
NtRp660
(dp661
g73
(dp662
g100
g101
ssg82
g651
sg75
(lp663
S':'
asbag68
(g89
g70
NtRp664
(dp665
g73
(dp666
sg82
g651
sg75
(lp667
g68
(g69
g70
NtRp668
(dp669
g73
(dp670
g81
I4
ssg82
g664
sg75
(lp671
S'127.0.0.1-ac2fedfb-a46a-42e9-8bef-23a136eddeb8'
p672
ag68
(g77
g70
NtRp673
(dp674
g73
(dp675
g81
I3
ssg82
Nsg75
(lp676
g68
(g84
g70
NtRp677
(dp678
g73
(dp679
sg82
g673
sg75
(lp680
g68
(g89
g70
NtRp681
(dp682
g73
(dp683
g93
g94
ssg82
g677
sg75
(lp684
g305
asbag68
(g89
g70
NtRp685
(dp686
g73
(dp687
g100
g101
ssg82
g677
sg75
(lp688
S':'
asbag68
(g89
g70
NtRp689
(dp690
g73
(dp691
sg82
g677
sg75
(lp692
g68
(g69
g70
NtRp693
(dp694
g73
(dp695
g81
I3
ssg82
g689
sg75
(lp696
S''
asbasbasbag68
(g84
g70
NtRp697
(dp698
g73
(dp699
sg82
g673
sg75
(lp700
g68
(g89
g70
NtRp701
(dp702
g73
(dp703
g93
g94
ssg82
g697
sg75
(lp704
g326
asbag68
(g89
g70
NtRp705
(dp706
g73
(dp707
g100
g101
ssg82
g697
sg75
(lp708
S':'
asbag68
(g89
g70
NtRp709
(dp710
g73
(dp711
sg82
g697
sg75
(lp712
g68
(g69
g70
NtRp713
(dp714
g73
(dp715
g81
I3
ssg82
g709
sg75
(lp716
S''
asbasbasbag68
(g84
g70
NtRp717
(dp718
g73
(dp719
sg82
g673
sg75
(lp720
g68
(g89
g70
NtRp721
(dp722
g73
(dp723
g93
g94
ssg82
g717
sg75
(lp724
g347
asbag68
(g89
g70
NtRp725
(dp726
g73
(dp727
g100
g101
ssg82
g717
sg75
(lp728
S':'
asbag68
(g89
g70
NtRp729
(dp730
g73
(dp731
sg82
g717
sg75
(lp732
g68
(g69
g70
NtRp733
(dp734
g73
(dp735
g81
I3
ssg82
g729
sg75
(lp736
S''
asbasbasbag68
(g84
g70
NtRp737
(dp738
g73
(dp739
sg82
g673
sg75
(lp740
g68
(g89
g70
NtRp741
(dp742
g73
(dp743
g93
g94
ssg82
g737
sg75
(lp744
g368
asbag68
(g89
g70
NtRp745
(dp746
g73
(dp747
g100
g101
ssg82
g737
sg75
(lp748
S':'
asbag68
(g89
g70
NtRp749
(dp750
g73
(dp751
sg82
g737
sg75
(lp752
g68
(g69
g70
NtRp753
(dp754
g73
(dp755
g81
I3
ssg82
g749
sg75
(lp756
S''
asbasbasbag68
(g84
g70
NtRp757
(dp758
g73
(dp759
sg82
g673
sg75
(lp760
g68
(g89
g70
NtRp761
(dp762
g73
(dp763
g93
g94
ssg82
g757
sg75
(lp764
g389
asbag68
(g89
g70
NtRp765
(dp766
g73
(dp767
g100
g101
ssg82
g757
sg75
(lp768
S':'
asbag68
(g89
g70
NtRp769
(dp770
g73
(dp771
sg82
g757
sg75
(lp772
g68
(g69
g70
NtRp773
(dp774
g73
(dp775
g81
I3
ssg82
g769
sg75
(lp776
S''
asbasbasbag68
(g84
g70
NtRp777
(dp778
g73
(dp779
sg82
g673
sg75
(lp780
g68
(g89
g70
NtRp781
(dp782
g73
(dp783
g93
g94
ssg82
g777
sg75
(lp784
g410
asbag68
(g89
g70
NtRp785
(dp786
g73
(dp787
g100
g101
ssg82
g777
sg75
(lp788
S':'
asbag68
(g89
g70
NtRp789
(dp790
g73
(dp791
sg82
g777
sg75
(lp792
g68
(g69
g70
NtRp793
(dp794
g73
(dp795
g81
I3
ssg82
g789
sg75
(lp796
S''
asbasbasbag68
(g84
g70
NtRp797
(dp798
g73
(dp799
sg82
g673
sg75
(lp800
g68
(g89
g70
NtRp801
(dp802
g73
(dp803
g93
g94
ssg82
g797
sg75
(lp804
g431
asbag68
(g89
g70
NtRp805
(dp806
g73
(dp807
g100
g101
ssg82
g797
sg75
(lp808
S':'
asbag68
(g89
g70
NtRp809
(dp810
g73
(dp811
sg82
g797
sg75
(lp812
g68
(g69
g70
NtRp813
(dp814
g73
(dp815
g81
I3
ssg82
g809
sg75
(lp816
S''
asbasbasbag68
(g84
g70
NtRp817
(dp818
g73
(dp819
sg82
g673
sg75
(lp820
g68
(g89
g70
NtRp821
(dp822
g73
(dp823
g93
g94
ssg82
g817
sg75
(lp824
g452
asbag68
(g89
g70
NtRp825
(dp826
g73
(dp827
g100
g101
ssg82
g817
sg75
(lp828
S':'
asbag68
(g89
g70
NtRp829
(dp830
g73
(dp831
sg82
g817
sg75
(lp832
g68
(g69
g70
NtRp833
(dp834
g73
(dp835
g81
I3
ssg82
g829
sg75
(lp836
S''
asbasbasbasbasbasbasbag68
(g84
g70
NtRp837
(dp838
g73
(dp839
sg82
g267
sg75
(lp840
g68
(g89
g70
NtRp841
(dp842
g73
(dp843
g93
g94
ssg82
g837
sg75
(lp844
S'session_id_welcome'
p845
asbag68
(g89
g70
NtRp846
(dp847
g73
(dp848
g100
g101
ssg82
g837
sg75
(lp849
S':'
asbag68
(g89
g70
NtRp850
(dp851
g73
(dp852
sg82
g837
sg75
(lp853
g68
(g69
g70
NtRp854
(dp855
g73
(dp856
g81
I4
ssg82
g850
sg75
(lp857
S'127.0.0.1-112b4c82-b064-485e-80d3-cb116c714609'
p858
ag68
(g77
g70
NtRp859
(dp860
g73
(dp861
g81
I3
ssg82
Nsg75
(lp862
g68
(g84
g70
NtRp863
(dp864
g73
(dp865
sg82
g859
sg75
(lp866
g68
(g89
g70
NtRp867
(dp868
g73
(dp869
g93
g94
ssg82
g863
sg75
(lp870
g305
asbag68
(g89
g70
NtRp871
(dp872
g73
(dp873
g100
g101
ssg82
g863
sg75
(lp874
S':'
asbag68
(g89
g70
NtRp875
(dp876
g73
(dp877
sg82
g863
sg75
(lp878
g68
(g69
g70
NtRp879
(dp880
g73
(dp881
g81
I3
ssg82
g875
sg75
(lp882
S''
asbasbasbag68
(g84
g70
NtRp883
(dp884
g73
(dp885
sg82
g859
sg75
(lp886
g68
(g89
g70
NtRp887
(dp888
g73
(dp889
g93
g94
ssg82
g883
sg75
(lp890
g326
asbag68
(g89
g70
NtRp891
(dp892
g73
(dp893
g100
g101
ssg82
g883
sg75
(lp894
S':'
asbag68
(g89
g70
NtRp895
(dp896
g73
(dp897
sg82
g883
sg75
(lp898
g68
(g69
g70
NtRp899
(dp900
g73
(dp901
g81
I3
ssg82
g895
sg75
(lp902
S''
asbasbasbag68
(g84
g70
NtRp903
(dp904
g73
(dp905
sg82
g859
sg75
(lp906
g68
(g89
g70
NtRp907
(dp908
g73
(dp909
g93
g94
ssg82
g903
sg75
(lp910
g347
asbag68
(g89
g70
NtRp911
(dp912
g73
(dp913
g100
g101
ssg82
g903
sg75
(lp914
S':'
asbag68
(g89
g70
NtRp915
(dp916
g73
(dp917
sg82
g903
sg75
(lp918
g68
(g69
g70
NtRp919
(dp920
g73
(dp921
g81
I3
ssg82
g915
sg75
(lp922
S''
asbasbasbag68
(g84
g70
NtRp923
(dp924
g73
(dp925
sg82
g859
sg75
(lp926
g68
(g89
g70
NtRp927
(dp928
g73
(dp929
g93
g94
ssg82
g923
sg75
(lp930
g368
asbag68
(g89
g70
NtRp931
(dp932
g73
(dp933
g100
g101
ssg82
g923
sg75
(lp934
S':'
asbag68
(g89
g70
NtRp935
(dp936
g73
(dp937
sg82
g923
sg75
(lp938
g68
(g69
g70
NtRp939
(dp940
g73
(dp941
g81
I3
ssg82
g935
sg75
(lp942
S''
asbasbasbag68
(g84
g70
NtRp943
(dp944
g73
(dp945
sg82
g859
sg75
(lp946
g68
(g89
g70
NtRp947
(dp948
g73
(dp949
g93
g94
ssg82
g943
sg75
(lp950
g389
asbag68
(g89
g70
NtRp951
(dp952
g73
(dp953
g100
g101
ssg82
g943
sg75
(lp954
S':'
asbag68
(g89
g70
NtRp955
(dp956
g73
(dp957
sg82
g943
sg75
(lp958
g68
(g69
g70
NtRp959
(dp960
g73
(dp961
g81
I3
ssg82
g955
sg75
(lp962
S''
asbasbasbag68
(g84
g70
NtRp963
(dp964
g73
(dp965
sg82
g859
sg75
(lp966
g68
(g89
g70
NtRp967
(dp968
g73
(dp969
g93
g94
ssg82
g963
sg75
(lp970
g410
asbag68
(g89
g70
NtRp971
(dp972
g73
(dp973
g100
g101
ssg82
g963
sg75
(lp974
S':'
asbag68
(g89
g70
NtRp975
(dp976
g73
(dp977
sg82
g963
sg75
(lp978
g68
(g69
g70
NtRp979
(dp980
g73
(dp981
g81
I3
ssg82
g975
sg75
(lp982
S''
asbasbasbag68
(g84
g70
NtRp983
(dp984
g73
(dp985
sg82
g859
sg75
(lp986
g68
(g89
g70
NtRp987
(dp988
g73
(dp989
g93
g94
ssg82
g983
sg75
(lp990
g431
asbag68
(g89
g70
NtRp991
(dp992
g73
(dp993
g100
g101
ssg82
g983
sg75
(lp994
S':'
asbag68
(g89
g70
NtRp995
(dp996
g73
(dp997
sg82
g983
sg75
(lp998
g68
(g69
g70
NtRp999
(dp1000
g73
(dp1001
g81
I3
ssg82
g995
sg75
(lp1002
S''
asbasbasbag68
(g84
g70
NtRp1003
(dp1004
g73
(dp1005
sg82
g859
sg75
(lp1006
g68
(g89
g70
NtRp1007
(dp1008
g73
(dp1009
g93
g94
ssg82
g1003
sg75
(lp1010
g452
asbag68
(g89
g70
NtRp1011
(dp1012
g73
(dp1013
g100
g101
ssg82
g1003
sg75
(lp1014
S':'
asbag68
(g89
g70
NtRp1015
(dp1016
g73
(dp1017
sg82
g1003
sg75
(lp1018
g68
(g69
g70
NtRp1019
(dp1020
g73
(dp1021
g81
I3
ssg82
g1015
sg75
(lp1022
S''
asbasbasbasbasbasbasbasbasbasbasbag68
(g84
g70
NtRp1023
(dp1024
g73
(dp1025
sg82
g78
sg75
(lp1026
g68
(g89
g70
NtRp1027
(dp1028
g73
(dp1029
g93
g94
ssg82
g1023
sg75
(lp1030
S'env'
p1031
asbag68
(g89
g70
NtRp1032
(dp1033
g73
(dp1034
g100
g101
ssg82
g1023
sg75
(lp1035
S':'
asbag68
(g89
g70
NtRp1036
(dp1037
g73
(dp1038
sg82
g1023
sg75
(lp1039
g68
(g69
g70
NtRp1040
(dp1041
g73
(dp1042
g81
I5
ssg82
g1036
sg75
(lp1043
g68
(g77
g70
NtRp1044
(dp1045
g73
(dp1046
g81
I4
ssg82
Nsg75
(lp1047
g68
(g84
g70
NtRp1048
(dp1049
g73
(dp1050
sg82
g1044
sg75
(lp1051
g68
(g89
g70
NtRp1052
(dp1053
g73
(dp1054
g93
g94
ssg82
g1048
sg75
(lp1055
S'app_folders'
p1056
asbag68
(g89
g70
NtRp1057
(dp1058
g73
(dp1059
g100
g101
ssg82
g1048
sg75
(lp1060
S':'
asbag68
(g89
g70
NtRp1061
(dp1062
g73
(dp1063
sg82
g1048
sg75
(lp1064
g68
(g69
g70
NtRp1065
(dp1066
g73
(dp1067
g81
I4
ssg82
g1061
sg75
(lp1068
S"set(['/var/www/web2py_curso/applications/welcome/', '/var/www/web2py_curso/applications/admin/', '/var/www/web2py_curso/applications/projeto/'])"
p1069
asbasbasbag68
(g84
g70
NtRp1070
(dp1071
g73
(dp1072
sg82
g1044
sg75
(lp1073
g68
(g89
g70
NtRp1074
(dp1075
g73
(dp1076
g93
g94
ssg82
g1070
sg75
(lp1077
S'applications_parent'
p1078
asbag68
(g89
g70
NtRp1079
(dp1080
g73
(dp1081
g100
g101
ssg82
g1070
sg75
(lp1082
S':'
asbag68
(g89
g70
NtRp1083
(dp1084
g73
(dp1085
sg82
g1070
sg75
(lp1086
g68
(g69
g70
NtRp1087
(dp1088
g73
(dp1089
g81
I4
ssg82
g1083
sg75
(lp1090
S'/var/www/web2py_curso'
p1091
asbasbasbag68
(g84
g70
NtRp1092
(dp1093
g73
(dp1094
sg82
g1044
sg75
(lp1095
g68
(g89
g70
NtRp1096
(dp1097
g73
(dp1098
g93
g94
ssg82
g1092
sg75
(lp1099
S'cmd_args'
p1100
asbag68
(g89
g70
NtRp1101
(dp1102
g73
(dp1103
g100
g101
ssg82
g1092
sg75
(lp1104
S':'
asbag68
(g89
g70
NtRp1105
(dp1106
g73
(dp1107
sg82
g1092
sg75
(lp1108
g68
(g69
g70
NtRp1109
(dp1110
g73
(dp1111
g81
I4
ssg82
g1105
sg75
(lp1112
g68
(g77
g70
NtRp1113
(dp1114
g73
(dp1115
g81
I3
ssg82
Nsg75
(lp1116
sbasbasbasbag68
(g84
g70
NtRp1117
(dp1118
g73
(dp1119
sg82
g1044
sg75
(lp1120
g68
(g89
g70
NtRp1121
(dp1122
g73
(dp1123
g93
g94
ssg82
g1117
sg75
(lp1124
S'cmd_options'
p1125
asbag68
(g89
g70
NtRp1126
(dp1127
g73
(dp1128
g100
g101
ssg82
g1117
sg75
(lp1129
S':'
asbag68
(g89
g70
NtRp1130
(dp1131
g73
(dp1132
sg82
g1117
sg75
(lp1133
g68
(g69
g70
NtRp1134
(dp1135
g73
(dp1136
g81
I4
ssg82
g1130
sg75
(lp1137
S"<Values at 0x20c31b8: {'verbose': False, 'ip': '127.0.0.1', 'with_scheduler': False, 'ips': [], 'shutdown_timeout': 5, 'taskbar': False, 'port': 8000, 'maxthreads': None, 'softcron': False, 'server_name': 'fernado-desktop', 'bpython': False, 'nogui': False, 'pid_filename': 'httpserver.pid', 'extcron': False, 'runcron': False, 'run_system_tests': False, 'test': None, 'folder': '/var/www/web2py_curso', 'config': '', 'minthreads': None, 'winservice': '', 'shell': None, 'run': '', 'log_filename': 'httpserver.log', 'debuglevel': 30, 'args': [''], 'socket_timeout': 5, 'ssl_ca_certificate': None, 'scheduler': None, 'profiler_filename': None, 'ssl_private_key': '', 'scheduler_groups': None, 'password': '123456', 'request_queue_size': 5, 'ssl_certificate': '', 'cronjob': False, 'numthreads': None, 'quiet': False, 'interfaces': None, 'import_models': False, 'timeout': 10, 'plain': False, 'nobanner': False}>"
p1138
asbasbasbag68
(g84
g70
NtRp1139
(dp1140
g73
(dp1141
sg82
g1044
sg75
(lp1142
g68
(g89
g70
NtRp1143
(dp1144
g73
(dp1145
g93
g94
ssg82
g1139
sg75
(lp1146
S'db_sessions'
p1147
asbag68
(g89
g70
NtRp1148
(dp1149
g73
(dp1150
g100
g101
ssg82
g1139
sg75
(lp1151
S':'
asbag68
(g89
g70
NtRp1152
(dp1153
g73
(dp1154
sg82
g1139
sg75
(lp1155
g68
(g69
g70
NtRp1156
(dp1157
g73
(dp1158
g81
I4
ssg82
g1152
sg75
(lp1159
S'set([])'
p1160
asbasbasbag68
(g84
g70
NtRp1161
(dp1162
g73
(dp1163
sg82
g1044
sg75
(lp1164
g68
(g89
g70
NtRp1165
(dp1166
g73
(dp1167
g93
g94
ssg82
g1161
sg75
(lp1168
S'debugging'
p1169
asbag68
(g89
g70
NtRp1170
(dp1171
g73
(dp1172
g100
g101
ssg82
g1161
sg75
(lp1173
S':'
asbag68
(g89
g70
NtRp1174
(dp1175
g73
(dp1176
sg82
g1161
sg75
(lp1177
g68
(g69
g70
NtRp1178
(dp1179
g73
(dp1180
g81
I4
ssg82
g1174
sg75
(lp1181
g111
asbasbasbag68
(g84
g70
NtRp1182
(dp1183
g73
(dp1184
sg82
g1044
sg75
(lp1185
g68
(g89
g70
NtRp1186
(dp1187
g73
(dp1188
g93
g94
ssg82
g1182
sg75
(lp1189
S'gluon_parent'
p1190
asbag68
(g89
g70
NtRp1191
(dp1192
g73
(dp1193
g100
g101
ssg82
g1182
sg75
(lp1194
S':'
asbag68
(g89
g70
NtRp1195
(dp1196
g73
(dp1197
sg82
g1182
sg75
(lp1198
g68
(g69
g70
NtRp1199
(dp1200
g73
(dp1201
g81
I4
ssg82
g1195
sg75
(lp1202
S'/var/www/web2py_curso'
p1203
asbasbasbag68
(g84
g70
NtRp1204
(dp1205
g73
(dp1206
sg82
g1044
sg75
(lp1207
g68
(g89
g70
NtRp1208
(dp1209
g73
(dp1210
g93
g94
ssg82
g1204
sg75
(lp1211
S'http_accept'
p1212
asbag68
(g89
g70
NtRp1213
(dp1214
g73
(dp1215
g100
g101
ssg82
g1204
sg75
(lp1216
S':'
asbag68
(g89
g70
NtRp1217
(dp1218
g73
(dp1219
sg82
g1204
sg75
(lp1220
g68
(g69
g70
NtRp1221
(dp1222
g73
(dp1223
g81
I4
ssg82
g1217
sg75
(lp1224
S'text/html,application/xhtml+xml,application/xml;q=0.9,*/*;q=0.8'
p1225
asbasbasbag68
(g84
g70
NtRp1226
(dp1227
g73
(dp1228
sg82
g1044
sg75
(lp1229
g68
(g89
g70
NtRp1230
(dp1231
g73
(dp1232
g93
g94
ssg82
g1226
sg75
(lp1233
S'http_accept_charset'
p1234
asbag68
(g89
g70
NtRp1235
(dp1236
g73
(dp1237
g100
g101
ssg82
g1226
sg75
(lp1238
S':'
asbag68
(g89
g70
NtRp1239
(dp1240
g73
(dp1241
sg82
g1226
sg75
(lp1242
g68
(g69
g70
NtRp1243
(dp1244
g73
(dp1245
g81
I4
ssg82
g1239
sg75
(lp1246
S'ISO-8859-1,utf-8;q=0.7,*;q=0.3'
p1247
asbasbasbag68
(g84
g70
NtRp1248
(dp1249
g73
(dp1250
sg82
g1044
sg75
(lp1251
g68
(g89
g70
NtRp1252
(dp1253
g73
(dp1254
g93
g94
ssg82
g1248
sg75
(lp1255
S'http_accept_encoding'
p1256
asbag68
(g89
g70
NtRp1257
(dp1258
g73
(dp1259
g100
g101
ssg82
g1248
sg75
(lp1260
S':'
asbag68
(g89
g70
NtRp1261
(dp1262
g73
(dp1263
sg82
g1248
sg75
(lp1264
g68
(g69
g70
NtRp1265
(dp1266
g73
(dp1267
g81
I4
ssg82
g1261
sg75
(lp1268
S'gzip,deflate,sdch'
p1269
asbasbasbag68
(g84
g70
NtRp1270
(dp1271
g73
(dp1272
sg82
g1044
sg75
(lp1273
g68
(g89
g70
NtRp1274
(dp1275
g73
(dp1276
g93
g94
ssg82
g1270
sg75
(lp1277
S'http_accept_language'
p1278
asbag68
(g89
g70
NtRp1279
(dp1280
g73
(dp1281
g100
g101
ssg82
g1270
sg75
(lp1282
S':'
asbag68
(g89
g70
NtRp1283
(dp1284
g73
(dp1285
sg82
g1270
sg75
(lp1286
g68
(g69
g70
NtRp1287
(dp1288
g73
(dp1289
g81
I4
ssg82
g1283
sg75
(lp1290
S'pt-BR,pt;q=0.8,en-US;q=0.6,en;q=0.4'
p1291
asbasbasbag68
(g84
g70
NtRp1292
(dp1293
g73
(dp1294
sg82
g1044
sg75
(lp1295
g68
(g89
g70
NtRp1296
(dp1297
g73
(dp1298
g93
g94
ssg82
g1292
sg75
(lp1299
S'http_cache_control'
p1300
asbag68
(g89
g70
NtRp1301
(dp1302
g73
(dp1303
g100
g101
ssg82
g1292
sg75
(lp1304
S':'
asbag68
(g89
g70
NtRp1305
(dp1306
g73
(dp1307
sg82
g1292
sg75
(lp1308
g68
(g69
g70
NtRp1309
(dp1310
g73
(dp1311
g81
I4
ssg82
g1305
sg75
(lp1312
S'max-age=0'
p1313
asbasbasbag68
(g84
g70
NtRp1314
(dp1315
g73
(dp1316
sg82
g1044
sg75
(lp1317
g68
(g89
g70
NtRp1318
(dp1319
g73
(dp1320
g93
g94
ssg82
g1314
sg75
(lp1321
S'http_connection'
p1322
asbag68
(g89
g70
NtRp1323
(dp1324
g73
(dp1325
g100
g101
ssg82
g1314
sg75
(lp1326
S':'
asbag68
(g89
g70
NtRp1327
(dp1328
g73
(dp1329
sg82
g1314
sg75
(lp1330
g68
(g69
g70
NtRp1331
(dp1332
g73
(dp1333
g81
I4
ssg82
g1327
sg75
(lp1334
S'keep-alive'
p1335
asbasbasbag68
(g84
g70
NtRp1336
(dp1337
g73
(dp1338
sg82
g1044
sg75
(lp1339
g68
(g89
g70
NtRp1340
(dp1341
g73
(dp1342
g93
g94
ssg82
g1336
sg75
(lp1343
S'http_cookie'
p1344
asbag68
(g89
g70
NtRp1345
(dp1346
g73
(dp1347
g100
g101
ssg82
g1336
sg75
(lp1348
S':'
asbag68
(g89
g70
NtRp1349
(dp1350
g73
(dp1351
sg82
g1336
sg75
(lp1352
g68
(g69
g70
NtRp1353
(dp1354
g73
(dp1355
g81
I4
ssg82
g1349
sg75
(lp1356
S'session_id_home=127.0.0.1-61c26c04-034b-4717-a3a3-84ec434f1b9b; session_id_welcome=127.0.0.1-112b4c82-b064-485e-80d3-cb116c714609; session_id_admin=127.0.0.1-6b19d69e-1405-460b-b17e-ad0b8deb3490; session_id_projeto=127.0.0.1-ac2fedfb-a46a-42e9-8bef-23a136eddeb8'
p1357
asbasbasbag68
(g84
g70
NtRp1358
(dp1359
g73
(dp1360
sg82
g1044
sg75
(lp1361
g68
(g89
g70
NtRp1362
(dp1363
g73
(dp1364
g93
g94
ssg82
g1358
sg75
(lp1365
S'http_host'
p1366
asbag68
(g89
g70
NtRp1367
(dp1368
g73
(dp1369
g100
g101
ssg82
g1358
sg75
(lp1370
S':'
asbag68
(g89
g70
NtRp1371
(dp1372
g73
(dp1373
sg82
g1358
sg75
(lp1374
g68
(g69
g70
NtRp1375
(dp1376
g73
(dp1377
g81
I4
ssg82
g1371
sg75
(lp1378
S'127.0.0.1:8000'
p1379
asbasbasbag68
(g84
g70
NtRp1380
(dp1381
g73
(dp1382
sg82
g1044
sg75
(lp1383
g68
(g89
g70
NtRp1384
(dp1385
g73
(dp1386
g93
g94
ssg82
g1380
sg75
(lp1387
S'http_user_agent'
p1388
asbag68
(g89
g70
NtRp1389
(dp1390
g73
(dp1391
g100
g101
ssg82
g1380
sg75
(lp1392
S':'
asbag68
(g89
g70
NtRp1393
(dp1394
g73
(dp1395
sg82
g1380
sg75
(lp1396
g68
(g69
g70
NtRp1397
(dp1398
g73
(dp1399
g81
I4
ssg82
g1393
sg75
(lp1400
S'Mozilla/5.0 (X11; Linux x86_64) AppleWebKit/537.4 (KHTML, like Gecko) Ubuntu/12.10 Chromium/22.0.1229.94 Chrome/22.0.1229.94 Safari/537.4'
p1401
asbasbasbag68
(g84
g70
NtRp1402
(dp1403
g73
(dp1404
sg82
g1044
sg75
(lp1405
g68
(g89
g70
NtRp1406
(dp1407
g73
(dp1408
g93
g94
ssg82
g1402
sg75
(lp1409
S'is_jython'
p1410
asbag68
(g89
g70
NtRp1411
(dp1412
g73
(dp1413
g100
g101
ssg82
g1402
sg75
(lp1414
S':'
asbag68
(g89
g70
NtRp1415
(dp1416
g73
(dp1417
sg82
g1402
sg75
(lp1418
g68
(g69
g70
NtRp1419
(dp1420
g73
(dp1421
g81
I4
ssg82
g1415
sg75
(lp1422
g111
asbasbasbag68
(g84
g70
NtRp1423
(dp1424
g73
(dp1425
sg82
g1044
sg75
(lp1426
g68
(g89
g70
NtRp1427
(dp1428
g73
(dp1429
g93
g94
ssg82
g1423
sg75
(lp1430
S'is_pypy'
p1431
asbag68
(g89
g70
NtRp1432
(dp1433
g73
(dp1434
g100
g101
ssg82
g1423
sg75
(lp1435
S':'
asbag68
(g89
g70
NtRp1436
(dp1437
g73
(dp1438
sg82
g1423
sg75
(lp1439
g68
(g69
g70
NtRp1440
(dp1441
g73
(dp1442
g81
I4
ssg82
g1436
sg75
(lp1443
g111
asbasbasbag68
(g84
g70
NtRp1444
(dp1445
g73
(dp1446
sg82
g1044
sg75
(lp1447
g68
(g89
g70
NtRp1448
(dp1449
g73
(dp1450
g93
g94
ssg82
g1444
sg75
(lp1451
S'local_hosts'
p1452
asbag68
(g89
g70
NtRp1453
(dp1454
g73
(dp1455
g100
g101
ssg82
g1444
sg75
(lp1456
S':'
asbag68
(g89
g70
NtRp1457
(dp1458
g73
(dp1459
sg82
g1444
sg75
(lp1460
g68
(g69
g70
NtRp1461
(dp1462
g73
(dp1463
g81
I4
ssg82
g1457
sg75
(lp1464
g68
(g77
g70
NtRp1465
(dp1466
g73
(dp1467
g81
I3
ssg82
Nsg75
(lp1468
g68
(g84
g70
NtRp1469
(dp1470
g73
(dp1471
sg82
g1465
sg75
(lp1472
g68
(g89
g70
NtRp1473
(dp1474
g73
(dp1475
sg82
g1469
sg75
(lp1476
g68
(g69
g70
NtRp1477
(dp1478
g73
(dp1479
g81
I3
ssg82
g1473
sg75
(lp1480
S'127.0.1.1'
p1481
asbasbasbag68
(g84
g70
NtRp1482
(dp1483
g73
(dp1484
sg82
g1465
sg75
(lp1485
g68
(g89
g70
NtRp1486
(dp1487
g73
(dp1488
sg82
g1482
sg75
(lp1489
g68
(g69
g70
NtRp1490
(dp1491
g73
(dp1492
g81
I3
ssg82
g1486
sg75
(lp1493
S'::1'
p1494
asbasbasbag68
(g84
g70
NtRp1495
(dp1496
g73
(dp1497
sg82
g1465
sg75
(lp1498
g68
(g89
g70
NtRp1499
(dp1500
g73
(dp1501
sg82
g1495
sg75
(lp1502
g68
(g69
g70
NtRp1503
(dp1504
g73
(dp1505
g81
I3
ssg82
g1499
sg75
(lp1506
S'fernado-desktop'
p1507
asbasbasbag68
(g84
g70
NtRp1508
(dp1509
g73
(dp1510
sg82
g1465
sg75
(lp1511
g68
(g89
g70
NtRp1512
(dp1513
g73
(dp1514
sg82
g1508
sg75
(lp1515
g68
(g69
g70
NtRp1516
(dp1517
g73
(dp1518
g81
I3
ssg82
g1512
sg75
(lp1519
S'::ffff:127.0.0.1'
p1520
asbasbasbag68
(g84
g70
NtRp1521
(dp1522
g73
(dp1523
sg82
g1465
sg75
(lp1524
g68
(g89
g70
NtRp1525
(dp1526
g73
(dp1527
sg82
g1521
sg75
(lp1528
g68
(g69
g70
NtRp1529
(dp1530
g73
(dp1531
g81
I3
ssg82
g1525
sg75
(lp1532
S'127.0.0.1'
p1533
asbasbasbasbasbasbasbag68
(g84
g70
NtRp1534
(dp1535
g73
(dp1536
sg82
g1044
sg75
(lp1537
g68
(g89
g70
NtRp1538
(dp1539
g73
(dp1540
g93
g94
ssg82
g1534
sg75
(lp1541
S'path_info'
p1542
asbag68
(g89
g70
NtRp1543
(dp1544
g73
(dp1545
g100
g101
ssg82
g1534
sg75
(lp1546
S':'
asbag68
(g89
g70
NtRp1547
(dp1548
g73
(dp1549
sg82
g1534
sg75
(lp1550
g68
(g69
g70
NtRp1551
(dp1552
g73
(dp1553
g81
I4
ssg82
g1547
sg75
(lp1554
S'/projeto/default/index'
p1555
asbasbasbag68
(g84
g70
NtRp1556
(dp1557
g73
(dp1558
sg82
g1044
sg75
(lp1559
g68
(g89
g70
NtRp1560
(dp1561
g73
(dp1562
g93
g94
ssg82
g1556
sg75
(lp1563
S'query_string'
p1564
asbag68
(g89
g70
NtRp1565
(dp1566
g73
(dp1567
g100
g101
ssg82
g1556
sg75
(lp1568
S':'
asbag68
(g89
g70
NtRp1569
(dp1570
g73
(dp1571
sg82
g1556
sg75
(lp1572
g68
(g69
g70
NtRp1573
(dp1574
g73
(dp1575
g81
I4
ssg82
g1569
sg75
(lp1576
S'nome=fer'
p1577
asbasbasbag68
(g84
g70
NtRp1578
(dp1579
g73
(dp1580
sg82
g1044
sg75
(lp1581
g68
(g89
g70
NtRp1582
(dp1583
g73
(dp1584
g93
g94
ssg82
g1578
sg75
(lp1585
S'remote_addr'
p1586
asbag68
(g89
g70
NtRp1587
(dp1588
g73
(dp1589
g100
g101
ssg82
g1578
sg75
(lp1590
S':'
asbag68
(g89
g70
NtRp1591
(dp1592
g73
(dp1593
sg82
g1578
sg75
(lp1594
g68
(g69
g70
NtRp1595
(dp1596
g73
(dp1597
g81
I4
ssg82
g1591
sg75
(lp1598
g223
asbasbasbag68
(g84
g70
NtRp1599
(dp1600
g73
(dp1601
sg82
g1044
sg75
(lp1602
g68
(g89
g70
NtRp1603
(dp1604
g73
(dp1605
g93
g94
ssg82
g1599
sg75
(lp1606
S'remote_port'
p1607
asbag68
(g89
g70
NtRp1608
(dp1609
g73
(dp1610
g100
g101
ssg82
g1599
sg75
(lp1611
S':'
asbag68
(g89
g70
NtRp1612
(dp1613
g73
(dp1614
sg82
g1599
sg75
(lp1615
g68
(g69
g70
NtRp1616
(dp1617
g73
(dp1618
g81
I4
ssg82
g1612
sg75
(lp1619
S'46608'
p1620
asbasbasbag68
(g84
g70
NtRp1621
(dp1622
g73
(dp1623
sg82
g1044
sg75
(lp1624
g68
(g89
g70
NtRp1625
(dp1626
g73
(dp1627
g93
g94
ssg82
g1621
sg75
(lp1628
S'request_method'
p1629
asbag68
(g89
g70
NtRp1630
(dp1631
g73
(dp1632
g100
g101
ssg82
g1621
sg75
(lp1633
S':'
asbag68
(g89
g70
NtRp1634
(dp1635
g73
(dp1636
sg82
g1621
sg75
(lp1637
g68
(g69
g70
NtRp1638
(dp1639
g73
(dp1640
g81
I4
ssg82
g1634
sg75
(lp1641
S'GET'
p1642
asbasbasbag68
(g84
g70
NtRp1643
(dp1644
g73
(dp1645
sg82
g1044
sg75
(lp1646
g68
(g89
g70
NtRp1647
(dp1648
g73
(dp1649
g93
g94
ssg82
g1643
sg75
(lp1650
S'request_uri'
p1651
asbag68
(g89
g70
NtRp1652
(dp1653
g73
(dp1654
g100
g101
ssg82
g1643
sg75
(lp1655
S':'
asbag68
(g89
g70
NtRp1656
(dp1657
g73
(dp1658
sg82
g1643
sg75
(lp1659
g68
(g69
g70
NtRp1660
(dp1661
g73
(dp1662
g81
I4
ssg82
g1656
sg75
(lp1663
S'/projeto/default/index?nome=fer'
p1664
asbasbasbag68
(g84
g70
NtRp1665
(dp1666
g73
(dp1667
sg82
g1044
sg75
(lp1668
g68
(g89
g70
NtRp1669
(dp1670
g73
(dp1671
g93
g94
ssg82
g1665
sg75
(lp1672
S'script_name'
p1673
asbag68
(g89
g70
NtRp1674
(dp1675
g73
(dp1676
g100
g101
ssg82
g1665
sg75
(lp1677
S':'
asbag68
(g89
g70
NtRp1678
(dp1679
g73
(dp1680
sg82
g1665
sg75
(lp1681
g68
(g69
g70
NtRp1682
(dp1683
g73
(dp1684
g81
I4
ssg82
g1678
sg75
(lp1685
S''
asbasbasbag68
(g84
g70
NtRp1686
(dp1687
g73
(dp1688
sg82
g1044
sg75
(lp1689
g68
(g89
g70
NtRp1690
(dp1691
g73
(dp1692
g93
g94
ssg82
g1686
sg75
(lp1693
S'server_name'
p1694
asbag68
(g89
g70
NtRp1695
(dp1696
g73
(dp1697
g100
g101
ssg82
g1686
sg75
(lp1698
S':'
asbag68
(g89
g70
NtRp1699
(dp1700
g73
(dp1701
sg82
g1686
sg75
(lp1702
g68
(g69
g70
NtRp1703
(dp1704
g73
(dp1705
g81
I4
ssg82
g1699
sg75
(lp1706
S'fernado-desktop'
p1707
asbasbasbag68
(g84
g70
NtRp1708
(dp1709
g73
(dp1710
sg82
g1044
sg75
(lp1711
g68
(g89
g70
NtRp1712
(dp1713
g73
(dp1714
g93
g94
ssg82
g1708
sg75
(lp1715
S'server_port'
p1716
asbag68
(g89
g70
NtRp1717
(dp1718
g73
(dp1719
g100
g101
ssg82
g1708
sg75
(lp1720
S':'
asbag68
(g89
g70
NtRp1721
(dp1722
g73
(dp1723
sg82
g1708
sg75
(lp1724
g68
(g69
g70
NtRp1725
(dp1726
g73
(dp1727
g81
I4
ssg82
g1721
sg75
(lp1728
S'8000'
p1729
asbasbasbag68
(g84
g70
NtRp1730
(dp1731
g73
(dp1732
sg82
g1044
sg75
(lp1733
g68
(g89
g70
NtRp1734
(dp1735
g73
(dp1736
g93
g94
ssg82
g1730
sg75
(lp1737
S'server_protocol'
p1738
asbag68
(g89
g70
NtRp1739
(dp1740
g73
(dp1741
g100
g101
ssg82
g1730
sg75
(lp1742
S':'
asbag68
(g89
g70
NtRp1743
(dp1744
g73
(dp1745
sg82
g1730
sg75
(lp1746
g68
(g69
g70
NtRp1747
(dp1748
g73
(dp1749
g81
I4
ssg82
g1743
sg75
(lp1750
S'HTTP/1.1'
p1751
asbasbasbag68
(g84
g70
NtRp1752
(dp1753
g73
(dp1754
sg82
g1044
sg75
(lp1755
g68
(g89
g70
NtRp1756
(dp1757
g73
(dp1758
g93
g94
ssg82
g1752
sg75
(lp1759
S'server_software'
p1760
asbag68
(g89
g70
NtRp1761
(dp1762
g73
(dp1763
g100
g101
ssg82
g1752
sg75
(lp1764
S':'
asbag68
(g89
g70
NtRp1765
(dp1766
g73
(dp1767
sg82
g1752
sg75
(lp1768
g68
(g69
g70
NtRp1769
(dp1770
g73
(dp1771
g81
I4
ssg82
g1765
sg75
(lp1772
S'Rocket 1.2.6'
p1773
asbasbasbag68
(g84
g70
NtRp1774
(dp1775
g73
(dp1776
sg82
g1044
sg75
(lp1777
g68
(g89
g70
NtRp1778
(dp1779
g73
(dp1780
g93
g94
ssg82
g1774
sg75
(lp1781
S'web2py_path'
p1782
asbag68
(g89
g70
NtRp1783
(dp1784
g73
(dp1785
g100
g101
ssg82
g1774
sg75
(lp1786
S':'
asbag68
(g89
g70
NtRp1787
(dp1788
g73
(dp1789
sg82
g1774
sg75
(lp1790
g68
(g69
g70
NtRp1791
(dp1792
g73
(dp1793
g81
I4
ssg82
g1787
sg75
(lp1794
g1091
asbasbasbag68
(g84
g70
NtRp1795
(dp1796
g73
(dp1797
sg82
g1044
sg75
(lp1798
g68
(g89
g70
NtRp1799
(dp1800
g73
(dp1801
g93
g94
ssg82
g1795
sg75
(lp1802
S'web2py_version'
p1803
asbag68
(g89
g70
NtRp1804
(dp1805
g73
(dp1806
g100
g101
ssg82
g1795
sg75
(lp1807
S':'
asbag68
(g89
g70
NtRp1808
(dp1809
g73
(dp1810
sg82
g1795
sg75
(lp1811
g68
(g69
g70
NtRp1812
(dp1813
g73
(dp1814
g81
I4
ssg82
g1808
sg75
(lp1815
g68
(g77
g70
NtRp1816
(dp1817
g73
(dp1818
g81
I3
ssg82
Nsg75
(lp1819
g68
(g84
g70
NtRp1820
(dp1821
g73
(dp1822
sg82
g1816
sg75
(lp1823
g68
(g89
g70
NtRp1824
(dp1825
g73
(dp1826
sg82
g1820
sg75
(lp1827
g68
(g69
g70
NtRp1828
(dp1829
g73
(dp1830
g81
I3
ssg82
g1824
sg75
(lp1831
S'2'
asbasbasbag68
(g84
g70
NtRp1832
(dp1833
g73
(dp1834
sg82
g1816
sg75
(lp1835
g68
(g89
g70
NtRp1836
(dp1837
g73
(dp1838
sg82
g1832
sg75
(lp1839
g68
(g69
g70
NtRp1840
(dp1841
g73
(dp1842
g81
I3
ssg82
g1836
sg75
(lp1843
S'3'
asbasbasbag68
(g84
g70
NtRp1844
(dp1845
g73
(dp1846
sg82
g1816
sg75
(lp1847
g68
(g89
g70
NtRp1848
(dp1849
g73
(dp1850
sg82
g1844
sg75
(lp1851
g68
(g69
g70
NtRp1852
(dp1853
g73
(dp1854
g81
I3
ssg82
g1848
sg75
(lp1855
S'2'
asbasbasbag68
(g84
g70
NtRp1856
(dp1857
g73
(dp1858
sg82
g1816
sg75
(lp1859
g68
(g89
g70
NtRp1860
(dp1861
g73
(dp1862
sg82
g1856
sg75
(lp1863
g68
(g69
g70
NtRp1864
(dp1865
g73
(dp1866
g81
I3
ssg82
g1860
sg75
(lp1867
S'datetime.datetime(2012, 12, 17, 15, 3, 30)'
p1868
asbasbasbag68
(g84
g70
NtRp1869
(dp1870
g73
(dp1871
sg82
g1816
sg75
(lp1872
g68
(g89
g70
NtRp1873
(dp1874
g73
(dp1875
sg82
g1869
sg75
(lp1876
g68
(g69
g70
NtRp1877
(dp1878
g73
(dp1879
g81
I3
ssg82
g1873
sg75
(lp1880
S'stable'
p1881
asbasbasbasbasbasbasbag68
(g84
g70
NtRp1882
(dp1883
g73
(dp1884
sg82
g1044
sg75
(lp1885
g68
(g89
g70
NtRp1886
(dp1887
g73
(dp1888
g93
g94
ssg82
g1882
sg75
(lp1889
S'wsgi_errors'
p1890
asbag68
(g89
g70
NtRp1891
(dp1892
g73
(dp1893
g100
g101
ssg82
g1882
sg75
(lp1894
S':'
asbag68
(g89
g70
NtRp1895
(dp1896
g73
(dp1897
sg82
g1882
sg75
(lp1898
g68
(g69
g70
NtRp1899
(dp1900
g73
(dp1901
g81
I4
ssg82
g1895
sg75
(lp1902
S"<open file '<stderr>', mode 'w' at 0x7fde3c532270>"
p1903
asbasbasbag68
(g84
g70
NtRp1904
(dp1905
g73
(dp1906
sg82
g1044
sg75
(lp1907
g68
(g89
g70
NtRp1908
(dp1909
g73
(dp1910
g93
g94
ssg82
g1904
sg75
(lp1911
S'wsgi_file_wrapper'
p1912
asbag68
(g89
g70
NtRp1913
(dp1914
g73
(dp1915
g100
g101
ssg82
g1904
sg75
(lp1916
S':'
asbag68
(g89
g70
NtRp1917
(dp1918
g73
(dp1919
sg82
g1904
sg75
(lp1920
g68
(g69
g70
NtRp1921
(dp1922
g73
(dp1923
g81
I4
ssg82
g1917
sg75
(lp1924
S'<class wsgiref.util.FileWrapper at 0x2cd6c18>'
p1925
asbasbasbag68
(g84
g70
NtRp1926
(dp1927
g73
(dp1928
sg82
g1044
sg75
(lp1929
g68
(g89
g70
NtRp1930
(dp1931
g73
(dp1932
g93
g94
ssg82
g1926
sg75
(lp1933
S'wsgi_input'
p1934
asbag68
(g89
g70
NtRp1935
(dp1936
g73
(dp1937
g100
g101
ssg82
g1926
sg75
(lp1938
S':'
asbag68
(g89
g70
NtRp1939
(dp1940
g73
(dp1941
sg82
g1926
sg75
(lp1942
g68
(g69
g70
NtRp1943
(dp1944
g73
(dp1945
g81
I4
ssg82
g1939
sg75
(lp1946
S'<socket._fileobject object at 0x7fde306cde50>'
p1947
asbasbasbag68
(g84
g70
NtRp1948
(dp1949
g73
(dp1950
sg82
g1044
sg75
(lp1951
g68
(g89
g70
NtRp1952
(dp1953
g73
(dp1954
g93
g94
ssg82
g1948
sg75
(lp1955
S'wsgi_multiprocess'
p1956
asbag68
(g89
g70
NtRp1957
(dp1958
g73
(dp1959
g100
g101
ssg82
g1948
sg75
(lp1960
S':'
asbag68
(g89
g70
NtRp1961
(dp1962
g73
(dp1963
sg82
g1948
sg75
(lp1964
g68
(g69
g70
NtRp1965
(dp1966
g73
(dp1967
g81
I4
ssg82
g1961
sg75
(lp1968
g111
asbasbasbag68
(g84
g70
NtRp1969
(dp1970
g73
(dp1971
sg82
g1044
sg75
(lp1972
g68
(g89
g70
NtRp1973
(dp1974
g73
(dp1975
g93
g94
ssg82
g1969
sg75
(lp1976
S'wsgi_multithread'
p1977
asbag68
(g89
g70
NtRp1978
(dp1979
g73
(dp1980
g100
g101
ssg82
g1969
sg75
(lp1981
S':'
asbag68
(g89
g70
NtRp1982
(dp1983
g73
(dp1984
sg82
g1969
sg75
(lp1985
g68
(g69
g70
NtRp1986
(dp1987
g73
(dp1988
g81
I4
ssg82
g1982
sg75
(lp1989
S'True'
p1990
asbasbasbag68
(g84
g70
NtRp1991
(dp1992
g73
(dp1993
sg82
g1044
sg75
(lp1994
g68
(g89
g70
NtRp1995
(dp1996
g73
(dp1997
g93
g94
ssg82
g1991
sg75
(lp1998
S'wsgi_run_once'
p1999
asbag68
(g89
g70
NtRp2000
(dp2001
g73
(dp2002
g100
g101
ssg82
g1991
sg75
(lp2003
S':'
asbag68
(g89
g70
NtRp2004
(dp2005
g73
(dp2006
sg82
g1991
sg75
(lp2007
g68
(g69
g70
NtRp2008
(dp2009
g73
(dp2010
g81
I4
ssg82
g2004
sg75
(lp2011
g111
asbasbasbag68
(g84
g70
NtRp2012
(dp2013
g73
(dp2014
sg82
g1044
sg75
(lp2015
g68
(g89
g70
NtRp2016
(dp2017
g73
(dp2018
g93
g94
ssg82
g2012
sg75
(lp2019
S'wsgi_url_scheme'
p2020
asbag68
(g89
g70
NtRp2021
(dp2022
g73
(dp2023
g100
g101
ssg82
g2012
sg75
(lp2024
S':'
asbag68
(g89
g70
NtRp2025
(dp2026
g73
(dp2027
sg82
g2012
sg75
(lp2028
g68
(g69
g70
NtRp2029
(dp2030
g73
(dp2031
g81
I4
ssg82
g2025
sg75
(lp2032
S'http'
p2033
asbasbasbag68
(g84
g70
NtRp2034
(dp2035
g73
(dp2036
sg82
g1044
sg75
(lp2037
g68
(g89
g70
NtRp2038
(dp2039
g73
(dp2040
g93
g94
ssg82
g2034
sg75
(lp2041
S'wsgi_version'
p2042
asbag68
(g89
g70
NtRp2043
(dp2044
g73
(dp2045
g100
g101
ssg82
g2034
sg75
(lp2046
S':'
asbag68
(g89
g70
NtRp2047
(dp2048
g73
(dp2049
sg82
g2034
sg75
(lp2050
g68
(g69
g70
NtRp2051
(dp2052
g73
(dp2053
g81
I4
ssg82
g2047
sg75
(lp2054
g68
(g77
g70
NtRp2055
(dp2056
g73
(dp2057
g81
I3
ssg82
Nsg75
(lp2058
g68
(g84
g70
NtRp2059
(dp2060
g73
(dp2061
sg82
g2055
sg75
(lp2062
g68
(g89
g70
NtRp2063
(dp2064
g73
(dp2065
sg82
g2059
sg75
(lp2066
g68
(g69
g70
NtRp2067
(dp2068
g73
(dp2069
g81
I3
ssg82
g2063
sg75
(lp2070
S'1'
asbasbasbag68
(g84
g70
NtRp2071
(dp2072
g73
(dp2073
sg82
g2055
sg75
(lp2074
g68
(g89
g70
NtRp2075
(dp2076
g73
(dp2077
sg82
g2071
sg75
(lp2078
g68
(g69
g70
NtRp2079
(dp2080
g73
(dp2081
g81
I3
ssg82
g2075
sg75
(lp2082
S'0'
asbasbasbasbasbasbasbasbasbasbasbag68
(g84
g70
NtRp2083
(dp2084
g73
(dp2085
sg82
g78
sg75
(lp2086
g68
(g89
g70
NtRp2087
(dp2088
g73
(dp2089
g93
g94
ssg82
g2083
sg75
(lp2090
S'extension'
p2091
asbag68
(g89
g70
NtRp2092
(dp2093
g73
(dp2094
g100
g101
ssg82
g2083
sg75
(lp2095
S':'
asbag68
(g89
g70
NtRp2096
(dp2097
g73
(dp2098
sg82
g2083
sg75
(lp2099
g68
(g69
g70
NtRp2100
(dp2101
g73
(dp2102
g81
I5
ssg82
g2096
sg75
(lp2103
S'html'
p2104
asbasbasbag68
(g84
g70
NtRp2105
(dp2106
g73
(dp2107
sg82
g78
sg75
(lp2108
g68
(g89
g70
NtRp2109
(dp2110
g73
(dp2111
g93
g94
ssg82
g2105
sg75
(lp2112
S'folder'
p2113
asbag68
(g89
g70
NtRp2114
(dp2115
g73
(dp2116
g100
g101
ssg82
g2105
sg75
(lp2117
S':'
asbag68
(g89
g70
NtRp2118
(dp2119
g73
(dp2120
sg82
g2105
sg75
(lp2121
g68
(g69
g70
NtRp2122
(dp2123
g73
(dp2124
g81
I5
ssg82
g2118
sg75
(lp2125
S'/var/www/web2py_curso/applications/projeto/'
p2126
asbasbasbag68
(g84
g70
NtRp2127
(dp2128
g73
(dp2129
sg82
g78
sg75
(lp2130
g68
(g89
g70
NtRp2131
(dp2132
g73
(dp2133
g93
g94
ssg82
g2127
sg75
(lp2134
S'function'
p2135
asbag68
(g89
g70
NtRp2136
(dp2137
g73
(dp2138
g100
g101
ssg82
g2127
sg75
(lp2139
S':'
asbag68
(g89
g70
NtRp2140
(dp2141
g73
(dp2142
sg82
g2127
sg75
(lp2143
g68
(g69
g70
NtRp2144
(dp2145
g73
(dp2146
g81
I5
ssg82
g2140
sg75
(lp2147
S'index'
p2148
asbasbasbag68
(g84
g70
NtRp2149
(dp2150
g73
(dp2151
sg82
g78
sg75
(lp2152
g68
(g89
g70
NtRp2153
(dp2154
g73
(dp2155
g93
g94
ssg82
g2149
sg75
(lp2156
S'get_vars'
p2157
asbag68
(g89
g70
NtRp2158
(dp2159
g73
(dp2160
g100
g101
ssg82
g2149
sg75
(lp2161
S':'
asbag68
(g89
g70
NtRp2162
(dp2163
g73
(dp2164
sg82
g2149
sg75
(lp2165
g68
(g69
g70
NtRp2166
(dp2167
g73
(dp2168
g81
I5
ssg82
g2162
sg75
(lp2169
g68
(g77
g70
NtRp2170
(dp2171
g73
(dp2172
g81
I4
ssg82
Nsg75
(lp2173
g68
(g84
g70
NtRp2174
(dp2175
g73
(dp2176
sg82
g2170
sg75
(lp2177
g68
(g89
g70
NtRp2178
(dp2179
g73
(dp2180
g93
g94
ssg82
g2174
sg75
(lp2181
S'nome'
p2182
asbag68
(g89
g70
NtRp2183
(dp2184
g73
(dp2185
g100
g101
ssg82
g2174
sg75
(lp2186
S':'
asbag68
(g89
g70
NtRp2187
(dp2188
g73
(dp2189
sg82
g2174
sg75
(lp2190
g68
(g69
g70
NtRp2191
(dp2192
g73
(dp2193
g81
I4
ssg82
g2187
sg75
(lp2194
S'fer'
p2195
asbasbasbasbasbasbasbag68
(g84
g70
NtRp2196
(dp2197
g73
(dp2198
sg82
g78
sg75
(lp2199
g68
(g89
g70
NtRp2200
(dp2201
g73
(dp2202
g93
g94
ssg82
g2196
sg75
(lp2203
S'global_settings'
p2204
asbag68
(g89
g70
NtRp2205
(dp2206
g73
(dp2207
g100
g101
ssg82
g2196
sg75
(lp2208
S':'
asbag68
(g89
g70
NtRp2209
(dp2210
g73
(dp2211
sg82
g2196
sg75
(lp2212
g68
(g69
g70
NtRp2213
(dp2214
g73
(dp2215
g81
I5
ssg82
g2209
sg75
(lp2216
g68
(g77
g70
NtRp2217
(dp2218
g73
(dp2219
g81
I4
ssg82
Nsg75
(lp2220
g68
(g84
g70
NtRp2221
(dp2222
g73
(dp2223
sg82
g2217
sg75
(lp2224
g68
(g89
g70
NtRp2225
(dp2226
g73
(dp2227
g93
g94
ssg82
g2221
sg75
(lp2228
g1056
asbag68
(g89
g70
NtRp2229
(dp2230
g73
(dp2231
g100
g101
ssg82
g2221
sg75
(lp2232
S':'
asbag68
(g89
g70
NtRp2233
(dp2234
g73
(dp2235
sg82
g2221
sg75
(lp2236
g68
(g69
g70
NtRp2237
(dp2238
g73
(dp2239
g81
I4
ssg82
g2233
sg75
(lp2240
S"set(['/var/www/web2py_curso/applications/welcome/', '/var/www/web2py_curso/applications/admin/', '/var/www/web2py_curso/applications/projeto/'])"
p2241
asbasbasbag68
(g84
g70
NtRp2242
(dp2243
g73
(dp2244
sg82
g2217
sg75
(lp2245
g68
(g89
g70
NtRp2246
(dp2247
g73
(dp2248
g93
g94
ssg82
g2242
sg75
(lp2249
g1078
asbag68
(g89
g70
NtRp2250
(dp2251
g73
(dp2252
g100
g101
ssg82
g2242
sg75
(lp2253
S':'
asbag68
(g89
g70
NtRp2254
(dp2255
g73
(dp2256
sg82
g2242
sg75
(lp2257
g68
(g69
g70
NtRp2258
(dp2259
g73
(dp2260
g81
I4
ssg82
g2254
sg75
(lp2261
g1091
asbasbasbag68
(g84
g70
NtRp2262
(dp2263
g73
(dp2264
sg82
g2217
sg75
(lp2265
g68
(g89
g70
NtRp2266
(dp2267
g73
(dp2268
g93
g94
ssg82
g2262
sg75
(lp2269
g1100
asbag68
(g89
g70
NtRp2270
(dp2271
g73
(dp2272
g100
g101
ssg82
g2262
sg75
(lp2273
S':'
asbag68
(g89
g70
NtRp2274
(dp2275
g73
(dp2276
sg82
g2262
sg75
(lp2277
g68
(g69
g70
NtRp2278
(dp2279
g73
(dp2280
g81
I4
ssg82
g2274
sg75
(lp2281
g68
(g77
g70
NtRp2282
(dp2283
g73
(dp2284
g81
I3
ssg82
Nsg75
(lp2285
sbasbasbasbag68
(g84
g70
NtRp2286
(dp2287
g73
(dp2288
sg82
g2217
sg75
(lp2289
g68
(g89
g70
NtRp2290
(dp2291
g73
(dp2292
g93
g94
ssg82
g2286
sg75
(lp2293
g1125
asbag68
(g89
g70
NtRp2294
(dp2295
g73
(dp2296
g100
g101
ssg82
g2286
sg75
(lp2297
S':'
asbag68
(g89
g70
NtRp2298
(dp2299
g73
(dp2300
sg82
g2286
sg75
(lp2301
g68
(g69
g70
NtRp2302
(dp2303
g73
(dp2304
g81
I4
ssg82
g2298
sg75
(lp2305
S"<Values at 0x20c31b8: {'verbose': False, 'ip': '127.0.0.1', 'with_scheduler': False, 'ips': [], 'shutdown_timeout': 5, 'taskbar': False, 'port': 8000, 'maxthreads': None, 'softcron': False, 'server_name': 'fernado-desktop', 'bpython': False, 'nogui': False, 'pid_filename': 'httpserver.pid', 'extcron': False, 'runcron': False, 'run_system_tests': False, 'test': None, 'folder': '/var/www/web2py_curso', 'config': '', 'minthreads': None, 'winservice': '', 'shell': None, 'run': '', 'log_filename': 'httpserver.log', 'debuglevel': 30, 'args': [''], 'socket_timeout': 5, 'ssl_ca_certificate': None, 'scheduler': None, 'profiler_filename': None, 'ssl_private_key': '', 'scheduler_groups': None, 'password': '123456', 'request_queue_size': 5, 'ssl_certificate': '', 'cronjob': False, 'numthreads': None, 'quiet': False, 'interfaces': None, 'import_models': False, 'timeout': 10, 'plain': False, 'nobanner': False}>"
p2306
asbasbasbag68
(g84
g70
NtRp2307
(dp2308
g73
(dp2309
sg82
g2217
sg75
(lp2310
g68
(g89
g70
NtRp2311
(dp2312
g73
(dp2313
g93
g94
ssg82
g2307
sg75
(lp2314
g1147
asbag68
(g89
g70
NtRp2315
(dp2316
g73
(dp2317
g100
g101
ssg82
g2307
sg75
(lp2318
S':'
asbag68
(g89
g70
NtRp2319
(dp2320
g73
(dp2321
sg82
g2307
sg75
(lp2322
g68
(g69
g70
NtRp2323
(dp2324
g73
(dp2325
g81
I4
ssg82
g2319
sg75
(lp2326
S'set([])'
p2327
asbasbasbag68
(g84
g70
NtRp2328
(dp2329
g73
(dp2330
sg82
g2217
sg75
(lp2331
g68
(g89
g70
NtRp2332
(dp2333
g73
(dp2334
g93
g94
ssg82
g2328
sg75
(lp2335
g1169
asbag68
(g89
g70
NtRp2336
(dp2337
g73
(dp2338
g100
g101
ssg82
g2328
sg75
(lp2339
S':'
asbag68
(g89
g70
NtRp2340
(dp2341
g73
(dp2342
sg82
g2328
sg75
(lp2343
g68
(g69
g70
NtRp2344
(dp2345
g73
(dp2346
g81
I4
ssg82
g2340
sg75
(lp2347
g111
asbasbasbag68
(g84
g70
NtRp2348
(dp2349
g73
(dp2350
sg82
g2217
sg75
(lp2351
g68
(g89
g70
NtRp2352
(dp2353
g73
(dp2354
g93
g94
ssg82
g2348
sg75
(lp2355
g1190
asbag68
(g89
g70
NtRp2356
(dp2357
g73
(dp2358
g100
g101
ssg82
g2348
sg75
(lp2359
S':'
asbag68
(g89
g70
NtRp2360
(dp2361
g73
(dp2362
sg82
g2348
sg75
(lp2363
g68
(g69
g70
NtRp2364
(dp2365
g73
(dp2366
g81
I4
ssg82
g2360
sg75
(lp2367
g1203
asbasbasbag68
(g84
g70
NtRp2368
(dp2369
g73
(dp2370
sg82
g2217
sg75
(lp2371
g68
(g89
g70
NtRp2372
(dp2373
g73
(dp2374
g93
g94
ssg82
g2368
sg75
(lp2375
g1410
asbag68
(g89
g70
NtRp2376
(dp2377
g73
(dp2378
g100
g101
ssg82
g2368
sg75
(lp2379
S':'
asbag68
(g89
g70
NtRp2380
(dp2381
g73
(dp2382
sg82
g2368
sg75
(lp2383
g68
(g69
g70
NtRp2384
(dp2385
g73
(dp2386
g81
I4
ssg82
g2380
sg75
(lp2387
g111
asbasbasbag68
(g84
g70
NtRp2388
(dp2389
g73
(dp2390
sg82
g2217
sg75
(lp2391
g68
(g89
g70
NtRp2392
(dp2393
g73
(dp2394
g93
g94
ssg82
g2388
sg75
(lp2395
g1431
asbag68
(g89
g70
NtRp2396
(dp2397
g73
(dp2398
g100
g101
ssg82
g2388
sg75
(lp2399
S':'
asbag68
(g89
g70
NtRp2400
(dp2401
g73
(dp2402
sg82
g2388
sg75
(lp2403
g68
(g69
g70
NtRp2404
(dp2405
g73
(dp2406
g81
I4
ssg82
g2400
sg75
(lp2407
g111
asbasbasbag68
(g84
g70
NtRp2408
(dp2409
g73
(dp2410
sg82
g2217
sg75
(lp2411
g68
(g89
g70
NtRp2412
(dp2413
g73
(dp2414
g93
g94
ssg82
g2408
sg75
(lp2415
g1452
asbag68
(g89
g70
NtRp2416
(dp2417
g73
(dp2418
g100
g101
ssg82
g2408
sg75
(lp2419
S':'
asbag68
(g89
g70
NtRp2420
(dp2421
g73
(dp2422
sg82
g2408
sg75
(lp2423
g68
(g69
g70
NtRp2424
(dp2425
g73
(dp2426
g81
I4
ssg82
g2420
sg75
(lp2427
g68
(g77
g70
NtRp2428
(dp2429
g73
(dp2430
g81
I3
ssg82
Nsg75
(lp2431
g68
(g84
g70
NtRp2432
(dp2433
g73
(dp2434
sg82
g2428
sg75
(lp2435
g68
(g89
g70
NtRp2436
(dp2437
g73
(dp2438
sg82
g2432
sg75
(lp2439
g68
(g69
g70
NtRp2440
(dp2441
g73
(dp2442
g81
I3
ssg82
g2436
sg75
(lp2443
g1481
asbasbasbag68
(g84
g70
NtRp2444
(dp2445
g73
(dp2446
sg82
g2428
sg75
(lp2447
g68
(g89
g70
NtRp2448
(dp2449
g73
(dp2450
sg82
g2444
sg75
(lp2451
g68
(g69
g70
NtRp2452
(dp2453
g73
(dp2454
g81
I3
ssg82
g2448
sg75
(lp2455
g1494
asbasbasbag68
(g84
g70
NtRp2456
(dp2457
g73
(dp2458
sg82
g2428
sg75
(lp2459
g68
(g89
g70
NtRp2460
(dp2461
g73
(dp2462
sg82
g2456
sg75
(lp2463
g68
(g69
g70
NtRp2464
(dp2465
g73
(dp2466
g81
I3
ssg82
g2460
sg75
(lp2467
g1507
asbasbasbag68
(g84
g70
NtRp2468
(dp2469
g73
(dp2470
sg82
g2428
sg75
(lp2471
g68
(g89
g70
NtRp2472
(dp2473
g73
(dp2474
sg82
g2468
sg75
(lp2475
g68
(g69
g70
NtRp2476
(dp2477
g73
(dp2478
g81
I3
ssg82
g2472
sg75
(lp2479
g1520
asbasbasbag68
(g84
g70
NtRp2480
(dp2481
g73
(dp2482
sg82
g2428
sg75
(lp2483
g68
(g89
g70
NtRp2484
(dp2485
g73
(dp2486
sg82
g2480
sg75
(lp2487
g68
(g69
g70
NtRp2488
(dp2489
g73
(dp2490
g81
I3
ssg82
g2484
sg75
(lp2491
g1533
asbasbasbasbasbasbasbag68
(g84
g70
NtRp2492
(dp2493
g73
(dp2494
sg82
g2217
sg75
(lp2495
g68
(g89
g70
NtRp2496
(dp2497
g73
(dp2498
g93
g94
ssg82
g2492
sg75
(lp2499
g1803
asbag68
(g89
g70
NtRp2500
(dp2501
g73
(dp2502
g100
g101
ssg82
g2492
sg75
(lp2503
S':'
asbag68
(g89
g70
NtRp2504
(dp2505
g73
(dp2506
sg82
g2492
sg75
(lp2507
g68
(g69
g70
NtRp2508
(dp2509
g73
(dp2510
g81
I4
ssg82
g2504
sg75
(lp2511
g68
(g77
g70
NtRp2512
(dp2513
g73
(dp2514
g81
I3
ssg82
Nsg75
(lp2515
g68
(g84
g70
NtRp2516
(dp2517
g73
(dp2518
sg82
g2512
sg75
(lp2519
g68
(g89
g70
NtRp2520
(dp2521
g73
(dp2522
sg82
g2516
sg75
(lp2523
g68
(g69
g70
NtRp2524
(dp2525
g73
(dp2526
g81
I3
ssg82
g2520
sg75
(lp2527
S'2'
asbasbasbag68
(g84
g70
NtRp2528
(dp2529
g73
(dp2530
sg82
g2512
sg75
(lp2531
g68
(g89
g70
NtRp2532
(dp2533
g73
(dp2534
sg82
g2528
sg75
(lp2535
g68
(g69
g70
NtRp2536
(dp2537
g73
(dp2538
g81
I3
ssg82
g2532
sg75
(lp2539
S'3'
asbasbasbag68
(g84
g70
NtRp2540
(dp2541
g73
(dp2542
sg82
g2512
sg75
(lp2543
g68
(g89
g70
NtRp2544
(dp2545
g73
(dp2546
sg82
g2540
sg75
(lp2547
g68
(g69
g70
NtRp2548
(dp2549
g73
(dp2550
g81
I3
ssg82
g2544
sg75
(lp2551
S'2'
asbasbasbag68
(g84
g70
NtRp2552
(dp2553
g73
(dp2554
sg82
g2512
sg75
(lp2555
g68
(g89
g70
NtRp2556
(dp2557
g73
(dp2558
sg82
g2552
sg75
(lp2559
g68
(g69
g70
NtRp2560
(dp2561
g73
(dp2562
g81
I3
ssg82
g2556
sg75
(lp2563
S'datetime.datetime(2012, 12, 17, 15, 3, 30)'
p2564
asbasbasbag68
(g84
g70
NtRp2565
(dp2566
g73
(dp2567
sg82
g2512
sg75
(lp2568
g68
(g89
g70
NtRp2569
(dp2570
g73
(dp2571
sg82
g2565
sg75
(lp2572
g68
(g69
g70
NtRp2573
(dp2574
g73
(dp2575
g81
I3
ssg82
g2569
sg75
(lp2576
g1881
asbasbasbasbasbasbasbasbasbasbasbag68
(g84
g70
NtRp2577
(dp2578
g73
(dp2579
sg82
g78
sg75
(lp2580
g68
(g89
g70
NtRp2581
(dp2582
g73
(dp2583
g93
g94
ssg82
g2577
sg75
(lp2584
S'is_https'
p2585
asbag68
(g89
g70
NtRp2586
(dp2587
g73
(dp2588
g100
g101
ssg82
g2577
sg75
(lp2589
S':'
asbag68
(g89
g70
NtRp2590
(dp2591
g73
(dp2592
sg82
g2577
sg75
(lp2593
g68
(g69
g70
NtRp2594
(dp2595
g73
(dp2596
g81
I5
ssg82
g2590
sg75
(lp2597
g111
asbasbasbag68
(g84
g70
NtRp2598
(dp2599
g73
(dp2600
sg82
g78
sg75
(lp2601
g68
(g89
g70
NtRp2602
(dp2603
g73
(dp2604
g93
g94
ssg82
g2598
sg75
(lp2605
S'is_local'
p2606
asbag68
(g89
g70
NtRp2607
(dp2608
g73
(dp2609
g100
g101
ssg82
g2598
sg75
(lp2610
S':'
asbag68
(g89
g70
NtRp2611
(dp2612
g73
(dp2613
sg82
g2598
sg75
(lp2614
g68
(g69
g70
NtRp2615
(dp2616
g73
(dp2617
g81
I5
ssg82
g2611
sg75
(lp2618
g1990
asbasbasbag68
(g84
g70
NtRp2619
(dp2620
g73
(dp2621
sg82
g78
sg75
(lp2622
g68
(g89
g70
NtRp2623
(dp2624
g73
(dp2625
g93
g94
ssg82
g2619
sg75
(lp2626
S'is_restful'
p2627
asbag68
(g89
g70
NtRp2628
(dp2629
g73
(dp2630
g100
g101
ssg82
g2619
sg75
(lp2631
S':'
asbag68
(g89
g70
NtRp2632
(dp2633
g73
(dp2634
sg82
g2619
sg75
(lp2635
g68
(g69
g70
NtRp2636
(dp2637
g73
(dp2638
g81
I5
ssg82
g2632
sg75
(lp2639
g111
asbasbasbag68
(g84
g70
NtRp2640
(dp2641
g73
(dp2642
sg82
g78
sg75
(lp2643
g68
(g89
g70
NtRp2644
(dp2645
g73
(dp2646
g93
g94
ssg82
g2640
sg75
(lp2647
S'now'
p2648
asbag68
(g89
g70
NtRp2649
(dp2650
g73
(dp2651
g100
g101
ssg82
g2640
sg75
(lp2652
S':'
asbag68
(g89
g70
NtRp2653
(dp2654
g73
(dp2655
sg82
g2640
sg75
(lp2656
g68
(g69
g70
NtRp2657
(dp2658
g73
(dp2659
g81
I5
ssg82
g2653
sg75
(lp2660
S'datetime.datetime(2013, 1, 23, 8, 56, 32, 975224)'
p2661
asbasbasbag68
(g84
g70
NtRp2662
(dp2663
g73
(dp2664
sg82
g78
sg75
(lp2665
g68
(g89
g70
NtRp2666
(dp2667
g73
(dp2668
g93
g94
ssg82
g2662
sg75
(lp2669
S'post_vars'
p2670
asbag68
(g89
g70
NtRp2671
(dp2672
g73
(dp2673
g100
g101
ssg82
g2662
sg75
(lp2674
S':'
asbag68
(g89
g70
NtRp2675
(dp2676
g73
(dp2677
sg82
g2662
sg75
(lp2678
g68
(g69
g70
NtRp2679
(dp2680
g73
(dp2681
g81
I5
ssg82
g2675
sg75
(lp2682
g68
(g77
g70
NtRp2683
(dp2684
g73
(dp2685
g81
I4
ssg82
Nsg75
(lp2686
sbasbasbasbag68
(g84
g70
NtRp2687
(dp2688
g73
(dp2689
sg82
g78
sg75
(lp2690
g68
(g89
g70
NtRp2691
(dp2692
g73
(dp2693
g93
g94
ssg82
g2687
sg75
(lp2694
S'raw_args'
p2695
asbag68
(g89
g70
NtRp2696
(dp2697
g73
(dp2698
g100
g101
ssg82
g2687
sg75
(lp2699
S':'
asbag68
(g89
g70
NtRp2700
(dp2701
g73
(dp2702
sg82
g2687
sg75
(lp2703
g68
(g69
g70
NtRp2704
(dp2705
g73
(dp2706
g81
I5
ssg82
g2700
sg75
(lp2707
S''
asbasbasbag68
(g84
g70
NtRp2708
(dp2709
g73
(dp2710
sg82
g78
sg75
(lp2711
g68
(g89
g70
NtRp2712
(dp2713
g73
(dp2714
g93
g94
ssg82
g2708
sg75
(lp2715
S'raw_extension'
p2716
asbag68
(g89
g70
NtRp2717
(dp2718
g73
(dp2719
g100
g101
ssg82
g2708
sg75
(lp2720
S':'
asbag68
(g89
g70
NtRp2721
(dp2722
g73
(dp2723
sg82
g2708
sg75
(lp2724
g68
(g69
g70
NtRp2725
(dp2726
g73
(dp2727
g81
I5
ssg82
g2721
sg75
(lp2728
S'None'
p2729
asbasbasbag68
(g84
g70
NtRp2730
(dp2731
g73
(dp2732
sg82
g78
sg75
(lp2733
g68
(g89
g70
NtRp2734
(dp2735
g73
(dp2736
g93
g94
ssg82
g2730
sg75
(lp2737
S'url'
p2738
asbag68
(g89
g70
NtRp2739
(dp2740
g73
(dp2741
g100
g101
ssg82
g2730
sg75
(lp2742
S':'
asbag68
(g89
g70
NtRp2743
(dp2744
g73
(dp2745
sg82
g2730
sg75
(lp2746
g68
(g69
g70
NtRp2747
(dp2748
g73
(dp2749
g81
I5
ssg82
g2743
sg75
(lp2750
g1555
asbasbasbag68
(g84
g70
NtRp2751
(dp2752
g73
(dp2753
sg82
g78
sg75
(lp2754
g68
(g89
g70
NtRp2755
(dp2756
g73
(dp2757
g93
g94
ssg82
g2751
sg75
(lp2758
S'utcnow'
p2759
asbag68
(g89
g70
NtRp2760
(dp2761
g73
(dp2762
g100
g101
ssg82
g2751
sg75
(lp2763
S':'
asbag68
(g89
g70
NtRp2764
(dp2765
g73
(dp2766
sg82
g2751
sg75
(lp2767
g68
(g69
g70
NtRp2768
(dp2769
g73
(dp2770
g81
I5
ssg82
g2764
sg75
(lp2771
S'datetime.datetime(2013, 1, 23, 10, 56, 32, 975284)'
p2772
asbasbasbag68
(g84
g70
NtRp2773
(dp2774
g73
(dp2775
sg82
g78
sg75
(lp2776
g68
(g89
g70
NtRp2777
(dp2778
g73
(dp2779
g93
g94
ssg82
g2773
sg75
(lp2780
S'uuid'
p2781
asbag68
(g89
g70
NtRp2782
(dp2783
g73
(dp2784
g100
g101
ssg82
g2773
sg75
(lp2785
S':'
asbag68
(g89
g70
NtRp2786
(dp2787
g73
(dp2788
sg82
g2773
sg75
(lp2789
g68
(g69
g70
NtRp2790
(dp2791
g73
(dp2792
g81
I5
ssg82
g2786
sg75
(lp2793
S'projeto/127.0.0.1.2013-01-23.08-56-32.cd221df0-ede8-4399-9d8a-4febd96116fe'
p2794
asbasbasbag68
(g84
g70
NtRp2795
(dp2796
g73
(dp2797
sg82
g78
sg75
(lp2798
g68
(g89
g70
NtRp2799
(dp2800
g73
(dp2801
g93
g94
ssg82
g2795
sg75
(lp2802
S'vars'
p2803
asbag68
(g89
g70
NtRp2804
(dp2805
g73
(dp2806
g100
g101
ssg82
g2795
sg75
(lp2807
S':'
asbag68
(g89
g70
NtRp2808
(dp2809
g73
(dp2810
sg82
g2795
sg75
(lp2811
g68
(g69
g70
NtRp2812
(dp2813
g73
(dp2814
g81
I5
ssg82
g2808
sg75
(lp2815
g68
(g77
g70
NtRp2816
(dp2817
g73
(dp2818
g81
I4
ssg82
Nsg75
(lp2819
g68
(g84
g70
NtRp2820
(dp2821
g73
(dp2822
sg82
g2816
sg75
(lp2823
g68
(g89
g70
NtRp2824
(dp2825
g73
(dp2826
g93
g94
ssg82
g2820
sg75
(lp2827
g2182
asbag68
(g89
g70
NtRp2828
(dp2829
g73
(dp2830
g100
g101
ssg82
g2820
sg75
(lp2831
S':'
asbag68
(g89
g70
NtRp2832
(dp2833
g73
(dp2834
sg82
g2820
sg75
(lp2835
g68
(g69
g70
NtRp2836
(dp2837
g73
(dp2838
g81
I4
ssg82
g2832
sg75
(lp2839
g2195
asbasbasbasbasbasbasbag68
(g84
g70
NtRp2840
(dp2841
g73
(dp2842
sg82
g78
sg75
(lp2843
g68
(g89
g70
NtRp2844
(dp2845
g73
(dp2846
g93
g94
ssg82
g2840
sg75
(lp2847
S'wsgi'
p2848
asbag68
(g89
g70
NtRp2849
(dp2850
g73
(dp2851
g100
g101
ssg82
g2840
sg75
(lp2852
S':'
asbag68
(g89
g70
NtRp2853
(dp2854
g73
(dp2855
sg82
g2840
sg75
(lp2856
g68
(g69
g70
NtRp2857
(dp2858
g73
(dp2859
g81
I5
ssg82
g2853
sg75
(lp2860
g68
(g77
g70
NtRp2861
(dp2862
g73
(dp2863
g81
I4
ssg82
Nsg75
(lp2864
g68
(g84
g70
NtRp2865
(dp2866
g73
(dp2867
sg82
g2861
sg75
(lp2868
g68
(g89
g70
NtRp2869
(dp2870
g73
(dp2871
g93
g94
ssg82
g2865
sg75
(lp2872
S'environ'
p2873
asbag68
(g89
g70
NtRp2874
(dp2875
g73
(dp2876
g100
g101
ssg82
g2865
sg75
(lp2877
S':'
asbag68
(g89
g70
NtRp2878
(dp2879
g73
(dp2880
sg82
g2865
sg75
(lp2881
g68
(g69
g70
NtRp2882
(dp2883
g73
(dp2884
g81
I4
ssg82
g2878
sg75
(lp2885
g68
(g77
g70
NtRp2886
(dp2887
g73
(dp2888
g81
I3
ssg82
Nsg75
(lp2889
g68
(g84
g70
NtRp2890
(dp2891
g73
(dp2892
sg82
g2886
sg75
(lp2893
g68
(g89
g70
NtRp2894
(dp2895
g73
(dp2896
g93
g94
ssg82
g2890
sg75
(lp2897
S'HTTP_ACCEPT'
p2898
asbag68
(g89
g70
NtRp2899
(dp2900
g73
(dp2901
g100
g101
ssg82
g2890
sg75
(lp2902
S':'
asbag68
(g89
g70
NtRp2903
(dp2904
g73
(dp2905
sg82
g2890
sg75
(lp2906
g68
(g69
g70
NtRp2907
(dp2908
g73
(dp2909
g81
I3
ssg82
g2903
sg75
(lp2910
g1225
asbasbasbag68
(g84
g70
NtRp2911
(dp2912
g73
(dp2913
sg82
g2886
sg75
(lp2914
g68
(g89
g70
NtRp2915
(dp2916
g73
(dp2917
g93
g94
ssg82
g2911
sg75
(lp2918
S'HTTP_ACCEPT_CHARSET'
p2919
asbag68
(g89
g70
NtRp2920
(dp2921
g73
(dp2922
g100
g101
ssg82
g2911
sg75
(lp2923
S':'
asbag68
(g89
g70
NtRp2924
(dp2925
g73
(dp2926
sg82
g2911
sg75
(lp2927
g68
(g69
g70
NtRp2928
(dp2929
g73
(dp2930
g81
I3
ssg82
g2924
sg75
(lp2931
g1247
asbasbasbag68
(g84
g70
NtRp2932
(dp2933
g73
(dp2934
sg82
g2886
sg75
(lp2935
g68
(g89
g70
NtRp2936
(dp2937
g73
(dp2938
g93
g94
ssg82
g2932
sg75
(lp2939
S'HTTP_ACCEPT_ENCODING'
p2940
asbag68
(g89
g70
NtRp2941
(dp2942
g73
(dp2943
g100
g101
ssg82
g2932
sg75
(lp2944
S':'
asbag68
(g89
g70
NtRp2945
(dp2946
g73
(dp2947
sg82
g2932
sg75
(lp2948
g68
(g69
g70
NtRp2949
(dp2950
g73
(dp2951
g81
I3
ssg82
g2945
sg75
(lp2952
g1269
asbasbasbag68
(g84
g70
NtRp2953
(dp2954
g73
(dp2955
sg82
g2886
sg75
(lp2956
g68
(g89
g70
NtRp2957
(dp2958
g73
(dp2959
g93
g94
ssg82
g2953
sg75
(lp2960
S'HTTP_ACCEPT_LANGUAGE'
p2961
asbag68
(g89
g70
NtRp2962
(dp2963
g73
(dp2964
g100
g101
ssg82
g2953
sg75
(lp2965
S':'
asbag68
(g89
g70
NtRp2966
(dp2967
g73
(dp2968
sg82
g2953
sg75
(lp2969
g68
(g69
g70
NtRp2970
(dp2971
g73
(dp2972
g81
I3
ssg82
g2966
sg75
(lp2973
g1291
asbasbasbag68
(g84
g70
NtRp2974
(dp2975
g73
(dp2976
sg82
g2886
sg75
(lp2977
g68
(g89
g70
NtRp2978
(dp2979
g73
(dp2980
g93
g94
ssg82
g2974
sg75
(lp2981
S'HTTP_CACHE_CONTROL'
p2982
asbag68
(g89
g70
NtRp2983
(dp2984
g73
(dp2985
g100
g101
ssg82
g2974
sg75
(lp2986
S':'
asbag68
(g89
g70
NtRp2987
(dp2988
g73
(dp2989
sg82
g2974
sg75
(lp2990
g68
(g69
g70
NtRp2991
(dp2992
g73
(dp2993
g81
I3
ssg82
g2987
sg75
(lp2994
g1313
asbasbasbag68
(g84
g70
NtRp2995
(dp2996
g73
(dp2997
sg82
g2886
sg75
(lp2998
g68
(g89
g70
NtRp2999
(dp3000
g73
(dp3001
g93
g94
ssg82
g2995
sg75
(lp3002
S'HTTP_CONNECTION'
p3003
asbag68
(g89
g70
NtRp3004
(dp3005
g73
(dp3006
g100
g101
ssg82
g2995
sg75
(lp3007
S':'
asbag68
(g89
g70
NtRp3008
(dp3009
g73
(dp3010
sg82
g2995
sg75
(lp3011
g68
(g69
g70
NtRp3012
(dp3013
g73
(dp3014
g81
I3
ssg82
g3008
sg75
(lp3015
g1335
asbasbasbag68
(g84
g70
NtRp3016
(dp3017
g73
(dp3018
sg82
g2886
sg75
(lp3019
g68
(g89
g70
NtRp3020
(dp3021
g73
(dp3022
g93
g94
ssg82
g3016
sg75
(lp3023
S'HTTP_COOKIE'
p3024
asbag68
(g89
g70
NtRp3025
(dp3026
g73
(dp3027
g100
g101
ssg82
g3016
sg75
(lp3028
S':'
asbag68
(g89
g70
NtRp3029
(dp3030
g73
(dp3031
sg82
g3016
sg75
(lp3032
g68
(g69
g70
NtRp3033
(dp3034
g73
(dp3035
g81
I3
ssg82
g3029
sg75
(lp3036
g1357
asbasbasbag68
(g84
g70
NtRp3037
(dp3038
g73
(dp3039
sg82
g2886
sg75
(lp3040
g68
(g89
g70
NtRp3041
(dp3042
g73
(dp3043
g93
g94
ssg82
g3037
sg75
(lp3044
S'HTTP_HOST'
p3045
asbag68
(g89
g70
NtRp3046
(dp3047
g73
(dp3048
g100
g101
ssg82
g3037
sg75
(lp3049
S':'
asbag68
(g89
g70
NtRp3050
(dp3051
g73
(dp3052
sg82
g3037
sg75
(lp3053
g68
(g69
g70
NtRp3054
(dp3055
g73
(dp3056
g81
I3
ssg82
g3050
sg75
(lp3057
g1379
asbasbasbag68
(g84
g70
NtRp3058
(dp3059
g73
(dp3060
sg82
g2886
sg75
(lp3061
g68
(g89
g70
NtRp3062
(dp3063
g73
(dp3064
g93
g94
ssg82
g3058
sg75
(lp3065
S'HTTP_USER_AGENT'
p3066
asbag68
(g89
g70
NtRp3067
(dp3068
g73
(dp3069
g100
g101
ssg82
g3058
sg75
(lp3070
S':'
asbag68
(g89
g70
NtRp3071
(dp3072
g73
(dp3073
sg82
g3058
sg75
(lp3074
g68
(g69
g70
NtRp3075
(dp3076
g73
(dp3077
g81
I3
ssg82
g3071
sg75
(lp3078
g1401
asbasbasbag68
(g84
g70
NtRp3079
(dp3080
g73
(dp3081
sg82
g2886
sg75
(lp3082
g68
(g89
g70
NtRp3083
(dp3084
g73
(dp3085
g93
g94
ssg82
g3079
sg75
(lp3086
S'PATH_INFO'
p3087
asbag68
(g89
g70
NtRp3088
(dp3089
g73
(dp3090
g100
g101
ssg82
g3079
sg75
(lp3091
S':'
asbag68
(g89
g70
NtRp3092
(dp3093
g73
(dp3094
sg82
g3079
sg75
(lp3095
g68
(g69
g70
NtRp3096
(dp3097
g73
(dp3098
g81
I3
ssg82
g3092
sg75
(lp3099
g1555
asbasbasbag68
(g84
g70
NtRp3100
(dp3101
g73
(dp3102
sg82
g2886
sg75
(lp3103
g68
(g89
g70
NtRp3104
(dp3105
g73
(dp3106
g93
g94
ssg82
g3100
sg75
(lp3107
S'QUERY_STRING'
p3108
asbag68
(g89
g70
NtRp3109
(dp3110
g73
(dp3111
g100
g101
ssg82
g3100
sg75
(lp3112
S':'
asbag68
(g89
g70
NtRp3113
(dp3114
g73
(dp3115
sg82
g3100
sg75
(lp3116
g68
(g69
g70
NtRp3117
(dp3118
g73
(dp3119
g81
I3
ssg82
g3113
sg75
(lp3120
g1577
asbasbasbag68
(g84
g70
NtRp3121
(dp3122
g73
(dp3123
sg82
g2886
sg75
(lp3124
g68
(g89
g70
NtRp3125
(dp3126
g73
(dp3127
g93
g94
ssg82
g3121
sg75
(lp3128
S'REMOTE_ADDR'
p3129
asbag68
(g89
g70
NtRp3130
(dp3131
g73
(dp3132
g100
g101
ssg82
g3121
sg75
(lp3133
S':'
asbag68
(g89
g70
NtRp3134
(dp3135
g73
(dp3136
sg82
g3121
sg75
(lp3137
g68
(g69
g70
NtRp3138
(dp3139
g73
(dp3140
g81
I3
ssg82
g3134
sg75
(lp3141
g223
asbasbasbag68
(g84
g70
NtRp3142
(dp3143
g73
(dp3144
sg82
g2886
sg75
(lp3145
g68
(g89
g70
NtRp3146
(dp3147
g73
(dp3148
g93
g94
ssg82
g3142
sg75
(lp3149
S'REMOTE_PORT'
p3150
asbag68
(g89
g70
NtRp3151
(dp3152
g73
(dp3153
g100
g101
ssg82
g3142
sg75
(lp3154
S':'
asbag68
(g89
g70
NtRp3155
(dp3156
g73
(dp3157
sg82
g3142
sg75
(lp3158
g68
(g69
g70
NtRp3159
(dp3160
g73
(dp3161
g81
I3
ssg82
g3155
sg75
(lp3162
g1620
asbasbasbag68
(g84
g70
NtRp3163
(dp3164
g73
(dp3165
sg82
g2886
sg75
(lp3166
g68
(g89
g70
NtRp3167
(dp3168
g73
(dp3169
g93
g94
ssg82
g3163
sg75
(lp3170
S'REQUEST_METHOD'
p3171
asbag68
(g89
g70
NtRp3172
(dp3173
g73
(dp3174
g100
g101
ssg82
g3163
sg75
(lp3175
S':'
asbag68
(g89
g70
NtRp3176
(dp3177
g73
(dp3178
sg82
g3163
sg75
(lp3179
g68
(g69
g70
NtRp3180
(dp3181
g73
(dp3182
g81
I3
ssg82
g3176
sg75
(lp3183
g1642
asbasbasbag68
(g84
g70
NtRp3184
(dp3185
g73
(dp3186
sg82
g2886
sg75
(lp3187
g68
(g89
g70
NtRp3188
(dp3189
g73
(dp3190
g93
g94
ssg82
g3184
sg75
(lp3191
S'REQUEST_URI'
p3192
asbag68
(g89
g70
NtRp3193
(dp3194
g73
(dp3195
g100
g101
ssg82
g3184
sg75
(lp3196
S':'
asbag68
(g89
g70
NtRp3197
(dp3198
g73
(dp3199
sg82
g3184
sg75
(lp3200
g68
(g69
g70
NtRp3201
(dp3202
g73
(dp3203
g81
I3
ssg82
g3197
sg75
(lp3204
g1664
asbasbasbag68
(g84
g70
NtRp3205
(dp3206
g73
(dp3207
sg82
g2886
sg75
(lp3208
g68
(g89
g70
NtRp3209
(dp3210
g73
(dp3211
g93
g94
ssg82
g3205
sg75
(lp3212
S'SCRIPT_NAME'
p3213
asbag68
(g89
g70
NtRp3214
(dp3215
g73
(dp3216
g100
g101
ssg82
g3205
sg75
(lp3217
S':'
asbag68
(g89
g70
NtRp3218
(dp3219
g73
(dp3220
sg82
g3205
sg75
(lp3221
g68
(g69
g70
NtRp3222
(dp3223
g73
(dp3224
g81
I3
ssg82
g3218
sg75
(lp3225
S''
asbasbasbag68
(g84
g70
NtRp3226
(dp3227
g73
(dp3228
sg82
g2886
sg75
(lp3229
g68
(g89
g70
NtRp3230
(dp3231
g73
(dp3232
g93
g94
ssg82
g3226
sg75
(lp3233
S'SERVER_NAME'
p3234
asbag68
(g89
g70
NtRp3235
(dp3236
g73
(dp3237
g100
g101
ssg82
g3226
sg75
(lp3238
S':'
asbag68
(g89
g70
NtRp3239
(dp3240
g73
(dp3241
sg82
g3226
sg75
(lp3242
g68
(g69
g70
NtRp3243
(dp3244
g73
(dp3245
g81
I3
ssg82
g3239
sg75
(lp3246
g1707
asbasbasbag68
(g84
g70
NtRp3247
(dp3248
g73
(dp3249
sg82
g2886
sg75
(lp3250
g68
(g89
g70
NtRp3251
(dp3252
g73
(dp3253
g93
g94
ssg82
g3247
sg75
(lp3254
S'SERVER_PORT'
p3255
asbag68
(g89
g70
NtRp3256
(dp3257
g73
(dp3258
g100
g101
ssg82
g3247
sg75
(lp3259
S':'
asbag68
(g89
g70
NtRp3260
(dp3261
g73
(dp3262
sg82
g3247
sg75
(lp3263
g68
(g69
g70
NtRp3264
(dp3265
g73
(dp3266
g81
I3
ssg82
g3260
sg75
(lp3267
g1729
asbasbasbag68
(g84
g70
NtRp3268
(dp3269
g73
(dp3270
sg82
g2886
sg75
(lp3271
g68
(g89
g70
NtRp3272
(dp3273
g73
(dp3274
g93
g94
ssg82
g3268
sg75
(lp3275
S'SERVER_PROTOCOL'
p3276
asbag68
(g89
g70
NtRp3277
(dp3278
g73
(dp3279
g100
g101
ssg82
g3268
sg75
(lp3280
S':'
asbag68
(g89
g70
NtRp3281
(dp3282
g73
(dp3283
sg82
g3268
sg75
(lp3284
g68
(g69
g70
NtRp3285
(dp3286
g73
(dp3287
g81
I3
ssg82
g3281
sg75
(lp3288
g1751
asbasbasbag68
(g84
g70
NtRp3289
(dp3290
g73
(dp3291
sg82
g2886
sg75
(lp3292
g68
(g89
g70
NtRp3293
(dp3294
g73
(dp3295
g93
g94
ssg82
g3289
sg75
(lp3296
S'SERVER_SOFTWARE'
p3297
asbag68
(g89
g70
NtRp3298
(dp3299
g73
(dp3300
g100
g101
ssg82
g3289
sg75
(lp3301
S':'
asbag68
(g89
g70
NtRp3302
(dp3303
g73
(dp3304
sg82
g3289
sg75
(lp3305
g68
(g69
g70
NtRp3306
(dp3307
g73
(dp3308
g81
I3
ssg82
g3302
sg75
(lp3309
g1773
asbasbasbag68
(g84
g70
NtRp3310
(dp3311
g73
(dp3312
sg82
g2886
sg75
(lp3313
g68
(g89
g70
NtRp3314
(dp3315
g73
(dp3316
g93
g94
ssg82
g3310
sg75
(lp3317
S'wsgi.errors'
p3318
asbag68
(g89
g70
NtRp3319
(dp3320
g73
(dp3321
g100
g101
ssg82
g3310
sg75
(lp3322
S':'
asbag68
(g89
g70
NtRp3323
(dp3324
g73
(dp3325
sg82
g3310
sg75
(lp3326
g68
(g69
g70
NtRp3327
(dp3328
g73
(dp3329
g81
I3
ssg82
g3323
sg75
(lp3330
S"<open file '<stderr>', mode 'w' at 0x7fde3c532270>"
p3331
asbasbasbag68
(g84
g70
NtRp3332
(dp3333
g73
(dp3334
sg82
g2886
sg75
(lp3335
g68
(g89
g70
NtRp3336
(dp3337
g73
(dp3338
g93
g94
ssg82
g3332
sg75
(lp3339
S'wsgi.file_wrapper'
p3340
asbag68
(g89
g70
NtRp3341
(dp3342
g73
(dp3343
g100
g101
ssg82
g3332
sg75
(lp3344
S':'
asbag68
(g89
g70
NtRp3345
(dp3346
g73
(dp3347
sg82
g3332
sg75
(lp3348
g68
(g69
g70
NtRp3349
(dp3350
g73
(dp3351
g81
I3
ssg82
g3345
sg75
(lp3352
S'<class wsgiref.util.FileWrapper at 0x2cd6c18>'
p3353
asbasbasbag68
(g84
g70
NtRp3354
(dp3355
g73
(dp3356
sg82
g2886
sg75
(lp3357
g68
(g89
g70
NtRp3358
(dp3359
g73
(dp3360
g93
g94
ssg82
g3354
sg75
(lp3361
S'wsgi.input'
p3362
asbag68
(g89
g70
NtRp3363
(dp3364
g73
(dp3365
g100
g101
ssg82
g3354
sg75
(lp3366
S':'
asbag68
(g89
g70
NtRp3367
(dp3368
g73
(dp3369
sg82
g3354
sg75
(lp3370
g68
(g69
g70
NtRp3371
(dp3372
g73
(dp3373
g81
I3
ssg82
g3367
sg75
(lp3374
S'<cStringIO.StringO object at 0x7fde082ae6f8>'
p3375
asbasbasbag68
(g84
g70
NtRp3376
(dp3377
g73
(dp3378
sg82
g2886
sg75
(lp3379
g68
(g89
g70
NtRp3380
(dp3381
g73
(dp3382
g93
g94
ssg82
g3376
sg75
(lp3383
S'wsgi.multiprocess'
p3384
asbag68
(g89
g70
NtRp3385
(dp3386
g73
(dp3387
g100
g101
ssg82
g3376
sg75
(lp3388
S':'
asbag68
(g89
g70
NtRp3389
(dp3390
g73
(dp3391
sg82
g3376
sg75
(lp3392
g68
(g69
g70
NtRp3393
(dp3394
g73
(dp3395
g81
I3
ssg82
g3389
sg75
(lp3396
g111
asbasbasbag68
(g84
g70
NtRp3397
(dp3398
g73
(dp3399
sg82
g2886
sg75
(lp3400
g68
(g89
g70
NtRp3401
(dp3402
g73
(dp3403
g93
g94
ssg82
g3397
sg75
(lp3404
S'wsgi.multithread'
p3405
asbag68
(g89
g70
NtRp3406
(dp3407
g73
(dp3408
g100
g101
ssg82
g3397
sg75
(lp3409
S':'
asbag68
(g89
g70
NtRp3410
(dp3411
g73
(dp3412
sg82
g3397
sg75
(lp3413
g68
(g69
g70
NtRp3414
(dp3415
g73
(dp3416
g81
I3
ssg82
g3410
sg75
(lp3417
g1990
asbasbasbag68
(g84
g70
NtRp3418
(dp3419
g73
(dp3420
sg82
g2886
sg75
(lp3421
g68
(g89
g70
NtRp3422
(dp3423
g73
(dp3424
g93
g94
ssg82
g3418
sg75
(lp3425
S'wsgi.run_once'
p3426
asbag68
(g89
g70
NtRp3427
(dp3428
g73
(dp3429
g100
g101
ssg82
g3418
sg75
(lp3430
S':'
asbag68
(g89
g70
NtRp3431
(dp3432
g73
(dp3433
sg82
g3418
sg75
(lp3434
g68
(g69
g70
NtRp3435
(dp3436
g73
(dp3437
g81
I3
ssg82
g3431
sg75
(lp3438
g111
asbasbasbag68
(g84
g70
NtRp3439
(dp3440
g73
(dp3441
sg82
g2886
sg75
(lp3442
g68
(g89
g70
NtRp3443
(dp3444
g73
(dp3445
g93
g94
ssg82
g3439
sg75
(lp3446
S'wsgi.url_scheme'
p3447
asbag68
(g89
g70
NtRp3448
(dp3449
g73
(dp3450
g100
g101
ssg82
g3439
sg75
(lp3451
S':'
asbag68
(g89
g70
NtRp3452
(dp3453
g73
(dp3454
sg82
g3439
sg75
(lp3455
g68
(g69
g70
NtRp3456
(dp3457
g73
(dp3458
g81
I3
ssg82
g3452
sg75
(lp3459
g2033
asbasbasbag68
(g84
g70
NtRp3460
(dp3461
g73
(dp3462
sg82
g2886
sg75
(lp3463
g68
(g89
g70
NtRp3464
(dp3465
g73
(dp3466
g93
g94
ssg82
g3460
sg75
(lp3467
S'wsgi.version'
p3468
asbag68
(g89
g70
NtRp3469
(dp3470
g73
(dp3471
g100
g101
ssg82
g3460
sg75
(lp3472
S':'
asbag68
(g89
g70
NtRp3473
(dp3474
g73
(dp3475
sg82
g3460
sg75
(lp3476
g68
(g69
g70
NtRp3477
(dp3478
g73
(dp3479
g81
I3
ssg82
g3473
sg75
(lp3480
S'1'
asbasbasbasbasbasbasbasbasbasbasbasbasbsS'frames'
p3481
(lp3482
(dp3483
S'file'
p3484
S'/var/www/web2py_curso/gluon/restricted.py'
p3485
sS'dump'
p3486
(dp3487
S'code'
p3488
S'\'# coding: utf-8\\n\\ndef index():\\n\\tprint "Action ind...x + y\\n\\n \\n\\nresponse._vars=response._caller(index)\\n\''
p3489
sS'layer'
p3490
S"'/var/www/web2py_curso/applications/projeto/controllers/default.py'"
p3491
sS'global compile2'
p3492
S'<function compile2>'
p3493
sS'ccode'
p3494
S'undefined'
p3495
ssS'lnum'
p3496
I211
sS'lines'
p3497
(dp3498
I206
S"    environment['__name__'] = '__restricted__'"
p3499
sI207
S'    try:'
p3500
sI208
S'        if isinstance(code, types.CodeType):'
p3501
sI209
S'            ccode = code'
p3502
sI210
S'        else:'
p3503
sI211
S'            ccode = compile2(code, layer)'
p3504
sI212
S'        exec ccode in environment'
p3505
sI213
S'    except HTTP:'
p3506
sI214
S'        raise'
p3507
sI215
S'    except RestrictedError:'
p3508
ssS'call'
p3509
S'(code=\'# coding: utf-8\\n\\ndef index():\\n\\tprint "Action ind...x + y\\n\\n \\n\\nresponse._vars=response._caller(index)\\n\', environment={\'A\': <class \'gluon.html.A\'>, \'B\': <class \'gluon.html.B\'>, \'BEAUTIFY\': <class \'gluon.html.BEAUTIFY\'>, \'BODY\': <class \'gluon.html.BODY\'>, \'BR\': <class \'gluon.html.BR\'>, \'BUTTON\': <class \'gluon.html.BUTTON\'>, \'CAT\': <class \'gluon.html.CAT\'>, \'CENTER\': <class \'gluon.html.CENTER\'>, \'CLEANUP\': <class \'gluon.validators.CLEANUP\'>, \'CODE\': <class \'gluon.html.CODE\'>, ...}, layer=\'/var/www/web2py_curso/applications/projeto/controllers/default.py\')'
p3510
sS'func'
p3511
S'restricted'
p3512
sa(dp3513
g3484
S'/var/www/web2py_curso/gluon/restricted.py'
p3514
sg3486
(dp3515
S'builtincompile'
p3516
S'<built-in function compile>'
p3517
sS'code'
p3518
S'\'# coding: utf-8\\n\\ndef index():\\n\\tprint "Action ind...x + y\\n\\n \\n\\nresponse._vars=response._caller(index)\\n\''
p3519
sS'code.rstrip'
p3520
S'<built-in method rstrip of str object>'
p3521
sS').replace'
p3522
g3495
sS'layer'
p3523
S"'/var/www/web2py_curso/applications/projeto/controllers/default.py'"
p3524
ssg3496
I194
sg3497
(dp3525
I192
S"    The +'\\n' is necessary else compile fails when code ends in a comment."
p3526
sI193
S'    """'
p3527
sI194
S"    return compile(code.rstrip().replace('\\r\\n', '\\n') + '\\n', layer, 'exec')"
p3528
sI195
S''
sI196
S''
sI197
S"def restricted(code, environment=None, layer='Unknown'):"
p3529
sI198
S'    """'
p3530
sI189
S''
sI190
S'def compile2(code, layer):'
p3531
sI191
S'    """'
p3532
ssg3509
S'(code=\'# coding: utf-8\\n\\ndef index():\\n\\tprint "Action ind...x + y\\n\\n \\n\\nresponse._vars=response._caller(index)\\n\', layer=\'/var/www/web2py_curso/applications/projeto/controllers/default.py\')'
p3533
sg3511
S'compile2'
p3534
sasS'pyver'
p3535
S'Python 2.7.3: /usr/bin/python'
p3536
sS'session'
p3537
g68
(g69
g70
NtRp3538
(dp3539
g73
(dp3540
sg75
(lp3541
g68
(g77
g70
NtRp3542
(dp3543
g73
(dp3544
g81
I5
ssg82
Nsg75
(lp3545
sbasbsS'etype'
p3546
S"<type 'exceptions.SyntaxError'>"
p3547
sS'date'
p3548
S'Wed Jan 23 08:56:32 2013'
p3549
sS'response'
p3550
g68
(g69
g70
NtRp3551
(dp3552
g73
(dp3553
sg75
(lp3554
g68
(g77
g70
NtRp3555
(dp3556
g73
(dp3557
g81
I5
ssg82
Nsg75
(lp3558
g68
(g84
g70
NtRp3559
(dp3560
g73
(dp3561
sg82
g3555
sg75
(lp3562
g68
(g89
g70
NtRp3563
(dp3564
g73
(dp3565
g93
g94
ssg82
g3559
sg75
(lp3566
g166
asbag68
(g89
g70
NtRp3567
(dp3568
g73
(dp3569
g100
g101
ssg82
g3559
sg75
(lp3570
S':'
asbag68
(g89
g70
NtRp3571
(dp3572
g73
(dp3573
sg82
g3559
sg75
(lp3574
g68
(g69
g70
NtRp3575
(dp3576
g73
(dp3577
g81
I5
ssg82
g3571
sg75
(lp3578
S'<cStringIO.StringO object at 0x7fde30199c38>'
p3579
asbasbasbag68
(g84
g70
NtRp3580
(dp3581
g73
(dp3582
sg82
g3555
sg75
(lp3583
g68
(g89
g70
NtRp3584
(dp3585
g73
(dp3586
g93
g94
ssg82
g3580
sg75
(lp3587
g254
asbag68
(g89
g70
NtRp3588
(dp3589
g73
(dp3590
g100
g101
ssg82
g3580
sg75
(lp3591
S':'
asbag68
(g89
g70
NtRp3592
(dp3593
g73
(dp3594
sg82
g3580
sg75
(lp3595
g68
(g69
g70
NtRp3596
(dp3597
g73
(dp3598
g81
I5
ssg82
g3592
sg75
(lp3599
g68
(g77
g70
NtRp3600
(dp3601
g73
(dp3602
g81
I4
ssg82
Nsg75
(lp3603
g68
(g84
g70
NtRp3604
(dp3605
g73
(dp3606
sg82
g3600
sg75
(lp3607
g68
(g89
g70
NtRp3608
(dp3609
g73
(dp3610
g93
g94
ssg82
g3604
sg75
(lp3611
S'session_id_projeto'
p3612
asbag68
(g89
g70
NtRp3613
(dp3614
g73
(dp3615
g100
g101
ssg82
g3604
sg75
(lp3616
S':'
asbag68
(g89
g70
NtRp3617
(dp3618
g73
(dp3619
sg82
g3604
sg75
(lp3620
g68
(g69
g70
NtRp3621
(dp3622
g73
(dp3623
g81
I4
ssg82
g3617
sg75
(lp3624
g672
ag68
(g77
g70
NtRp3625
(dp3626
g73
(dp3627
g81
I3
ssg82
Nsg75
(lp3628
g68
(g84
g70
NtRp3629
(dp3630
g73
(dp3631
sg82
g3625
sg75
(lp3632
g68
(g89
g70
NtRp3633
(dp3634
g73
(dp3635
g93
g94
ssg82
g3629
sg75
(lp3636
g305
asbag68
(g89
g70
NtRp3637
(dp3638
g73
(dp3639
g100
g101
ssg82
g3629
sg75
(lp3640
S':'
asbag68
(g89
g70
NtRp3641
(dp3642
g73
(dp3643
sg82
g3629
sg75
(lp3644
g68
(g69
g70
NtRp3645
(dp3646
g73
(dp3647
g81
I3
ssg82
g3641
sg75
(lp3648
S''
asbasbasbag68
(g84
g70
NtRp3649
(dp3650
g73
(dp3651
sg82
g3625
sg75
(lp3652
g68
(g89
g70
NtRp3653
(dp3654
g73
(dp3655
g93
g94
ssg82
g3649
sg75
(lp3656
g326
asbag68
(g89
g70
NtRp3657
(dp3658
g73
(dp3659
g100
g101
ssg82
g3649
sg75
(lp3660
S':'
asbag68
(g89
g70
NtRp3661
(dp3662
g73
(dp3663
sg82
g3649
sg75
(lp3664
g68
(g69
g70
NtRp3665
(dp3666
g73
(dp3667
g81
I3
ssg82
g3661
sg75
(lp3668
S''
asbasbasbag68
(g84
g70
NtRp3669
(dp3670
g73
(dp3671
sg82
g3625
sg75
(lp3672
g68
(g89
g70
NtRp3673
(dp3674
g73
(dp3675
g93
g94
ssg82
g3669
sg75
(lp3676
g347
asbag68
(g89
g70
NtRp3677
(dp3678
g73
(dp3679
g100
g101
ssg82
g3669
sg75
(lp3680
S':'
asbag68
(g89
g70
NtRp3681
(dp3682
g73
(dp3683
sg82
g3669
sg75
(lp3684
g68
(g69
g70
NtRp3685
(dp3686
g73
(dp3687
g81
I3
ssg82
g3681
sg75
(lp3688
S''
asbasbasbag68
(g84
g70
NtRp3689
(dp3690
g73
(dp3691
sg82
g3625
sg75
(lp3692
g68
(g89
g70
NtRp3693
(dp3694
g73
(dp3695
g93
g94
ssg82
g3689
sg75
(lp3696
g368
asbag68
(g89
g70
NtRp3697
(dp3698
g73
(dp3699
g100
g101
ssg82
g3689
sg75
(lp3700
S':'
asbag68
(g89
g70
NtRp3701
(dp3702
g73
(dp3703
sg82
g3689
sg75
(lp3704
g68
(g69
g70
NtRp3705
(dp3706
g73
(dp3707
g81
I3
ssg82
g3701
sg75
(lp3708
S''
asbasbasbag68
(g84
g70
NtRp3709
(dp3710
g73
(dp3711
sg82
g3625
sg75
(lp3712
g68
(g89
g70
NtRp3713
(dp3714
g73
(dp3715
g93
g94
ssg82
g3709
sg75
(lp3716
g389
asbag68
(g89
g70
NtRp3717
(dp3718
g73
(dp3719
g100
g101
ssg82
g3709
sg75
(lp3720
S':'
asbag68
(g89
g70
NtRp3721
(dp3722
g73
(dp3723
sg82
g3709
sg75
(lp3724
g68
(g69
g70
NtRp3725
(dp3726
g73
(dp3727
g81
I3
ssg82
g3721
sg75
(lp3728
S''
asbasbasbag68
(g84
g70
NtRp3729
(dp3730
g73
(dp3731
sg82
g3625
sg75
(lp3732
g68
(g89
g70
NtRp3733
(dp3734
g73
(dp3735
g93
g94
ssg82
g3729
sg75
(lp3736
g410
asbag68
(g89
g70
NtRp3737
(dp3738
g73
(dp3739
g100
g101
ssg82
g3729
sg75
(lp3740
S':'
asbag68
(g89
g70
NtRp3741
(dp3742
g73
(dp3743
sg82
g3729
sg75
(lp3744
g68
(g69
g70
NtRp3745
(dp3746
g73
(dp3747
g81
I3
ssg82
g3741
sg75
(lp3748
S'/'
asbasbasbag68
(g84
g70
NtRp3749
(dp3750
g73
(dp3751
sg82
g3625
sg75
(lp3752
g68
(g89
g70
NtRp3753
(dp3754
g73
(dp3755
g93
g94
ssg82
g3749
sg75
(lp3756
g431
asbag68
(g89
g70
NtRp3757
(dp3758
g73
(dp3759
g100
g101
ssg82
g3749
sg75
(lp3760
S':'
asbag68
(g89
g70
NtRp3761
(dp3762
g73
(dp3763
sg82
g3749
sg75
(lp3764
g68
(g69
g70
NtRp3765
(dp3766
g73
(dp3767
g81
I3
ssg82
g3761
sg75
(lp3768
S''
asbasbasbag68
(g84
g70
NtRp3769
(dp3770
g73
(dp3771
sg82
g3625
sg75
(lp3772
g68
(g89
g70
NtRp3773
(dp3774
g73
(dp3775
g93
g94
ssg82
g3769
sg75
(lp3776
g452
asbag68
(g89
g70
NtRp3777
(dp3778
g73
(dp3779
g100
g101
ssg82
g3769
sg75
(lp3780
S':'
asbag68
(g89
g70
NtRp3781
(dp3782
g73
(dp3783
sg82
g3769
sg75
(lp3784
g68
(g69
g70
NtRp3785
(dp3786
g73
(dp3787
g81
I3
ssg82
g3781
sg75
(lp3788
S''
asbasbasbasbasbasbasbasbasbasbasbag68
(g84
g70
NtRp3789
(dp3790
g73
(dp3791
sg82
g3555
sg75
(lp3792
g68
(g89
g70
NtRp3793
(dp3794
g73
(dp3795
g93
g94
ssg82
g3789
sg75
(lp3796
S'delimiters'
p3797
asbag68
(g89
g70
NtRp3798
(dp3799
g73
(dp3800
g100
g101
ssg82
g3789
sg75
(lp3801
S':'
asbag68
(g89
g70
NtRp3802
(dp3803
g73
(dp3804
sg82
g3789
sg75
(lp3805
g68
(g69
g70
NtRp3806
(dp3807
g73
(dp3808
g81
I5
ssg82
g3802
sg75
(lp3809
g68
(g77
g70
NtRp3810
(dp3811
g73
(dp3812
g81
I4
ssg82
Nsg75
(lp3813
g68
(g84
g70
NtRp3814
(dp3815
g73
(dp3816
sg82
g3810
sg75
(lp3817
g68
(g89
g70
NtRp3818
(dp3819
g73
(dp3820
sg82
g3814
sg75
(lp3821
g68
(g69
g70
NtRp3822
(dp3823
g73
(dp3824
g81
I4
ssg82
g3818
sg75
(lp3825
S'{{'
p3826
asbasbasbag68
(g84
g70
NtRp3827
(dp3828
g73
(dp3829
sg82
g3810
sg75
(lp3830
g68
(g89
g70
NtRp3831
(dp3832
g73
(dp3833
sg82
g3827
sg75
(lp3834
g68
(g69
g70
NtRp3835
(dp3836
g73
(dp3837
g81
I4
ssg82
g3831
sg75
(lp3838
S'}}'
p3839
asbasbasbasbasbasbasbag68
(g84
g70
NtRp3840
(dp3841
g73
(dp3842
sg82
g3555
sg75
(lp3843
g68
(g89
g70
NtRp3844
(dp3845
g73
(dp3846
g93
g94
ssg82
g3840
sg75
(lp3847
S'files'
p3848
asbag68
(g89
g70
NtRp3849
(dp3850
g73
(dp3851
g100
g101
ssg82
g3840
sg75
(lp3852
S':'
asbag68
(g89
g70
NtRp3853
(dp3854
g73
(dp3855
sg82
g3840
sg75
(lp3856
g68
(g69
g70
NtRp3857
(dp3858
g73
(dp3859
g81
I5
ssg82
g3853
sg75
(lp3860
g68
(g77
g70
NtRp3861
(dp3862
g73
(dp3863
g81
I4
ssg82
Nsg75
(lp3864
sbasbasbasbag68
(g84
g70
NtRp3865
(dp3866
g73
(dp3867
sg82
g3555
sg75
(lp3868
g68
(g89
g70
NtRp3869
(dp3870
g73
(dp3871
g93
g94
ssg82
g3865
sg75
(lp3872
S'flash'
p3873
asbag68
(g89
g70
NtRp3874
(dp3875
g73
(dp3876
g100
g101
ssg82
g3865
sg75
(lp3877
S':'
asbag68
(g89
g70
NtRp3878
(dp3879
g73
(dp3880
sg82
g3865
sg75
(lp3881
g68
(g69
g70
NtRp3882
(dp3883
g73
(dp3884
g81
I5
ssg82
g3878
sg75
(lp3885
S''
asbasbasbag68
(g84
g70
NtRp3886
(dp3887
g73
(dp3888
sg82
g3555
sg75
(lp3889
g68
(g89
g70
NtRp3890
(dp3891
g73
(dp3892
g93
g94
ssg82
g3886
sg75
(lp3893
S'generic_patterns'
p3894
asbag68
(g89
g70
NtRp3895
(dp3896
g73
(dp3897
g100
g101
ssg82
g3886
sg75
(lp3898
S':'
asbag68
(g89
g70
NtRp3899
(dp3900
g73
(dp3901
sg82
g3886
sg75
(lp3902
g68
(g69
g70
NtRp3903
(dp3904
g73
(dp3905
g81
I5
ssg82
g3899
sg75
(lp3906
g68
(g77
g70
NtRp3907
(dp3908
g73
(dp3909
g81
I4
ssg82
Nsg75
(lp3910
sbasbasbasbag68
(g84
g70
NtRp3911
(dp3912
g73
(dp3913
sg82
g3555
sg75
(lp3914
g68
(g89
g70
NtRp3915
(dp3916
g73
(dp3917
g93
g94
ssg82
g3911
sg75
(lp3918
S'headers'
p3919
asbag68
(g89
g70
NtRp3920
(dp3921
g73
(dp3922
g100
g101
ssg82
g3911
sg75
(lp3923
S':'
asbag68
(g89
g70
NtRp3924
(dp3925
g73
(dp3926
sg82
g3911
sg75
(lp3927
g68
(g69
g70
NtRp3928
(dp3929
g73
(dp3930
g81
I5
ssg82
g3924
sg75
(lp3931
g68
(g77
g70
NtRp3932
(dp3933
g73
(dp3934
g81
I4
ssg82
Nsg75
(lp3935
g68
(g84
g70
NtRp3936
(dp3937
g73
(dp3938
sg82
g3932
sg75
(lp3939
g68
(g89
g70
NtRp3940
(dp3941
g73
(dp3942
g93
g94
ssg82
g3936
sg75
(lp3943
S'X-Powered-By'
p3944
asbag68
(g89
g70
NtRp3945
(dp3946
g73
(dp3947
g100
g101
ssg82
g3936
sg75
(lp3948
S':'
asbag68
(g89
g70
NtRp3949
(dp3950
g73
(dp3951
sg82
g3936
sg75
(lp3952
g68
(g69
g70
NtRp3953
(dp3954
g73
(dp3955
g81
I4
ssg82
g3949
sg75
(lp3956
S'web2py'
p3957
asbasbasbasbasbasbasbag68
(g84
g70
NtRp3958
(dp3959
g73
(dp3960
sg82
g3555
sg75
(lp3961
g68
(g89
g70
NtRp3962
(dp3963
g73
(dp3964
g93
g94
ssg82
g3958
sg75
(lp3965
S'menu'
p3966
asbag68
(g89
g70
NtRp3967
(dp3968
g73
(dp3969
g100
g101
ssg82
g3958
sg75
(lp3970
S':'
asbag68
(g89
g70
NtRp3971
(dp3972
g73
(dp3973
sg82
g3958
sg75
(lp3974
g68
(g69
g70
NtRp3975
(dp3976
g73
(dp3977
g81
I5
ssg82
g3971
sg75
(lp3978
g68
(g77
g70
NtRp3979
(dp3980
g73
(dp3981
g81
I4
ssg82
Nsg75
(lp3982
sbasbasbasbag68
(g84
g70
NtRp3983
(dp3984
g73
(dp3985
sg82
g3555
sg75
(lp3986
g68
(g89
g70
NtRp3987
(dp3988
g73
(dp3989
g93
g94
ssg82
g3983
sg75
(lp3990
S'meta'
p3991
asbag68
(g89
g70
NtRp3992
(dp3993
g73
(dp3994
g100
g101
ssg82
g3983
sg75
(lp3995
S':'
asbag68
(g89
g70
NtRp3996
(dp3997
g73
(dp3998
sg82
g3983
sg75
(lp3999
g68
(g69
g70
NtRp4000
(dp4001
g73
(dp4002
g81
I5
ssg82
g3996
sg75
(lp4003
g68
(g77
g70
NtRp4004
(dp4005
g73
(dp4006
g81
I4
ssg82
Nsg75
(lp4007
sbasbasbasbag68
(g84
g70
NtRp4008
(dp4009
g73
(dp4010
sg82
g3555
sg75
(lp4011
g68
(g89
g70
NtRp4012
(dp4013
g73
(dp4014
g93
g94
ssg82
g4008
sg75
(lp4015
S'models_to_run'
p4016
asbag68
(g89
g70
NtRp4017
(dp4018
g73
(dp4019
g100
g101
ssg82
g4008
sg75
(lp4020
S':'
asbag68
(g89
g70
NtRp4021
(dp4022
g73
(dp4023
sg82
g4008
sg75
(lp4024
g68
(g69
g70
NtRp4025
(dp4026
g73
(dp4027
g81
I5
ssg82
g4021
sg75
(lp4028
g68
(g77
g70
NtRp4029
(dp4030
g73
(dp4031
g81
I4
ssg82
Nsg75
(lp4032
g68
(g84
g70
NtRp4033
(dp4034
g73
(dp4035
sg82
g4029
sg75
(lp4036
g68
(g89
g70
NtRp4037
(dp4038
g73
(dp4039
sg82
g4033
sg75
(lp4040
g68
(g69
g70
NtRp4041
(dp4042
g73
(dp4043
g81
I4
ssg82
g4037
sg75
(lp4044
S'^\\w+\\.py$'
p4045
asbasbasbag68
(g84
g70
NtRp4046
(dp4047
g73
(dp4048
sg82
g4029
sg75
(lp4049
g68
(g89
g70
NtRp4050
(dp4051
g73
(dp4052
sg82
g4046
sg75
(lp4053
g68
(g69
g70
NtRp4054
(dp4055
g73
(dp4056
g81
I4
ssg82
g4050
sg75
(lp4057
S'^default/\\w+\\.py$'
p4058
asbasbasbag68
(g84
g70
NtRp4059
(dp4060
g73
(dp4061
sg82
g4029
sg75
(lp4062
g68
(g89
g70
NtRp4063
(dp4064
g73
(dp4065
sg82
g4059
sg75
(lp4066
g68
(g69
g70
NtRp4067
(dp4068
g73
(dp4069
g81
I4
ssg82
g4063
sg75
(lp4070
S'^default/index/\\w+\\.py$'
p4071
asbasbasbasbasbasbasbag68
(g84
g70
NtRp4072
(dp4073
g73
(dp4074
sg82
g3555
sg75
(lp4075
g68
(g89
g70
NtRp4076
(dp4077
g73
(dp4078
g93
g94
ssg82
g4072
sg75
(lp4079
S'postprocessing'
p4080
asbag68
(g89
g70
NtRp4081
(dp4082
g73
(dp4083
g100
g101
ssg82
g4072
sg75
(lp4084
S':'
asbag68
(g89
g70
NtRp4085
(dp4086
g73
(dp4087
sg82
g4072
sg75
(lp4088
g68
(g69
g70
NtRp4089
(dp4090
g73
(dp4091
g81
I5
ssg82
g4085
sg75
(lp4092
g68
(g77
g70
NtRp4093
(dp4094
g73
(dp4095
g81
I4
ssg82
Nsg75
(lp4096
sbasbasbasbag68
(g84
g70
NtRp4097
(dp4098
g73
(dp4099
sg82
g3555
sg75
(lp4100
g68
(g89
g70
NtRp4101
(dp4102
g73
(dp4103
g93
g94
ssg82
g4097
sg75
(lp4104
S'session_cookie_expires'
p4105
asbag68
(g89
g70
NtRp4106
(dp4107
g73
(dp4108
g100
g101
ssg82
g4097
sg75
(lp4109
S':'
asbag68
(g89
g70
NtRp4110
(dp4111
g73
(dp4112
sg82
g4097
sg75
(lp4113
g68
(g69
g70
NtRp4114
(dp4115
g73
(dp4116
g81
I5
ssg82
g4110
sg75
(lp4117
S'None'
p4118
asbasbasbag68
(g84
g70
NtRp4119
(dp4120
g73
(dp4121
sg82
g3555
sg75
(lp4122
g68
(g89
g70
NtRp4123
(dp4124
g73
(dp4125
g93
g94
ssg82
g4119
sg75
(lp4126
S'session_data_name'
p4127
asbag68
(g89
g70
NtRp4128
(dp4129
g73
(dp4130
g100
g101
ssg82
g4119
sg75
(lp4131
S':'
asbag68
(g89
g70
NtRp4132
(dp4133
g73
(dp4134
sg82
g4119
sg75
(lp4135
g68
(g69
g70
NtRp4136
(dp4137
g73
(dp4138
g81
I5
ssg82
g4132
sg75
(lp4139
S'session_data_projeto'
p4140
asbasbasbag68
(g84
g70
NtRp4141
(dp4142
g73
(dp4143
sg82
g3555
sg75
(lp4144
g68
(g89
g70
NtRp4145
(dp4146
g73
(dp4147
g93
g94
ssg82
g4141
sg75
(lp4148
S'session_file'
p4149
asbag68
(g89
g70
NtRp4150
(dp4151
g73
(dp4152
g100
g101
ssg82
g4141
sg75
(lp4153
S':'
asbag68
(g89
g70
NtRp4154
(dp4155
g73
(dp4156
sg82
g4141
sg75
(lp4157
g68
(g69
g70
NtRp4158
(dp4159
g73
(dp4160
g81
I5
ssg82
g4154
sg75
(lp4161
S'None'
p4162
asbasbasbag68
(g84
g70
NtRp4163
(dp4164
g73
(dp4165
sg82
g3555
sg75
(lp4166
g68
(g89
g70
NtRp4167
(dp4168
g73
(dp4169
g93
g94
ssg82
g4163
sg75
(lp4170
S'session_filename'
p4171
asbag68
(g89
g70
NtRp4172
(dp4173
g73
(dp4174
g100
g101
ssg82
g4163
sg75
(lp4175
S':'
asbag68
(g89
g70
NtRp4176
(dp4177
g73
(dp4178
sg82
g4163
sg75
(lp4179
g68
(g69
g70
NtRp4180
(dp4181
g73
(dp4182
g81
I5
ssg82
g4176
sg75
(lp4183
S'/var/www/web2py_curso/applications/projeto/sessions/127.0.0.1-ac2fedfb-a46a-42e9-8bef-23a136eddeb8'
p4184
asbasbasbag68
(g84
g70
NtRp4185
(dp4186
g73
(dp4187
sg82
g3555
sg75
(lp4188
g68
(g89
g70
NtRp4189
(dp4190
g73
(dp4191
g93
g94
ssg82
g4185
sg75
(lp4192
S'session_id'
p4193
asbag68
(g89
g70
NtRp4194
(dp4195
g73
(dp4196
g100
g101
ssg82
g4185
sg75
(lp4197
S':'
asbag68
(g89
g70
NtRp4198
(dp4199
g73
(dp4200
sg82
g4185
sg75
(lp4201
g68
(g69
g70
NtRp4202
(dp4203
g73
(dp4204
g81
I5
ssg82
g4198
sg75
(lp4205
g672
asbasbasbag68
(g84
g70
NtRp4206
(dp4207
g73
(dp4208
sg82
g3555
sg75
(lp4209
g68
(g89
g70
NtRp4210
(dp4211
g73
(dp4212
g93
g94
ssg82
g4206
sg75
(lp4213
S'session_id_name'
p4214
asbag68
(g89
g70
NtRp4215
(dp4216
g73
(dp4217
g100
g101
ssg82
g4206
sg75
(lp4218
S':'
asbag68
(g89
g70
NtRp4219
(dp4220
g73
(dp4221
sg82
g4206
sg75
(lp4222
g68
(g69
g70
NtRp4223
(dp4224
g73
(dp4225
g81
I5
ssg82
g4219
sg75
(lp4226
g3612
asbasbasbag68
(g84
g70
NtRp4227
(dp4228
g73
(dp4229
sg82
g3555
sg75
(lp4230
g68
(g89
g70
NtRp4231
(dp4232
g73
(dp4233
g93
g94
ssg82
g4227
sg75
(lp4234
S'session_new'
p4235
asbag68
(g89
g70
NtRp4236
(dp4237
g73
(dp4238
g100
g101
ssg82
g4227
sg75
(lp4239
S':'
asbag68
(g89
g70
NtRp4240
(dp4241
g73
(dp4242
sg82
g4227
sg75
(lp4243
g68
(g69
g70
NtRp4244
(dp4245
g73
(dp4246
g81
I5
ssg82
g4240
sg75
(lp4247
g111
asbasbasbag68
(g84
g70
NtRp4248
(dp4249
g73
(dp4250
sg82
g3555
sg75
(lp4251
g68
(g89
g70
NtRp4252
(dp4253
g73
(dp4254
g93
g94
ssg82
g4248
sg75
(lp4255
S'session_storage_type'
p4256
asbag68
(g89
g70
NtRp4257
(dp4258
g73
(dp4259
g100
g101
ssg82
g4248
sg75
(lp4260
S':'
asbag68
(g89
g70
NtRp4261
(dp4262
g73
(dp4263
sg82
g4248
sg75
(lp4264
g68
(g69
g70
NtRp4265
(dp4266
g73
(dp4267
g81
I5
ssg82
g4261
sg75
(lp4268
g3484
asbasbasbag68
(g84
g70
NtRp4269
(dp4270
g73
(dp4271
sg82
g3555
sg75
(lp4272
g68
(g89
g70
NtRp4273
(dp4274
g73
(dp4275
g93
g94
ssg82
g4269
sg75
(lp4276
S'status'
p4277
asbag68
(g89
g70
NtRp4278
(dp4279
g73
(dp4280
g100
g101
ssg82
g4269
sg75
(lp4281
S':'
asbag68
(g89
g70
NtRp4282
(dp4283
g73
(dp4284
sg82
g4269
sg75
(lp4285
g68
(g69
g70
NtRp4286
(dp4287
g73
(dp4288
g81
I5
ssg82
g4282
sg75
(lp4289
S'200'
p4290
asbasbasbag68
(g84
g70
NtRp4291
(dp4292
g73
(dp4293
sg82
g3555
sg75
(lp4294
g68
(g89
g70
NtRp4295
(dp4296
g73
(dp4297
g93
g94
ssg82
g4291
sg75
(lp4298
S'view'
p4299
asbag68
(g89
g70
NtRp4300
(dp4301
g73
(dp4302
g100
g101
ssg82
g4291
sg75
(lp4303
S':'
asbag68
(g89
g70
NtRp4304
(dp4305
g73
(dp4306
sg82
g4291
sg75
(lp4307
g68
(g69
g70
NtRp4308
(dp4309
g73
(dp4310
g81
I5
ssg82
g4304
sg75
(lp4311
S'default/index.html'
p4312
asbasbasbasbasbsS'locals'
p4313
(dp4314
g4
S"'/var/www/web2py_curso/applications/projeto/controllers/default.py'"
p4315
sg6
S'\'# coding: utf-8\\n\\ndef index():\\n\\tprint "Action ind...x + y\\n\\n \\n\\nresponse._vars=response._caller(index)\\n\''
p4316
sssS'traceback'
p4317
S'Traceback (most recent call last):\n  File "/var/www/web2py_curso/gluon/restricted.py", line 211, in restricted\n    ccode = compile2(code, layer)\n  File "/var/www/web2py_curso/gluon/restricted.py", line 194, in compile2\n    return compile(code.rstrip().replace(\'\\r\\n\', \'\\n\') + \'\\n\', layer, \'exec\')\n  File "/var/www/web2py_curso/applications/projeto/controllers/default.py", line 7\n    if nome in request.args\n                          ^\nSyntaxError: invalid syntax\n'
p4318
s.