(dp1
S'output'
p2
S'<class \'_tkinter.TclError\'> can\'t invoke "grab" command:  application has been destroyed'
p3
sS'layer'
p4
S'/var/www/web2py_curso/applications/projeto/controllers/post.py'
p5
sS'code'
p6
S'def show():\n\treturn "post"\n\ndef edit():\n\treturn "edit post"\n\ndef delete():\n\treturn "delete"\n\ndef add():\n\tlogger.debug("execute funcao add")\n\tlogger.info(str(request.vars))\n\t\n\ttry:\n\t\t1/0\n\texcept ZeroDivisionError as erro:\n\t\tlogger.error(str(erro))\n\t\n\treturn "add"\n\nresponse._vars=response._caller(add)\n'
p7
sS'snapshot'
p8
(dp9
S'exception'
p10
(dp11
S'__module__'
p12
S"'_tkinter'"
p13
sS'__getslice__'
p14
S"<method-wrapper '__getslice__' of TclError object>"
p15
sS'__str__'
p16
S"<method-wrapper '__str__' of TclError object>"
p17
sS'__reduce__'
p18
S'<built-in method __reduce__ of TclError object>'
p19
sS'__dict__'
p20
S'{}'
p21
sS'__sizeof__'
p22
S'<built-in method __sizeof__ of TclError object>'
p23
sS'__weakref__'
p24
S'None'
p25
sS'__init__'
p26
S"<method-wrapper '__init__' of TclError object>"
p27
sS'__setattr__'
p28
S"<method-wrapper '__setattr__' of TclError object>"
p29
sS'__reduce_ex__'
p30
S'<built-in method __reduce_ex__ of TclError object>'
p31
sS'__new__'
p32
S'<built-in method __new__ of type object>'
p33
sS'__format__'
p34
S'<built-in method __format__ of TclError object>'
p35
sS'__class__'
p36
S"<class '_tkinter.TclError'>"
p37
sS'__doc__'
p38
S'None'
p39
sS'__getitem__'
p40
S"<method-wrapper '__getitem__' of TclError object>"
p41
sS'__setstate__'
p42
S'<built-in method __setstate__ of TclError object>'
p43
sS'__getattribute__'
p44
S"<method-wrapper '__getattribute__' of TclError object>"
p45
sS'args'
p46
S'(\'can\\\'t invoke "grab" command:  application has been destroyed\',)'
p47
sS'__subclasshook__'
p48
S'<built-in method __subclasshook__ of type object>'
p49
sS'__unicode__'
p50
S'<built-in method __unicode__ of TclError object>'
p51
sS'__delattr__'
p52
S"<method-wrapper '__delattr__' of TclError object>"
p53
sS'__repr__'
p54
S"<method-wrapper '__repr__' of TclError object>"
p55
sS'__hash__'
p56
S"<method-wrapper '__hash__' of TclError object>"
p57
ssS'evalue'
p58
S'can\'t invoke "grab" command:  application has been destroyed'
p59
sS'request'
p60
ccopy_reg
_reconstructor
p61
(cgluon.html
BEAUTIFY
p62
c__builtin__
object
p63
NtRp64
(dp65
S'attributes'
p66
(dp67
sS'components'
p68
(lp69
g61
(cgluon.html
TABLE
p70
g63
NtRp71
(dp72
g66
(dp73
S'level'
p74
I5
ssS'parent'
p75
Nsg68
(lp76
g61
(cgluon.html
TR
p77
g63
NtRp78
(dp79
g66
(dp80
sg75
g71
sg68
(lp81
g61
(cgluon.html
TD
p82
g63
NtRp83
(dp84
g66
(dp85
S'_style'
p86
S'font-weight:bold;vertical-align:top'
p87
ssg75
g78
sg68
(lp88
S'ajax'
p89
asbag61
(g82
g63
NtRp90
(dp91
g66
(dp92
S'_valign'
p93
S'top'
p94
ssg75
g78
sg68
(lp95
S':'
asbag61
(g82
g63
NtRp96
(dp97
g66
(dp98
sg75
g78
sg68
(lp99
g61
(g62
g63
NtRp100
(dp101
g66
(dp102
g74
I5
ssg75
g96
sg68
(lp103
S'False'
p104
asbasbasbag61
(g77
g63
NtRp105
(dp106
g66
(dp107
sg75
g71
sg68
(lp108
g61
(g82
g63
NtRp109
(dp110
g66
(dp111
g86
g87
ssg75
g105
sg68
(lp112
S'application'
p113
asbag61
(g82
g63
NtRp114
(dp115
g66
(dp116
g93
g94
ssg75
g105
sg68
(lp117
S':'
asbag61
(g82
g63
NtRp118
(dp119
g66
(dp120
sg75
g105
sg68
(lp121
g61
(g62
g63
NtRp122
(dp123
g66
(dp124
g74
I5
ssg75
g118
sg68
(lp125
S'projeto'
p126
asbasbasbag61
(g77
g63
NtRp127
(dp128
g66
(dp129
sg75
g71
sg68
(lp130
g61
(g82
g63
NtRp131
(dp132
g66
(dp133
g86
g87
ssg75
g127
sg68
(lp134
g46
asbag61
(g82
g63
NtRp135
(dp136
g66
(dp137
g93
g94
ssg75
g127
sg68
(lp138
S':'
asbag61
(g82
g63
NtRp139
(dp140
g66
(dp141
sg75
g127
sg68
(lp142
g61
(g62
g63
NtRp143
(dp144
g66
(dp145
g74
I5
ssg75
g139
sg68
(lp146
g61
(g70
g63
NtRp147
(dp148
g66
(dp149
g74
I4
ssg75
Nsg68
(lp150
sbasbasbasbag61
(g77
g63
NtRp151
(dp152
g66
(dp153
sg75
g71
sg68
(lp154
g61
(g82
g63
NtRp155
(dp156
g66
(dp157
g86
g87
ssg75
g151
sg68
(lp158
S'body'
p159
asbag61
(g82
g63
NtRp160
(dp161
g66
(dp162
g93
g94
ssg75
g151
sg68
(lp163
S':'
asbag61
(g82
g63
NtRp164
(dp165
g66
(dp166
sg75
g151
sg68
(lp167
g61
(g62
g63
NtRp168
(dp169
g66
(dp170
g74
I5
ssg75
g164
sg68
(lp171
S'<cStringIO.StringO object at 0x1b9e298>'
p172
asbasbasbag61
(g77
g63
NtRp173
(dp174
g66
(dp175
sg75
g71
sg68
(lp176
g61
(g82
g63
NtRp177
(dp178
g66
(dp179
g86
g87
ssg75
g173
sg68
(lp180
S'cid'
p181
asbag61
(g82
g63
NtRp182
(dp183
g66
(dp184
g93
g94
ssg75
g173
sg68
(lp185
S':'
asbag61
(g82
g63
NtRp186
(dp187
g66
(dp188
sg75
g173
sg68
(lp189
g61
(g62
g63
NtRp190
(dp191
g66
(dp192
g74
I5
ssg75
g186
sg68
(lp193
S'None'
p194
asbasbasbag61
(g77
g63
NtRp195
(dp196
g66
(dp197
sg75
g71
sg68
(lp198
g61
(g82
g63
NtRp199
(dp200
g66
(dp201
g86
g87
ssg75
g195
sg68
(lp202
S'client'
p203
asbag61
(g82
g63
NtRp204
(dp205
g66
(dp206
g93
g94
ssg75
g195
sg68
(lp207
S':'
asbag61
(g82
g63
NtRp208
(dp209
g66
(dp210
sg75
g195
sg68
(lp211
g61
(g62
g63
NtRp212
(dp213
g66
(dp214
g74
I5
ssg75
g208
sg68
(lp215
S'127.0.0.1'
p216
asbasbasbag61
(g77
g63
NtRp217
(dp218
g66
(dp219
sg75
g71
sg68
(lp220
g61
(g82
g63
NtRp221
(dp222
g66
(dp223
g86
g87
ssg75
g217
sg68
(lp224
S'controller'
p225
asbag61
(g82
g63
NtRp226
(dp227
g66
(dp228
g93
g94
ssg75
g217
sg68
(lp229
S':'
asbag61
(g82
g63
NtRp230
(dp231
g66
(dp232
sg75
g217
sg68
(lp233
g61
(g62
g63
NtRp234
(dp235
g66
(dp236
g74
I5
ssg75
g230
sg68
(lp237
S'post'
p238
asbasbasbag61
(g77
g63
NtRp239
(dp240
g66
(dp241
sg75
g71
sg68
(lp242
g61
(g82
g63
NtRp243
(dp244
g66
(dp245
g86
g87
ssg75
g239
sg68
(lp246
S'cookies'
p247
asbag61
(g82
g63
NtRp248
(dp249
g66
(dp250
g93
g94
ssg75
g239
sg68
(lp251
S':'
asbag61
(g82
g63
NtRp252
(dp253
g66
(dp254
sg75
g239
sg68
(lp255
g61
(g62
g63
NtRp256
(dp257
g66
(dp258
g74
I5
ssg75
g252
sg68
(lp259
g61
(g70
g63
NtRp260
(dp261
g66
(dp262
g74
I4
ssg75
Nsg68
(lp263
g61
(g77
g63
NtRp264
(dp265
g66
(dp266
sg75
g260
sg68
(lp267
g61
(g82
g63
NtRp268
(dp269
g66
(dp270
g86
g87
ssg75
g264
sg68
(lp271
S'session_id_admin'
p272
asbag61
(g82
g63
NtRp273
(dp274
g66
(dp275
g93
g94
ssg75
g264
sg68
(lp276
S':'
asbag61
(g82
g63
NtRp277
(dp278
g66
(dp279
sg75
g264
sg68
(lp280
g61
(g62
g63
NtRp281
(dp282
g66
(dp283
g74
I4
ssg75
g277
sg68
(lp284
S'127.0.0.1-f3e4b0cb-9e15-4e27-aeb8-da76724c4de5'
p285
ag61
(g70
g63
NtRp286
(dp287
g66
(dp288
g74
I3
ssg75
Nsg68
(lp289
g61
(g77
g63
NtRp290
(dp291
g66
(dp292
sg75
g286
sg68
(lp293
g61
(g82
g63
NtRp294
(dp295
g66
(dp296
g86
g87
ssg75
g290
sg68
(lp297
S'comment'
p298
asbag61
(g82
g63
NtRp299
(dp300
g66
(dp301
g93
g94
ssg75
g290
sg68
(lp302
S':'
asbag61
(g82
g63
NtRp303
(dp304
g66
(dp305
sg75
g290
sg68
(lp306
g61
(g62
g63
NtRp307
(dp308
g66
(dp309
g74
I3
ssg75
g303
sg68
(lp310
S''
asbasbasbag61
(g77
g63
NtRp311
(dp312
g66
(dp313
sg75
g286
sg68
(lp314
g61
(g82
g63
NtRp315
(dp316
g66
(dp317
g86
g87
ssg75
g311
sg68
(lp318
S'domain'
p319
asbag61
(g82
g63
NtRp320
(dp321
g66
(dp322
g93
g94
ssg75
g311
sg68
(lp323
S':'
asbag61
(g82
g63
NtRp324
(dp325
g66
(dp326
sg75
g311
sg68
(lp327
g61
(g62
g63
NtRp328
(dp329
g66
(dp330
g74
I3
ssg75
g324
sg68
(lp331
S''
asbasbasbag61
(g77
g63
NtRp332
(dp333
g66
(dp334
sg75
g286
sg68
(lp335
g61
(g82
g63
NtRp336
(dp337
g66
(dp338
g86
g87
ssg75
g332
sg68
(lp339
S'expires'
p340
asbag61
(g82
g63
NtRp341
(dp342
g66
(dp343
g93
g94
ssg75
g332
sg68
(lp344
S':'
asbag61
(g82
g63
NtRp345
(dp346
g66
(dp347
sg75
g332
sg68
(lp348
g61
(g62
g63
NtRp349
(dp350
g66
(dp351
g74
I3
ssg75
g345
sg68
(lp352
S''
asbasbasbag61
(g77
g63
NtRp353
(dp354
g66
(dp355
sg75
g286
sg68
(lp356
g61
(g82
g63
NtRp357
(dp358
g66
(dp359
g86
g87
ssg75
g353
sg68
(lp360
S'httponly'
p361
asbag61
(g82
g63
NtRp362
(dp363
g66
(dp364
g93
g94
ssg75
g353
sg68
(lp365
S':'
asbag61
(g82
g63
NtRp366
(dp367
g66
(dp368
sg75
g353
sg68
(lp369
g61
(g62
g63
NtRp370
(dp371
g66
(dp372
g74
I3
ssg75
g366
sg68
(lp373
S''
asbasbasbag61
(g77
g63
NtRp374
(dp375
g66
(dp376
sg75
g286
sg68
(lp377
g61
(g82
g63
NtRp378
(dp379
g66
(dp380
g86
g87
ssg75
g374
sg68
(lp381
S'max-age'
p382
asbag61
(g82
g63
NtRp383
(dp384
g66
(dp385
g93
g94
ssg75
g374
sg68
(lp386
S':'
asbag61
(g82
g63
NtRp387
(dp388
g66
(dp389
sg75
g374
sg68
(lp390
g61
(g62
g63
NtRp391
(dp392
g66
(dp393
g74
I3
ssg75
g387
sg68
(lp394
S''
asbasbasbag61
(g77
g63
NtRp395
(dp396
g66
(dp397
sg75
g286
sg68
(lp398
g61
(g82
g63
NtRp399
(dp400
g66
(dp401
g86
g87
ssg75
g395
sg68
(lp402
S'path'
p403
asbag61
(g82
g63
NtRp404
(dp405
g66
(dp406
g93
g94
ssg75
g395
sg68
(lp407
S':'
asbag61
(g82
g63
NtRp408
(dp409
g66
(dp410
sg75
g395
sg68
(lp411
g61
(g62
g63
NtRp412
(dp413
g66
(dp414
g74
I3
ssg75
g408
sg68
(lp415
S''
asbasbasbag61
(g77
g63
NtRp416
(dp417
g66
(dp418
sg75
g286
sg68
(lp419
g61
(g82
g63
NtRp420
(dp421
g66
(dp422
g86
g87
ssg75
g416
sg68
(lp423
S'secure'
p424
asbag61
(g82
g63
NtRp425
(dp426
g66
(dp427
g93
g94
ssg75
g416
sg68
(lp428
S':'
asbag61
(g82
g63
NtRp429
(dp430
g66
(dp431
sg75
g416
sg68
(lp432
g61
(g62
g63
NtRp433
(dp434
g66
(dp435
g74
I3
ssg75
g429
sg68
(lp436
S''
asbasbasbag61
(g77
g63
NtRp437
(dp438
g66
(dp439
sg75
g286
sg68
(lp440
g61
(g82
g63
NtRp441
(dp442
g66
(dp443
g86
g87
ssg75
g437
sg68
(lp444
S'version'
p445
asbag61
(g82
g63
NtRp446
(dp447
g66
(dp448
g93
g94
ssg75
g437
sg68
(lp449
S':'
asbag61
(g82
g63
NtRp450
(dp451
g66
(dp452
sg75
g437
sg68
(lp453
g61
(g62
g63
NtRp454
(dp455
g66
(dp456
g74
I3
ssg75
g450
sg68
(lp457
S''
asbasbasbasbasbasbasbag61
(g77
g63
NtRp458
(dp459
g66
(dp460
sg75
g260
sg68
(lp461
g61
(g82
g63
NtRp462
(dp463
g66
(dp464
g86
g87
ssg75
g458
sg68
(lp465
S'session_id_projeto'
p466
asbag61
(g82
g63
NtRp467
(dp468
g66
(dp469
g93
g94
ssg75
g458
sg68
(lp470
S':'
asbag61
(g82
g63
NtRp471
(dp472
g66
(dp473
sg75
g458
sg68
(lp474
g61
(g62
g63
NtRp475
(dp476
g66
(dp477
g74
I4
ssg75
g471
sg68
(lp478
S'127.0.0.1-e368b264-444a-4dee-8b41-31155ff54a04'
p479
ag61
(g70
g63
NtRp480
(dp481
g66
(dp482
g74
I3
ssg75
Nsg68
(lp483
g61
(g77
g63
NtRp484
(dp485
g66
(dp486
sg75
g480
sg68
(lp487
g61
(g82
g63
NtRp488
(dp489
g66
(dp490
g86
g87
ssg75
g484
sg68
(lp491
g298
asbag61
(g82
g63
NtRp492
(dp493
g66
(dp494
g93
g94
ssg75
g484
sg68
(lp495
S':'
asbag61
(g82
g63
NtRp496
(dp497
g66
(dp498
sg75
g484
sg68
(lp499
g61
(g62
g63
NtRp500
(dp501
g66
(dp502
g74
I3
ssg75
g496
sg68
(lp503
S''
asbasbasbag61
(g77
g63
NtRp504
(dp505
g66
(dp506
sg75
g480
sg68
(lp507
g61
(g82
g63
NtRp508
(dp509
g66
(dp510
g86
g87
ssg75
g504
sg68
(lp511
g319
asbag61
(g82
g63
NtRp512
(dp513
g66
(dp514
g93
g94
ssg75
g504
sg68
(lp515
S':'
asbag61
(g82
g63
NtRp516
(dp517
g66
(dp518
sg75
g504
sg68
(lp519
g61
(g62
g63
NtRp520
(dp521
g66
(dp522
g74
I3
ssg75
g516
sg68
(lp523
S''
asbasbasbag61
(g77
g63
NtRp524
(dp525
g66
(dp526
sg75
g480
sg68
(lp527
g61
(g82
g63
NtRp528
(dp529
g66
(dp530
g86
g87
ssg75
g524
sg68
(lp531
g340
asbag61
(g82
g63
NtRp532
(dp533
g66
(dp534
g93
g94
ssg75
g524
sg68
(lp535
S':'
asbag61
(g82
g63
NtRp536
(dp537
g66
(dp538
sg75
g524
sg68
(lp539
g61
(g62
g63
NtRp540
(dp541
g66
(dp542
g74
I3
ssg75
g536
sg68
(lp543
S''
asbasbasbag61
(g77
g63
NtRp544
(dp545
g66
(dp546
sg75
g480
sg68
(lp547
g61
(g82
g63
NtRp548
(dp549
g66
(dp550
g86
g87
ssg75
g544
sg68
(lp551
g361
asbag61
(g82
g63
NtRp552
(dp553
g66
(dp554
g93
g94
ssg75
g544
sg68
(lp555
S':'
asbag61
(g82
g63
NtRp556
(dp557
g66
(dp558
sg75
g544
sg68
(lp559
g61
(g62
g63
NtRp560
(dp561
g66
(dp562
g74
I3
ssg75
g556
sg68
(lp563
S''
asbasbasbag61
(g77
g63
NtRp564
(dp565
g66
(dp566
sg75
g480
sg68
(lp567
g61
(g82
g63
NtRp568
(dp569
g66
(dp570
g86
g87
ssg75
g564
sg68
(lp571
g382
asbag61
(g82
g63
NtRp572
(dp573
g66
(dp574
g93
g94
ssg75
g564
sg68
(lp575
S':'
asbag61
(g82
g63
NtRp576
(dp577
g66
(dp578
sg75
g564
sg68
(lp579
g61
(g62
g63
NtRp580
(dp581
g66
(dp582
g74
I3
ssg75
g576
sg68
(lp583
S''
asbasbasbag61
(g77
g63
NtRp584
(dp585
g66
(dp586
sg75
g480
sg68
(lp587
g61
(g82
g63
NtRp588
(dp589
g66
(dp590
g86
g87
ssg75
g584
sg68
(lp591
g403
asbag61
(g82
g63
NtRp592
(dp593
g66
(dp594
g93
g94
ssg75
g584
sg68
(lp595
S':'
asbag61
(g82
g63
NtRp596
(dp597
g66
(dp598
sg75
g584
sg68
(lp599
g61
(g62
g63
NtRp600
(dp601
g66
(dp602
g74
I3
ssg75
g596
sg68
(lp603
S''
asbasbasbag61
(g77
g63
NtRp604
(dp605
g66
(dp606
sg75
g480
sg68
(lp607
g61
(g82
g63
NtRp608
(dp609
g66
(dp610
g86
g87
ssg75
g604
sg68
(lp611
g424
asbag61
(g82
g63
NtRp612
(dp613
g66
(dp614
g93
g94
ssg75
g604
sg68
(lp615
S':'
asbag61
(g82
g63
NtRp616
(dp617
g66
(dp618
sg75
g604
sg68
(lp619
g61
(g62
g63
NtRp620
(dp621
g66
(dp622
g74
I3
ssg75
g616
sg68
(lp623
S''
asbasbasbag61
(g77
g63
NtRp624
(dp625
g66
(dp626
sg75
g480
sg68
(lp627
g61
(g82
g63
NtRp628
(dp629
g66
(dp630
g86
g87
ssg75
g624
sg68
(lp631
g445
asbag61
(g82
g63
NtRp632
(dp633
g66
(dp634
g93
g94
ssg75
g624
sg68
(lp635
S':'
asbag61
(g82
g63
NtRp636
(dp637
g66
(dp638
sg75
g624
sg68
(lp639
g61
(g62
g63
NtRp640
(dp641
g66
(dp642
g74
I3
ssg75
g636
sg68
(lp643
S''
asbasbasbasbasbasbasbasbasbasbasbag61
(g77
g63
NtRp644
(dp645
g66
(dp646
sg75
g71
sg68
(lp647
g61
(g82
g63
NtRp648
(dp649
g66
(dp650
g86
g87
ssg75
g644
sg68
(lp651
S'env'
p652
asbag61
(g82
g63
NtRp653
(dp654
g66
(dp655
g93
g94
ssg75
g644
sg68
(lp656
S':'
asbag61
(g82
g63
NtRp657
(dp658
g66
(dp659
sg75
g644
sg68
(lp660
g61
(g62
g63
NtRp661
(dp662
g66
(dp663
g74
I5
ssg75
g657
sg68
(lp664
g61
(g70
g63
NtRp665
(dp666
g66
(dp667
g74
I4
ssg75
Nsg68
(lp668
g61
(g77
g63
NtRp669
(dp670
g66
(dp671
sg75
g665
sg68
(lp672
g61
(g82
g63
NtRp673
(dp674
g66
(dp675
g86
g87
ssg75
g669
sg68
(lp676
S'app_folders'
p677
asbag61
(g82
g63
NtRp678
(dp679
g66
(dp680
g93
g94
ssg75
g669
sg68
(lp681
S':'
asbag61
(g82
g63
NtRp682
(dp683
g66
(dp684
sg75
g669
sg68
(lp685
g61
(g62
g63
NtRp686
(dp687
g66
(dp688
g74
I4
ssg75
g682
sg68
(lp689
S"set(['/var/www/web2py_curso/applications/projeto/'])"
p690
asbasbasbag61
(g77
g63
NtRp691
(dp692
g66
(dp693
sg75
g665
sg68
(lp694
g61
(g82
g63
NtRp695
(dp696
g66
(dp697
g86
g87
ssg75
g691
sg68
(lp698
S'applications_parent'
p699
asbag61
(g82
g63
NtRp700
(dp701
g66
(dp702
g93
g94
ssg75
g691
sg68
(lp703
S':'
asbag61
(g82
g63
NtRp704
(dp705
g66
(dp706
sg75
g691
sg68
(lp707
g61
(g62
g63
NtRp708
(dp709
g66
(dp710
g74
I4
ssg75
g704
sg68
(lp711
S'/var/www/web2py_curso'
p712
asbasbasbag61
(g77
g63
NtRp713
(dp714
g66
(dp715
sg75
g665
sg68
(lp716
g61
(g82
g63
NtRp717
(dp718
g66
(dp719
g86
g87
ssg75
g713
sg68
(lp720
S'cmd_args'
p721
asbag61
(g82
g63
NtRp722
(dp723
g66
(dp724
g93
g94
ssg75
g713
sg68
(lp725
S':'
asbag61
(g82
g63
NtRp726
(dp727
g66
(dp728
sg75
g713
sg68
(lp729
g61
(g62
g63
NtRp730
(dp731
g66
(dp732
g74
I4
ssg75
g726
sg68
(lp733
g61
(g70
g63
NtRp734
(dp735
g66
(dp736
g74
I3
ssg75
Nsg68
(lp737
sbasbasbasbag61
(g77
g63
NtRp738
(dp739
g66
(dp740
sg75
g665
sg68
(lp741
g61
(g82
g63
NtRp742
(dp743
g66
(dp744
g86
g87
ssg75
g738
sg68
(lp745
S'cmd_options'
p746
asbag61
(g82
g63
NtRp747
(dp748
g66
(dp749
g93
g94
ssg75
g738
sg68
(lp750
S':'
asbag61
(g82
g63
NtRp751
(dp752
g66
(dp753
sg75
g738
sg68
(lp754
g61
(g62
g63
NtRp755
(dp756
g66
(dp757
g74
I4
ssg75
g751
sg68
(lp758
S"<Values at 0x1b7d488: {'verbose': False, 'ip': '127.0.0.1', 'with_scheduler': False, 'ips': [], 'shutdown_timeout': 5, 'taskbar': False, 'port': 8000, 'maxthreads': None, 'softcron': False, 'server_name': 'fernado-desktop', 'bpython': False, 'nogui': False, 'pid_filename': 'httpserver.pid', 'extcron': False, 'runcron': False, 'run_system_tests': False, 'test': None, 'folder': '/var/www/web2py_curso', 'config': '', 'minthreads': None, 'winservice': '', 'shell': None, 'run': '', 'log_filename': 'httpserver.log', 'debuglevel': 30, 'args': [''], 'socket_timeout': 5, 'ssl_ca_certificate': None, 'scheduler': None, 'profiler_filename': None, 'ssl_private_key': '', 'scheduler_groups': None, 'password': '123456', 'request_queue_size': 5, 'ssl_certificate': '', 'cronjob': False, 'numthreads': None, 'quiet': False, 'interfaces': None, 'import_models': False, 'timeout': 10, 'plain': False, 'nobanner': False}>"
p759
asbasbasbag61
(g77
g63
NtRp760
(dp761
g66
(dp762
sg75
g665
sg68
(lp763
g61
(g82
g63
NtRp764
(dp765
g66
(dp766
g86
g87
ssg75
g760
sg68
(lp767
S'db_sessions'
p768
asbag61
(g82
g63
NtRp769
(dp770
g66
(dp771
g93
g94
ssg75
g760
sg68
(lp772
S':'
asbag61
(g82
g63
NtRp773
(dp774
g66
(dp775
sg75
g760
sg68
(lp776
g61
(g62
g63
NtRp777
(dp778
g66
(dp779
g74
I4
ssg75
g773
sg68
(lp780
S'set([])'
p781
asbasbasbag61
(g77
g63
NtRp782
(dp783
g66
(dp784
sg75
g665
sg68
(lp785
g61
(g82
g63
NtRp786
(dp787
g66
(dp788
g86
g87
ssg75
g782
sg68
(lp789
S'debugging'
p790
asbag61
(g82
g63
NtRp791
(dp792
g66
(dp793
g93
g94
ssg75
g782
sg68
(lp794
S':'
asbag61
(g82
g63
NtRp795
(dp796
g66
(dp797
sg75
g782
sg68
(lp798
g61
(g62
g63
NtRp799
(dp800
g66
(dp801
g74
I4
ssg75
g795
sg68
(lp802
g104
asbasbasbag61
(g77
g63
NtRp803
(dp804
g66
(dp805
sg75
g665
sg68
(lp806
g61
(g82
g63
NtRp807
(dp808
g66
(dp809
g86
g87
ssg75
g803
sg68
(lp810
S'gluon_parent'
p811
asbag61
(g82
g63
NtRp812
(dp813
g66
(dp814
g93
g94
ssg75
g803
sg68
(lp815
S':'
asbag61
(g82
g63
NtRp816
(dp817
g66
(dp818
sg75
g803
sg68
(lp819
g61
(g62
g63
NtRp820
(dp821
g66
(dp822
g74
I4
ssg75
g816
sg68
(lp823
S'/var/www/web2py_curso'
p824
asbasbasbag61
(g77
g63
NtRp825
(dp826
g66
(dp827
sg75
g665
sg68
(lp828
g61
(g82
g63
NtRp829
(dp830
g66
(dp831
g86
g87
ssg75
g825
sg68
(lp832
S'http_accept'
p833
asbag61
(g82
g63
NtRp834
(dp835
g66
(dp836
g93
g94
ssg75
g825
sg68
(lp837
S':'
asbag61
(g82
g63
NtRp838
(dp839
g66
(dp840
sg75
g825
sg68
(lp841
g61
(g62
g63
NtRp842
(dp843
g66
(dp844
g74
I4
ssg75
g838
sg68
(lp845
S'text/html,application/xhtml+xml,application/xml;q=0.9,*/*;q=0.8'
p846
asbasbasbag61
(g77
g63
NtRp847
(dp848
g66
(dp849
sg75
g665
sg68
(lp850
g61
(g82
g63
NtRp851
(dp852
g66
(dp853
g86
g87
ssg75
g847
sg68
(lp854
S'http_accept_charset'
p855
asbag61
(g82
g63
NtRp856
(dp857
g66
(dp858
g93
g94
ssg75
g847
sg68
(lp859
S':'
asbag61
(g82
g63
NtRp860
(dp861
g66
(dp862
sg75
g847
sg68
(lp863
g61
(g62
g63
NtRp864
(dp865
g66
(dp866
g74
I4
ssg75
g860
sg68
(lp867
S'ISO-8859-1,utf-8;q=0.7,*;q=0.3'
p868
asbasbasbag61
(g77
g63
NtRp869
(dp870
g66
(dp871
sg75
g665
sg68
(lp872
g61
(g82
g63
NtRp873
(dp874
g66
(dp875
g86
g87
ssg75
g869
sg68
(lp876
S'http_accept_encoding'
p877
asbag61
(g82
g63
NtRp878
(dp879
g66
(dp880
g93
g94
ssg75
g869
sg68
(lp881
S':'
asbag61
(g82
g63
NtRp882
(dp883
g66
(dp884
sg75
g869
sg68
(lp885
g61
(g62
g63
NtRp886
(dp887
g66
(dp888
g74
I4
ssg75
g882
sg68
(lp889
S'gzip,deflate,sdch'
p890
asbasbasbag61
(g77
g63
NtRp891
(dp892
g66
(dp893
sg75
g665
sg68
(lp894
g61
(g82
g63
NtRp895
(dp896
g66
(dp897
g86
g87
ssg75
g891
sg68
(lp898
S'http_accept_language'
p899
asbag61
(g82
g63
NtRp900
(dp901
g66
(dp902
g93
g94
ssg75
g891
sg68
(lp903
S':'
asbag61
(g82
g63
NtRp904
(dp905
g66
(dp906
sg75
g891
sg68
(lp907
g61
(g62
g63
NtRp908
(dp909
g66
(dp910
g74
I4
ssg75
g904
sg68
(lp911
S'pt-BR,pt;q=0.8,en-US;q=0.6,en;q=0.4'
p912
asbasbasbag61
(g77
g63
NtRp913
(dp914
g66
(dp915
sg75
g665
sg68
(lp916
g61
(g82
g63
NtRp917
(dp918
g66
(dp919
g86
g87
ssg75
g913
sg68
(lp920
S'http_cache_control'
p921
asbag61
(g82
g63
NtRp922
(dp923
g66
(dp924
g93
g94
ssg75
g913
sg68
(lp925
S':'
asbag61
(g82
g63
NtRp926
(dp927
g66
(dp928
sg75
g913
sg68
(lp929
g61
(g62
g63
NtRp930
(dp931
g66
(dp932
g74
I4
ssg75
g926
sg68
(lp933
S'max-age=0'
p934
asbasbasbag61
(g77
g63
NtRp935
(dp936
g66
(dp937
sg75
g665
sg68
(lp938
g61
(g82
g63
NtRp939
(dp940
g66
(dp941
g86
g87
ssg75
g935
sg68
(lp942
S'http_connection'
p943
asbag61
(g82
g63
NtRp944
(dp945
g66
(dp946
g93
g94
ssg75
g935
sg68
(lp947
S':'
asbag61
(g82
g63
NtRp948
(dp949
g66
(dp950
sg75
g935
sg68
(lp951
g61
(g62
g63
NtRp952
(dp953
g66
(dp954
g74
I4
ssg75
g948
sg68
(lp955
S'keep-alive'
p956
asbasbasbag61
(g77
g63
NtRp957
(dp958
g66
(dp959
sg75
g665
sg68
(lp960
g61
(g82
g63
NtRp961
(dp962
g66
(dp963
g86
g87
ssg75
g957
sg68
(lp964
S'http_cookie'
p965
asbag61
(g82
g63
NtRp966
(dp967
g66
(dp968
g93
g94
ssg75
g957
sg68
(lp969
S':'
asbag61
(g82
g63
NtRp970
(dp971
g66
(dp972
sg75
g957
sg68
(lp973
g61
(g62
g63
NtRp974
(dp975
g66
(dp976
g74
I4
ssg75
g970
sg68
(lp977
S'session_id_admin=127.0.0.1-f3e4b0cb-9e15-4e27-aeb8-da76724c4de5; session_id_projeto=127.0.0.1-e368b264-444a-4dee-8b41-31155ff54a04'
p978
asbasbasbag61
(g77
g63
NtRp979
(dp980
g66
(dp981
sg75
g665
sg68
(lp982
g61
(g82
g63
NtRp983
(dp984
g66
(dp985
g86
g87
ssg75
g979
sg68
(lp986
S'http_host'
p987
asbag61
(g82
g63
NtRp988
(dp989
g66
(dp990
g93
g94
ssg75
g979
sg68
(lp991
S':'
asbag61
(g82
g63
NtRp992
(dp993
g66
(dp994
sg75
g979
sg68
(lp995
g61
(g62
g63
NtRp996
(dp997
g66
(dp998
g74
I4
ssg75
g992
sg68
(lp999
S'127.0.0.1:8000'
p1000
asbasbasbag61
(g77
g63
NtRp1001
(dp1002
g66
(dp1003
sg75
g665
sg68
(lp1004
g61
(g82
g63
NtRp1005
(dp1006
g66
(dp1007
g86
g87
ssg75
g1001
sg68
(lp1008
S'http_user_agent'
p1009
asbag61
(g82
g63
NtRp1010
(dp1011
g66
(dp1012
g93
g94
ssg75
g1001
sg68
(lp1013
S':'
asbag61
(g82
g63
NtRp1014
(dp1015
g66
(dp1016
sg75
g1001
sg68
(lp1017
g61
(g62
g63
NtRp1018
(dp1019
g66
(dp1020
g74
I4
ssg75
g1014
sg68
(lp1021
S'Mozilla/5.0 (X11; Linux x86_64) AppleWebKit/537.4 (KHTML, like Gecko) Ubuntu/12.10 Chromium/22.0.1229.94 Chrome/22.0.1229.94 Safari/537.4'
p1022
asbasbasbag61
(g77
g63
NtRp1023
(dp1024
g66
(dp1025
sg75
g665
sg68
(lp1026
g61
(g82
g63
NtRp1027
(dp1028
g66
(dp1029
g86
g87
ssg75
g1023
sg68
(lp1030
S'is_jython'
p1031
asbag61
(g82
g63
NtRp1032
(dp1033
g66
(dp1034
g93
g94
ssg75
g1023
sg68
(lp1035
S':'
asbag61
(g82
g63
NtRp1036
(dp1037
g66
(dp1038
sg75
g1023
sg68
(lp1039
g61
(g62
g63
NtRp1040
(dp1041
g66
(dp1042
g74
I4
ssg75
g1036
sg68
(lp1043
g104
asbasbasbag61
(g77
g63
NtRp1044
(dp1045
g66
(dp1046
sg75
g665
sg68
(lp1047
g61
(g82
g63
NtRp1048
(dp1049
g66
(dp1050
g86
g87
ssg75
g1044
sg68
(lp1051
S'is_pypy'
p1052
asbag61
(g82
g63
NtRp1053
(dp1054
g66
(dp1055
g93
g94
ssg75
g1044
sg68
(lp1056
S':'
asbag61
(g82
g63
NtRp1057
(dp1058
g66
(dp1059
sg75
g1044
sg68
(lp1060
g61
(g62
g63
NtRp1061
(dp1062
g66
(dp1063
g74
I4
ssg75
g1057
sg68
(lp1064
g104
asbasbasbag61
(g77
g63
NtRp1065
(dp1066
g66
(dp1067
sg75
g665
sg68
(lp1068
g61
(g82
g63
NtRp1069
(dp1070
g66
(dp1071
g86
g87
ssg75
g1065
sg68
(lp1072
S'path_info'
p1073
asbag61
(g82
g63
NtRp1074
(dp1075
g66
(dp1076
g93
g94
ssg75
g1065
sg68
(lp1077
S':'
asbag61
(g82
g63
NtRp1078
(dp1079
g66
(dp1080
sg75
g1065
sg68
(lp1081
g61
(g62
g63
NtRp1082
(dp1083
g66
(dp1084
g74
I4
ssg75
g1078
sg68
(lp1085
S'/post/add'
p1086
asbasbasbag61
(g77
g63
NtRp1087
(dp1088
g66
(dp1089
sg75
g665
sg68
(lp1090
g61
(g82
g63
NtRp1091
(dp1092
g66
(dp1093
g86
g87
ssg75
g1087
sg68
(lp1094
S'query_string'
p1095
asbag61
(g82
g63
NtRp1096
(dp1097
g66
(dp1098
g93
g94
ssg75
g1087
sg68
(lp1099
S':'
asbag61
(g82
g63
NtRp1100
(dp1101
g66
(dp1102
sg75
g1087
sg68
(lp1103
g61
(g62
g63
NtRp1104
(dp1105
g66
(dp1106
g74
I4
ssg75
g1100
sg68
(lp1107
S''
asbasbasbag61
(g77
g63
NtRp1108
(dp1109
g66
(dp1110
sg75
g665
sg68
(lp1111
g61
(g82
g63
NtRp1112
(dp1113
g66
(dp1114
g86
g87
ssg75
g1108
sg68
(lp1115
S'remote_addr'
p1116
asbag61
(g82
g63
NtRp1117
(dp1118
g66
(dp1119
g93
g94
ssg75
g1108
sg68
(lp1120
S':'
asbag61
(g82
g63
NtRp1121
(dp1122
g66
(dp1123
sg75
g1108
sg68
(lp1124
g61
(g62
g63
NtRp1125
(dp1126
g66
(dp1127
g74
I4
ssg75
g1121
sg68
(lp1128
g216
asbasbasbag61
(g77
g63
NtRp1129
(dp1130
g66
(dp1131
sg75
g665
sg68
(lp1132
g61
(g82
g63
NtRp1133
(dp1134
g66
(dp1135
g86
g87
ssg75
g1129
sg68
(lp1136
S'remote_port'
p1137
asbag61
(g82
g63
NtRp1138
(dp1139
g66
(dp1140
g93
g94
ssg75
g1129
sg68
(lp1141
S':'
asbag61
(g82
g63
NtRp1142
(dp1143
g66
(dp1144
sg75
g1129
sg68
(lp1145
g61
(g62
g63
NtRp1146
(dp1147
g66
(dp1148
g74
I4
ssg75
g1142
sg68
(lp1149
S'57651'
p1150
asbasbasbag61
(g77
g63
NtRp1151
(dp1152
g66
(dp1153
sg75
g665
sg68
(lp1154
g61
(g82
g63
NtRp1155
(dp1156
g66
(dp1157
g86
g87
ssg75
g1151
sg68
(lp1158
S'request_method'
p1159
asbag61
(g82
g63
NtRp1160
(dp1161
g66
(dp1162
g93
g94
ssg75
g1151
sg68
(lp1163
S':'
asbag61
(g82
g63
NtRp1164
(dp1165
g66
(dp1166
sg75
g1151
sg68
(lp1167
g61
(g62
g63
NtRp1168
(dp1169
g66
(dp1170
g74
I4
ssg75
g1164
sg68
(lp1171
S'GET'
p1172
asbasbasbag61
(g77
g63
NtRp1173
(dp1174
g66
(dp1175
sg75
g665
sg68
(lp1176
g61
(g82
g63
NtRp1177
(dp1178
g66
(dp1179
g86
g87
ssg75
g1173
sg68
(lp1180
S'request_uri'
p1181
asbag61
(g82
g63
NtRp1182
(dp1183
g66
(dp1184
g93
g94
ssg75
g1173
sg68
(lp1185
S':'
asbag61
(g82
g63
NtRp1186
(dp1187
g66
(dp1188
sg75
g1173
sg68
(lp1189
g61
(g62
g63
NtRp1190
(dp1191
g66
(dp1192
g74
I4
ssg75
g1186
sg68
(lp1193
S'/projeto/post/add'
p1194
asbasbasbag61
(g77
g63
NtRp1195
(dp1196
g66
(dp1197
sg75
g665
sg68
(lp1198
g61
(g82
g63
NtRp1199
(dp1200
g66
(dp1201
g86
g87
ssg75
g1195
sg68
(lp1202
S'script_name'
p1203
asbag61
(g82
g63
NtRp1204
(dp1205
g66
(dp1206
g93
g94
ssg75
g1195
sg68
(lp1207
S':'
asbag61
(g82
g63
NtRp1208
(dp1209
g66
(dp1210
sg75
g1195
sg68
(lp1211
g61
(g62
g63
NtRp1212
(dp1213
g66
(dp1214
g74
I4
ssg75
g1208
sg68
(lp1215
S''
asbasbasbag61
(g77
g63
NtRp1216
(dp1217
g66
(dp1218
sg75
g665
sg68
(lp1219
g61
(g82
g63
NtRp1220
(dp1221
g66
(dp1222
g86
g87
ssg75
g1216
sg68
(lp1223
S'server_name'
p1224
asbag61
(g82
g63
NtRp1225
(dp1226
g66
(dp1227
g93
g94
ssg75
g1216
sg68
(lp1228
S':'
asbag61
(g82
g63
NtRp1229
(dp1230
g66
(dp1231
sg75
g1216
sg68
(lp1232
g61
(g62
g63
NtRp1233
(dp1234
g66
(dp1235
g74
I4
ssg75
g1229
sg68
(lp1236
S'fernado-desktop'
p1237
asbasbasbag61
(g77
g63
NtRp1238
(dp1239
g66
(dp1240
sg75
g665
sg68
(lp1241
g61
(g82
g63
NtRp1242
(dp1243
g66
(dp1244
g86
g87
ssg75
g1238
sg68
(lp1245
S'server_port'
p1246
asbag61
(g82
g63
NtRp1247
(dp1248
g66
(dp1249
g93
g94
ssg75
g1238
sg68
(lp1250
S':'
asbag61
(g82
g63
NtRp1251
(dp1252
g66
(dp1253
sg75
g1238
sg68
(lp1254
g61
(g62
g63
NtRp1255
(dp1256
g66
(dp1257
g74
I4
ssg75
g1251
sg68
(lp1258
S'8000'
p1259
asbasbasbag61
(g77
g63
NtRp1260
(dp1261
g66
(dp1262
sg75
g665
sg68
(lp1263
g61
(g82
g63
NtRp1264
(dp1265
g66
(dp1266
g86
g87
ssg75
g1260
sg68
(lp1267
S'server_protocol'
p1268
asbag61
(g82
g63
NtRp1269
(dp1270
g66
(dp1271
g93
g94
ssg75
g1260
sg68
(lp1272
S':'
asbag61
(g82
g63
NtRp1273
(dp1274
g66
(dp1275
sg75
g1260
sg68
(lp1276
g61
(g62
g63
NtRp1277
(dp1278
g66
(dp1279
g74
I4
ssg75
g1273
sg68
(lp1280
S'HTTP/1.1'
p1281
asbasbasbag61
(g77
g63
NtRp1282
(dp1283
g66
(dp1284
sg75
g665
sg68
(lp1285
g61
(g82
g63
NtRp1286
(dp1287
g66
(dp1288
g86
g87
ssg75
g1282
sg68
(lp1289
S'server_software'
p1290
asbag61
(g82
g63
NtRp1291
(dp1292
g66
(dp1293
g93
g94
ssg75
g1282
sg68
(lp1294
S':'
asbag61
(g82
g63
NtRp1295
(dp1296
g66
(dp1297
sg75
g1282
sg68
(lp1298
g61
(g62
g63
NtRp1299
(dp1300
g66
(dp1301
g74
I4
ssg75
g1295
sg68
(lp1302
S'Rocket 1.2.6'
p1303
asbasbasbag61
(g77
g63
NtRp1304
(dp1305
g66
(dp1306
sg75
g665
sg68
(lp1307
g61
(g82
g63
NtRp1308
(dp1309
g66
(dp1310
g86
g87
ssg75
g1304
sg68
(lp1311
S'web2py_original_uri'
p1312
asbag61
(g82
g63
NtRp1313
(dp1314
g66
(dp1315
g93
g94
ssg75
g1304
sg68
(lp1316
S':'
asbag61
(g82
g63
NtRp1317
(dp1318
g66
(dp1319
sg75
g1304
sg68
(lp1320
g61
(g62
g63
NtRp1321
(dp1322
g66
(dp1323
g74
I4
ssg75
g1317
sg68
(lp1324
g1086
asbasbasbag61
(g77
g63
NtRp1325
(dp1326
g66
(dp1327
sg75
g665
sg68
(lp1328
g61
(g82
g63
NtRp1329
(dp1330
g66
(dp1331
g86
g87
ssg75
g1325
sg68
(lp1332
S'web2py_path'
p1333
asbag61
(g82
g63
NtRp1334
(dp1335
g66
(dp1336
g93
g94
ssg75
g1325
sg68
(lp1337
S':'
asbag61
(g82
g63
NtRp1338
(dp1339
g66
(dp1340
sg75
g1325
sg68
(lp1341
g61
(g62
g63
NtRp1342
(dp1343
g66
(dp1344
g74
I4
ssg75
g1338
sg68
(lp1345
g712
asbasbasbag61
(g77
g63
NtRp1346
(dp1347
g66
(dp1348
sg75
g665
sg68
(lp1349
g61
(g82
g63
NtRp1350
(dp1351
g66
(dp1352
g86
g87
ssg75
g1346
sg68
(lp1353
S'web2py_version'
p1354
asbag61
(g82
g63
NtRp1355
(dp1356
g66
(dp1357
g93
g94
ssg75
g1346
sg68
(lp1358
S':'
asbag61
(g82
g63
NtRp1359
(dp1360
g66
(dp1361
sg75
g1346
sg68
(lp1362
g61
(g62
g63
NtRp1363
(dp1364
g66
(dp1365
g74
I4
ssg75
g1359
sg68
(lp1366
g61
(g70
g63
NtRp1367
(dp1368
g66
(dp1369
g74
I3
ssg75
Nsg68
(lp1370
g61
(g77
g63
NtRp1371
(dp1372
g66
(dp1373
sg75
g1367
sg68
(lp1374
g61
(g82
g63
NtRp1375
(dp1376
g66
(dp1377
sg75
g1371
sg68
(lp1378
g61
(g62
g63
NtRp1379
(dp1380
g66
(dp1381
g74
I3
ssg75
g1375
sg68
(lp1382
S'2'
asbasbasbag61
(g77
g63
NtRp1383
(dp1384
g66
(dp1385
sg75
g1367
sg68
(lp1386
g61
(g82
g63
NtRp1387
(dp1388
g66
(dp1389
sg75
g1383
sg68
(lp1390
g61
(g62
g63
NtRp1391
(dp1392
g66
(dp1393
g74
I3
ssg75
g1387
sg68
(lp1394
S'3'
asbasbasbag61
(g77
g63
NtRp1395
(dp1396
g66
(dp1397
sg75
g1367
sg68
(lp1398
g61
(g82
g63
NtRp1399
(dp1400
g66
(dp1401
sg75
g1395
sg68
(lp1402
g61
(g62
g63
NtRp1403
(dp1404
g66
(dp1405
g74
I3
ssg75
g1399
sg68
(lp1406
S'2'
asbasbasbag61
(g77
g63
NtRp1407
(dp1408
g66
(dp1409
sg75
g1367
sg68
(lp1410
g61
(g82
g63
NtRp1411
(dp1412
g66
(dp1413
sg75
g1407
sg68
(lp1414
g61
(g62
g63
NtRp1415
(dp1416
g66
(dp1417
g74
I3
ssg75
g1411
sg68
(lp1418
S'datetime.datetime(2012, 12, 17, 15, 3, 30)'
p1419
asbasbasbag61
(g77
g63
NtRp1420
(dp1421
g66
(dp1422
sg75
g1367
sg68
(lp1423
g61
(g82
g63
NtRp1424
(dp1425
g66
(dp1426
sg75
g1420
sg68
(lp1427
g61
(g62
g63
NtRp1428
(dp1429
g66
(dp1430
g74
I3
ssg75
g1424
sg68
(lp1431
S'stable'
p1432
asbasbasbasbasbasbasbag61
(g77
g63
NtRp1433
(dp1434
g66
(dp1435
sg75
g665
sg68
(lp1436
g61
(g82
g63
NtRp1437
(dp1438
g66
(dp1439
g86
g87
ssg75
g1433
sg68
(lp1440
S'wsgi_errors'
p1441
asbag61
(g82
g63
NtRp1442
(dp1443
g66
(dp1444
g93
g94
ssg75
g1433
sg68
(lp1445
S':'
asbag61
(g82
g63
NtRp1446
(dp1447
g66
(dp1448
sg75
g1433
sg68
(lp1449
g61
(g62
g63
NtRp1450
(dp1451
g66
(dp1452
g74
I4
ssg75
g1446
sg68
(lp1453
S"<open file '<stderr>', mode 'w' at 0x7f98eb889270>"
p1454
asbasbasbag61
(g77
g63
NtRp1455
(dp1456
g66
(dp1457
sg75
g665
sg68
(lp1458
g61
(g82
g63
NtRp1459
(dp1460
g66
(dp1461
g86
g87
ssg75
g1455
sg68
(lp1462
S'wsgi_file_wrapper'
p1463
asbag61
(g82
g63
NtRp1464
(dp1465
g66
(dp1466
g93
g94
ssg75
g1455
sg68
(lp1467
S':'
asbag61
(g82
g63
NtRp1468
(dp1469
g66
(dp1470
sg75
g1455
sg68
(lp1471
g61
(g62
g63
NtRp1472
(dp1473
g66
(dp1474
g74
I4
ssg75
g1468
sg68
(lp1475
S'<class wsgiref.util.FileWrapper at 0x1ad2a10>'
p1476
asbasbasbag61
(g77
g63
NtRp1477
(dp1478
g66
(dp1479
sg75
g665
sg68
(lp1480
g61
(g82
g63
NtRp1481
(dp1482
g66
(dp1483
g86
g87
ssg75
g1477
sg68
(lp1484
S'wsgi_input'
p1485
asbag61
(g82
g63
NtRp1486
(dp1487
g66
(dp1488
g93
g94
ssg75
g1477
sg68
(lp1489
S':'
asbag61
(g82
g63
NtRp1490
(dp1491
g66
(dp1492
sg75
g1477
sg68
(lp1493
g61
(g62
g63
NtRp1494
(dp1495
g66
(dp1496
g74
I4
ssg75
g1490
sg68
(lp1497
S'<socket._fileobject object at 0xf70350>'
p1498
asbasbasbag61
(g77
g63
NtRp1499
(dp1500
g66
(dp1501
sg75
g665
sg68
(lp1502
g61
(g82
g63
NtRp1503
(dp1504
g66
(dp1505
g86
g87
ssg75
g1499
sg68
(lp1506
S'wsgi_multiprocess'
p1507
asbag61
(g82
g63
NtRp1508
(dp1509
g66
(dp1510
g93
g94
ssg75
g1499
sg68
(lp1511
S':'
asbag61
(g82
g63
NtRp1512
(dp1513
g66
(dp1514
sg75
g1499
sg68
(lp1515
g61
(g62
g63
NtRp1516
(dp1517
g66
(dp1518
g74
I4
ssg75
g1512
sg68
(lp1519
g104
asbasbasbag61
(g77
g63
NtRp1520
(dp1521
g66
(dp1522
sg75
g665
sg68
(lp1523
g61
(g82
g63
NtRp1524
(dp1525
g66
(dp1526
g86
g87
ssg75
g1520
sg68
(lp1527
S'wsgi_multithread'
p1528
asbag61
(g82
g63
NtRp1529
(dp1530
g66
(dp1531
g93
g94
ssg75
g1520
sg68
(lp1532
S':'
asbag61
(g82
g63
NtRp1533
(dp1534
g66
(dp1535
sg75
g1520
sg68
(lp1536
g61
(g62
g63
NtRp1537
(dp1538
g66
(dp1539
g74
I4
ssg75
g1533
sg68
(lp1540
S'True'
p1541
asbasbasbag61
(g77
g63
NtRp1542
(dp1543
g66
(dp1544
sg75
g665
sg68
(lp1545
g61
(g82
g63
NtRp1546
(dp1547
g66
(dp1548
g86
g87
ssg75
g1542
sg68
(lp1549
S'wsgi_run_once'
p1550
asbag61
(g82
g63
NtRp1551
(dp1552
g66
(dp1553
g93
g94
ssg75
g1542
sg68
(lp1554
S':'
asbag61
(g82
g63
NtRp1555
(dp1556
g66
(dp1557
sg75
g1542
sg68
(lp1558
g61
(g62
g63
NtRp1559
(dp1560
g66
(dp1561
g74
I4
ssg75
g1555
sg68
(lp1562
g104
asbasbasbag61
(g77
g63
NtRp1563
(dp1564
g66
(dp1565
sg75
g665
sg68
(lp1566
g61
(g82
g63
NtRp1567
(dp1568
g66
(dp1569
g86
g87
ssg75
g1563
sg68
(lp1570
S'wsgi_url_scheme'
p1571
asbag61
(g82
g63
NtRp1572
(dp1573
g66
(dp1574
g93
g94
ssg75
g1563
sg68
(lp1575
S':'
asbag61
(g82
g63
NtRp1576
(dp1577
g66
(dp1578
sg75
g1563
sg68
(lp1579
g61
(g62
g63
NtRp1580
(dp1581
g66
(dp1582
g74
I4
ssg75
g1576
sg68
(lp1583
S'http'
p1584
asbasbasbag61
(g77
g63
NtRp1585
(dp1586
g66
(dp1587
sg75
g665
sg68
(lp1588
g61
(g82
g63
NtRp1589
(dp1590
g66
(dp1591
g86
g87
ssg75
g1585
sg68
(lp1592
S'wsgi_version'
p1593
asbag61
(g82
g63
NtRp1594
(dp1595
g66
(dp1596
g93
g94
ssg75
g1585
sg68
(lp1597
S':'
asbag61
(g82
g63
NtRp1598
(dp1599
g66
(dp1600
sg75
g1585
sg68
(lp1601
g61
(g62
g63
NtRp1602
(dp1603
g66
(dp1604
g74
I4
ssg75
g1598
sg68
(lp1605
g61
(g70
g63
NtRp1606
(dp1607
g66
(dp1608
g74
I3
ssg75
Nsg68
(lp1609
g61
(g77
g63
NtRp1610
(dp1611
g66
(dp1612
sg75
g1606
sg68
(lp1613
g61
(g82
g63
NtRp1614
(dp1615
g66
(dp1616
sg75
g1610
sg68
(lp1617
g61
(g62
g63
NtRp1618
(dp1619
g66
(dp1620
g74
I3
ssg75
g1614
sg68
(lp1621
S'1'
asbasbasbag61
(g77
g63
NtRp1622
(dp1623
g66
(dp1624
sg75
g1606
sg68
(lp1625
g61
(g82
g63
NtRp1626
(dp1627
g66
(dp1628
sg75
g1622
sg68
(lp1629
g61
(g62
g63
NtRp1630
(dp1631
g66
(dp1632
g74
I3
ssg75
g1626
sg68
(lp1633
S'0'
asbasbasbasbasbasbasbasbasbasbasbag61
(g77
g63
NtRp1634
(dp1635
g66
(dp1636
sg75
g71
sg68
(lp1637
g61
(g82
g63
NtRp1638
(dp1639
g66
(dp1640
g86
g87
ssg75
g1634
sg68
(lp1641
S'extension'
p1642
asbag61
(g82
g63
NtRp1643
(dp1644
g66
(dp1645
g93
g94
ssg75
g1634
sg68
(lp1646
S':'
asbag61
(g82
g63
NtRp1647
(dp1648
g66
(dp1649
sg75
g1634
sg68
(lp1650
g61
(g62
g63
NtRp1651
(dp1652
g66
(dp1653
g74
I5
ssg75
g1647
sg68
(lp1654
S'html'
p1655
asbasbasbag61
(g77
g63
NtRp1656
(dp1657
g66
(dp1658
sg75
g71
sg68
(lp1659
g61
(g82
g63
NtRp1660
(dp1661
g66
(dp1662
g86
g87
ssg75
g1656
sg68
(lp1663
S'folder'
p1664
asbag61
(g82
g63
NtRp1665
(dp1666
g66
(dp1667
g93
g94
ssg75
g1656
sg68
(lp1668
S':'
asbag61
(g82
g63
NtRp1669
(dp1670
g66
(dp1671
sg75
g1656
sg68
(lp1672
g61
(g62
g63
NtRp1673
(dp1674
g66
(dp1675
g74
I5
ssg75
g1669
sg68
(lp1676
S'/var/www/web2py_curso/applications/projeto/'
p1677
asbasbasbag61
(g77
g63
NtRp1678
(dp1679
g66
(dp1680
sg75
g71
sg68
(lp1681
g61
(g82
g63
NtRp1682
(dp1683
g66
(dp1684
g86
g87
ssg75
g1678
sg68
(lp1685
S'function'
p1686
asbag61
(g82
g63
NtRp1687
(dp1688
g66
(dp1689
g93
g94
ssg75
g1678
sg68
(lp1690
S':'
asbag61
(g82
g63
NtRp1691
(dp1692
g66
(dp1693
sg75
g1678
sg68
(lp1694
g61
(g62
g63
NtRp1695
(dp1696
g66
(dp1697
g74
I5
ssg75
g1691
sg68
(lp1698
S'add'
p1699
asbasbasbag61
(g77
g63
NtRp1700
(dp1701
g66
(dp1702
sg75
g71
sg68
(lp1703
g61
(g82
g63
NtRp1704
(dp1705
g66
(dp1706
g86
g87
ssg75
g1700
sg68
(lp1707
S'get_vars'
p1708
asbag61
(g82
g63
NtRp1709
(dp1710
g66
(dp1711
g93
g94
ssg75
g1700
sg68
(lp1712
S':'
asbag61
(g82
g63
NtRp1713
(dp1714
g66
(dp1715
sg75
g1700
sg68
(lp1716
g61
(g62
g63
NtRp1717
(dp1718
g66
(dp1719
g74
I5
ssg75
g1713
sg68
(lp1720
g61
(g70
g63
NtRp1721
(dp1722
g66
(dp1723
g74
I4
ssg75
Nsg68
(lp1724
sbasbasbasbag61
(g77
g63
NtRp1725
(dp1726
g66
(dp1727
sg75
g71
sg68
(lp1728
g61
(g82
g63
NtRp1729
(dp1730
g66
(dp1731
g86
g87
ssg75
g1725
sg68
(lp1732
S'global_settings'
p1733
asbag61
(g82
g63
NtRp1734
(dp1735
g66
(dp1736
g93
g94
ssg75
g1725
sg68
(lp1737
S':'
asbag61
(g82
g63
NtRp1738
(dp1739
g66
(dp1740
sg75
g1725
sg68
(lp1741
g61
(g62
g63
NtRp1742
(dp1743
g66
(dp1744
g74
I5
ssg75
g1738
sg68
(lp1745
g61
(g70
g63
NtRp1746
(dp1747
g66
(dp1748
g74
I4
ssg75
Nsg68
(lp1749
g61
(g77
g63
NtRp1750
(dp1751
g66
(dp1752
sg75
g1746
sg68
(lp1753
g61
(g82
g63
NtRp1754
(dp1755
g66
(dp1756
g86
g87
ssg75
g1750
sg68
(lp1757
g677
asbag61
(g82
g63
NtRp1758
(dp1759
g66
(dp1760
g93
g94
ssg75
g1750
sg68
(lp1761
S':'
asbag61
(g82
g63
NtRp1762
(dp1763
g66
(dp1764
sg75
g1750
sg68
(lp1765
g61
(g62
g63
NtRp1766
(dp1767
g66
(dp1768
g74
I4
ssg75
g1762
sg68
(lp1769
S"set(['/var/www/web2py_curso/applications/projeto/'])"
p1770
asbasbasbag61
(g77
g63
NtRp1771
(dp1772
g66
(dp1773
sg75
g1746
sg68
(lp1774
g61
(g82
g63
NtRp1775
(dp1776
g66
(dp1777
g86
g87
ssg75
g1771
sg68
(lp1778
g699
asbag61
(g82
g63
NtRp1779
(dp1780
g66
(dp1781
g93
g94
ssg75
g1771
sg68
(lp1782
S':'
asbag61
(g82
g63
NtRp1783
(dp1784
g66
(dp1785
sg75
g1771
sg68
(lp1786
g61
(g62
g63
NtRp1787
(dp1788
g66
(dp1789
g74
I4
ssg75
g1783
sg68
(lp1790
g712
asbasbasbag61
(g77
g63
NtRp1791
(dp1792
g66
(dp1793
sg75
g1746
sg68
(lp1794
g61
(g82
g63
NtRp1795
(dp1796
g66
(dp1797
g86
g87
ssg75
g1791
sg68
(lp1798
g721
asbag61
(g82
g63
NtRp1799
(dp1800
g66
(dp1801
g93
g94
ssg75
g1791
sg68
(lp1802
S':'
asbag61
(g82
g63
NtRp1803
(dp1804
g66
(dp1805
sg75
g1791
sg68
(lp1806
g61
(g62
g63
NtRp1807
(dp1808
g66
(dp1809
g74
I4
ssg75
g1803
sg68
(lp1810
g61
(g70
g63
NtRp1811
(dp1812
g66
(dp1813
g74
I3
ssg75
Nsg68
(lp1814
sbasbasbasbag61
(g77
g63
NtRp1815
(dp1816
g66
(dp1817
sg75
g1746
sg68
(lp1818
g61
(g82
g63
NtRp1819
(dp1820
g66
(dp1821
g86
g87
ssg75
g1815
sg68
(lp1822
g746
asbag61
(g82
g63
NtRp1823
(dp1824
g66
(dp1825
g93
g94
ssg75
g1815
sg68
(lp1826
S':'
asbag61
(g82
g63
NtRp1827
(dp1828
g66
(dp1829
sg75
g1815
sg68
(lp1830
g61
(g62
g63
NtRp1831
(dp1832
g66
(dp1833
g74
I4
ssg75
g1827
sg68
(lp1834
S"<Values at 0x1b7d488: {'verbose': False, 'ip': '127.0.0.1', 'with_scheduler': False, 'ips': [], 'shutdown_timeout': 5, 'taskbar': False, 'port': 8000, 'maxthreads': None, 'softcron': False, 'server_name': 'fernado-desktop', 'bpython': False, 'nogui': False, 'pid_filename': 'httpserver.pid', 'extcron': False, 'runcron': False, 'run_system_tests': False, 'test': None, 'folder': '/var/www/web2py_curso', 'config': '', 'minthreads': None, 'winservice': '', 'shell': None, 'run': '', 'log_filename': 'httpserver.log', 'debuglevel': 30, 'args': [''], 'socket_timeout': 5, 'ssl_ca_certificate': None, 'scheduler': None, 'profiler_filename': None, 'ssl_private_key': '', 'scheduler_groups': None, 'password': '123456', 'request_queue_size': 5, 'ssl_certificate': '', 'cronjob': False, 'numthreads': None, 'quiet': False, 'interfaces': None, 'import_models': False, 'timeout': 10, 'plain': False, 'nobanner': False}>"
p1835
asbasbasbag61
(g77
g63
NtRp1836
(dp1837
g66
(dp1838
sg75
g1746
sg68
(lp1839
g61
(g82
g63
NtRp1840
(dp1841
g66
(dp1842
g86
g87
ssg75
g1836
sg68
(lp1843
g768
asbag61
(g82
g63
NtRp1844
(dp1845
g66
(dp1846
g93
g94
ssg75
g1836
sg68
(lp1847
S':'
asbag61
(g82
g63
NtRp1848
(dp1849
g66
(dp1850
sg75
g1836
sg68
(lp1851
g61
(g62
g63
NtRp1852
(dp1853
g66
(dp1854
g74
I4
ssg75
g1848
sg68
(lp1855
S'set([])'
p1856
asbasbasbag61
(g77
g63
NtRp1857
(dp1858
g66
(dp1859
sg75
g1746
sg68
(lp1860
g61
(g82
g63
NtRp1861
(dp1862
g66
(dp1863
g86
g87
ssg75
g1857
sg68
(lp1864
g790
asbag61
(g82
g63
NtRp1865
(dp1866
g66
(dp1867
g93
g94
ssg75
g1857
sg68
(lp1868
S':'
asbag61
(g82
g63
NtRp1869
(dp1870
g66
(dp1871
sg75
g1857
sg68
(lp1872
g61
(g62
g63
NtRp1873
(dp1874
g66
(dp1875
g74
I4
ssg75
g1869
sg68
(lp1876
g104
asbasbasbag61
(g77
g63
NtRp1877
(dp1878
g66
(dp1879
sg75
g1746
sg68
(lp1880
g61
(g82
g63
NtRp1881
(dp1882
g66
(dp1883
g86
g87
ssg75
g1877
sg68
(lp1884
g811
asbag61
(g82
g63
NtRp1885
(dp1886
g66
(dp1887
g93
g94
ssg75
g1877
sg68
(lp1888
S':'
asbag61
(g82
g63
NtRp1889
(dp1890
g66
(dp1891
sg75
g1877
sg68
(lp1892
g61
(g62
g63
NtRp1893
(dp1894
g66
(dp1895
g74
I4
ssg75
g1889
sg68
(lp1896
g824
asbasbasbag61
(g77
g63
NtRp1897
(dp1898
g66
(dp1899
sg75
g1746
sg68
(lp1900
g61
(g82
g63
NtRp1901
(dp1902
g66
(dp1903
g86
g87
ssg75
g1897
sg68
(lp1904
g1031
asbag61
(g82
g63
NtRp1905
(dp1906
g66
(dp1907
g93
g94
ssg75
g1897
sg68
(lp1908
S':'
asbag61
(g82
g63
NtRp1909
(dp1910
g66
(dp1911
sg75
g1897
sg68
(lp1912
g61
(g62
g63
NtRp1913
(dp1914
g66
(dp1915
g74
I4
ssg75
g1909
sg68
(lp1916
g104
asbasbasbag61
(g77
g63
NtRp1917
(dp1918
g66
(dp1919
sg75
g1746
sg68
(lp1920
g61
(g82
g63
NtRp1921
(dp1922
g66
(dp1923
g86
g87
ssg75
g1917
sg68
(lp1924
g1052
asbag61
(g82
g63
NtRp1925
(dp1926
g66
(dp1927
g93
g94
ssg75
g1917
sg68
(lp1928
S':'
asbag61
(g82
g63
NtRp1929
(dp1930
g66
(dp1931
sg75
g1917
sg68
(lp1932
g61
(g62
g63
NtRp1933
(dp1934
g66
(dp1935
g74
I4
ssg75
g1929
sg68
(lp1936
g104
asbasbasbag61
(g77
g63
NtRp1937
(dp1938
g66
(dp1939
sg75
g1746
sg68
(lp1940
g61
(g82
g63
NtRp1941
(dp1942
g66
(dp1943
g86
g87
ssg75
g1937
sg68
(lp1944
S'local_hosts'
p1945
asbag61
(g82
g63
NtRp1946
(dp1947
g66
(dp1948
g93
g94
ssg75
g1937
sg68
(lp1949
S':'
asbag61
(g82
g63
NtRp1950
(dp1951
g66
(dp1952
sg75
g1937
sg68
(lp1953
g61
(g62
g63
NtRp1954
(dp1955
g66
(dp1956
g74
I4
ssg75
g1950
sg68
(lp1957
g61
(g70
g63
NtRp1958
(dp1959
g66
(dp1960
g74
I3
ssg75
Nsg68
(lp1961
g61
(g77
g63
NtRp1962
(dp1963
g66
(dp1964
sg75
g1958
sg68
(lp1965
g61
(g82
g63
NtRp1966
(dp1967
g66
(dp1968
sg75
g1962
sg68
(lp1969
g61
(g62
g63
NtRp1970
(dp1971
g66
(dp1972
g74
I3
ssg75
g1966
sg68
(lp1973
S'127.0.1.1'
p1974
asbasbasbag61
(g77
g63
NtRp1975
(dp1976
g66
(dp1977
sg75
g1958
sg68
(lp1978
g61
(g82
g63
NtRp1979
(dp1980
g66
(dp1981
sg75
g1975
sg68
(lp1982
g61
(g62
g63
NtRp1983
(dp1984
g66
(dp1985
g74
I3
ssg75
g1979
sg68
(lp1986
S'::1'
p1987
asbasbasbag61
(g77
g63
NtRp1988
(dp1989
g66
(dp1990
sg75
g1958
sg68
(lp1991
g61
(g82
g63
NtRp1992
(dp1993
g66
(dp1994
sg75
g1988
sg68
(lp1995
g61
(g62
g63
NtRp1996
(dp1997
g66
(dp1998
g74
I3
ssg75
g1992
sg68
(lp1999
S'fernado-desktop'
p2000
asbasbasbag61
(g77
g63
NtRp2001
(dp2002
g66
(dp2003
sg75
g1958
sg68
(lp2004
g61
(g82
g63
NtRp2005
(dp2006
g66
(dp2007
sg75
g2001
sg68
(lp2008
g61
(g62
g63
NtRp2009
(dp2010
g66
(dp2011
g74
I3
ssg75
g2005
sg68
(lp2012
S'::ffff:127.0.0.1'
p2013
asbasbasbag61
(g77
g63
NtRp2014
(dp2015
g66
(dp2016
sg75
g1958
sg68
(lp2017
g61
(g82
g63
NtRp2018
(dp2019
g66
(dp2020
sg75
g2014
sg68
(lp2021
g61
(g62
g63
NtRp2022
(dp2023
g66
(dp2024
g74
I3
ssg75
g2018
sg68
(lp2025
S'127.0.0.1'
p2026
asbasbasbasbasbasbasbag61
(g77
g63
NtRp2027
(dp2028
g66
(dp2029
sg75
g1746
sg68
(lp2030
g61
(g82
g63
NtRp2031
(dp2032
g66
(dp2033
g86
g87
ssg75
g2027
sg68
(lp2034
g1354
asbag61
(g82
g63
NtRp2035
(dp2036
g66
(dp2037
g93
g94
ssg75
g2027
sg68
(lp2038
S':'
asbag61
(g82
g63
NtRp2039
(dp2040
g66
(dp2041
sg75
g2027
sg68
(lp2042
g61
(g62
g63
NtRp2043
(dp2044
g66
(dp2045
g74
I4
ssg75
g2039
sg68
(lp2046
g61
(g70
g63
NtRp2047
(dp2048
g66
(dp2049
g74
I3
ssg75
Nsg68
(lp2050
g61
(g77
g63
NtRp2051
(dp2052
g66
(dp2053
sg75
g2047
sg68
(lp2054
g61
(g82
g63
NtRp2055
(dp2056
g66
(dp2057
sg75
g2051
sg68
(lp2058
g61
(g62
g63
NtRp2059
(dp2060
g66
(dp2061
g74
I3
ssg75
g2055
sg68
(lp2062
S'2'
asbasbasbag61
(g77
g63
NtRp2063
(dp2064
g66
(dp2065
sg75
g2047
sg68
(lp2066
g61
(g82
g63
NtRp2067
(dp2068
g66
(dp2069
sg75
g2063
sg68
(lp2070
g61
(g62
g63
NtRp2071
(dp2072
g66
(dp2073
g74
I3
ssg75
g2067
sg68
(lp2074
S'3'
asbasbasbag61
(g77
g63
NtRp2075
(dp2076
g66
(dp2077
sg75
g2047
sg68
(lp2078
g61
(g82
g63
NtRp2079
(dp2080
g66
(dp2081
sg75
g2075
sg68
(lp2082
g61
(g62
g63
NtRp2083
(dp2084
g66
(dp2085
g74
I3
ssg75
g2079
sg68
(lp2086
S'2'
asbasbasbag61
(g77
g63
NtRp2087
(dp2088
g66
(dp2089
sg75
g2047
sg68
(lp2090
g61
(g82
g63
NtRp2091
(dp2092
g66
(dp2093
sg75
g2087
sg68
(lp2094
g61
(g62
g63
NtRp2095
(dp2096
g66
(dp2097
g74
I3
ssg75
g2091
sg68
(lp2098
S'datetime.datetime(2012, 12, 17, 15, 3, 30)'
p2099
asbasbasbag61
(g77
g63
NtRp2100
(dp2101
g66
(dp2102
sg75
g2047
sg68
(lp2103
g61
(g82
g63
NtRp2104
(dp2105
g66
(dp2106
sg75
g2100
sg68
(lp2107
g61
(g62
g63
NtRp2108
(dp2109
g66
(dp2110
g74
I3
ssg75
g2104
sg68
(lp2111
g1432
asbasbasbasbasbasbasbasbasbasbasbag61
(g77
g63
NtRp2112
(dp2113
g66
(dp2114
sg75
g71
sg68
(lp2115
g61
(g82
g63
NtRp2116
(dp2117
g66
(dp2118
g86
g87
ssg75
g2112
sg68
(lp2119
S'is_https'
p2120
asbag61
(g82
g63
NtRp2121
(dp2122
g66
(dp2123
g93
g94
ssg75
g2112
sg68
(lp2124
S':'
asbag61
(g82
g63
NtRp2125
(dp2126
g66
(dp2127
sg75
g2112
sg68
(lp2128
g61
(g62
g63
NtRp2129
(dp2130
g66
(dp2131
g74
I5
ssg75
g2125
sg68
(lp2132
g104
asbasbasbag61
(g77
g63
NtRp2133
(dp2134
g66
(dp2135
sg75
g71
sg68
(lp2136
g61
(g82
g63
NtRp2137
(dp2138
g66
(dp2139
g86
g87
ssg75
g2133
sg68
(lp2140
S'is_local'
p2141
asbag61
(g82
g63
NtRp2142
(dp2143
g66
(dp2144
g93
g94
ssg75
g2133
sg68
(lp2145
S':'
asbag61
(g82
g63
NtRp2146
(dp2147
g66
(dp2148
sg75
g2133
sg68
(lp2149
g61
(g62
g63
NtRp2150
(dp2151
g66
(dp2152
g74
I5
ssg75
g2146
sg68
(lp2153
g1541
asbasbasbag61
(g77
g63
NtRp2154
(dp2155
g66
(dp2156
sg75
g71
sg68
(lp2157
g61
(g82
g63
NtRp2158
(dp2159
g66
(dp2160
g86
g87
ssg75
g2154
sg68
(lp2161
S'is_restful'
p2162
asbag61
(g82
g63
NtRp2163
(dp2164
g66
(dp2165
g93
g94
ssg75
g2154
sg68
(lp2166
S':'
asbag61
(g82
g63
NtRp2167
(dp2168
g66
(dp2169
sg75
g2154
sg68
(lp2170
g61
(g62
g63
NtRp2171
(dp2172
g66
(dp2173
g74
I5
ssg75
g2167
sg68
(lp2174
g104
asbasbasbag61
(g77
g63
NtRp2175
(dp2176
g66
(dp2177
sg75
g71
sg68
(lp2178
g61
(g82
g63
NtRp2179
(dp2180
g66
(dp2181
g86
g87
ssg75
g2175
sg68
(lp2182
S'now'
p2183
asbag61
(g82
g63
NtRp2184
(dp2185
g66
(dp2186
g93
g94
ssg75
g2175
sg68
(lp2187
S':'
asbag61
(g82
g63
NtRp2188
(dp2189
g66
(dp2190
sg75
g2175
sg68
(lp2191
g61
(g62
g63
NtRp2192
(dp2193
g66
(dp2194
g74
I5
ssg75
g2188
sg68
(lp2195
S'datetime.datetime(2013, 1, 24, 9, 23, 19, 264172)'
p2196
asbasbasbag61
(g77
g63
NtRp2197
(dp2198
g66
(dp2199
sg75
g71
sg68
(lp2200
g61
(g82
g63
NtRp2201
(dp2202
g66
(dp2203
g86
g87
ssg75
g2197
sg68
(lp2204
S'post_vars'
p2205
asbag61
(g82
g63
NtRp2206
(dp2207
g66
(dp2208
g93
g94
ssg75
g2197
sg68
(lp2209
S':'
asbag61
(g82
g63
NtRp2210
(dp2211
g66
(dp2212
sg75
g2197
sg68
(lp2213
g61
(g62
g63
NtRp2214
(dp2215
g66
(dp2216
g74
I5
ssg75
g2210
sg68
(lp2217
g61
(g70
g63
NtRp2218
(dp2219
g66
(dp2220
g74
I4
ssg75
Nsg68
(lp2221
sbasbasbasbag61
(g77
g63
NtRp2222
(dp2223
g66
(dp2224
sg75
g71
sg68
(lp2225
g61
(g82
g63
NtRp2226
(dp2227
g66
(dp2228
g86
g87
ssg75
g2222
sg68
(lp2229
S'url'
p2230
asbag61
(g82
g63
NtRp2231
(dp2232
g66
(dp2233
g93
g94
ssg75
g2222
sg68
(lp2234
S':'
asbag61
(g82
g63
NtRp2235
(dp2236
g66
(dp2237
sg75
g2222
sg68
(lp2238
g61
(g62
g63
NtRp2239
(dp2240
g66
(dp2241
g74
I5
ssg75
g2235
sg68
(lp2242
g1086
asbasbasbag61
(g77
g63
NtRp2243
(dp2244
g66
(dp2245
sg75
g71
sg68
(lp2246
g61
(g82
g63
NtRp2247
(dp2248
g66
(dp2249
g86
g87
ssg75
g2243
sg68
(lp2250
S'utcnow'
p2251
asbag61
(g82
g63
NtRp2252
(dp2253
g66
(dp2254
g93
g94
ssg75
g2243
sg68
(lp2255
S':'
asbag61
(g82
g63
NtRp2256
(dp2257
g66
(dp2258
sg75
g2243
sg68
(lp2259
g61
(g62
g63
NtRp2260
(dp2261
g66
(dp2262
g74
I5
ssg75
g2256
sg68
(lp2263
S'datetime.datetime(2013, 1, 24, 11, 23, 19, 264219)'
p2264
asbasbasbag61
(g77
g63
NtRp2265
(dp2266
g66
(dp2267
sg75
g71
sg68
(lp2268
g61
(g82
g63
NtRp2269
(dp2270
g66
(dp2271
g86
g87
ssg75
g2265
sg68
(lp2272
S'uuid'
p2273
asbag61
(g82
g63
NtRp2274
(dp2275
g66
(dp2276
g93
g94
ssg75
g2265
sg68
(lp2277
S':'
asbag61
(g82
g63
NtRp2278
(dp2279
g66
(dp2280
sg75
g2265
sg68
(lp2281
g61
(g62
g63
NtRp2282
(dp2283
g66
(dp2284
g74
I5
ssg75
g2278
sg68
(lp2285
S'projeto/127.0.0.1.2013-01-24.09-23-19.9b465be9-abac-4592-aa3c-0f73942b68be'
p2286
asbasbasbag61
(g77
g63
NtRp2287
(dp2288
g66
(dp2289
sg75
g71
sg68
(lp2290
g61
(g82
g63
NtRp2291
(dp2292
g66
(dp2293
g86
g87
ssg75
g2287
sg68
(lp2294
S'vars'
p2295
asbag61
(g82
g63
NtRp2296
(dp2297
g66
(dp2298
g93
g94
ssg75
g2287
sg68
(lp2299
S':'
asbag61
(g82
g63
NtRp2300
(dp2301
g66
(dp2302
sg75
g2287
sg68
(lp2303
g61
(g62
g63
NtRp2304
(dp2305
g66
(dp2306
g74
I5
ssg75
g2300
sg68
(lp2307
g61
(g70
g63
NtRp2308
(dp2309
g66
(dp2310
g74
I4
ssg75
Nsg68
(lp2311
sbasbasbasbag61
(g77
g63
NtRp2312
(dp2313
g66
(dp2314
sg75
g71
sg68
(lp2315
g61
(g82
g63
NtRp2316
(dp2317
g66
(dp2318
g86
g87
ssg75
g2312
sg68
(lp2319
S'wsgi'
p2320
asbag61
(g82
g63
NtRp2321
(dp2322
g66
(dp2323
g93
g94
ssg75
g2312
sg68
(lp2324
S':'
asbag61
(g82
g63
NtRp2325
(dp2326
g66
(dp2327
sg75
g2312
sg68
(lp2328
g61
(g62
g63
NtRp2329
(dp2330
g66
(dp2331
g74
I5
ssg75
g2325
sg68
(lp2332
g61
(g70
g63
NtRp2333
(dp2334
g66
(dp2335
g74
I4
ssg75
Nsg68
(lp2336
g61
(g77
g63
NtRp2337
(dp2338
g66
(dp2339
sg75
g2333
sg68
(lp2340
g61
(g82
g63
NtRp2341
(dp2342
g66
(dp2343
g86
g87
ssg75
g2337
sg68
(lp2344
S'environ'
p2345
asbag61
(g82
g63
NtRp2346
(dp2347
g66
(dp2348
g93
g94
ssg75
g2337
sg68
(lp2349
S':'
asbag61
(g82
g63
NtRp2350
(dp2351
g66
(dp2352
sg75
g2337
sg68
(lp2353
g61
(g62
g63
NtRp2354
(dp2355
g66
(dp2356
g74
I4
ssg75
g2350
sg68
(lp2357
g61
(g70
g63
NtRp2358
(dp2359
g66
(dp2360
g74
I3
ssg75
Nsg68
(lp2361
g61
(g77
g63
NtRp2362
(dp2363
g66
(dp2364
sg75
g2358
sg68
(lp2365
g61
(g82
g63
NtRp2366
(dp2367
g66
(dp2368
g86
g87
ssg75
g2362
sg68
(lp2369
S'HTTP_ACCEPT'
p2370
asbag61
(g82
g63
NtRp2371
(dp2372
g66
(dp2373
g93
g94
ssg75
g2362
sg68
(lp2374
S':'
asbag61
(g82
g63
NtRp2375
(dp2376
g66
(dp2377
sg75
g2362
sg68
(lp2378
g61
(g62
g63
NtRp2379
(dp2380
g66
(dp2381
g74
I3
ssg75
g2375
sg68
(lp2382
g846
asbasbasbag61
(g77
g63
NtRp2383
(dp2384
g66
(dp2385
sg75
g2358
sg68
(lp2386
g61
(g82
g63
NtRp2387
(dp2388
g66
(dp2389
g86
g87
ssg75
g2383
sg68
(lp2390
S'HTTP_ACCEPT_CHARSET'
p2391
asbag61
(g82
g63
NtRp2392
(dp2393
g66
(dp2394
g93
g94
ssg75
g2383
sg68
(lp2395
S':'
asbag61
(g82
g63
NtRp2396
(dp2397
g66
(dp2398
sg75
g2383
sg68
(lp2399
g61
(g62
g63
NtRp2400
(dp2401
g66
(dp2402
g74
I3
ssg75
g2396
sg68
(lp2403
g868
asbasbasbag61
(g77
g63
NtRp2404
(dp2405
g66
(dp2406
sg75
g2358
sg68
(lp2407
g61
(g82
g63
NtRp2408
(dp2409
g66
(dp2410
g86
g87
ssg75
g2404
sg68
(lp2411
S'HTTP_ACCEPT_ENCODING'
p2412
asbag61
(g82
g63
NtRp2413
(dp2414
g66
(dp2415
g93
g94
ssg75
g2404
sg68
(lp2416
S':'
asbag61
(g82
g63
NtRp2417
(dp2418
g66
(dp2419
sg75
g2404
sg68
(lp2420
g61
(g62
g63
NtRp2421
(dp2422
g66
(dp2423
g74
I3
ssg75
g2417
sg68
(lp2424
g890
asbasbasbag61
(g77
g63
NtRp2425
(dp2426
g66
(dp2427
sg75
g2358
sg68
(lp2428
g61
(g82
g63
NtRp2429
(dp2430
g66
(dp2431
g86
g87
ssg75
g2425
sg68
(lp2432
S'HTTP_ACCEPT_LANGUAGE'
p2433
asbag61
(g82
g63
NtRp2434
(dp2435
g66
(dp2436
g93
g94
ssg75
g2425
sg68
(lp2437
S':'
asbag61
(g82
g63
NtRp2438
(dp2439
g66
(dp2440
sg75
g2425
sg68
(lp2441
g61
(g62
g63
NtRp2442
(dp2443
g66
(dp2444
g74
I3
ssg75
g2438
sg68
(lp2445
g912
asbasbasbag61
(g77
g63
NtRp2446
(dp2447
g66
(dp2448
sg75
g2358
sg68
(lp2449
g61
(g82
g63
NtRp2450
(dp2451
g66
(dp2452
g86
g87
ssg75
g2446
sg68
(lp2453
S'HTTP_CACHE_CONTROL'
p2454
asbag61
(g82
g63
NtRp2455
(dp2456
g66
(dp2457
g93
g94
ssg75
g2446
sg68
(lp2458
S':'
asbag61
(g82
g63
NtRp2459
(dp2460
g66
(dp2461
sg75
g2446
sg68
(lp2462
g61
(g62
g63
NtRp2463
(dp2464
g66
(dp2465
g74
I3
ssg75
g2459
sg68
(lp2466
g934
asbasbasbag61
(g77
g63
NtRp2467
(dp2468
g66
(dp2469
sg75
g2358
sg68
(lp2470
g61
(g82
g63
NtRp2471
(dp2472
g66
(dp2473
g86
g87
ssg75
g2467
sg68
(lp2474
S'HTTP_CONNECTION'
p2475
asbag61
(g82
g63
NtRp2476
(dp2477
g66
(dp2478
g93
g94
ssg75
g2467
sg68
(lp2479
S':'
asbag61
(g82
g63
NtRp2480
(dp2481
g66
(dp2482
sg75
g2467
sg68
(lp2483
g61
(g62
g63
NtRp2484
(dp2485
g66
(dp2486
g74
I3
ssg75
g2480
sg68
(lp2487
g956
asbasbasbag61
(g77
g63
NtRp2488
(dp2489
g66
(dp2490
sg75
g2358
sg68
(lp2491
g61
(g82
g63
NtRp2492
(dp2493
g66
(dp2494
g86
g87
ssg75
g2488
sg68
(lp2495
S'HTTP_COOKIE'
p2496
asbag61
(g82
g63
NtRp2497
(dp2498
g66
(dp2499
g93
g94
ssg75
g2488
sg68
(lp2500
S':'
asbag61
(g82
g63
NtRp2501
(dp2502
g66
(dp2503
sg75
g2488
sg68
(lp2504
g61
(g62
g63
NtRp2505
(dp2506
g66
(dp2507
g74
I3
ssg75
g2501
sg68
(lp2508
g978
asbasbasbag61
(g77
g63
NtRp2509
(dp2510
g66
(dp2511
sg75
g2358
sg68
(lp2512
g61
(g82
g63
NtRp2513
(dp2514
g66
(dp2515
g86
g87
ssg75
g2509
sg68
(lp2516
S'HTTP_HOST'
p2517
asbag61
(g82
g63
NtRp2518
(dp2519
g66
(dp2520
g93
g94
ssg75
g2509
sg68
(lp2521
S':'
asbag61
(g82
g63
NtRp2522
(dp2523
g66
(dp2524
sg75
g2509
sg68
(lp2525
g61
(g62
g63
NtRp2526
(dp2527
g66
(dp2528
g74
I3
ssg75
g2522
sg68
(lp2529
g1000
asbasbasbag61
(g77
g63
NtRp2530
(dp2531
g66
(dp2532
sg75
g2358
sg68
(lp2533
g61
(g82
g63
NtRp2534
(dp2535
g66
(dp2536
g86
g87
ssg75
g2530
sg68
(lp2537
S'HTTP_USER_AGENT'
p2538
asbag61
(g82
g63
NtRp2539
(dp2540
g66
(dp2541
g93
g94
ssg75
g2530
sg68
(lp2542
S':'
asbag61
(g82
g63
NtRp2543
(dp2544
g66
(dp2545
sg75
g2530
sg68
(lp2546
g61
(g62
g63
NtRp2547
(dp2548
g66
(dp2549
g74
I3
ssg75
g2543
sg68
(lp2550
g1022
asbasbasbag61
(g77
g63
NtRp2551
(dp2552
g66
(dp2553
sg75
g2358
sg68
(lp2554
g61
(g82
g63
NtRp2555
(dp2556
g66
(dp2557
g86
g87
ssg75
g2551
sg68
(lp2558
S'PATH_INFO'
p2559
asbag61
(g82
g63
NtRp2560
(dp2561
g66
(dp2562
g93
g94
ssg75
g2551
sg68
(lp2563
S':'
asbag61
(g82
g63
NtRp2564
(dp2565
g66
(dp2566
sg75
g2551
sg68
(lp2567
g61
(g62
g63
NtRp2568
(dp2569
g66
(dp2570
g74
I3
ssg75
g2564
sg68
(lp2571
g1086
asbasbasbag61
(g77
g63
NtRp2572
(dp2573
g66
(dp2574
sg75
g2358
sg68
(lp2575
g61
(g82
g63
NtRp2576
(dp2577
g66
(dp2578
g86
g87
ssg75
g2572
sg68
(lp2579
S'QUERY_STRING'
p2580
asbag61
(g82
g63
NtRp2581
(dp2582
g66
(dp2583
g93
g94
ssg75
g2572
sg68
(lp2584
S':'
asbag61
(g82
g63
NtRp2585
(dp2586
g66
(dp2587
sg75
g2572
sg68
(lp2588
g61
(g62
g63
NtRp2589
(dp2590
g66
(dp2591
g74
I3
ssg75
g2585
sg68
(lp2592
S''
asbasbasbag61
(g77
g63
NtRp2593
(dp2594
g66
(dp2595
sg75
g2358
sg68
(lp2596
g61
(g82
g63
NtRp2597
(dp2598
g66
(dp2599
g86
g87
ssg75
g2593
sg68
(lp2600
S'REMOTE_ADDR'
p2601
asbag61
(g82
g63
NtRp2602
(dp2603
g66
(dp2604
g93
g94
ssg75
g2593
sg68
(lp2605
S':'
asbag61
(g82
g63
NtRp2606
(dp2607
g66
(dp2608
sg75
g2593
sg68
(lp2609
g61
(g62
g63
NtRp2610
(dp2611
g66
(dp2612
g74
I3
ssg75
g2606
sg68
(lp2613
g216
asbasbasbag61
(g77
g63
NtRp2614
(dp2615
g66
(dp2616
sg75
g2358
sg68
(lp2617
g61
(g82
g63
NtRp2618
(dp2619
g66
(dp2620
g86
g87
ssg75
g2614
sg68
(lp2621
S'REMOTE_PORT'
p2622
asbag61
(g82
g63
NtRp2623
(dp2624
g66
(dp2625
g93
g94
ssg75
g2614
sg68
(lp2626
S':'
asbag61
(g82
g63
NtRp2627
(dp2628
g66
(dp2629
sg75
g2614
sg68
(lp2630
g61
(g62
g63
NtRp2631
(dp2632
g66
(dp2633
g74
I3
ssg75
g2627
sg68
(lp2634
g1150
asbasbasbag61
(g77
g63
NtRp2635
(dp2636
g66
(dp2637
sg75
g2358
sg68
(lp2638
g61
(g82
g63
NtRp2639
(dp2640
g66
(dp2641
g86
g87
ssg75
g2635
sg68
(lp2642
S'REQUEST_METHOD'
p2643
asbag61
(g82
g63
NtRp2644
(dp2645
g66
(dp2646
g93
g94
ssg75
g2635
sg68
(lp2647
S':'
asbag61
(g82
g63
NtRp2648
(dp2649
g66
(dp2650
sg75
g2635
sg68
(lp2651
g61
(g62
g63
NtRp2652
(dp2653
g66
(dp2654
g74
I3
ssg75
g2648
sg68
(lp2655
g1172
asbasbasbag61
(g77
g63
NtRp2656
(dp2657
g66
(dp2658
sg75
g2358
sg68
(lp2659
g61
(g82
g63
NtRp2660
(dp2661
g66
(dp2662
g86
g87
ssg75
g2656
sg68
(lp2663
S'REQUEST_URI'
p2664
asbag61
(g82
g63
NtRp2665
(dp2666
g66
(dp2667
g93
g94
ssg75
g2656
sg68
(lp2668
S':'
asbag61
(g82
g63
NtRp2669
(dp2670
g66
(dp2671
sg75
g2656
sg68
(lp2672
g61
(g62
g63
NtRp2673
(dp2674
g66
(dp2675
g74
I3
ssg75
g2669
sg68
(lp2676
g1194
asbasbasbag61
(g77
g63
NtRp2677
(dp2678
g66
(dp2679
sg75
g2358
sg68
(lp2680
g61
(g82
g63
NtRp2681
(dp2682
g66
(dp2683
g86
g87
ssg75
g2677
sg68
(lp2684
S'SCRIPT_NAME'
p2685
asbag61
(g82
g63
NtRp2686
(dp2687
g66
(dp2688
g93
g94
ssg75
g2677
sg68
(lp2689
S':'
asbag61
(g82
g63
NtRp2690
(dp2691
g66
(dp2692
sg75
g2677
sg68
(lp2693
g61
(g62
g63
NtRp2694
(dp2695
g66
(dp2696
g74
I3
ssg75
g2690
sg68
(lp2697
S''
asbasbasbag61
(g77
g63
NtRp2698
(dp2699
g66
(dp2700
sg75
g2358
sg68
(lp2701
g61
(g82
g63
NtRp2702
(dp2703
g66
(dp2704
g86
g87
ssg75
g2698
sg68
(lp2705
S'SERVER_NAME'
p2706
asbag61
(g82
g63
NtRp2707
(dp2708
g66
(dp2709
g93
g94
ssg75
g2698
sg68
(lp2710
S':'
asbag61
(g82
g63
NtRp2711
(dp2712
g66
(dp2713
sg75
g2698
sg68
(lp2714
g61
(g62
g63
NtRp2715
(dp2716
g66
(dp2717
g74
I3
ssg75
g2711
sg68
(lp2718
g1237
asbasbasbag61
(g77
g63
NtRp2719
(dp2720
g66
(dp2721
sg75
g2358
sg68
(lp2722
g61
(g82
g63
NtRp2723
(dp2724
g66
(dp2725
g86
g87
ssg75
g2719
sg68
(lp2726
S'SERVER_PORT'
p2727
asbag61
(g82
g63
NtRp2728
(dp2729
g66
(dp2730
g93
g94
ssg75
g2719
sg68
(lp2731
S':'
asbag61
(g82
g63
NtRp2732
(dp2733
g66
(dp2734
sg75
g2719
sg68
(lp2735
g61
(g62
g63
NtRp2736
(dp2737
g66
(dp2738
g74
I3
ssg75
g2732
sg68
(lp2739
g1259
asbasbasbag61
(g77
g63
NtRp2740
(dp2741
g66
(dp2742
sg75
g2358
sg68
(lp2743
g61
(g82
g63
NtRp2744
(dp2745
g66
(dp2746
g86
g87
ssg75
g2740
sg68
(lp2747
S'SERVER_PROTOCOL'
p2748
asbag61
(g82
g63
NtRp2749
(dp2750
g66
(dp2751
g93
g94
ssg75
g2740
sg68
(lp2752
S':'
asbag61
(g82
g63
NtRp2753
(dp2754
g66
(dp2755
sg75
g2740
sg68
(lp2756
g61
(g62
g63
NtRp2757
(dp2758
g66
(dp2759
g74
I3
ssg75
g2753
sg68
(lp2760
g1281
asbasbasbag61
(g77
g63
NtRp2761
(dp2762
g66
(dp2763
sg75
g2358
sg68
(lp2764
g61
(g82
g63
NtRp2765
(dp2766
g66
(dp2767
g86
g87
ssg75
g2761
sg68
(lp2768
S'SERVER_SOFTWARE'
p2769
asbag61
(g82
g63
NtRp2770
(dp2771
g66
(dp2772
g93
g94
ssg75
g2761
sg68
(lp2773
S':'
asbag61
(g82
g63
NtRp2774
(dp2775
g66
(dp2776
sg75
g2761
sg68
(lp2777
g61
(g62
g63
NtRp2778
(dp2779
g66
(dp2780
g74
I3
ssg75
g2774
sg68
(lp2781
g1303
asbasbasbag61
(g77
g63
NtRp2782
(dp2783
g66
(dp2784
sg75
g2358
sg68
(lp2785
g61
(g82
g63
NtRp2786
(dp2787
g66
(dp2788
g86
g87
ssg75
g2782
sg68
(lp2789
S'WEB2PY_ORIGINAL_URI'
p2790
asbag61
(g82
g63
NtRp2791
(dp2792
g66
(dp2793
g93
g94
ssg75
g2782
sg68
(lp2794
S':'
asbag61
(g82
g63
NtRp2795
(dp2796
g66
(dp2797
sg75
g2782
sg68
(lp2798
g61
(g62
g63
NtRp2799
(dp2800
g66
(dp2801
g74
I3
ssg75
g2795
sg68
(lp2802
g1086
asbasbasbag61
(g77
g63
NtRp2803
(dp2804
g66
(dp2805
sg75
g2358
sg68
(lp2806
g61
(g82
g63
NtRp2807
(dp2808
g66
(dp2809
g86
g87
ssg75
g2803
sg68
(lp2810
S'wsgi.errors'
p2811
asbag61
(g82
g63
NtRp2812
(dp2813
g66
(dp2814
g93
g94
ssg75
g2803
sg68
(lp2815
S':'
asbag61
(g82
g63
NtRp2816
(dp2817
g66
(dp2818
sg75
g2803
sg68
(lp2819
g61
(g62
g63
NtRp2820
(dp2821
g66
(dp2822
g74
I3
ssg75
g2816
sg68
(lp2823
S"<open file '<stderr>', mode 'w' at 0x7f98eb889270>"
p2824
asbasbasbag61
(g77
g63
NtRp2825
(dp2826
g66
(dp2827
sg75
g2358
sg68
(lp2828
g61
(g82
g63
NtRp2829
(dp2830
g66
(dp2831
g86
g87
ssg75
g2825
sg68
(lp2832
S'wsgi.file_wrapper'
p2833
asbag61
(g82
g63
NtRp2834
(dp2835
g66
(dp2836
g93
g94
ssg75
g2825
sg68
(lp2837
S':'
asbag61
(g82
g63
NtRp2838
(dp2839
g66
(dp2840
sg75
g2825
sg68
(lp2841
g61
(g62
g63
NtRp2842
(dp2843
g66
(dp2844
g74
I3
ssg75
g2838
sg68
(lp2845
S'<class wsgiref.util.FileWrapper at 0x1ad2a10>'
p2846
asbasbasbag61
(g77
g63
NtRp2847
(dp2848
g66
(dp2849
sg75
g2358
sg68
(lp2850
g61
(g82
g63
NtRp2851
(dp2852
g66
(dp2853
g86
g87
ssg75
g2847
sg68
(lp2854
S'wsgi.input'
p2855
asbag61
(g82
g63
NtRp2856
(dp2857
g66
(dp2858
g93
g94
ssg75
g2847
sg68
(lp2859
S':'
asbag61
(g82
g63
NtRp2860
(dp2861
g66
(dp2862
sg75
g2847
sg68
(lp2863
g61
(g62
g63
NtRp2864
(dp2865
g66
(dp2866
g74
I3
ssg75
g2860
sg68
(lp2867
S'<cStringIO.StringO object at 0x1b9e298>'
p2868
asbasbasbag61
(g77
g63
NtRp2869
(dp2870
g66
(dp2871
sg75
g2358
sg68
(lp2872
g61
(g82
g63
NtRp2873
(dp2874
g66
(dp2875
g86
g87
ssg75
g2869
sg68
(lp2876
S'wsgi.multiprocess'
p2877
asbag61
(g82
g63
NtRp2878
(dp2879
g66
(dp2880
g93
g94
ssg75
g2869
sg68
(lp2881
S':'
asbag61
(g82
g63
NtRp2882
(dp2883
g66
(dp2884
sg75
g2869
sg68
(lp2885
g61
(g62
g63
NtRp2886
(dp2887
g66
(dp2888
g74
I3
ssg75
g2882
sg68
(lp2889
g104
asbasbasbag61
(g77
g63
NtRp2890
(dp2891
g66
(dp2892
sg75
g2358
sg68
(lp2893
g61
(g82
g63
NtRp2894
(dp2895
g66
(dp2896
g86
g87
ssg75
g2890
sg68
(lp2897
S'wsgi.multithread'
p2898
asbag61
(g82
g63
NtRp2899
(dp2900
g66
(dp2901
g93
g94
ssg75
g2890
sg68
(lp2902
S':'
asbag61
(g82
g63
NtRp2903
(dp2904
g66
(dp2905
sg75
g2890
sg68
(lp2906
g61
(g62
g63
NtRp2907
(dp2908
g66
(dp2909
g74
I3
ssg75
g2903
sg68
(lp2910
g1541
asbasbasbag61
(g77
g63
NtRp2911
(dp2912
g66
(dp2913
sg75
g2358
sg68
(lp2914
g61
(g82
g63
NtRp2915
(dp2916
g66
(dp2917
g86
g87
ssg75
g2911
sg68
(lp2918
S'wsgi.run_once'
p2919
asbag61
(g82
g63
NtRp2920
(dp2921
g66
(dp2922
g93
g94
ssg75
g2911
sg68
(lp2923
S':'
asbag61
(g82
g63
NtRp2924
(dp2925
g66
(dp2926
sg75
g2911
sg68
(lp2927
g61
(g62
g63
NtRp2928
(dp2929
g66
(dp2930
g74
I3
ssg75
g2924
sg68
(lp2931
g104
asbasbasbag61
(g77
g63
NtRp2932
(dp2933
g66
(dp2934
sg75
g2358
sg68
(lp2935
g61
(g82
g63
NtRp2936
(dp2937
g66
(dp2938
g86
g87
ssg75
g2932
sg68
(lp2939
S'wsgi.url_scheme'
p2940
asbag61
(g82
g63
NtRp2941
(dp2942
g66
(dp2943
g93
g94
ssg75
g2932
sg68
(lp2944
S':'
asbag61
(g82
g63
NtRp2945
(dp2946
g66
(dp2947
sg75
g2932
sg68
(lp2948
g61
(g62
g63
NtRp2949
(dp2950
g66
(dp2951
g74
I3
ssg75
g2945
sg68
(lp2952
g1584
asbasbasbag61
(g77
g63
NtRp2953
(dp2954
g66
(dp2955
sg75
g2358
sg68
(lp2956
g61
(g82
g63
NtRp2957
(dp2958
g66
(dp2959
g86
g87
ssg75
g2953
sg68
(lp2960
S'wsgi.version'
p2961
asbag61
(g82
g63
NtRp2962
(dp2963
g66
(dp2964
g93
g94
ssg75
g2953
sg68
(lp2965
S':'
asbag61
(g82
g63
NtRp2966
(dp2967
g66
(dp2968
sg75
g2953
sg68
(lp2969
g61
(g62
g63
NtRp2970
(dp2971
g66
(dp2972
g74
I3
ssg75
g2966
sg68
(lp2973
S'1'
asbasbasbasbasbasbasbasbasbasbasbasbasbsS'frames'
p2974
(lp2975
(dp2976
S'file'
p2977
S'/var/www/web2py_curso/gluon/restricted.py'
p2978
sS'dump'
p2979
(dp2980
S'environment'
p2981
S"{'A': <class 'gluon.html.A'>, 'B': <class 'gluon.html.B'>, 'BEAUTIFY': <class 'gluon.html.BEAUTIFY'>, 'BODY': <class 'gluon.html.BODY'>, 'BR': <class 'gluon.html.BR'>, 'BUTTON': <class 'gluon.html.BUTTON'>, 'Blog': <Table blog (id,title,description)>, 'CAT': <class 'gluon.html.CAT'>, 'CENTER': <class 'gluon.html.CENTER'>, 'CLEANUP': <class 'gluon.validators.CLEANUP'>, ...}"
p2982
sS'ccode'
p2983
S'<code object <module> at 0x1c82030, file "/var/w...pplications/projeto/controllers/post.py", line 1>'
p2984
ssS'lnum'
p2985
I212
sS'lines'
p2986
(dp2987
I207
S'    try:'
p2988
sI208
S'        if isinstance(code, types.CodeType):'
p2989
sI209
S'            ccode = code'
p2990
sI210
S'        else:'
p2991
sI211
S'            ccode = compile2(code, layer)'
p2992
sI212
S'        exec ccode in environment'
p2993
sI213
S'    except HTTP:'
p2994
sI214
S'        raise'
p2995
sI215
S'    except RestrictedError:'
p2996
sI216
S'        # do not encapsulate (obfuscate) the original RestrictedError'
p2997
ssS'call'
p2998
S'(code=\'def show():\\n\\treturn "post"\\n\\ndef edit():\\n\\treturn ...turn "add"\\n\\nresponse._vars=response._caller(add)\\n\', environment={\'A\': <class \'gluon.html.A\'>, \'B\': <class \'gluon.html.B\'>, \'BEAUTIFY\': <class \'gluon.html.BEAUTIFY\'>, \'BODY\': <class \'gluon.html.BODY\'>, \'BR\': <class \'gluon.html.BR\'>, \'BUTTON\': <class \'gluon.html.BUTTON\'>, \'Blog\': <Table blog (id,title,description)>, \'CAT\': <class \'gluon.html.CAT\'>, \'CENTER\': <class \'gluon.html.CENTER\'>, \'CLEANUP\': <class \'gluon.validators.CLEANUP\'>, ...}, layer=\'/var/www/web2py_curso/applications/projeto/controllers/post.py\')'
p2999
sS'func'
p3000
S'restricted'
p3001
sa(dp3002
g2977
S'/var/www/web2py_curso/applications/projeto/controllers/post.py'
p3003
sg2979
(dp3004
sg2985
I21
sg2986
(dp3005
I10
S'def add():'
p3006
sI11
S'\tlogger.debug("execute funcao add")'
p3007
sI12
S'\tlogger.info(str(request.vars))'
p3008
sI13
S''
sI14
S'\ttry:'
p3009
sI15
S'\t\t1/0'
p3010
sI16
S'\texcept ZeroDivisionError as erro:'
p3011
sI17
S'\t\tlogger.error(str(erro))'
p3012
sI18
S''
sI19
S'\treturn "add"'
p3013
ssg2998
S'()'
p3014
sg3000
S'<module>'
p3015
sa(dp3016
g2977
S'/var/www/web2py_curso/gluon/globals.py'
p3017
sg2979
(dp3018
S'self'
p3019
S'undefined'
p3020
sS'f'
S'<function add>'
p3021
ssg2985
I193
sg2986
(dp3022
I192
S'        self._vars = None'
p3023
sI193
S'        self._caller = lambda f: f()'
p3024
sI194
S'        self._view_environment = None'
p3025
sI195
S'        self._custom_commit = None'
p3026
sI196
S'        self._custom_rollback = None'
p3027
sI197
S''
sI188
S'        self.menu = []             # used by the default view layout'
p3028
sI189
S'        self.files = []            # used by web2py_ajax.html'
p3029
sI190
S'        self.generic_patterns = []  # patterns to allow generic views'
p3030
sI191
S"        self.delimiters = ('{{', '}}')"
p3031
ssg2998
S'(f=<function add>)'
p3032
sg3000
S'<lambda>'
p3033
sa(dp3034
g2977
S'/var/www/web2py_curso/applications/projeto/controllers/post.py'
p3035
sg2979
(dp3036
S'builtinstr'
p3037
S"<type 'str'>"
p3038
sS'erro'
p3039
S"ZeroDivisionError('integer division or modulo by zero',)"
p3040
sS'global logger'
p3041
S'<logging.Logger object>'
p3042
sS'logger.error'
p3043
S'<bound method Logger.error of <logging.Logger object>>'
p3044
ssg2985
I17
sg2986
(dp3045
I10
S'def add():'
p3046
sI11
S'\tlogger.debug("execute funcao add")'
p3047
sI12
S'\tlogger.info(str(request.vars))'
p3048
sI13
S''
sI14
S'\ttry:'
p3049
sI15
S'\t\t1/0'
p3050
sI16
S'\texcept ZeroDivisionError as erro:'
p3051
sI17
S'\t\tlogger.error(str(erro))'
p3052
sI18
S''
sI19
S'\treturn "add"'
p3053
ssg2998
S'()'
p3054
sg3000
S'add'
p3055
sa(dp3056
g2977
S'/usr/lib/python2.7/logging/__init__.py'
p3057
sg2979
(dp3058
S'global ERROR'
p3059
S'40'
p3060
sS'self'
p3061
S'<logging.Logger object>'
p3062
sS'args'
p3063
S'()'
p3064
sS'kwargs'
p3065
g21
sS'msg'
p3066
S"'integer division or modulo by zero'"
p3067
sS'self._log'
p3068
S'<bound method Logger._log of <logging.Logger object>>'
p3069
ssg2985
I1174
sg2986
(dp3070
I1169
S'        a true value, e.g.'
p3071
sI1170
S''
sI1171
S'        logger.error("Houston, we have a %s", "major problem", exc_info=1)'
p3072
sI1172
S'        """'
p3073
sI1173
S'        if self.isEnabledFor(ERROR):'
p3074
sI1174
S'            self._log(ERROR, msg, args, **kwargs)'
p3075
sI1175
S''
sI1176
S'    def exception(self, msg, *args, **kwargs):'
p3076
sI1177
S'        """'
p3077
sI1178
S'        Convenience method for logging an ERROR with exception information.'
p3078
ssg2998
S"(self=<logging.Logger object>, msg='integer division or modulo by zero', *args=(), **kwargs={})"
p3079
sg3000
S'error'
p3080
sa(dp3081
g2977
S'/usr/lib/python2.7/logging/__init__.py'
p3082
sg2979
(dp3083
S'record'
p3084
S'<logging.LogRecord object>'
p3085
sS'self'
p3086
S'<logging.Logger object>'
p3087
sS'self.handle'
p3088
S'<bound method Logger.handle of <logging.Logger object>>'
p3089
ssg2985
I1267
sg2986
(dp3090
I1262
S'            fn, lno, func = "(unknown file)", 0, "(unknown function)"'
p3091
sI1263
S'        if exc_info:'
p3092
sI1264
S'            if not isinstance(exc_info, tuple):'
p3093
sI1265
S'                exc_info = sys.exc_info()'
p3094
sI1266
S'        record = self.makeRecord(self.name, level, fn, lno, msg, args, exc_info, func, extra)'
p3095
sI1267
S'        self.handle(record)'
p3096
sI1268
S''
sI1269
S'    def handle(self, record):'
p3097
sI1270
S'        """'
p3098
sI1271
S'        Call the handlers for the specified record.'
p3099
ssg2998
S"(self=<logging.Logger object>, level=40, msg='integer division or modulo by zero', args=(), exc_info=None, extra=None)"
p3100
sg3000
S'_log'
p3101
sa(dp3102
g2977
S'/usr/lib/python2.7/logging/__init__.py'
p3103
sg2979
(dp3104
S'record'
p3105
S'<logging.LogRecord object>'
p3106
sS'self'
p3107
S'<logging.Logger object>'
p3108
sS'self.callHandlers'
p3109
S'<bound method Logger.callHandlers of <logging.Logger object>>'
p3110
ssg2985
I1277
sg2986
(dp3111
I1280
S'        """'
p3112
sI1281
S'        Add the specified handler to this logger.'
p3113
sI1272
S''
sI1273
S'        This method is used for unpickled records received from a socket, as'
p3114
sI1274
S'        well as those created locally. Logger-level filtering is applied.'
p3115
sI1275
S'        """'
p3116
sI1276
S'        if (not self.disabled) and self.filter(record):'
p3117
sI1277
S'            self.callHandlers(record)'
p3118
sI1278
S''
sI1279
S'    def addHandler(self, hdlr):'
p3119
ssg2998
S'(self=<logging.Logger object>, record=<logging.LogRecord object>)'
p3120
sg3000
S'handle'
p3121
sa(dp3122
g2977
S'/usr/lib/python2.7/logging/__init__.py'
p3123
sg2979
(dp3124
S'hdlr.handle'
p3125
S'<bound method MessageBoxHandler.handle of <gluon.messageboxhandler.MessageBoxHandler object>>'
p3126
sS'hdlr'
p3127
S'<gluon.messageboxhandler.MessageBoxHandler object>'
p3128
sS'record'
p3129
S'<logging.LogRecord object>'
p3130
ssg2985
I1317
sg2986
(dp3131
I1312
S'        found = 0'
p3132
sI1313
S'        while c:'
p3133
sI1314
S'            for hdlr in c.handlers:'
p3134
sI1315
S'                found = found + 1'
p3135
sI1316
S'                if record.levelno >= hdlr.level:'
p3136
sI1317
S'                    hdlr.handle(record)'
p3137
sI1318
S'            if not c.propagate:'
p3138
sI1319
S'                c = None    #break out'
p3139
sI1320
S'            else:'
p3140
sI1321
S'                c = c.parent'
p3141
ssg2998
S'(self=<logging.Logger object>, record=<logging.LogRecord object>)'
p3142
sg3000
S'callHandlers'
p3143
sa(dp3144
g2977
S'/usr/lib/python2.7/logging/__init__.py'
p3145
sg2979
(dp3146
S'record'
p3147
S'<logging.LogRecord object>'
p3148
sS'self'
p3149
S'<gluon.messageboxhandler.MessageBoxHandler object>'
p3150
sS'self.emit'
p3151
S'<bound method MessageBoxHandler.emit of <gluon.messageboxhandler.MessageBoxHandler object>>'
p3152
ssg2985
I748
sg2986
(dp3153
I743
S'        """'
p3154
sI744
S'        rv = self.filter(record)'
p3155
sI745
S'        if rv:'
p3156
sI746
S'            self.acquire()'
p3157
sI747
S'            try:'
p3158
sI748
S'                self.emit(record)'
p3159
sI749
S'            finally:'
p3160
sI750
S'                self.release()'
p3161
sI751
S'        return rv'
p3162
sI752
S''
ssg2998
S'(self=<gluon.messageboxhandler.MessageBoxHandler object>, record=<logging.LogRecord object>)'
p3163
sg3000
g3121
sa(dp3164
g2977
S'/var/www/web2py_curso/gluon/messageboxhandler.py'
p3165
sg2979
(dp3166
S'msg'
p3167
S"'2013-01-24 09:23:19,301 - web2py.app.blog - ERROR - integer division or modulo by zero'"
p3168
sS'tkMessageBox.showinfo'
p3169
S'<function showinfo>'
p3170
sS'global tkMessageBox'
p3171
S"<module 'tkMessageBox' from '/usr/lib/python2.7/lib-tk/tkMessageBox.pyc'>"
p3172
ssg2985
I16
sg2986
(dp3173
I7
S''
sI8
S''
sI9
S'class MessageBoxHandler(logging.Handler):'
p3174
sI10
S'    def __init__(self):'
p3175
sI11
S'        logging.Handler.__init__(self)'
p3176
sI12
S''
sI13
S'    def emit(self, record):'
p3177
sI14
S'        if tkMessageBox:'
p3178
sI15
S'            msg = self.format(record)'
p3179
sI16
S"            tkMessageBox.showinfo('info1', msg)"
p3180
ssg2998
S'(self=<gluon.messageboxhandler.MessageBoxHandler object>, record=<logging.LogRecord object>)'
p3181
sg3000
S'emit'
p3182
sa(dp3183
g2977
S'/usr/lib/python2.7/lib-tk/tkMessageBox.py'
p3184
sg2979
(dp3185
S'title'
p3186
S"'info1'"
p3187
sS'global OK'
p3188
S"'ok'"
p3189
sS'global _show'
p3190
S'<function _show>'
p3191
sS'message'
p3192
S"'2013-01-24 09:23:19,301 - web2py.app.blog - ERROR - integer division or modulo by zero'"
p3193
sS'global INFO'
p3194
S"'info'"
p3195
sS'options'
p3196
g21
ssg2985
I83
sg2986
(dp3197
I78
S'    # In others we get a Tcl_Obj.'
p3198
sI79
S'    return str(res)'
p3199
sI80
S''
sI81
S'def showinfo(title=None, message=None, **options):'
p3200
sI82
S'    "Show an info message"'
p3201
sI83
S'    return _show(title, message, INFO, OK, **options)'
p3202
sI84
S''
sI85
S'def showwarning(title=None, message=None, **options):'
p3203
sI86
S'    "Show a warning message"'
p3204
sI87
S'    return _show(title, message, WARNING, OK, **options)'
p3205
ssg2998
S"(title='info1', message='2013-01-24 09:23:19,301 - web2py.app.blog - ERROR - integer division or modulo by zero', **options={})"
p3206
sg3000
S'showinfo'
p3207
sa(dp3208
g2977
S'/usr/lib/python2.7/lib-tk/tkMessageBox.py'
p3209
sg2979
(dp3210
S').show'
p3211
g3020
sS'res'
p3212
g3020
sS'global Message'
p3213
S'<class tkMessageBox.Message>'
p3214
sS'options'
p3215
S"{'icon': 'info', 'message': '2013-01-24 09:23:19,301 - web2py.app.blog - ERROR - integer division or modulo by zero', 'title': 'info1', 'type': 'ok'}"
p3216
ssg2985
I72
sg2986
(dp3217
I67
S'def _show(title=None, message=None, _icon=None, _type=None, **options):'
p3218
sI68
S'    if _icon and "icon" not in options:    options["icon"] = _icon'
p3219
sI69
S'    if _type and "type" not in options:    options["type"] = _type'
p3220
sI70
S'    if title:   options["title"] = title'
p3221
sI71
S'    if message: options["message"] = message'
p3222
sI72
S'    res = Message(**options).show()'
p3223
sI73
S'    # In some Tcl installations, yes/no is converted into a boolean.'
p3224
sI74
S'    if isinstance(res, bool):'
p3225
sI75
S'        if res:'
p3226
sI76
S'            return YES'
p3227
ssg2998
S"(title='info1', message='2013-01-24 09:23:19,301 - web2py.app.blog - ERROR - integer division or modulo by zero', _icon='info', _type='ok', **options={'icon': 'info', 'message': '2013-01-24 09:23:19,301 - web2py.app.blog - ERROR - integer division or modulo by zero', 'title': 'info1', 'type': 'ok'})"
p3228
sg3000
S'_show'
p3229
sa(dp3230
g2977
S'/usr/lib/python2.7/lib-tk/tkCommonDialog.py'
p3231
sg2979
(dp3232
S'w._options'
p3233
S'<bound method Frame._options of <Tkinter.Frame instance>>'
p3234
sS'w.tk.call'
p3235
S'<built-in method call of tkapp object>'
p3236
sS'self'
p3237
S'<tkMessageBox.Message instance>'
p3238
sS'self.command'
p3239
S"'tk_messageBox'"
p3240
sS'w.tk'
p3241
S'<tkapp object>'
p3242
sS's'
g3020
sS'w'
S'<Tkinter.Frame instance>'
p3243
sS'self.options'
p3244
S"{'icon': 'info', 'message': '2013-01-24 09:23:19,301 - web2py.app.blog - ERROR - integer division or modulo by zero', 'title': 'info1', 'type': 'ok'}"
p3245
ssg2985
I48
sg2986
(dp3246
I43
S'        # (at least as long as we use Tkinter 1.63)'
p3247
sI44
S'        w = Frame(self.master)'
p3248
sI45
S''
sI46
S'        try:'
p3249
sI47
S''
sI48
S'            s = w.tk.call(self.command, *w._options(self.options))'
p3250
sI49
S''
sI50
S'            s = self._fixresult(w, s)'
p3251
sI51
S''
sI52
S'        finally:'
p3252
ssg2998
S'(self=<tkMessageBox.Message instance>, **options={})'
p3253
sg3000
S'show'
p3254
sasS'pyver'
p3255
S'Python 2.7.3: /usr/bin/python'
p3256
sS'session'
p3257
g61
(g62
g63
NtRp3258
(dp3259
g66
(dp3260
sg68
(lp3261
g61
(g70
g63
NtRp3262
(dp3263
g66
(dp3264
g74
I5
ssg75
Nsg68
(lp3265
sbasbsS'etype'
p3266
S"<class '_tkinter.TclError'>"
p3267
sS'date'
p3268
S'Thu Jan 24 09:23:34 2013'
p3269
sS'response'
p3270
g61
(g62
g63
NtRp3271
(dp3272
g66
(dp3273
sg68
(lp3274
g61
(g70
g63
NtRp3275
(dp3276
g66
(dp3277
g74
I5
ssg75
Nsg68
(lp3278
g61
(g77
g63
NtRp3279
(dp3280
g66
(dp3281
sg75
g3275
sg68
(lp3282
g61
(g82
g63
NtRp3283
(dp3284
g66
(dp3285
g86
g87
ssg75
g3279
sg68
(lp3286
g159
asbag61
(g82
g63
NtRp3287
(dp3288
g66
(dp3289
g93
g94
ssg75
g3279
sg68
(lp3290
S':'
asbag61
(g82
g63
NtRp3291
(dp3292
g66
(dp3293
sg75
g3279
sg68
(lp3294
g61
(g62
g63
NtRp3295
(dp3296
g66
(dp3297
g74
I5
ssg75
g3291
sg68
(lp3298
S'<cStringIO.StringO object at 0x1b8ee30>'
p3299
asbasbasbag61
(g77
g63
NtRp3300
(dp3301
g66
(dp3302
sg75
g3275
sg68
(lp3303
g61
(g82
g63
NtRp3304
(dp3305
g66
(dp3306
g86
g87
ssg75
g3300
sg68
(lp3307
g247
asbag61
(g82
g63
NtRp3308
(dp3309
g66
(dp3310
g93
g94
ssg75
g3300
sg68
(lp3311
S':'
asbag61
(g82
g63
NtRp3312
(dp3313
g66
(dp3314
sg75
g3300
sg68
(lp3315
g61
(g62
g63
NtRp3316
(dp3317
g66
(dp3318
g74
I5
ssg75
g3312
sg68
(lp3319
g61
(g70
g63
NtRp3320
(dp3321
g66
(dp3322
g74
I4
ssg75
Nsg68
(lp3323
g61
(g77
g63
NtRp3324
(dp3325
g66
(dp3326
sg75
g3320
sg68
(lp3327
g61
(g82
g63
NtRp3328
(dp3329
g66
(dp3330
g86
g87
ssg75
g3324
sg68
(lp3331
S'session_id_projeto'
p3332
asbag61
(g82
g63
NtRp3333
(dp3334
g66
(dp3335
g93
g94
ssg75
g3324
sg68
(lp3336
S':'
asbag61
(g82
g63
NtRp3337
(dp3338
g66
(dp3339
sg75
g3324
sg68
(lp3340
g61
(g62
g63
NtRp3341
(dp3342
g66
(dp3343
g74
I4
ssg75
g3337
sg68
(lp3344
g479
ag61
(g70
g63
NtRp3345
(dp3346
g66
(dp3347
g74
I3
ssg75
Nsg68
(lp3348
g61
(g77
g63
NtRp3349
(dp3350
g66
(dp3351
sg75
g3345
sg68
(lp3352
g61
(g82
g63
NtRp3353
(dp3354
g66
(dp3355
g86
g87
ssg75
g3349
sg68
(lp3356
g298
asbag61
(g82
g63
NtRp3357
(dp3358
g66
(dp3359
g93
g94
ssg75
g3349
sg68
(lp3360
S':'
asbag61
(g82
g63
NtRp3361
(dp3362
g66
(dp3363
sg75
g3349
sg68
(lp3364
g61
(g62
g63
NtRp3365
(dp3366
g66
(dp3367
g74
I3
ssg75
g3361
sg68
(lp3368
S''
asbasbasbag61
(g77
g63
NtRp3369
(dp3370
g66
(dp3371
sg75
g3345
sg68
(lp3372
g61
(g82
g63
NtRp3373
(dp3374
g66
(dp3375
g86
g87
ssg75
g3369
sg68
(lp3376
g319
asbag61
(g82
g63
NtRp3377
(dp3378
g66
(dp3379
g93
g94
ssg75
g3369
sg68
(lp3380
S':'
asbag61
(g82
g63
NtRp3381
(dp3382
g66
(dp3383
sg75
g3369
sg68
(lp3384
g61
(g62
g63
NtRp3385
(dp3386
g66
(dp3387
g74
I3
ssg75
g3381
sg68
(lp3388
S''
asbasbasbag61
(g77
g63
NtRp3389
(dp3390
g66
(dp3391
sg75
g3345
sg68
(lp3392
g61
(g82
g63
NtRp3393
(dp3394
g66
(dp3395
g86
g87
ssg75
g3389
sg68
(lp3396
g340
asbag61
(g82
g63
NtRp3397
(dp3398
g66
(dp3399
g93
g94
ssg75
g3389
sg68
(lp3400
S':'
asbag61
(g82
g63
NtRp3401
(dp3402
g66
(dp3403
sg75
g3389
sg68
(lp3404
g61
(g62
g63
NtRp3405
(dp3406
g66
(dp3407
g74
I3
ssg75
g3401
sg68
(lp3408
S''
asbasbasbag61
(g77
g63
NtRp3409
(dp3410
g66
(dp3411
sg75
g3345
sg68
(lp3412
g61
(g82
g63
NtRp3413
(dp3414
g66
(dp3415
g86
g87
ssg75
g3409
sg68
(lp3416
g361
asbag61
(g82
g63
NtRp3417
(dp3418
g66
(dp3419
g93
g94
ssg75
g3409
sg68
(lp3420
S':'
asbag61
(g82
g63
NtRp3421
(dp3422
g66
(dp3423
sg75
g3409
sg68
(lp3424
g61
(g62
g63
NtRp3425
(dp3426
g66
(dp3427
g74
I3
ssg75
g3421
sg68
(lp3428
S''
asbasbasbag61
(g77
g63
NtRp3429
(dp3430
g66
(dp3431
sg75
g3345
sg68
(lp3432
g61
(g82
g63
NtRp3433
(dp3434
g66
(dp3435
g86
g87
ssg75
g3429
sg68
(lp3436
g382
asbag61
(g82
g63
NtRp3437
(dp3438
g66
(dp3439
g93
g94
ssg75
g3429
sg68
(lp3440
S':'
asbag61
(g82
g63
NtRp3441
(dp3442
g66
(dp3443
sg75
g3429
sg68
(lp3444
g61
(g62
g63
NtRp3445
(dp3446
g66
(dp3447
g74
I3
ssg75
g3441
sg68
(lp3448
S''
asbasbasbag61
(g77
g63
NtRp3449
(dp3450
g66
(dp3451
sg75
g3345
sg68
(lp3452
g61
(g82
g63
NtRp3453
(dp3454
g66
(dp3455
g86
g87
ssg75
g3449
sg68
(lp3456
g403
asbag61
(g82
g63
NtRp3457
(dp3458
g66
(dp3459
g93
g94
ssg75
g3449
sg68
(lp3460
S':'
asbag61
(g82
g63
NtRp3461
(dp3462
g66
(dp3463
sg75
g3449
sg68
(lp3464
g61
(g62
g63
NtRp3465
(dp3466
g66
(dp3467
g74
I3
ssg75
g3461
sg68
(lp3468
S'/'
asbasbasbag61
(g77
g63
NtRp3469
(dp3470
g66
(dp3471
sg75
g3345
sg68
(lp3472
g61
(g82
g63
NtRp3473
(dp3474
g66
(dp3475
g86
g87
ssg75
g3469
sg68
(lp3476
g424
asbag61
(g82
g63
NtRp3477
(dp3478
g66
(dp3479
g93
g94
ssg75
g3469
sg68
(lp3480
S':'
asbag61
(g82
g63
NtRp3481
(dp3482
g66
(dp3483
sg75
g3469
sg68
(lp3484
g61
(g62
g63
NtRp3485
(dp3486
g66
(dp3487
g74
I3
ssg75
g3481
sg68
(lp3488
S''
asbasbasbag61
(g77
g63
NtRp3489
(dp3490
g66
(dp3491
sg75
g3345
sg68
(lp3492
g61
(g82
g63
NtRp3493
(dp3494
g66
(dp3495
g86
g87
ssg75
g3489
sg68
(lp3496
g445
asbag61
(g82
g63
NtRp3497
(dp3498
g66
(dp3499
g93
g94
ssg75
g3489
sg68
(lp3500
S':'
asbag61
(g82
g63
NtRp3501
(dp3502
g66
(dp3503
sg75
g3489
sg68
(lp3504
g61
(g62
g63
NtRp3505
(dp3506
g66
(dp3507
g74
I3
ssg75
g3501
sg68
(lp3508
S''
asbasbasbasbasbasbasbasbasbasbasbag61
(g77
g63
NtRp3509
(dp3510
g66
(dp3511
sg75
g3275
sg68
(lp3512
g61
(g82
g63
NtRp3513
(dp3514
g66
(dp3515
g86
g87
ssg75
g3509
sg68
(lp3516
S'delimiters'
p3517
asbag61
(g82
g63
NtRp3518
(dp3519
g66
(dp3520
g93
g94
ssg75
g3509
sg68
(lp3521
S':'
asbag61
(g82
g63
NtRp3522
(dp3523
g66
(dp3524
sg75
g3509
sg68
(lp3525
g61
(g62
g63
NtRp3526
(dp3527
g66
(dp3528
g74
I5
ssg75
g3522
sg68
(lp3529
g61
(g70
g63
NtRp3530
(dp3531
g66
(dp3532
g74
I4
ssg75
Nsg68
(lp3533
g61
(g77
g63
NtRp3534
(dp3535
g66
(dp3536
sg75
g3530
sg68
(lp3537
g61
(g82
g63
NtRp3538
(dp3539
g66
(dp3540
sg75
g3534
sg68
(lp3541
g61
(g62
g63
NtRp3542
(dp3543
g66
(dp3544
g74
I4
ssg75
g3538
sg68
(lp3545
S'{{'
p3546
asbasbasbag61
(g77
g63
NtRp3547
(dp3548
g66
(dp3549
sg75
g3530
sg68
(lp3550
g61
(g82
g63
NtRp3551
(dp3552
g66
(dp3553
sg75
g3547
sg68
(lp3554
g61
(g62
g63
NtRp3555
(dp3556
g66
(dp3557
g74
I4
ssg75
g3551
sg68
(lp3558
S'}}'
p3559
asbasbasbasbasbasbasbag61
(g77
g63
NtRp3560
(dp3561
g66
(dp3562
sg75
g3275
sg68
(lp3563
g61
(g82
g63
NtRp3564
(dp3565
g66
(dp3566
g86
g87
ssg75
g3560
sg68
(lp3567
S'files'
p3568
asbag61
(g82
g63
NtRp3569
(dp3570
g66
(dp3571
g93
g94
ssg75
g3560
sg68
(lp3572
S':'
asbag61
(g82
g63
NtRp3573
(dp3574
g66
(dp3575
sg75
g3560
sg68
(lp3576
g61
(g62
g63
NtRp3577
(dp3578
g66
(dp3579
g74
I5
ssg75
g3573
sg68
(lp3580
g61
(g70
g63
NtRp3581
(dp3582
g66
(dp3583
g74
I4
ssg75
Nsg68
(lp3584
sbasbasbasbag61
(g77
g63
NtRp3585
(dp3586
g66
(dp3587
sg75
g3275
sg68
(lp3588
g61
(g82
g63
NtRp3589
(dp3590
g66
(dp3591
g86
g87
ssg75
g3585
sg68
(lp3592
S'flash'
p3593
asbag61
(g82
g63
NtRp3594
(dp3595
g66
(dp3596
g93
g94
ssg75
g3585
sg68
(lp3597
S':'
asbag61
(g82
g63
NtRp3598
(dp3599
g66
(dp3600
sg75
g3585
sg68
(lp3601
g61
(g62
g63
NtRp3602
(dp3603
g66
(dp3604
g74
I5
ssg75
g3598
sg68
(lp3605
S''
asbasbasbag61
(g77
g63
NtRp3606
(dp3607
g66
(dp3608
sg75
g3275
sg68
(lp3609
g61
(g82
g63
NtRp3610
(dp3611
g66
(dp3612
g86
g87
ssg75
g3606
sg68
(lp3613
S'generic_patterns'
p3614
asbag61
(g82
g63
NtRp3615
(dp3616
g66
(dp3617
g93
g94
ssg75
g3606
sg68
(lp3618
S':'
asbag61
(g82
g63
NtRp3619
(dp3620
g66
(dp3621
sg75
g3606
sg68
(lp3622
g61
(g62
g63
NtRp3623
(dp3624
g66
(dp3625
g74
I5
ssg75
g3619
sg68
(lp3626
g61
(g70
g63
NtRp3627
(dp3628
g66
(dp3629
g74
I4
ssg75
Nsg68
(lp3630
sbasbasbasbag61
(g77
g63
NtRp3631
(dp3632
g66
(dp3633
sg75
g3275
sg68
(lp3634
g61
(g82
g63
NtRp3635
(dp3636
g66
(dp3637
g86
g87
ssg75
g3631
sg68
(lp3638
S'headers'
p3639
asbag61
(g82
g63
NtRp3640
(dp3641
g66
(dp3642
g93
g94
ssg75
g3631
sg68
(lp3643
S':'
asbag61
(g82
g63
NtRp3644
(dp3645
g66
(dp3646
sg75
g3631
sg68
(lp3647
g61
(g62
g63
NtRp3648
(dp3649
g66
(dp3650
g74
I5
ssg75
g3644
sg68
(lp3651
g61
(g70
g63
NtRp3652
(dp3653
g66
(dp3654
g74
I4
ssg75
Nsg68
(lp3655
g61
(g77
g63
NtRp3656
(dp3657
g66
(dp3658
sg75
g3652
sg68
(lp3659
g61
(g82
g63
NtRp3660
(dp3661
g66
(dp3662
g86
g87
ssg75
g3656
sg68
(lp3663
S'X-Powered-By'
p3664
asbag61
(g82
g63
NtRp3665
(dp3666
g66
(dp3667
g93
g94
ssg75
g3656
sg68
(lp3668
S':'
asbag61
(g82
g63
NtRp3669
(dp3670
g66
(dp3671
sg75
g3656
sg68
(lp3672
g61
(g62
g63
NtRp3673
(dp3674
g66
(dp3675
g74
I4
ssg75
g3669
sg68
(lp3676
S'web2py'
p3677
asbasbasbasbasbasbasbag61
(g77
g63
NtRp3678
(dp3679
g66
(dp3680
sg75
g3275
sg68
(lp3681
g61
(g82
g63
NtRp3682
(dp3683
g66
(dp3684
g86
g87
ssg75
g3678
sg68
(lp3685
S'menu'
p3686
asbag61
(g82
g63
NtRp3687
(dp3688
g66
(dp3689
g93
g94
ssg75
g3678
sg68
(lp3690
S':'
asbag61
(g82
g63
NtRp3691
(dp3692
g66
(dp3693
sg75
g3678
sg68
(lp3694
g61
(g62
g63
NtRp3695
(dp3696
g66
(dp3697
g74
I5
ssg75
g3691
sg68
(lp3698
g61
(g70
g63
NtRp3699
(dp3700
g66
(dp3701
g74
I4
ssg75
Nsg68
(lp3702
sbasbasbasbag61
(g77
g63
NtRp3703
(dp3704
g66
(dp3705
sg75
g3275
sg68
(lp3706
g61
(g82
g63
NtRp3707
(dp3708
g66
(dp3709
g86
g87
ssg75
g3703
sg68
(lp3710
S'meta'
p3711
asbag61
(g82
g63
NtRp3712
(dp3713
g66
(dp3714
g93
g94
ssg75
g3703
sg68
(lp3715
S':'
asbag61
(g82
g63
NtRp3716
(dp3717
g66
(dp3718
sg75
g3703
sg68
(lp3719
g61
(g62
g63
NtRp3720
(dp3721
g66
(dp3722
g74
I5
ssg75
g3716
sg68
(lp3723
g61
(g70
g63
NtRp3724
(dp3725
g66
(dp3726
g74
I4
ssg75
Nsg68
(lp3727
sbasbasbasbag61
(g77
g63
NtRp3728
(dp3729
g66
(dp3730
sg75
g3275
sg68
(lp3731
g61
(g82
g63
NtRp3732
(dp3733
g66
(dp3734
g86
g87
ssg75
g3728
sg68
(lp3735
S'models_to_run'
p3736
asbag61
(g82
g63
NtRp3737
(dp3738
g66
(dp3739
g93
g94
ssg75
g3728
sg68
(lp3740
S':'
asbag61
(g82
g63
NtRp3741
(dp3742
g66
(dp3743
sg75
g3728
sg68
(lp3744
g61
(g62
g63
NtRp3745
(dp3746
g66
(dp3747
g74
I5
ssg75
g3741
sg68
(lp3748
g61
(g70
g63
NtRp3749
(dp3750
g66
(dp3751
g74
I4
ssg75
Nsg68
(lp3752
g61
(g77
g63
NtRp3753
(dp3754
g66
(dp3755
sg75
g3749
sg68
(lp3756
g61
(g82
g63
NtRp3757
(dp3758
g66
(dp3759
sg75
g3753
sg68
(lp3760
g61
(g62
g63
NtRp3761
(dp3762
g66
(dp3763
g74
I4
ssg75
g3757
sg68
(lp3764
S'^\\w+\\.py$'
p3765
asbasbasbag61
(g77
g63
NtRp3766
(dp3767
g66
(dp3768
sg75
g3749
sg68
(lp3769
g61
(g82
g63
NtRp3770
(dp3771
g66
(dp3772
sg75
g3766
sg68
(lp3773
g61
(g62
g63
NtRp3774
(dp3775
g66
(dp3776
g74
I4
ssg75
g3770
sg68
(lp3777
S'^post/\\w+\\.py$'
p3778
asbasbasbag61
(g77
g63
NtRp3779
(dp3780
g66
(dp3781
sg75
g3749
sg68
(lp3782
g61
(g82
g63
NtRp3783
(dp3784
g66
(dp3785
sg75
g3779
sg68
(lp3786
g61
(g62
g63
NtRp3787
(dp3788
g66
(dp3789
g74
I4
ssg75
g3783
sg68
(lp3790
S'^post/add/\\w+\\.py$'
p3791
asbasbasbasbasbasbasbag61
(g77
g63
NtRp3792
(dp3793
g66
(dp3794
sg75
g3275
sg68
(lp3795
g61
(g82
g63
NtRp3796
(dp3797
g66
(dp3798
g86
g87
ssg75
g3792
sg68
(lp3799
S'postprocessing'
p3800
asbag61
(g82
g63
NtRp3801
(dp3802
g66
(dp3803
g93
g94
ssg75
g3792
sg68
(lp3804
S':'
asbag61
(g82
g63
NtRp3805
(dp3806
g66
(dp3807
sg75
g3792
sg68
(lp3808
g61
(g62
g63
NtRp3809
(dp3810
g66
(dp3811
g74
I5
ssg75
g3805
sg68
(lp3812
g61
(g70
g63
NtRp3813
(dp3814
g66
(dp3815
g74
I4
ssg75
Nsg68
(lp3816
sbasbasbasbag61
(g77
g63
NtRp3817
(dp3818
g66
(dp3819
sg75
g3275
sg68
(lp3820
g61
(g82
g63
NtRp3821
(dp3822
g66
(dp3823
g86
g87
ssg75
g3817
sg68
(lp3824
S'session_cookie_expires'
p3825
asbag61
(g82
g63
NtRp3826
(dp3827
g66
(dp3828
g93
g94
ssg75
g3817
sg68
(lp3829
S':'
asbag61
(g82
g63
NtRp3830
(dp3831
g66
(dp3832
sg75
g3817
sg68
(lp3833
g61
(g62
g63
NtRp3834
(dp3835
g66
(dp3836
g74
I5
ssg75
g3830
sg68
(lp3837
S'None'
p3838
asbasbasbag61
(g77
g63
NtRp3839
(dp3840
g66
(dp3841
sg75
g3275
sg68
(lp3842
g61
(g82
g63
NtRp3843
(dp3844
g66
(dp3845
g86
g87
ssg75
g3839
sg68
(lp3846
S'session_data_name'
p3847
asbag61
(g82
g63
NtRp3848
(dp3849
g66
(dp3850
g93
g94
ssg75
g3839
sg68
(lp3851
S':'
asbag61
(g82
g63
NtRp3852
(dp3853
g66
(dp3854
sg75
g3839
sg68
(lp3855
g61
(g62
g63
NtRp3856
(dp3857
g66
(dp3858
g74
I5
ssg75
g3852
sg68
(lp3859
S'session_data_projeto'
p3860
asbasbasbag61
(g77
g63
NtRp3861
(dp3862
g66
(dp3863
sg75
g3275
sg68
(lp3864
g61
(g82
g63
NtRp3865
(dp3866
g66
(dp3867
g86
g87
ssg75
g3861
sg68
(lp3868
S'session_file'
p3869
asbag61
(g82
g63
NtRp3870
(dp3871
g66
(dp3872
g93
g94
ssg75
g3861
sg68
(lp3873
S':'
asbag61
(g82
g63
NtRp3874
(dp3875
g66
(dp3876
sg75
g3861
sg68
(lp3877
g61
(g62
g63
NtRp3878
(dp3879
g66
(dp3880
g74
I5
ssg75
g3874
sg68
(lp3881
S'None'
p3882
asbasbasbag61
(g77
g63
NtRp3883
(dp3884
g66
(dp3885
sg75
g3275
sg68
(lp3886
g61
(g82
g63
NtRp3887
(dp3888
g66
(dp3889
g86
g87
ssg75
g3883
sg68
(lp3890
S'session_filename'
p3891
asbag61
(g82
g63
NtRp3892
(dp3893
g66
(dp3894
g93
g94
ssg75
g3883
sg68
(lp3895
S':'
asbag61
(g82
g63
NtRp3896
(dp3897
g66
(dp3898
sg75
g3883
sg68
(lp3899
g61
(g62
g63
NtRp3900
(dp3901
g66
(dp3902
g74
I5
ssg75
g3896
sg68
(lp3903
S'/var/www/web2py_curso/applications/projeto/sessions/127.0.0.1-e368b264-444a-4dee-8b41-31155ff54a04'
p3904
asbasbasbag61
(g77
g63
NtRp3905
(dp3906
g66
(dp3907
sg75
g3275
sg68
(lp3908
g61
(g82
g63
NtRp3909
(dp3910
g66
(dp3911
g86
g87
ssg75
g3905
sg68
(lp3912
S'session_id'
p3913
asbag61
(g82
g63
NtRp3914
(dp3915
g66
(dp3916
g93
g94
ssg75
g3905
sg68
(lp3917
S':'
asbag61
(g82
g63
NtRp3918
(dp3919
g66
(dp3920
sg75
g3905
sg68
(lp3921
g61
(g62
g63
NtRp3922
(dp3923
g66
(dp3924
g74
I5
ssg75
g3918
sg68
(lp3925
g479
asbasbasbag61
(g77
g63
NtRp3926
(dp3927
g66
(dp3928
sg75
g3275
sg68
(lp3929
g61
(g82
g63
NtRp3930
(dp3931
g66
(dp3932
g86
g87
ssg75
g3926
sg68
(lp3933
S'session_id_name'
p3934
asbag61
(g82
g63
NtRp3935
(dp3936
g66
(dp3937
g93
g94
ssg75
g3926
sg68
(lp3938
S':'
asbag61
(g82
g63
NtRp3939
(dp3940
g66
(dp3941
sg75
g3926
sg68
(lp3942
g61
(g62
g63
NtRp3943
(dp3944
g66
(dp3945
g74
I5
ssg75
g3939
sg68
(lp3946
g3332
asbasbasbag61
(g77
g63
NtRp3947
(dp3948
g66
(dp3949
sg75
g3275
sg68
(lp3950
g61
(g82
g63
NtRp3951
(dp3952
g66
(dp3953
g86
g87
ssg75
g3947
sg68
(lp3954
S'session_new'
p3955
asbag61
(g82
g63
NtRp3956
(dp3957
g66
(dp3958
g93
g94
ssg75
g3947
sg68
(lp3959
S':'
asbag61
(g82
g63
NtRp3960
(dp3961
g66
(dp3962
sg75
g3947
sg68
(lp3963
g61
(g62
g63
NtRp3964
(dp3965
g66
(dp3966
g74
I5
ssg75
g3960
sg68
(lp3967
g104
asbasbasbag61
(g77
g63
NtRp3968
(dp3969
g66
(dp3970
sg75
g3275
sg68
(lp3971
g61
(g82
g63
NtRp3972
(dp3973
g66
(dp3974
g86
g87
ssg75
g3968
sg68
(lp3975
S'session_storage_type'
p3976
asbag61
(g82
g63
NtRp3977
(dp3978
g66
(dp3979
g93
g94
ssg75
g3968
sg68
(lp3980
S':'
asbag61
(g82
g63
NtRp3981
(dp3982
g66
(dp3983
sg75
g3968
sg68
(lp3984
g61
(g62
g63
NtRp3985
(dp3986
g66
(dp3987
g74
I5
ssg75
g3981
sg68
(lp3988
g2977
asbasbasbag61
(g77
g63
NtRp3989
(dp3990
g66
(dp3991
sg75
g3275
sg68
(lp3992
g61
(g82
g63
NtRp3993
(dp3994
g66
(dp3995
g86
g87
ssg75
g3989
sg68
(lp3996
S'status'
p3997
asbag61
(g82
g63
NtRp3998
(dp3999
g66
(dp4000
g93
g94
ssg75
g3989
sg68
(lp4001
S':'
asbag61
(g82
g63
NtRp4002
(dp4003
g66
(dp4004
sg75
g3989
sg68
(lp4005
g61
(g62
g63
NtRp4006
(dp4007
g66
(dp4008
g74
I5
ssg75
g4002
sg68
(lp4009
S'200'
p4010
asbasbasbag61
(g77
g63
NtRp4011
(dp4012
g66
(dp4013
sg75
g3275
sg68
(lp4014
g61
(g82
g63
NtRp4015
(dp4016
g66
(dp4017
g86
g87
ssg75
g4011
sg68
(lp4018
S'view'
p4019
asbag61
(g82
g63
NtRp4020
(dp4021
g66
(dp4022
g93
g94
ssg75
g4011
sg68
(lp4023
S':'
asbag61
(g82
g63
NtRp4024
(dp4025
g66
(dp4026
sg75
g4011
sg68
(lp4027
g61
(g62
g63
NtRp4028
(dp4029
g66
(dp4030
g74
I5
ssg75
g4024
sg68
(lp4031
S'post/add.html'
p4032
asbasbasbasbasbsS'locals'
p4033
(dp4034
S'self'
p4035
S'<tkMessageBox.Message instance>'
p4036
sS'options'
p4037
g21
sS'w'
S'<Tkinter.Frame instance>'
p4038
sssS'traceback'
p4039
S'Traceback (most recent call last):\n  File "/var/www/web2py_curso/gluon/restricted.py", line 212, in restricted\n    exec ccode in environment\n  File "/var/www/web2py_curso/applications/projeto/controllers/post.py", line 21, in <module>\n  File "/var/www/web2py_curso/gluon/globals.py", line 193, in <lambda>\n    self._caller = lambda f: f()\n  File "/var/www/web2py_curso/applications/projeto/controllers/post.py", line 17, in add\n    logger.error(str(erro))\n  File "/usr/lib/python2.7/logging/__init__.py", line 1174, in error\n    self._log(ERROR, msg, args, **kwargs)\n  File "/usr/lib/python2.7/logging/__init__.py", line 1267, in _log\n    self.handle(record)\n  File "/usr/lib/python2.7/logging/__init__.py", line 1277, in handle\n    self.callHandlers(record)\n  File "/usr/lib/python2.7/logging/__init__.py", line 1317, in callHandlers\n    hdlr.handle(record)\n  File "/usr/lib/python2.7/logging/__init__.py", line 748, in handle\n    self.emit(record)\n  File "/var/www/web2py_curso/gluon/messageboxhandler.py", line 16, in emit\n    tkMessageBox.showinfo(\'info1\', msg)\n  File "/usr/lib/python2.7/lib-tk/tkMessageBox.py", line 83, in showinfo\n    return _show(title, message, INFO, OK, **options)\n  File "/usr/lib/python2.7/lib-tk/tkMessageBox.py", line 72, in _show\n    res = Message(**options).show()\n  File "/usr/lib/python2.7/lib-tk/tkCommonDialog.py", line 48, in show\n    s = w.tk.call(self.command, *w._options(self.options))\nTclError: can\'t invoke "grab" command:  application has been destroyed\n'
p4040
s.