(dp1
S'output'
p2
S"<type 'exceptions.SyntaxError'> invalid syntax (initial.py, line 8)"
p3
sS'layer'
p4
S'/var/www/web2py_curso/applications/projeto/controllers/initial.py'
p5
sS'code'
p6
S'# coding: utf-8\n\ndef home():\n\tposts = db(db.post).select()\n\tprint posts\n\tresponse.title = "Titulo home"\n\tnome = "fernando"\n\treturn dict(, nome=nome)\n\n\ndef contact():\n\treturn "form"\n\ndef about():\n\treturn "sobre"\n\ndef user():\n\tif request.args(0) == \'register\':\n        \tdb.auth_user.bio.writable = db.auth_user.bio.readable = False\n\treturn dict(user=auth())\n\ndef register():\n\treturn auth.register()\n\ndef login():\n        return auth.login()\n\ndef account():\n    return dict(register=auth.register(),\n                login=auth.login())\n\t\ndef download():\n\treturn response.download(request, db)\n\n\n\n\n\ndef exemplo():\n#\treturn "teste"\n\treturn response.render("default/teste.html", nome="deld", sobrenome="vieira", lista=["item1", "item2", "item3"])\n\ndef teste1():\n\tprint "Action index"\n\tprint request.args\n\tprint request.vars \t\n\tprint request.post_vars #somente entradas de formul\xc3\xa1rio\n    \tprint request.get_vars  #somente entradas de url\n    \t#nome = request.vars[\'nome\']\n        mensagem = "Bem Vindo"\n        form = "<form action=\'\' method=\'POST\'><input name=\'nome\' id=\'nome\'/><input type=\'Submit\'></form><br>"\n        if \'nome\' in request.vars:\n\t\tform = "<p>Bem vindo %(nome)s</p>" % request.vars + form\t\t\n\t\t#mensagem = mensagem + " usu\xc3\xa1rio %(nome)s" % request.vars\t#mostrando variavel da url\n        \t#mensagem = mensagem + " usu\xc3\xa1rio %s" %str(nome)\t\t\t#mostrando uma variavel local    \n\treturn form\n\ndef teste2():\n\treturn "<form><label>Nome</label><input /></form><br><a href=\'http://www.w3schools.com\'>Visit W3Schools</a>"\n\t#return dict(nome="fernando")\n\t#return response.render("teste.html", dict(nome="fernando"))\n\ndef soma(x, y):\n\treturn x + y\n\n \n\nresponse._vars=response._caller(home)\n'
p7
sS'snapshot'
p8
(dp9
S'exception'
p10
(dp11
S'__getslice__'
p12
S"<method-wrapper '__getslice__' of exceptions.SyntaxError object>"
p13
sS'text'
p14
S"'\\treturn dict(, nome=nome)\\n'"
p15
sS'__str__'
p16
S"<method-wrapper '__str__' of exceptions.SyntaxError object>"
p17
sS'__reduce__'
p18
S'<built-in method __reduce__ of exceptions.SyntaxError object>'
p19
sS'__dict__'
p20
S'{}'
p21
sS'__sizeof__'
p22
S'<built-in method __sizeof__ of exceptions.SyntaxError object>'
p23
sS'__init__'
p24
S"<method-wrapper '__init__' of exceptions.SyntaxError object>"
p25
sS'__setattr__'
p26
S"<method-wrapper '__setattr__' of exceptions.SyntaxError object>"
p27
sS'__reduce_ex__'
p28
S'<built-in method __reduce_ex__ of exceptions.SyntaxError object>'
p29
sS'__new__'
p30
S'<built-in method __new__ of type object>'
p31
sS'__format__'
p32
S'<built-in method __format__ of exceptions.SyntaxError object>'
p33
sS'__class__'
p34
S"<type 'exceptions.SyntaxError'>"
p35
sS'filename'
p36
S"'/var/www/web2py_curso/applications/projeto/controllers/initial.py'"
p37
sS'lineno'
p38
S'8'
sS'msg'
p39
S"'invalid syntax'"
p40
sS'__doc__'
p41
S"'Invalid syntax.'"
p42
sS'__getitem__'
p43
S"<method-wrapper '__getitem__' of exceptions.SyntaxError object>"
p44
sS'__setstate__'
p45
S'<built-in method __setstate__ of exceptions.SyntaxError object>'
p46
sS'__getattribute__'
p47
S"<method-wrapper '__getattribute__' of exceptions.SyntaxError object>"
p48
sS'print_file_and_line'
p49
S'None'
p50
sS'args'
p51
S"('invalid syntax', ('/var/www/web2py_curso/applications/projeto/controllers/initial.py', 8, 14, '\\treturn dict(, nome=nome)\\n'))"
p52
sS'__subclasshook__'
p53
S'<built-in method __subclasshook__ of type object>'
p54
sS'offset'
p55
S'14'
p56
sS'__unicode__'
p57
S'<built-in method __unicode__ of exceptions.SyntaxError object>'
p58
sS'__delattr__'
p59
S"<method-wrapper '__delattr__' of exceptions.SyntaxError object>"
p60
sS'__repr__'
p61
S"<method-wrapper '__repr__' of exceptions.SyntaxError object>"
p62
sS'__hash__'
p63
S"<method-wrapper '__hash__' of exceptions.SyntaxError object>"
p64
ssS'evalue'
p65
S'invalid syntax (initial.py, line 8)'
p66
sS'request'
p67
ccopy_reg
_reconstructor
p68
(cgluon.html
BEAUTIFY
p69
c__builtin__
object
p70
NtRp71
(dp72
S'attributes'
p73
(dp74
sS'components'
p75
(lp76
g68
(cgluon.html
TABLE
p77
g70
NtRp78
(dp79
g73
(dp80
S'level'
p81
I5
ssS'parent'
p82
Nsg75
(lp83
g68
(cgluon.html
TR
p84
g70
NtRp85
(dp86
g73
(dp87
sg82
g78
sg75
(lp88
g68
(cgluon.html
TD
p89
g70
NtRp90
(dp91
g73
(dp92
S'_style'
p93
S'font-weight:bold;vertical-align:top'
p94
ssg82
g85
sg75
(lp95
S'ajax'
p96
asbag68
(g89
g70
NtRp97
(dp98
g73
(dp99
S'_valign'
p100
S'top'
p101
ssg82
g85
sg75
(lp102
S':'
asbag68
(g89
g70
NtRp103
(dp104
g73
(dp105
sg82
g85
sg75
(lp106
g68
(g69
g70
NtRp107
(dp108
g73
(dp109
g81
I5
ssg82
g103
sg75
(lp110
S'False'
p111
asbasbasbag68
(g84
g70
NtRp112
(dp113
g73
(dp114
sg82
g78
sg75
(lp115
g68
(g89
g70
NtRp116
(dp117
g73
(dp118
g93
g94
ssg82
g112
sg75
(lp119
S'application'
p120
asbag68
(g89
g70
NtRp121
(dp122
g73
(dp123
g100
g101
ssg82
g112
sg75
(lp124
S':'
asbag68
(g89
g70
NtRp125
(dp126
g73
(dp127
sg82
g112
sg75
(lp128
g68
(g69
g70
NtRp129
(dp130
g73
(dp131
g81
I5
ssg82
g125
sg75
(lp132
S'projeto'
p133
asbasbasbag68
(g84
g70
NtRp134
(dp135
g73
(dp136
sg82
g78
sg75
(lp137
g68
(g89
g70
NtRp138
(dp139
g73
(dp140
g93
g94
ssg82
g134
sg75
(lp141
g51
asbag68
(g89
g70
NtRp142
(dp143
g73
(dp144
g100
g101
ssg82
g134
sg75
(lp145
S':'
asbag68
(g89
g70
NtRp146
(dp147
g73
(dp148
sg82
g134
sg75
(lp149
g68
(g69
g70
NtRp150
(dp151
g73
(dp152
g81
I5
ssg82
g146
sg75
(lp153
g68
(g77
g70
NtRp154
(dp155
g73
(dp156
g81
I4
ssg82
Nsg75
(lp157
sbasbasbasbag68
(g84
g70
NtRp158
(dp159
g73
(dp160
sg82
g78
sg75
(lp161
g68
(g89
g70
NtRp162
(dp163
g73
(dp164
g93
g94
ssg82
g158
sg75
(lp165
S'body'
p166
asbag68
(g89
g70
NtRp167
(dp168
g73
(dp169
g100
g101
ssg82
g158
sg75
(lp170
S':'
asbag68
(g89
g70
NtRp171
(dp172
g73
(dp173
sg82
g158
sg75
(lp174
g68
(g69
g70
NtRp175
(dp176
g73
(dp177
g81
I5
ssg82
g171
sg75
(lp178
S'<cStringIO.StringO object at 0x7fe5cc1a5f48>'
p179
asbasbasbag68
(g84
g70
NtRp180
(dp181
g73
(dp182
sg82
g78
sg75
(lp183
g68
(g89
g70
NtRp184
(dp185
g73
(dp186
g93
g94
ssg82
g180
sg75
(lp187
S'cid'
p188
asbag68
(g89
g70
NtRp189
(dp190
g73
(dp191
g100
g101
ssg82
g180
sg75
(lp192
S':'
asbag68
(g89
g70
NtRp193
(dp194
g73
(dp195
sg82
g180
sg75
(lp196
g68
(g69
g70
NtRp197
(dp198
g73
(dp199
g81
I5
ssg82
g193
sg75
(lp200
S'None'
p201
asbasbasbag68
(g84
g70
NtRp202
(dp203
g73
(dp204
sg82
g78
sg75
(lp205
g68
(g89
g70
NtRp206
(dp207
g73
(dp208
g93
g94
ssg82
g202
sg75
(lp209
S'client'
p210
asbag68
(g89
g70
NtRp211
(dp212
g73
(dp213
g100
g101
ssg82
g202
sg75
(lp214
S':'
asbag68
(g89
g70
NtRp215
(dp216
g73
(dp217
sg82
g202
sg75
(lp218
g68
(g69
g70
NtRp219
(dp220
g73
(dp221
g81
I5
ssg82
g215
sg75
(lp222
S'127.0.0.1'
p223
asbasbasbag68
(g84
g70
NtRp224
(dp225
g73
(dp226
sg82
g78
sg75
(lp227
g68
(g89
g70
NtRp228
(dp229
g73
(dp230
g93
g94
ssg82
g224
sg75
(lp231
S'controller'
p232
asbag68
(g89
g70
NtRp233
(dp234
g73
(dp235
g100
g101
ssg82
g224
sg75
(lp236
S':'
asbag68
(g89
g70
NtRp237
(dp238
g73
(dp239
sg82
g224
sg75
(lp240
g68
(g69
g70
NtRp241
(dp242
g73
(dp243
g81
I5
ssg82
g237
sg75
(lp244
S'initial'
p245
asbasbasbag68
(g84
g70
NtRp246
(dp247
g73
(dp248
sg82
g78
sg75
(lp249
g68
(g89
g70
NtRp250
(dp251
g73
(dp252
g93
g94
ssg82
g246
sg75
(lp253
S'cookies'
p254
asbag68
(g89
g70
NtRp255
(dp256
g73
(dp257
g100
g101
ssg82
g246
sg75
(lp258
S':'
asbag68
(g89
g70
NtRp259
(dp260
g73
(dp261
sg82
g246
sg75
(lp262
g68
(g69
g70
NtRp263
(dp264
g73
(dp265
g81
I5
ssg82
g259
sg75
(lp266
g68
(g77
g70
NtRp267
(dp268
g73
(dp269
g81
I4
ssg82
Nsg75
(lp270
g68
(g84
g70
NtRp271
(dp272
g73
(dp273
sg82
g267
sg75
(lp274
g68
(g89
g70
NtRp275
(dp276
g73
(dp277
g93
g94
ssg82
g271
sg75
(lp278
S'session_id_admin'
p279
asbag68
(g89
g70
NtRp280
(dp281
g73
(dp282
g100
g101
ssg82
g271
sg75
(lp283
S':'
asbag68
(g89
g70
NtRp284
(dp285
g73
(dp286
sg82
g271
sg75
(lp287
g68
(g69
g70
NtRp288
(dp289
g73
(dp290
g81
I4
ssg82
g284
sg75
(lp291
S'127.0.0.1-9640a29f-86a5-4471-9025-77da26554f56'
p292
ag68
(g77
g70
NtRp293
(dp294
g73
(dp295
g81
I3
ssg82
Nsg75
(lp296
g68
(g84
g70
NtRp297
(dp298
g73
(dp299
sg82
g293
sg75
(lp300
g68
(g89
g70
NtRp301
(dp302
g73
(dp303
g93
g94
ssg82
g297
sg75
(lp304
S'comment'
p305
asbag68
(g89
g70
NtRp306
(dp307
g73
(dp308
g100
g101
ssg82
g297
sg75
(lp309
S':'
asbag68
(g89
g70
NtRp310
(dp311
g73
(dp312
sg82
g297
sg75
(lp313
g68
(g69
g70
NtRp314
(dp315
g73
(dp316
g81
I3
ssg82
g310
sg75
(lp317
S''
asbasbasbag68
(g84
g70
NtRp318
(dp319
g73
(dp320
sg82
g293
sg75
(lp321
g68
(g89
g70
NtRp322
(dp323
g73
(dp324
g93
g94
ssg82
g318
sg75
(lp325
S'domain'
p326
asbag68
(g89
g70
NtRp327
(dp328
g73
(dp329
g100
g101
ssg82
g318
sg75
(lp330
S':'
asbag68
(g89
g70
NtRp331
(dp332
g73
(dp333
sg82
g318
sg75
(lp334
g68
(g69
g70
NtRp335
(dp336
g73
(dp337
g81
I3
ssg82
g331
sg75
(lp338
S''
asbasbasbag68
(g84
g70
NtRp339
(dp340
g73
(dp341
sg82
g293
sg75
(lp342
g68
(g89
g70
NtRp343
(dp344
g73
(dp345
g93
g94
ssg82
g339
sg75
(lp346
S'expires'
p347
asbag68
(g89
g70
NtRp348
(dp349
g73
(dp350
g100
g101
ssg82
g339
sg75
(lp351
S':'
asbag68
(g89
g70
NtRp352
(dp353
g73
(dp354
sg82
g339
sg75
(lp355
g68
(g69
g70
NtRp356
(dp357
g73
(dp358
g81
I3
ssg82
g352
sg75
(lp359
S''
asbasbasbag68
(g84
g70
NtRp360
(dp361
g73
(dp362
sg82
g293
sg75
(lp363
g68
(g89
g70
NtRp364
(dp365
g73
(dp366
g93
g94
ssg82
g360
sg75
(lp367
S'httponly'
p368
asbag68
(g89
g70
NtRp369
(dp370
g73
(dp371
g100
g101
ssg82
g360
sg75
(lp372
S':'
asbag68
(g89
g70
NtRp373
(dp374
g73
(dp375
sg82
g360
sg75
(lp376
g68
(g69
g70
NtRp377
(dp378
g73
(dp379
g81
I3
ssg82
g373
sg75
(lp380
S''
asbasbasbag68
(g84
g70
NtRp381
(dp382
g73
(dp383
sg82
g293
sg75
(lp384
g68
(g89
g70
NtRp385
(dp386
g73
(dp387
g93
g94
ssg82
g381
sg75
(lp388
S'max-age'
p389
asbag68
(g89
g70
NtRp390
(dp391
g73
(dp392
g100
g101
ssg82
g381
sg75
(lp393
S':'
asbag68
(g89
g70
NtRp394
(dp395
g73
(dp396
sg82
g381
sg75
(lp397
g68
(g69
g70
NtRp398
(dp399
g73
(dp400
g81
I3
ssg82
g394
sg75
(lp401
S''
asbasbasbag68
(g84
g70
NtRp402
(dp403
g73
(dp404
sg82
g293
sg75
(lp405
g68
(g89
g70
NtRp406
(dp407
g73
(dp408
g93
g94
ssg82
g402
sg75
(lp409
S'path'
p410
asbag68
(g89
g70
NtRp411
(dp412
g73
(dp413
g100
g101
ssg82
g402
sg75
(lp414
S':'
asbag68
(g89
g70
NtRp415
(dp416
g73
(dp417
sg82
g402
sg75
(lp418
g68
(g69
g70
NtRp419
(dp420
g73
(dp421
g81
I3
ssg82
g415
sg75
(lp422
S''
asbasbasbag68
(g84
g70
NtRp423
(dp424
g73
(dp425
sg82
g293
sg75
(lp426
g68
(g89
g70
NtRp427
(dp428
g73
(dp429
g93
g94
ssg82
g423
sg75
(lp430
S'secure'
p431
asbag68
(g89
g70
NtRp432
(dp433
g73
(dp434
g100
g101
ssg82
g423
sg75
(lp435
S':'
asbag68
(g89
g70
NtRp436
(dp437
g73
(dp438
sg82
g423
sg75
(lp439
g68
(g69
g70
NtRp440
(dp441
g73
(dp442
g81
I3
ssg82
g436
sg75
(lp443
S''
asbasbasbag68
(g84
g70
NtRp444
(dp445
g73
(dp446
sg82
g293
sg75
(lp447
g68
(g89
g70
NtRp448
(dp449
g73
(dp450
g93
g94
ssg82
g444
sg75
(lp451
S'version'
p452
asbag68
(g89
g70
NtRp453
(dp454
g73
(dp455
g100
g101
ssg82
g444
sg75
(lp456
S':'
asbag68
(g89
g70
NtRp457
(dp458
g73
(dp459
sg82
g444
sg75
(lp460
g68
(g69
g70
NtRp461
(dp462
g73
(dp463
g81
I3
ssg82
g457
sg75
(lp464
S''
asbasbasbasbasbasbasbag68
(g84
g70
NtRp465
(dp466
g73
(dp467
sg82
g267
sg75
(lp468
g68
(g89
g70
NtRp469
(dp470
g73
(dp471
g93
g94
ssg82
g465
sg75
(lp472
S'session_id_projeto'
p473
asbag68
(g89
g70
NtRp474
(dp475
g73
(dp476
g100
g101
ssg82
g465
sg75
(lp477
S':'
asbag68
(g89
g70
NtRp478
(dp479
g73
(dp480
sg82
g465
sg75
(lp481
g68
(g69
g70
NtRp482
(dp483
g73
(dp484
g81
I4
ssg82
g478
sg75
(lp485
S'127.0.0.1-71851f1a-a738-4589-a6cd-6594e5094ab6'
p486
ag68
(g77
g70
NtRp487
(dp488
g73
(dp489
g81
I3
ssg82
Nsg75
(lp490
g68
(g84
g70
NtRp491
(dp492
g73
(dp493
sg82
g487
sg75
(lp494
g68
(g89
g70
NtRp495
(dp496
g73
(dp497
g93
g94
ssg82
g491
sg75
(lp498
g305
asbag68
(g89
g70
NtRp499
(dp500
g73
(dp501
g100
g101
ssg82
g491
sg75
(lp502
S':'
asbag68
(g89
g70
NtRp503
(dp504
g73
(dp505
sg82
g491
sg75
(lp506
g68
(g69
g70
NtRp507
(dp508
g73
(dp509
g81
I3
ssg82
g503
sg75
(lp510
S''
asbasbasbag68
(g84
g70
NtRp511
(dp512
g73
(dp513
sg82
g487
sg75
(lp514
g68
(g89
g70
NtRp515
(dp516
g73
(dp517
g93
g94
ssg82
g511
sg75
(lp518
g326
asbag68
(g89
g70
NtRp519
(dp520
g73
(dp521
g100
g101
ssg82
g511
sg75
(lp522
S':'
asbag68
(g89
g70
NtRp523
(dp524
g73
(dp525
sg82
g511
sg75
(lp526
g68
(g69
g70
NtRp527
(dp528
g73
(dp529
g81
I3
ssg82
g523
sg75
(lp530
S''
asbasbasbag68
(g84
g70
NtRp531
(dp532
g73
(dp533
sg82
g487
sg75
(lp534
g68
(g89
g70
NtRp535
(dp536
g73
(dp537
g93
g94
ssg82
g531
sg75
(lp538
g347
asbag68
(g89
g70
NtRp539
(dp540
g73
(dp541
g100
g101
ssg82
g531
sg75
(lp542
S':'
asbag68
(g89
g70
NtRp543
(dp544
g73
(dp545
sg82
g531
sg75
(lp546
g68
(g69
g70
NtRp547
(dp548
g73
(dp549
g81
I3
ssg82
g543
sg75
(lp550
S''
asbasbasbag68
(g84
g70
NtRp551
(dp552
g73
(dp553
sg82
g487
sg75
(lp554
g68
(g89
g70
NtRp555
(dp556
g73
(dp557
g93
g94
ssg82
g551
sg75
(lp558
g368
asbag68
(g89
g70
NtRp559
(dp560
g73
(dp561
g100
g101
ssg82
g551
sg75
(lp562
S':'
asbag68
(g89
g70
NtRp563
(dp564
g73
(dp565
sg82
g551
sg75
(lp566
g68
(g69
g70
NtRp567
(dp568
g73
(dp569
g81
I3
ssg82
g563
sg75
(lp570
S''
asbasbasbag68
(g84
g70
NtRp571
(dp572
g73
(dp573
sg82
g487
sg75
(lp574
g68
(g89
g70
NtRp575
(dp576
g73
(dp577
g93
g94
ssg82
g571
sg75
(lp578
g389
asbag68
(g89
g70
NtRp579
(dp580
g73
(dp581
g100
g101
ssg82
g571
sg75
(lp582
S':'
asbag68
(g89
g70
NtRp583
(dp584
g73
(dp585
sg82
g571
sg75
(lp586
g68
(g69
g70
NtRp587
(dp588
g73
(dp589
g81
I3
ssg82
g583
sg75
(lp590
S''
asbasbasbag68
(g84
g70
NtRp591
(dp592
g73
(dp593
sg82
g487
sg75
(lp594
g68
(g89
g70
NtRp595
(dp596
g73
(dp597
g93
g94
ssg82
g591
sg75
(lp598
g410
asbag68
(g89
g70
NtRp599
(dp600
g73
(dp601
g100
g101
ssg82
g591
sg75
(lp602
S':'
asbag68
(g89
g70
NtRp603
(dp604
g73
(dp605
sg82
g591
sg75
(lp606
g68
(g69
g70
NtRp607
(dp608
g73
(dp609
g81
I3
ssg82
g603
sg75
(lp610
S''
asbasbasbag68
(g84
g70
NtRp611
(dp612
g73
(dp613
sg82
g487
sg75
(lp614
g68
(g89
g70
NtRp615
(dp616
g73
(dp617
g93
g94
ssg82
g611
sg75
(lp618
g431
asbag68
(g89
g70
NtRp619
(dp620
g73
(dp621
g100
g101
ssg82
g611
sg75
(lp622
S':'
asbag68
(g89
g70
NtRp623
(dp624
g73
(dp625
sg82
g611
sg75
(lp626
g68
(g69
g70
NtRp627
(dp628
g73
(dp629
g81
I3
ssg82
g623
sg75
(lp630
S''
asbasbasbag68
(g84
g70
NtRp631
(dp632
g73
(dp633
sg82
g487
sg75
(lp634
g68
(g89
g70
NtRp635
(dp636
g73
(dp637
g93
g94
ssg82
g631
sg75
(lp638
g452
asbag68
(g89
g70
NtRp639
(dp640
g73
(dp641
g100
g101
ssg82
g631
sg75
(lp642
S':'
asbag68
(g89
g70
NtRp643
(dp644
g73
(dp645
sg82
g631
sg75
(lp646
g68
(g69
g70
NtRp647
(dp648
g73
(dp649
g81
I3
ssg82
g643
sg75
(lp650
S''
asbasbasbasbasbasbasbasbasbasbasbag68
(g84
g70
NtRp651
(dp652
g73
(dp653
sg82
g78
sg75
(lp654
g68
(g89
g70
NtRp655
(dp656
g73
(dp657
g93
g94
ssg82
g651
sg75
(lp658
S'env'
p659
asbag68
(g89
g70
NtRp660
(dp661
g73
(dp662
g100
g101
ssg82
g651
sg75
(lp663
S':'
asbag68
(g89
g70
NtRp664
(dp665
g73
(dp666
sg82
g651
sg75
(lp667
g68
(g69
g70
NtRp668
(dp669
g73
(dp670
g81
I5
ssg82
g664
sg75
(lp671
g68
(g77
g70
NtRp672
(dp673
g73
(dp674
g81
I4
ssg82
Nsg75
(lp675
g68
(g84
g70
NtRp676
(dp677
g73
(dp678
sg82
g672
sg75
(lp679
g68
(g89
g70
NtRp680
(dp681
g73
(dp682
g93
g94
ssg82
g676
sg75
(lp683
S'app_folders'
p684
asbag68
(g89
g70
NtRp685
(dp686
g73
(dp687
g100
g101
ssg82
g676
sg75
(lp688
S':'
asbag68
(g89
g70
NtRp689
(dp690
g73
(dp691
sg82
g676
sg75
(lp692
g68
(g69
g70
NtRp693
(dp694
g73
(dp695
g81
I4
ssg82
g689
sg75
(lp696
S"set(['/var/www/web2py_curso/applications/projeto/'])"
p697
asbasbasbag68
(g84
g70
NtRp698
(dp699
g73
(dp700
sg82
g672
sg75
(lp701
g68
(g89
g70
NtRp702
(dp703
g73
(dp704
g93
g94
ssg82
g698
sg75
(lp705
S'applications_parent'
p706
asbag68
(g89
g70
NtRp707
(dp708
g73
(dp709
g100
g101
ssg82
g698
sg75
(lp710
S':'
asbag68
(g89
g70
NtRp711
(dp712
g73
(dp713
sg82
g698
sg75
(lp714
g68
(g69
g70
NtRp715
(dp716
g73
(dp717
g81
I4
ssg82
g711
sg75
(lp718
S'/var/www/web2py_curso'
p719
asbasbasbag68
(g84
g70
NtRp720
(dp721
g73
(dp722
sg82
g672
sg75
(lp723
g68
(g89
g70
NtRp724
(dp725
g73
(dp726
g93
g94
ssg82
g720
sg75
(lp727
S'cmd_args'
p728
asbag68
(g89
g70
NtRp729
(dp730
g73
(dp731
g100
g101
ssg82
g720
sg75
(lp732
S':'
asbag68
(g89
g70
NtRp733
(dp734
g73
(dp735
sg82
g720
sg75
(lp736
g68
(g69
g70
NtRp737
(dp738
g73
(dp739
g81
I4
ssg82
g733
sg75
(lp740
g68
(g77
g70
NtRp741
(dp742
g73
(dp743
g81
I3
ssg82
Nsg75
(lp744
sbasbasbasbag68
(g84
g70
NtRp745
(dp746
g73
(dp747
sg82
g672
sg75
(lp748
g68
(g89
g70
NtRp749
(dp750
g73
(dp751
g93
g94
ssg82
g745
sg75
(lp752
S'cmd_options'
p753
asbag68
(g89
g70
NtRp754
(dp755
g73
(dp756
g100
g101
ssg82
g745
sg75
(lp757
S':'
asbag68
(g89
g70
NtRp758
(dp759
g73
(dp760
sg82
g745
sg75
(lp761
g68
(g69
g70
NtRp762
(dp763
g73
(dp764
g81
I4
ssg82
g758
sg75
(lp765
S"<Values at 0x3476a28: {'verbose': False, 'ip': '127.0.0.1', 'with_scheduler': False, 'ips': [], 'shutdown_timeout': 5, 'taskbar': False, 'port': 8000, 'maxthreads': None, 'softcron': False, 'server_name': 'fernando-pc', 'bpython': False, 'nogui': False, 'pid_filename': 'httpserver.pid', 'extcron': False, 'runcron': False, 'run_system_tests': False, 'test': None, 'folder': '/var/www/web2py_curso', 'config': '', 'minthreads': None, 'winservice': '', 'shell': None, 'run': '', 'log_filename': 'httpserver.log', 'debuglevel': 30, 'args': [''], 'socket_timeout': 5, 'ssl_ca_certificate': None, 'scheduler': None, 'profiler_filename': None, 'ssl_private_key': '', 'scheduler_groups': None, 'password': '123456', 'request_queue_size': 5, 'ssl_certificate': '', 'cronjob': False, 'numthreads': None, 'quiet': False, 'interfaces': None, 'import_models': False, 'timeout': 10, 'plain': False, 'nobanner': False}>"
p766
asbasbasbag68
(g84
g70
NtRp767
(dp768
g73
(dp769
sg82
g672
sg75
(lp770
g68
(g89
g70
NtRp771
(dp772
g73
(dp773
g93
g94
ssg82
g767
sg75
(lp774
S'db_sessions'
p775
asbag68
(g89
g70
NtRp776
(dp777
g73
(dp778
g100
g101
ssg82
g767
sg75
(lp779
S':'
asbag68
(g89
g70
NtRp780
(dp781
g73
(dp782
sg82
g767
sg75
(lp783
g68
(g69
g70
NtRp784
(dp785
g73
(dp786
g81
I4
ssg82
g780
sg75
(lp787
S'set([])'
p788
asbasbasbag68
(g84
g70
NtRp789
(dp790
g73
(dp791
sg82
g672
sg75
(lp792
g68
(g89
g70
NtRp793
(dp794
g73
(dp795
g93
g94
ssg82
g789
sg75
(lp796
S'debugging'
p797
asbag68
(g89
g70
NtRp798
(dp799
g73
(dp800
g100
g101
ssg82
g789
sg75
(lp801
S':'
asbag68
(g89
g70
NtRp802
(dp803
g73
(dp804
sg82
g789
sg75
(lp805
g68
(g69
g70
NtRp806
(dp807
g73
(dp808
g81
I4
ssg82
g802
sg75
(lp809
g111
asbasbasbag68
(g84
g70
NtRp810
(dp811
g73
(dp812
sg82
g672
sg75
(lp813
g68
(g89
g70
NtRp814
(dp815
g73
(dp816
g93
g94
ssg82
g810
sg75
(lp817
S'gluon_parent'
p818
asbag68
(g89
g70
NtRp819
(dp820
g73
(dp821
g100
g101
ssg82
g810
sg75
(lp822
S':'
asbag68
(g89
g70
NtRp823
(dp824
g73
(dp825
sg82
g810
sg75
(lp826
g68
(g69
g70
NtRp827
(dp828
g73
(dp829
g81
I4
ssg82
g823
sg75
(lp830
S'/var/www/web2py_curso'
p831
asbasbasbag68
(g84
g70
NtRp832
(dp833
g73
(dp834
sg82
g672
sg75
(lp835
g68
(g89
g70
NtRp836
(dp837
g73
(dp838
g93
g94
ssg82
g832
sg75
(lp839
S'http_accept'
p840
asbag68
(g89
g70
NtRp841
(dp842
g73
(dp843
g100
g101
ssg82
g832
sg75
(lp844
S':'
asbag68
(g89
g70
NtRp845
(dp846
g73
(dp847
sg82
g832
sg75
(lp848
g68
(g69
g70
NtRp849
(dp850
g73
(dp851
g81
I4
ssg82
g845
sg75
(lp852
S'text/html,application/xhtml+xml,application/xml;q=0.9,*/*;q=0.8'
p853
asbasbasbag68
(g84
g70
NtRp854
(dp855
g73
(dp856
sg82
g672
sg75
(lp857
g68
(g89
g70
NtRp858
(dp859
g73
(dp860
g93
g94
ssg82
g854
sg75
(lp861
S'http_accept_charset'
p862
asbag68
(g89
g70
NtRp863
(dp864
g73
(dp865
g100
g101
ssg82
g854
sg75
(lp866
S':'
asbag68
(g89
g70
NtRp867
(dp868
g73
(dp869
sg82
g854
sg75
(lp870
g68
(g69
g70
NtRp871
(dp872
g73
(dp873
g81
I4
ssg82
g867
sg75
(lp874
S'ISO-8859-1,utf-8;q=0.7,*;q=0.3'
p875
asbasbasbag68
(g84
g70
NtRp876
(dp877
g73
(dp878
sg82
g672
sg75
(lp879
g68
(g89
g70
NtRp880
(dp881
g73
(dp882
g93
g94
ssg82
g876
sg75
(lp883
S'http_accept_encoding'
p884
asbag68
(g89
g70
NtRp885
(dp886
g73
(dp887
g100
g101
ssg82
g876
sg75
(lp888
S':'
asbag68
(g89
g70
NtRp889
(dp890
g73
(dp891
sg82
g876
sg75
(lp892
g68
(g69
g70
NtRp893
(dp894
g73
(dp895
g81
I4
ssg82
g889
sg75
(lp896
S'gzip,deflate,sdch'
p897
asbasbasbag68
(g84
g70
NtRp898
(dp899
g73
(dp900
sg82
g672
sg75
(lp901
g68
(g89
g70
NtRp902
(dp903
g73
(dp904
g93
g94
ssg82
g898
sg75
(lp905
S'http_accept_language'
p906
asbag68
(g89
g70
NtRp907
(dp908
g73
(dp909
g100
g101
ssg82
g898
sg75
(lp910
S':'
asbag68
(g89
g70
NtRp911
(dp912
g73
(dp913
sg82
g898
sg75
(lp914
g68
(g69
g70
NtRp915
(dp916
g73
(dp917
g81
I4
ssg82
g911
sg75
(lp918
S'pt-BR,pt;q=0.8,en-US;q=0.6,en;q=0.4'
p919
asbasbasbag68
(g84
g70
NtRp920
(dp921
g73
(dp922
sg82
g672
sg75
(lp923
g68
(g89
g70
NtRp924
(dp925
g73
(dp926
g93
g94
ssg82
g920
sg75
(lp927
S'http_cache_control'
p928
asbag68
(g89
g70
NtRp929
(dp930
g73
(dp931
g100
g101
ssg82
g920
sg75
(lp932
S':'
asbag68
(g89
g70
NtRp933
(dp934
g73
(dp935
sg82
g920
sg75
(lp936
g68
(g69
g70
NtRp937
(dp938
g73
(dp939
g81
I4
ssg82
g933
sg75
(lp940
S'max-age=0'
p941
asbasbasbag68
(g84
g70
NtRp942
(dp943
g73
(dp944
sg82
g672
sg75
(lp945
g68
(g89
g70
NtRp946
(dp947
g73
(dp948
g93
g94
ssg82
g942
sg75
(lp949
S'http_connection'
p950
asbag68
(g89
g70
NtRp951
(dp952
g73
(dp953
g100
g101
ssg82
g942
sg75
(lp954
S':'
asbag68
(g89
g70
NtRp955
(dp956
g73
(dp957
sg82
g942
sg75
(lp958
g68
(g69
g70
NtRp959
(dp960
g73
(dp961
g81
I4
ssg82
g955
sg75
(lp962
S'keep-alive'
p963
asbasbasbag68
(g84
g70
NtRp964
(dp965
g73
(dp966
sg82
g672
sg75
(lp967
g68
(g89
g70
NtRp968
(dp969
g73
(dp970
g93
g94
ssg82
g964
sg75
(lp971
S'http_cookie'
p972
asbag68
(g89
g70
NtRp973
(dp974
g73
(dp975
g100
g101
ssg82
g964
sg75
(lp976
S':'
asbag68
(g89
g70
NtRp977
(dp978
g73
(dp979
sg82
g964
sg75
(lp980
g68
(g69
g70
NtRp981
(dp982
g73
(dp983
g81
I4
ssg82
g977
sg75
(lp984
S'session_id_admin=127.0.0.1-9640a29f-86a5-4471-9025-77da26554f56; session_id_projeto=127.0.0.1-71851f1a-a738-4589-a6cd-6594e5094ab6'
p985
asbasbasbag68
(g84
g70
NtRp986
(dp987
g73
(dp988
sg82
g672
sg75
(lp989
g68
(g89
g70
NtRp990
(dp991
g73
(dp992
g93
g94
ssg82
g986
sg75
(lp993
S'http_host'
p994
asbag68
(g89
g70
NtRp995
(dp996
g73
(dp997
g100
g101
ssg82
g986
sg75
(lp998
S':'
asbag68
(g89
g70
NtRp999
(dp1000
g73
(dp1001
sg82
g986
sg75
(lp1002
g68
(g69
g70
NtRp1003
(dp1004
g73
(dp1005
g81
I4
ssg82
g999
sg75
(lp1006
S'127.0.0.1:8000'
p1007
asbasbasbag68
(g84
g70
NtRp1008
(dp1009
g73
(dp1010
sg82
g672
sg75
(lp1011
g68
(g89
g70
NtRp1012
(dp1013
g73
(dp1014
g93
g94
ssg82
g1008
sg75
(lp1015
S'http_user_agent'
p1016
asbag68
(g89
g70
NtRp1017
(dp1018
g73
(dp1019
g100
g101
ssg82
g1008
sg75
(lp1020
S':'
asbag68
(g89
g70
NtRp1021
(dp1022
g73
(dp1023
sg82
g1008
sg75
(lp1024
g68
(g69
g70
NtRp1025
(dp1026
g73
(dp1027
g81
I4
ssg82
g1021
sg75
(lp1028
S'Mozilla/5.0 (X11; Linux x86_64) AppleWebKit/536.11 (KHTML, like Gecko) Ubuntu/12.04 Chromium/20.0.1132.47 Chrome/20.0.1132.47 Safari/536.11'
p1029
asbasbasbag68
(g84
g70
NtRp1030
(dp1031
g73
(dp1032
sg82
g672
sg75
(lp1033
g68
(g89
g70
NtRp1034
(dp1035
g73
(dp1036
g93
g94
ssg82
g1030
sg75
(lp1037
S'is_jython'
p1038
asbag68
(g89
g70
NtRp1039
(dp1040
g73
(dp1041
g100
g101
ssg82
g1030
sg75
(lp1042
S':'
asbag68
(g89
g70
NtRp1043
(dp1044
g73
(dp1045
sg82
g1030
sg75
(lp1046
g68
(g69
g70
NtRp1047
(dp1048
g73
(dp1049
g81
I4
ssg82
g1043
sg75
(lp1050
g111
asbasbasbag68
(g84
g70
NtRp1051
(dp1052
g73
(dp1053
sg82
g672
sg75
(lp1054
g68
(g89
g70
NtRp1055
(dp1056
g73
(dp1057
g93
g94
ssg82
g1051
sg75
(lp1058
S'is_pypy'
p1059
asbag68
(g89
g70
NtRp1060
(dp1061
g73
(dp1062
g100
g101
ssg82
g1051
sg75
(lp1063
S':'
asbag68
(g89
g70
NtRp1064
(dp1065
g73
(dp1066
sg82
g1051
sg75
(lp1067
g68
(g69
g70
NtRp1068
(dp1069
g73
(dp1070
g81
I4
ssg82
g1064
sg75
(lp1071
g111
asbasbasbag68
(g84
g70
NtRp1072
(dp1073
g73
(dp1074
sg82
g672
sg75
(lp1075
g68
(g89
g70
NtRp1076
(dp1077
g73
(dp1078
g93
g94
ssg82
g1072
sg75
(lp1079
S'local_hosts'
p1080
asbag68
(g89
g70
NtRp1081
(dp1082
g73
(dp1083
g100
g101
ssg82
g1072
sg75
(lp1084
S':'
asbag68
(g89
g70
NtRp1085
(dp1086
g73
(dp1087
sg82
g1072
sg75
(lp1088
g68
(g69
g70
NtRp1089
(dp1090
g73
(dp1091
g81
I4
ssg82
g1085
sg75
(lp1092
g68
(g77
g70
NtRp1093
(dp1094
g73
(dp1095
g81
I3
ssg82
Nsg75
(lp1096
g68
(g84
g70
NtRp1097
(dp1098
g73
(dp1099
sg82
g1093
sg75
(lp1100
g68
(g89
g70
NtRp1101
(dp1102
g73
(dp1103
sg82
g1097
sg75
(lp1104
g68
(g69
g70
NtRp1105
(dp1106
g73
(dp1107
g81
I3
ssg82
g1101
sg75
(lp1108
S'::1'
p1109
asbasbasbag68
(g84
g70
NtRp1110
(dp1111
g73
(dp1112
sg82
g1093
sg75
(lp1113
g68
(g89
g70
NtRp1114
(dp1115
g73
(dp1116
sg82
g1110
sg75
(lp1117
g68
(g69
g70
NtRp1118
(dp1119
g73
(dp1120
g81
I3
ssg82
g1114
sg75
(lp1121
S'127.0.1.1'
p1122
asbasbasbag68
(g84
g70
NtRp1123
(dp1124
g73
(dp1125
sg82
g1093
sg75
(lp1126
g68
(g89
g70
NtRp1127
(dp1128
g73
(dp1129
sg82
g1123
sg75
(lp1130
g68
(g69
g70
NtRp1131
(dp1132
g73
(dp1133
g81
I3
ssg82
g1127
sg75
(lp1134
S'fernando-pc'
p1135
asbasbasbag68
(g84
g70
NtRp1136
(dp1137
g73
(dp1138
sg82
g1093
sg75
(lp1139
g68
(g89
g70
NtRp1140
(dp1141
g73
(dp1142
sg82
g1136
sg75
(lp1143
g68
(g69
g70
NtRp1144
(dp1145
g73
(dp1146
g81
I3
ssg82
g1140
sg75
(lp1147
S'::ffff:127.0.0.1'
p1148
asbasbasbag68
(g84
g70
NtRp1149
(dp1150
g73
(dp1151
sg82
g1093
sg75
(lp1152
g68
(g89
g70
NtRp1153
(dp1154
g73
(dp1155
sg82
g1149
sg75
(lp1156
g68
(g69
g70
NtRp1157
(dp1158
g73
(dp1159
g81
I3
ssg82
g1153
sg75
(lp1160
S'127.0.0.1'
p1161
asbasbasbasbasbasbasbag68
(g84
g70
NtRp1162
(dp1163
g73
(dp1164
sg82
g672
sg75
(lp1165
g68
(g89
g70
NtRp1166
(dp1167
g73
(dp1168
g93
g94
ssg82
g1162
sg75
(lp1169
S'path_info'
p1170
asbag68
(g89
g70
NtRp1171
(dp1172
g73
(dp1173
g100
g101
ssg82
g1162
sg75
(lp1174
S':'
asbag68
(g89
g70
NtRp1175
(dp1176
g73
(dp1177
sg82
g1162
sg75
(lp1178
g68
(g69
g70
NtRp1179
(dp1180
g73
(dp1181
g81
I4
ssg82
g1175
sg75
(lp1182
S'/'
asbasbasbag68
(g84
g70
NtRp1183
(dp1184
g73
(dp1185
sg82
g672
sg75
(lp1186
g68
(g89
g70
NtRp1187
(dp1188
g73
(dp1189
g93
g94
ssg82
g1183
sg75
(lp1190
S'query_string'
p1191
asbag68
(g89
g70
NtRp1192
(dp1193
g73
(dp1194
g100
g101
ssg82
g1183
sg75
(lp1195
S':'
asbag68
(g89
g70
NtRp1196
(dp1197
g73
(dp1198
sg82
g1183
sg75
(lp1199
g68
(g69
g70
NtRp1200
(dp1201
g73
(dp1202
g81
I4
ssg82
g1196
sg75
(lp1203
S''
asbasbasbag68
(g84
g70
NtRp1204
(dp1205
g73
(dp1206
sg82
g672
sg75
(lp1207
g68
(g89
g70
NtRp1208
(dp1209
g73
(dp1210
g93
g94
ssg82
g1204
sg75
(lp1211
S'remote_addr'
p1212
asbag68
(g89
g70
NtRp1213
(dp1214
g73
(dp1215
g100
g101
ssg82
g1204
sg75
(lp1216
S':'
asbag68
(g89
g70
NtRp1217
(dp1218
g73
(dp1219
sg82
g1204
sg75
(lp1220
g68
(g69
g70
NtRp1221
(dp1222
g73
(dp1223
g81
I4
ssg82
g1217
sg75
(lp1224
g223
asbasbasbag68
(g84
g70
NtRp1225
(dp1226
g73
(dp1227
sg82
g672
sg75
(lp1228
g68
(g89
g70
NtRp1229
(dp1230
g73
(dp1231
g93
g94
ssg82
g1225
sg75
(lp1232
S'remote_port'
p1233
asbag68
(g89
g70
NtRp1234
(dp1235
g73
(dp1236
g100
g101
ssg82
g1225
sg75
(lp1237
S':'
asbag68
(g89
g70
NtRp1238
(dp1239
g73
(dp1240
sg82
g1225
sg75
(lp1241
g68
(g69
g70
NtRp1242
(dp1243
g73
(dp1244
g81
I4
ssg82
g1238
sg75
(lp1245
S'46977'
p1246
asbasbasbag68
(g84
g70
NtRp1247
(dp1248
g73
(dp1249
sg82
g672
sg75
(lp1250
g68
(g89
g70
NtRp1251
(dp1252
g73
(dp1253
g93
g94
ssg82
g1247
sg75
(lp1254
S'request_method'
p1255
asbag68
(g89
g70
NtRp1256
(dp1257
g73
(dp1258
g100
g101
ssg82
g1247
sg75
(lp1259
S':'
asbag68
(g89
g70
NtRp1260
(dp1261
g73
(dp1262
sg82
g1247
sg75
(lp1263
g68
(g69
g70
NtRp1264
(dp1265
g73
(dp1266
g81
I4
ssg82
g1260
sg75
(lp1267
S'GET'
p1268
asbasbasbag68
(g84
g70
NtRp1269
(dp1270
g73
(dp1271
sg82
g672
sg75
(lp1272
g68
(g89
g70
NtRp1273
(dp1274
g73
(dp1275
g93
g94
ssg82
g1269
sg75
(lp1276
S'request_uri'
p1277
asbag68
(g89
g70
NtRp1278
(dp1279
g73
(dp1280
g100
g101
ssg82
g1269
sg75
(lp1281
S':'
asbag68
(g89
g70
NtRp1282
(dp1283
g73
(dp1284
sg82
g1269
sg75
(lp1285
g68
(g69
g70
NtRp1286
(dp1287
g73
(dp1288
g81
I4
ssg82
g1282
sg75
(lp1289
S'/projeto/initial/home'
p1290
asbasbasbag68
(g84
g70
NtRp1291
(dp1292
g73
(dp1293
sg82
g672
sg75
(lp1294
g68
(g89
g70
NtRp1295
(dp1296
g73
(dp1297
g93
g94
ssg82
g1291
sg75
(lp1298
S'script_name'
p1299
asbag68
(g89
g70
NtRp1300
(dp1301
g73
(dp1302
g100
g101
ssg82
g1291
sg75
(lp1303
S':'
asbag68
(g89
g70
NtRp1304
(dp1305
g73
(dp1306
sg82
g1291
sg75
(lp1307
g68
(g69
g70
NtRp1308
(dp1309
g73
(dp1310
g81
I4
ssg82
g1304
sg75
(lp1311
S''
asbasbasbag68
(g84
g70
NtRp1312
(dp1313
g73
(dp1314
sg82
g672
sg75
(lp1315
g68
(g89
g70
NtRp1316
(dp1317
g73
(dp1318
g93
g94
ssg82
g1312
sg75
(lp1319
S'server_name'
p1320
asbag68
(g89
g70
NtRp1321
(dp1322
g73
(dp1323
g100
g101
ssg82
g1312
sg75
(lp1324
S':'
asbag68
(g89
g70
NtRp1325
(dp1326
g73
(dp1327
sg82
g1312
sg75
(lp1328
g68
(g69
g70
NtRp1329
(dp1330
g73
(dp1331
g81
I4
ssg82
g1325
sg75
(lp1332
S'fernando-pc'
p1333
asbasbasbag68
(g84
g70
NtRp1334
(dp1335
g73
(dp1336
sg82
g672
sg75
(lp1337
g68
(g89
g70
NtRp1338
(dp1339
g73
(dp1340
g93
g94
ssg82
g1334
sg75
(lp1341
S'server_port'
p1342
asbag68
(g89
g70
NtRp1343
(dp1344
g73
(dp1345
g100
g101
ssg82
g1334
sg75
(lp1346
S':'
asbag68
(g89
g70
NtRp1347
(dp1348
g73
(dp1349
sg82
g1334
sg75
(lp1350
g68
(g69
g70
NtRp1351
(dp1352
g73
(dp1353
g81
I4
ssg82
g1347
sg75
(lp1354
S'8000'
p1355
asbasbasbag68
(g84
g70
NtRp1356
(dp1357
g73
(dp1358
sg82
g672
sg75
(lp1359
g68
(g89
g70
NtRp1360
(dp1361
g73
(dp1362
g93
g94
ssg82
g1356
sg75
(lp1363
S'server_protocol'
p1364
asbag68
(g89
g70
NtRp1365
(dp1366
g73
(dp1367
g100
g101
ssg82
g1356
sg75
(lp1368
S':'
asbag68
(g89
g70
NtRp1369
(dp1370
g73
(dp1371
sg82
g1356
sg75
(lp1372
g68
(g69
g70
NtRp1373
(dp1374
g73
(dp1375
g81
I4
ssg82
g1369
sg75
(lp1376
S'HTTP/1.1'
p1377
asbasbasbag68
(g84
g70
NtRp1378
(dp1379
g73
(dp1380
sg82
g672
sg75
(lp1381
g68
(g89
g70
NtRp1382
(dp1383
g73
(dp1384
g93
g94
ssg82
g1378
sg75
(lp1385
S'server_software'
p1386
asbag68
(g89
g70
NtRp1387
(dp1388
g73
(dp1389
g100
g101
ssg82
g1378
sg75
(lp1390
S':'
asbag68
(g89
g70
NtRp1391
(dp1392
g73
(dp1393
sg82
g1378
sg75
(lp1394
g68
(g69
g70
NtRp1395
(dp1396
g73
(dp1397
g81
I4
ssg82
g1391
sg75
(lp1398
S'Rocket 1.2.6'
p1399
asbasbasbag68
(g84
g70
NtRp1400
(dp1401
g73
(dp1402
sg82
g672
sg75
(lp1403
g68
(g89
g70
NtRp1404
(dp1405
g73
(dp1406
g93
g94
ssg82
g1400
sg75
(lp1407
S'web2py_original_uri'
p1408
asbag68
(g89
g70
NtRp1409
(dp1410
g73
(dp1411
g100
g101
ssg82
g1400
sg75
(lp1412
S':'
asbag68
(g89
g70
NtRp1413
(dp1414
g73
(dp1415
sg82
g1400
sg75
(lp1416
g68
(g69
g70
NtRp1417
(dp1418
g73
(dp1419
g81
I4
ssg82
g1413
sg75
(lp1420
S'/'
asbasbasbag68
(g84
g70
NtRp1421
(dp1422
g73
(dp1423
sg82
g672
sg75
(lp1424
g68
(g89
g70
NtRp1425
(dp1426
g73
(dp1427
g93
g94
ssg82
g1421
sg75
(lp1428
S'web2py_path'
p1429
asbag68
(g89
g70
NtRp1430
(dp1431
g73
(dp1432
g100
g101
ssg82
g1421
sg75
(lp1433
S':'
asbag68
(g89
g70
NtRp1434
(dp1435
g73
(dp1436
sg82
g1421
sg75
(lp1437
g68
(g69
g70
NtRp1438
(dp1439
g73
(dp1440
g81
I4
ssg82
g1434
sg75
(lp1441
g719
asbasbasbag68
(g84
g70
NtRp1442
(dp1443
g73
(dp1444
sg82
g672
sg75
(lp1445
g68
(g89
g70
NtRp1446
(dp1447
g73
(dp1448
g93
g94
ssg82
g1442
sg75
(lp1449
S'web2py_version'
p1450
asbag68
(g89
g70
NtRp1451
(dp1452
g73
(dp1453
g100
g101
ssg82
g1442
sg75
(lp1454
S':'
asbag68
(g89
g70
NtRp1455
(dp1456
g73
(dp1457
sg82
g1442
sg75
(lp1458
g68
(g69
g70
NtRp1459
(dp1460
g73
(dp1461
g81
I4
ssg82
g1455
sg75
(lp1462
g68
(g77
g70
NtRp1463
(dp1464
g73
(dp1465
g81
I3
ssg82
Nsg75
(lp1466
g68
(g84
g70
NtRp1467
(dp1468
g73
(dp1469
sg82
g1463
sg75
(lp1470
g68
(g89
g70
NtRp1471
(dp1472
g73
(dp1473
sg82
g1467
sg75
(lp1474
g68
(g69
g70
NtRp1475
(dp1476
g73
(dp1477
g81
I3
ssg82
g1471
sg75
(lp1478
S'2'
asbasbasbag68
(g84
g70
NtRp1479
(dp1480
g73
(dp1481
sg82
g1463
sg75
(lp1482
g68
(g89
g70
NtRp1483
(dp1484
g73
(dp1485
sg82
g1479
sg75
(lp1486
g68
(g69
g70
NtRp1487
(dp1488
g73
(dp1489
g81
I3
ssg82
g1483
sg75
(lp1490
S'3'
asbasbasbag68
(g84
g70
NtRp1491
(dp1492
g73
(dp1493
sg82
g1463
sg75
(lp1494
g68
(g89
g70
NtRp1495
(dp1496
g73
(dp1497
sg82
g1491
sg75
(lp1498
g68
(g69
g70
NtRp1499
(dp1500
g73
(dp1501
g81
I3
ssg82
g1495
sg75
(lp1502
S'2'
asbasbasbag68
(g84
g70
NtRp1503
(dp1504
g73
(dp1505
sg82
g1463
sg75
(lp1506
g68
(g89
g70
NtRp1507
(dp1508
g73
(dp1509
sg82
g1503
sg75
(lp1510
g68
(g69
g70
NtRp1511
(dp1512
g73
(dp1513
g81
I3
ssg82
g1507
sg75
(lp1514
S'datetime.datetime(2012, 12, 17, 15, 3, 30)'
p1515
asbasbasbag68
(g84
g70
NtRp1516
(dp1517
g73
(dp1518
sg82
g1463
sg75
(lp1519
g68
(g89
g70
NtRp1520
(dp1521
g73
(dp1522
sg82
g1516
sg75
(lp1523
g68
(g69
g70
NtRp1524
(dp1525
g73
(dp1526
g81
I3
ssg82
g1520
sg75
(lp1527
S'stable'
p1528
asbasbasbasbasbasbasbag68
(g84
g70
NtRp1529
(dp1530
g73
(dp1531
sg82
g672
sg75
(lp1532
g68
(g89
g70
NtRp1533
(dp1534
g73
(dp1535
g93
g94
ssg82
g1529
sg75
(lp1536
S'wsgi_errors'
p1537
asbag68
(g89
g70
NtRp1538
(dp1539
g73
(dp1540
g100
g101
ssg82
g1529
sg75
(lp1541
S':'
asbag68
(g89
g70
NtRp1542
(dp1543
g73
(dp1544
sg82
g1529
sg75
(lp1545
g68
(g69
g70
NtRp1546
(dp1547
g73
(dp1548
g81
I4
ssg82
g1542
sg75
(lp1549
S"<open file '<stderr>', mode 'w' at 0x7fe5e28a2270>"
p1550
asbasbasbag68
(g84
g70
NtRp1551
(dp1552
g73
(dp1553
sg82
g672
sg75
(lp1554
g68
(g89
g70
NtRp1555
(dp1556
g73
(dp1557
g93
g94
ssg82
g1551
sg75
(lp1558
S'wsgi_file_wrapper'
p1559
asbag68
(g89
g70
NtRp1560
(dp1561
g73
(dp1562
g100
g101
ssg82
g1551
sg75
(lp1563
S':'
asbag68
(g89
g70
NtRp1564
(dp1565
g73
(dp1566
sg82
g1551
sg75
(lp1567
g68
(g69
g70
NtRp1568
(dp1569
g73
(dp1570
g81
I4
ssg82
g1564
sg75
(lp1571
S'<class wsgiref.util.FileWrapper at 0x33c4808>'
p1572
asbasbasbag68
(g84
g70
NtRp1573
(dp1574
g73
(dp1575
sg82
g672
sg75
(lp1576
g68
(g89
g70
NtRp1577
(dp1578
g73
(dp1579
g93
g94
ssg82
g1573
sg75
(lp1580
S'wsgi_input'
p1581
asbag68
(g89
g70
NtRp1582
(dp1583
g73
(dp1584
g100
g101
ssg82
g1573
sg75
(lp1585
S':'
asbag68
(g89
g70
NtRp1586
(dp1587
g73
(dp1588
sg82
g1573
sg75
(lp1589
g68
(g69
g70
NtRp1590
(dp1591
g73
(dp1592
g81
I4
ssg82
g1586
sg75
(lp1593
S'<socket._fileobject object at 0x7fe5d4277dd0>'
p1594
asbasbasbag68
(g84
g70
NtRp1595
(dp1596
g73
(dp1597
sg82
g672
sg75
(lp1598
g68
(g89
g70
NtRp1599
(dp1600
g73
(dp1601
g93
g94
ssg82
g1595
sg75
(lp1602
S'wsgi_multiprocess'
p1603
asbag68
(g89
g70
NtRp1604
(dp1605
g73
(dp1606
g100
g101
ssg82
g1595
sg75
(lp1607
S':'
asbag68
(g89
g70
NtRp1608
(dp1609
g73
(dp1610
sg82
g1595
sg75
(lp1611
g68
(g69
g70
NtRp1612
(dp1613
g73
(dp1614
g81
I4
ssg82
g1608
sg75
(lp1615
g111
asbasbasbag68
(g84
g70
NtRp1616
(dp1617
g73
(dp1618
sg82
g672
sg75
(lp1619
g68
(g89
g70
NtRp1620
(dp1621
g73
(dp1622
g93
g94
ssg82
g1616
sg75
(lp1623
S'wsgi_multithread'
p1624
asbag68
(g89
g70
NtRp1625
(dp1626
g73
(dp1627
g100
g101
ssg82
g1616
sg75
(lp1628
S':'
asbag68
(g89
g70
NtRp1629
(dp1630
g73
(dp1631
sg82
g1616
sg75
(lp1632
g68
(g69
g70
NtRp1633
(dp1634
g73
(dp1635
g81
I4
ssg82
g1629
sg75
(lp1636
S'True'
p1637
asbasbasbag68
(g84
g70
NtRp1638
(dp1639
g73
(dp1640
sg82
g672
sg75
(lp1641
g68
(g89
g70
NtRp1642
(dp1643
g73
(dp1644
g93
g94
ssg82
g1638
sg75
(lp1645
S'wsgi_run_once'
p1646
asbag68
(g89
g70
NtRp1647
(dp1648
g73
(dp1649
g100
g101
ssg82
g1638
sg75
(lp1650
S':'
asbag68
(g89
g70
NtRp1651
(dp1652
g73
(dp1653
sg82
g1638
sg75
(lp1654
g68
(g69
g70
NtRp1655
(dp1656
g73
(dp1657
g81
I4
ssg82
g1651
sg75
(lp1658
g111
asbasbasbag68
(g84
g70
NtRp1659
(dp1660
g73
(dp1661
sg82
g672
sg75
(lp1662
g68
(g89
g70
NtRp1663
(dp1664
g73
(dp1665
g93
g94
ssg82
g1659
sg75
(lp1666
S'wsgi_url_scheme'
p1667
asbag68
(g89
g70
NtRp1668
(dp1669
g73
(dp1670
g100
g101
ssg82
g1659
sg75
(lp1671
S':'
asbag68
(g89
g70
NtRp1672
(dp1673
g73
(dp1674
sg82
g1659
sg75
(lp1675
g68
(g69
g70
NtRp1676
(dp1677
g73
(dp1678
g81
I4
ssg82
g1672
sg75
(lp1679
S'http'
p1680
asbasbasbag68
(g84
g70
NtRp1681
(dp1682
g73
(dp1683
sg82
g672
sg75
(lp1684
g68
(g89
g70
NtRp1685
(dp1686
g73
(dp1687
g93
g94
ssg82
g1681
sg75
(lp1688
S'wsgi_version'
p1689
asbag68
(g89
g70
NtRp1690
(dp1691
g73
(dp1692
g100
g101
ssg82
g1681
sg75
(lp1693
S':'
asbag68
(g89
g70
NtRp1694
(dp1695
g73
(dp1696
sg82
g1681
sg75
(lp1697
g68
(g69
g70
NtRp1698
(dp1699
g73
(dp1700
g81
I4
ssg82
g1694
sg75
(lp1701
g68
(g77
g70
NtRp1702
(dp1703
g73
(dp1704
g81
I3
ssg82
Nsg75
(lp1705
g68
(g84
g70
NtRp1706
(dp1707
g73
(dp1708
sg82
g1702
sg75
(lp1709
g68
(g89
g70
NtRp1710
(dp1711
g73
(dp1712
sg82
g1706
sg75
(lp1713
g68
(g69
g70
NtRp1714
(dp1715
g73
(dp1716
g81
I3
ssg82
g1710
sg75
(lp1717
S'1'
asbasbasbag68
(g84
g70
NtRp1718
(dp1719
g73
(dp1720
sg82
g1702
sg75
(lp1721
g68
(g89
g70
NtRp1722
(dp1723
g73
(dp1724
sg82
g1718
sg75
(lp1725
g68
(g69
g70
NtRp1726
(dp1727
g73
(dp1728
g81
I3
ssg82
g1722
sg75
(lp1729
S'0'
asbasbasbasbasbasbasbasbasbasbasbag68
(g84
g70
NtRp1730
(dp1731
g73
(dp1732
sg82
g78
sg75
(lp1733
g68
(g89
g70
NtRp1734
(dp1735
g73
(dp1736
g93
g94
ssg82
g1730
sg75
(lp1737
S'extension'
p1738
asbag68
(g89
g70
NtRp1739
(dp1740
g73
(dp1741
g100
g101
ssg82
g1730
sg75
(lp1742
S':'
asbag68
(g89
g70
NtRp1743
(dp1744
g73
(dp1745
sg82
g1730
sg75
(lp1746
g68
(g69
g70
NtRp1747
(dp1748
g73
(dp1749
g81
I5
ssg82
g1743
sg75
(lp1750
S'html'
p1751
asbasbasbag68
(g84
g70
NtRp1752
(dp1753
g73
(dp1754
sg82
g78
sg75
(lp1755
g68
(g89
g70
NtRp1756
(dp1757
g73
(dp1758
g93
g94
ssg82
g1752
sg75
(lp1759
S'folder'
p1760
asbag68
(g89
g70
NtRp1761
(dp1762
g73
(dp1763
g100
g101
ssg82
g1752
sg75
(lp1764
S':'
asbag68
(g89
g70
NtRp1765
(dp1766
g73
(dp1767
sg82
g1752
sg75
(lp1768
g68
(g69
g70
NtRp1769
(dp1770
g73
(dp1771
g81
I5
ssg82
g1765
sg75
(lp1772
S'/var/www/web2py_curso/applications/projeto/'
p1773
asbasbasbag68
(g84
g70
NtRp1774
(dp1775
g73
(dp1776
sg82
g78
sg75
(lp1777
g68
(g89
g70
NtRp1778
(dp1779
g73
(dp1780
g93
g94
ssg82
g1774
sg75
(lp1781
S'function'
p1782
asbag68
(g89
g70
NtRp1783
(dp1784
g73
(dp1785
g100
g101
ssg82
g1774
sg75
(lp1786
S':'
asbag68
(g89
g70
NtRp1787
(dp1788
g73
(dp1789
sg82
g1774
sg75
(lp1790
g68
(g69
g70
NtRp1791
(dp1792
g73
(dp1793
g81
I5
ssg82
g1787
sg75
(lp1794
S'home'
p1795
asbasbasbag68
(g84
g70
NtRp1796
(dp1797
g73
(dp1798
sg82
g78
sg75
(lp1799
g68
(g89
g70
NtRp1800
(dp1801
g73
(dp1802
g93
g94
ssg82
g1796
sg75
(lp1803
S'get_vars'
p1804
asbag68
(g89
g70
NtRp1805
(dp1806
g73
(dp1807
g100
g101
ssg82
g1796
sg75
(lp1808
S':'
asbag68
(g89
g70
NtRp1809
(dp1810
g73
(dp1811
sg82
g1796
sg75
(lp1812
g68
(g69
g70
NtRp1813
(dp1814
g73
(dp1815
g81
I5
ssg82
g1809
sg75
(lp1816
g68
(g77
g70
NtRp1817
(dp1818
g73
(dp1819
g81
I4
ssg82
Nsg75
(lp1820
sbasbasbasbag68
(g84
g70
NtRp1821
(dp1822
g73
(dp1823
sg82
g78
sg75
(lp1824
g68
(g89
g70
NtRp1825
(dp1826
g73
(dp1827
g93
g94
ssg82
g1821
sg75
(lp1828
S'global_settings'
p1829
asbag68
(g89
g70
NtRp1830
(dp1831
g73
(dp1832
g100
g101
ssg82
g1821
sg75
(lp1833
S':'
asbag68
(g89
g70
NtRp1834
(dp1835
g73
(dp1836
sg82
g1821
sg75
(lp1837
g68
(g69
g70
NtRp1838
(dp1839
g73
(dp1840
g81
I5
ssg82
g1834
sg75
(lp1841
g68
(g77
g70
NtRp1842
(dp1843
g73
(dp1844
g81
I4
ssg82
Nsg75
(lp1845
g68
(g84
g70
NtRp1846
(dp1847
g73
(dp1848
sg82
g1842
sg75
(lp1849
g68
(g89
g70
NtRp1850
(dp1851
g73
(dp1852
g93
g94
ssg82
g1846
sg75
(lp1853
g684
asbag68
(g89
g70
NtRp1854
(dp1855
g73
(dp1856
g100
g101
ssg82
g1846
sg75
(lp1857
S':'
asbag68
(g89
g70
NtRp1858
(dp1859
g73
(dp1860
sg82
g1846
sg75
(lp1861
g68
(g69
g70
NtRp1862
(dp1863
g73
(dp1864
g81
I4
ssg82
g1858
sg75
(lp1865
S"set(['/var/www/web2py_curso/applications/projeto/'])"
p1866
asbasbasbag68
(g84
g70
NtRp1867
(dp1868
g73
(dp1869
sg82
g1842
sg75
(lp1870
g68
(g89
g70
NtRp1871
(dp1872
g73
(dp1873
g93
g94
ssg82
g1867
sg75
(lp1874
g706
asbag68
(g89
g70
NtRp1875
(dp1876
g73
(dp1877
g100
g101
ssg82
g1867
sg75
(lp1878
S':'
asbag68
(g89
g70
NtRp1879
(dp1880
g73
(dp1881
sg82
g1867
sg75
(lp1882
g68
(g69
g70
NtRp1883
(dp1884
g73
(dp1885
g81
I4
ssg82
g1879
sg75
(lp1886
g719
asbasbasbag68
(g84
g70
NtRp1887
(dp1888
g73
(dp1889
sg82
g1842
sg75
(lp1890
g68
(g89
g70
NtRp1891
(dp1892
g73
(dp1893
g93
g94
ssg82
g1887
sg75
(lp1894
g728
asbag68
(g89
g70
NtRp1895
(dp1896
g73
(dp1897
g100
g101
ssg82
g1887
sg75
(lp1898
S':'
asbag68
(g89
g70
NtRp1899
(dp1900
g73
(dp1901
sg82
g1887
sg75
(lp1902
g68
(g69
g70
NtRp1903
(dp1904
g73
(dp1905
g81
I4
ssg82
g1899
sg75
(lp1906
g68
(g77
g70
NtRp1907
(dp1908
g73
(dp1909
g81
I3
ssg82
Nsg75
(lp1910
sbasbasbasbag68
(g84
g70
NtRp1911
(dp1912
g73
(dp1913
sg82
g1842
sg75
(lp1914
g68
(g89
g70
NtRp1915
(dp1916
g73
(dp1917
g93
g94
ssg82
g1911
sg75
(lp1918
g753
asbag68
(g89
g70
NtRp1919
(dp1920
g73
(dp1921
g100
g101
ssg82
g1911
sg75
(lp1922
S':'
asbag68
(g89
g70
NtRp1923
(dp1924
g73
(dp1925
sg82
g1911
sg75
(lp1926
g68
(g69
g70
NtRp1927
(dp1928
g73
(dp1929
g81
I4
ssg82
g1923
sg75
(lp1930
S"<Values at 0x3476a28: {'verbose': False, 'ip': '127.0.0.1', 'with_scheduler': False, 'ips': [], 'shutdown_timeout': 5, 'taskbar': False, 'port': 8000, 'maxthreads': None, 'softcron': False, 'server_name': 'fernando-pc', 'bpython': False, 'nogui': False, 'pid_filename': 'httpserver.pid', 'extcron': False, 'runcron': False, 'run_system_tests': False, 'test': None, 'folder': '/var/www/web2py_curso', 'config': '', 'minthreads': None, 'winservice': '', 'shell': None, 'run': '', 'log_filename': 'httpserver.log', 'debuglevel': 30, 'args': [''], 'socket_timeout': 5, 'ssl_ca_certificate': None, 'scheduler': None, 'profiler_filename': None, 'ssl_private_key': '', 'scheduler_groups': None, 'password': '123456', 'request_queue_size': 5, 'ssl_certificate': '', 'cronjob': False, 'numthreads': None, 'quiet': False, 'interfaces': None, 'import_models': False, 'timeout': 10, 'plain': False, 'nobanner': False}>"
p1931
asbasbasbag68
(g84
g70
NtRp1932
(dp1933
g73
(dp1934
sg82
g1842
sg75
(lp1935
g68
(g89
g70
NtRp1936
(dp1937
g73
(dp1938
g93
g94
ssg82
g1932
sg75
(lp1939
g775
asbag68
(g89
g70
NtRp1940
(dp1941
g73
(dp1942
g100
g101
ssg82
g1932
sg75
(lp1943
S':'
asbag68
(g89
g70
NtRp1944
(dp1945
g73
(dp1946
sg82
g1932
sg75
(lp1947
g68
(g69
g70
NtRp1948
(dp1949
g73
(dp1950
g81
I4
ssg82
g1944
sg75
(lp1951
S'set([])'
p1952
asbasbasbag68
(g84
g70
NtRp1953
(dp1954
g73
(dp1955
sg82
g1842
sg75
(lp1956
g68
(g89
g70
NtRp1957
(dp1958
g73
(dp1959
g93
g94
ssg82
g1953
sg75
(lp1960
g797
asbag68
(g89
g70
NtRp1961
(dp1962
g73
(dp1963
g100
g101
ssg82
g1953
sg75
(lp1964
S':'
asbag68
(g89
g70
NtRp1965
(dp1966
g73
(dp1967
sg82
g1953
sg75
(lp1968
g68
(g69
g70
NtRp1969
(dp1970
g73
(dp1971
g81
I4
ssg82
g1965
sg75
(lp1972
g111
asbasbasbag68
(g84
g70
NtRp1973
(dp1974
g73
(dp1975
sg82
g1842
sg75
(lp1976
g68
(g89
g70
NtRp1977
(dp1978
g73
(dp1979
g93
g94
ssg82
g1973
sg75
(lp1980
g818
asbag68
(g89
g70
NtRp1981
(dp1982
g73
(dp1983
g100
g101
ssg82
g1973
sg75
(lp1984
S':'
asbag68
(g89
g70
NtRp1985
(dp1986
g73
(dp1987
sg82
g1973
sg75
(lp1988
g68
(g69
g70
NtRp1989
(dp1990
g73
(dp1991
g81
I4
ssg82
g1985
sg75
(lp1992
g831
asbasbasbag68
(g84
g70
NtRp1993
(dp1994
g73
(dp1995
sg82
g1842
sg75
(lp1996
g68
(g89
g70
NtRp1997
(dp1998
g73
(dp1999
g93
g94
ssg82
g1993
sg75
(lp2000
g1038
asbag68
(g89
g70
NtRp2001
(dp2002
g73
(dp2003
g100
g101
ssg82
g1993
sg75
(lp2004
S':'
asbag68
(g89
g70
NtRp2005
(dp2006
g73
(dp2007
sg82
g1993
sg75
(lp2008
g68
(g69
g70
NtRp2009
(dp2010
g73
(dp2011
g81
I4
ssg82
g2005
sg75
(lp2012
g111
asbasbasbag68
(g84
g70
NtRp2013
(dp2014
g73
(dp2015
sg82
g1842
sg75
(lp2016
g68
(g89
g70
NtRp2017
(dp2018
g73
(dp2019
g93
g94
ssg82
g2013
sg75
(lp2020
g1059
asbag68
(g89
g70
NtRp2021
(dp2022
g73
(dp2023
g100
g101
ssg82
g2013
sg75
(lp2024
S':'
asbag68
(g89
g70
NtRp2025
(dp2026
g73
(dp2027
sg82
g2013
sg75
(lp2028
g68
(g69
g70
NtRp2029
(dp2030
g73
(dp2031
g81
I4
ssg82
g2025
sg75
(lp2032
g111
asbasbasbag68
(g84
g70
NtRp2033
(dp2034
g73
(dp2035
sg82
g1842
sg75
(lp2036
g68
(g89
g70
NtRp2037
(dp2038
g73
(dp2039
g93
g94
ssg82
g2033
sg75
(lp2040
g1080
asbag68
(g89
g70
NtRp2041
(dp2042
g73
(dp2043
g100
g101
ssg82
g2033
sg75
(lp2044
S':'
asbag68
(g89
g70
NtRp2045
(dp2046
g73
(dp2047
sg82
g2033
sg75
(lp2048
g68
(g69
g70
NtRp2049
(dp2050
g73
(dp2051
g81
I4
ssg82
g2045
sg75
(lp2052
g68
(g77
g70
NtRp2053
(dp2054
g73
(dp2055
g81
I3
ssg82
Nsg75
(lp2056
g68
(g84
g70
NtRp2057
(dp2058
g73
(dp2059
sg82
g2053
sg75
(lp2060
g68
(g89
g70
NtRp2061
(dp2062
g73
(dp2063
sg82
g2057
sg75
(lp2064
g68
(g69
g70
NtRp2065
(dp2066
g73
(dp2067
g81
I3
ssg82
g2061
sg75
(lp2068
g1109
asbasbasbag68
(g84
g70
NtRp2069
(dp2070
g73
(dp2071
sg82
g2053
sg75
(lp2072
g68
(g89
g70
NtRp2073
(dp2074
g73
(dp2075
sg82
g2069
sg75
(lp2076
g68
(g69
g70
NtRp2077
(dp2078
g73
(dp2079
g81
I3
ssg82
g2073
sg75
(lp2080
g1122
asbasbasbag68
(g84
g70
NtRp2081
(dp2082
g73
(dp2083
sg82
g2053
sg75
(lp2084
g68
(g89
g70
NtRp2085
(dp2086
g73
(dp2087
sg82
g2081
sg75
(lp2088
g68
(g69
g70
NtRp2089
(dp2090
g73
(dp2091
g81
I3
ssg82
g2085
sg75
(lp2092
g1135
asbasbasbag68
(g84
g70
NtRp2093
(dp2094
g73
(dp2095
sg82
g2053
sg75
(lp2096
g68
(g89
g70
NtRp2097
(dp2098
g73
(dp2099
sg82
g2093
sg75
(lp2100
g68
(g69
g70
NtRp2101
(dp2102
g73
(dp2103
g81
I3
ssg82
g2097
sg75
(lp2104
g1148
asbasbasbag68
(g84
g70
NtRp2105
(dp2106
g73
(dp2107
sg82
g2053
sg75
(lp2108
g68
(g89
g70
NtRp2109
(dp2110
g73
(dp2111
sg82
g2105
sg75
(lp2112
g68
(g69
g70
NtRp2113
(dp2114
g73
(dp2115
g81
I3
ssg82
g2109
sg75
(lp2116
g1161
asbasbasbasbasbasbasbag68
(g84
g70
NtRp2117
(dp2118
g73
(dp2119
sg82
g1842
sg75
(lp2120
g68
(g89
g70
NtRp2121
(dp2122
g73
(dp2123
g93
g94
ssg82
g2117
sg75
(lp2124
g1450
asbag68
(g89
g70
NtRp2125
(dp2126
g73
(dp2127
g100
g101
ssg82
g2117
sg75
(lp2128
S':'
asbag68
(g89
g70
NtRp2129
(dp2130
g73
(dp2131
sg82
g2117
sg75
(lp2132
g68
(g69
g70
NtRp2133
(dp2134
g73
(dp2135
g81
I4
ssg82
g2129
sg75
(lp2136
g68
(g77
g70
NtRp2137
(dp2138
g73
(dp2139
g81
I3
ssg82
Nsg75
(lp2140
g68
(g84
g70
NtRp2141
(dp2142
g73
(dp2143
sg82
g2137
sg75
(lp2144
g68
(g89
g70
NtRp2145
(dp2146
g73
(dp2147
sg82
g2141
sg75
(lp2148
g68
(g69
g70
NtRp2149
(dp2150
g73
(dp2151
g81
I3
ssg82
g2145
sg75
(lp2152
S'2'
asbasbasbag68
(g84
g70
NtRp2153
(dp2154
g73
(dp2155
sg82
g2137
sg75
(lp2156
g68
(g89
g70
NtRp2157
(dp2158
g73
(dp2159
sg82
g2153
sg75
(lp2160
g68
(g69
g70
NtRp2161
(dp2162
g73
(dp2163
g81
I3
ssg82
g2157
sg75
(lp2164
S'3'
asbasbasbag68
(g84
g70
NtRp2165
(dp2166
g73
(dp2167
sg82
g2137
sg75
(lp2168
g68
(g89
g70
NtRp2169
(dp2170
g73
(dp2171
sg82
g2165
sg75
(lp2172
g68
(g69
g70
NtRp2173
(dp2174
g73
(dp2175
g81
I3
ssg82
g2169
sg75
(lp2176
S'2'
asbasbasbag68
(g84
g70
NtRp2177
(dp2178
g73
(dp2179
sg82
g2137
sg75
(lp2180
g68
(g89
g70
NtRp2181
(dp2182
g73
(dp2183
sg82
g2177
sg75
(lp2184
g68
(g69
g70
NtRp2185
(dp2186
g73
(dp2187
g81
I3
ssg82
g2181
sg75
(lp2188
S'datetime.datetime(2012, 12, 17, 15, 3, 30)'
p2189
asbasbasbag68
(g84
g70
NtRp2190
(dp2191
g73
(dp2192
sg82
g2137
sg75
(lp2193
g68
(g89
g70
NtRp2194
(dp2195
g73
(dp2196
sg82
g2190
sg75
(lp2197
g68
(g69
g70
NtRp2198
(dp2199
g73
(dp2200
g81
I3
ssg82
g2194
sg75
(lp2201
g1528
asbasbasbasbasbasbasbasbasbasbasbag68
(g84
g70
NtRp2202
(dp2203
g73
(dp2204
sg82
g78
sg75
(lp2205
g68
(g89
g70
NtRp2206
(dp2207
g73
(dp2208
g93
g94
ssg82
g2202
sg75
(lp2209
S'is_https'
p2210
asbag68
(g89
g70
NtRp2211
(dp2212
g73
(dp2213
g100
g101
ssg82
g2202
sg75
(lp2214
S':'
asbag68
(g89
g70
NtRp2215
(dp2216
g73
(dp2217
sg82
g2202
sg75
(lp2218
g68
(g69
g70
NtRp2219
(dp2220
g73
(dp2221
g81
I5
ssg82
g2215
sg75
(lp2222
g111
asbasbasbag68
(g84
g70
NtRp2223
(dp2224
g73
(dp2225
sg82
g78
sg75
(lp2226
g68
(g89
g70
NtRp2227
(dp2228
g73
(dp2229
g93
g94
ssg82
g2223
sg75
(lp2230
S'is_local'
p2231
asbag68
(g89
g70
NtRp2232
(dp2233
g73
(dp2234
g100
g101
ssg82
g2223
sg75
(lp2235
S':'
asbag68
(g89
g70
NtRp2236
(dp2237
g73
(dp2238
sg82
g2223
sg75
(lp2239
g68
(g69
g70
NtRp2240
(dp2241
g73
(dp2242
g81
I5
ssg82
g2236
sg75
(lp2243
g1637
asbasbasbag68
(g84
g70
NtRp2244
(dp2245
g73
(dp2246
sg82
g78
sg75
(lp2247
g68
(g89
g70
NtRp2248
(dp2249
g73
(dp2250
g93
g94
ssg82
g2244
sg75
(lp2251
S'is_restful'
p2252
asbag68
(g89
g70
NtRp2253
(dp2254
g73
(dp2255
g100
g101
ssg82
g2244
sg75
(lp2256
S':'
asbag68
(g89
g70
NtRp2257
(dp2258
g73
(dp2259
sg82
g2244
sg75
(lp2260
g68
(g69
g70
NtRp2261
(dp2262
g73
(dp2263
g81
I5
ssg82
g2257
sg75
(lp2264
g111
asbasbasbag68
(g84
g70
NtRp2265
(dp2266
g73
(dp2267
sg82
g78
sg75
(lp2268
g68
(g89
g70
NtRp2269
(dp2270
g73
(dp2271
g93
g94
ssg82
g2265
sg75
(lp2272
S'now'
p2273
asbag68
(g89
g70
NtRp2274
(dp2275
g73
(dp2276
g100
g101
ssg82
g2265
sg75
(lp2277
S':'
asbag68
(g89
g70
NtRp2278
(dp2279
g73
(dp2280
sg82
g2265
sg75
(lp2281
g68
(g69
g70
NtRp2282
(dp2283
g73
(dp2284
g81
I5
ssg82
g2278
sg75
(lp2285
S'datetime.datetime(2013, 2, 2, 21, 51, 17, 975963)'
p2286
asbasbasbag68
(g84
g70
NtRp2287
(dp2288
g73
(dp2289
sg82
g78
sg75
(lp2290
g68
(g89
g70
NtRp2291
(dp2292
g73
(dp2293
g93
g94
ssg82
g2287
sg75
(lp2294
S'post_vars'
p2295
asbag68
(g89
g70
NtRp2296
(dp2297
g73
(dp2298
g100
g101
ssg82
g2287
sg75
(lp2299
S':'
asbag68
(g89
g70
NtRp2300
(dp2301
g73
(dp2302
sg82
g2287
sg75
(lp2303
g68
(g69
g70
NtRp2304
(dp2305
g73
(dp2306
g81
I5
ssg82
g2300
sg75
(lp2307
g68
(g77
g70
NtRp2308
(dp2309
g73
(dp2310
g81
I4
ssg82
Nsg75
(lp2311
sbasbasbasbag68
(g84
g70
NtRp2312
(dp2313
g73
(dp2314
sg82
g78
sg75
(lp2315
g68
(g89
g70
NtRp2316
(dp2317
g73
(dp2318
g93
g94
ssg82
g2312
sg75
(lp2319
S'url'
p2320
asbag68
(g89
g70
NtRp2321
(dp2322
g73
(dp2323
g100
g101
ssg82
g2312
sg75
(lp2324
S':'
asbag68
(g89
g70
NtRp2325
(dp2326
g73
(dp2327
sg82
g2312
sg75
(lp2328
g68
(g69
g70
NtRp2329
(dp2330
g73
(dp2331
g81
I5
ssg82
g2325
sg75
(lp2332
S'/'
asbasbasbag68
(g84
g70
NtRp2333
(dp2334
g73
(dp2335
sg82
g78
sg75
(lp2336
g68
(g89
g70
NtRp2337
(dp2338
g73
(dp2339
g93
g94
ssg82
g2333
sg75
(lp2340
S'utcnow'
p2341
asbag68
(g89
g70
NtRp2342
(dp2343
g73
(dp2344
g100
g101
ssg82
g2333
sg75
(lp2345
S':'
asbag68
(g89
g70
NtRp2346
(dp2347
g73
(dp2348
sg82
g2333
sg75
(lp2349
g68
(g69
g70
NtRp2350
(dp2351
g73
(dp2352
g81
I5
ssg82
g2346
sg75
(lp2353
S'datetime.datetime(2013, 2, 2, 23, 51, 17, 975995)'
p2354
asbasbasbag68
(g84
g70
NtRp2355
(dp2356
g73
(dp2357
sg82
g78
sg75
(lp2358
g68
(g89
g70
NtRp2359
(dp2360
g73
(dp2361
g93
g94
ssg82
g2355
sg75
(lp2362
S'uuid'
p2363
asbag68
(g89
g70
NtRp2364
(dp2365
g73
(dp2366
g100
g101
ssg82
g2355
sg75
(lp2367
S':'
asbag68
(g89
g70
NtRp2368
(dp2369
g73
(dp2370
sg82
g2355
sg75
(lp2371
g68
(g69
g70
NtRp2372
(dp2373
g73
(dp2374
g81
I5
ssg82
g2368
sg75
(lp2375
S'projeto/127.0.0.1.2013-02-02.21-51-17.f9cd9ea7-4c55-41ac-ad2c-31760e831bd1'
p2376
asbasbasbag68
(g84
g70
NtRp2377
(dp2378
g73
(dp2379
sg82
g78
sg75
(lp2380
g68
(g89
g70
NtRp2381
(dp2382
g73
(dp2383
g93
g94
ssg82
g2377
sg75
(lp2384
S'vars'
p2385
asbag68
(g89
g70
NtRp2386
(dp2387
g73
(dp2388
g100
g101
ssg82
g2377
sg75
(lp2389
S':'
asbag68
(g89
g70
NtRp2390
(dp2391
g73
(dp2392
sg82
g2377
sg75
(lp2393
g68
(g69
g70
NtRp2394
(dp2395
g73
(dp2396
g81
I5
ssg82
g2390
sg75
(lp2397
g68
(g77
g70
NtRp2398
(dp2399
g73
(dp2400
g81
I4
ssg82
Nsg75
(lp2401
sbasbasbasbag68
(g84
g70
NtRp2402
(dp2403
g73
(dp2404
sg82
g78
sg75
(lp2405
g68
(g89
g70
NtRp2406
(dp2407
g73
(dp2408
g93
g94
ssg82
g2402
sg75
(lp2409
S'wsgi'
p2410
asbag68
(g89
g70
NtRp2411
(dp2412
g73
(dp2413
g100
g101
ssg82
g2402
sg75
(lp2414
S':'
asbag68
(g89
g70
NtRp2415
(dp2416
g73
(dp2417
sg82
g2402
sg75
(lp2418
g68
(g69
g70
NtRp2419
(dp2420
g73
(dp2421
g81
I5
ssg82
g2415
sg75
(lp2422
g68
(g77
g70
NtRp2423
(dp2424
g73
(dp2425
g81
I4
ssg82
Nsg75
(lp2426
g68
(g84
g70
NtRp2427
(dp2428
g73
(dp2429
sg82
g2423
sg75
(lp2430
g68
(g89
g70
NtRp2431
(dp2432
g73
(dp2433
g93
g94
ssg82
g2427
sg75
(lp2434
S'environ'
p2435
asbag68
(g89
g70
NtRp2436
(dp2437
g73
(dp2438
g100
g101
ssg82
g2427
sg75
(lp2439
S':'
asbag68
(g89
g70
NtRp2440
(dp2441
g73
(dp2442
sg82
g2427
sg75
(lp2443
g68
(g69
g70
NtRp2444
(dp2445
g73
(dp2446
g81
I4
ssg82
g2440
sg75
(lp2447
g68
(g77
g70
NtRp2448
(dp2449
g73
(dp2450
g81
I3
ssg82
Nsg75
(lp2451
g68
(g84
g70
NtRp2452
(dp2453
g73
(dp2454
sg82
g2448
sg75
(lp2455
g68
(g89
g70
NtRp2456
(dp2457
g73
(dp2458
g93
g94
ssg82
g2452
sg75
(lp2459
S'HTTP_ACCEPT'
p2460
asbag68
(g89
g70
NtRp2461
(dp2462
g73
(dp2463
g100
g101
ssg82
g2452
sg75
(lp2464
S':'
asbag68
(g89
g70
NtRp2465
(dp2466
g73
(dp2467
sg82
g2452
sg75
(lp2468
g68
(g69
g70
NtRp2469
(dp2470
g73
(dp2471
g81
I3
ssg82
g2465
sg75
(lp2472
g853
asbasbasbag68
(g84
g70
NtRp2473
(dp2474
g73
(dp2475
sg82
g2448
sg75
(lp2476
g68
(g89
g70
NtRp2477
(dp2478
g73
(dp2479
g93
g94
ssg82
g2473
sg75
(lp2480
S'HTTP_ACCEPT_CHARSET'
p2481
asbag68
(g89
g70
NtRp2482
(dp2483
g73
(dp2484
g100
g101
ssg82
g2473
sg75
(lp2485
S':'
asbag68
(g89
g70
NtRp2486
(dp2487
g73
(dp2488
sg82
g2473
sg75
(lp2489
g68
(g69
g70
NtRp2490
(dp2491
g73
(dp2492
g81
I3
ssg82
g2486
sg75
(lp2493
g875
asbasbasbag68
(g84
g70
NtRp2494
(dp2495
g73
(dp2496
sg82
g2448
sg75
(lp2497
g68
(g89
g70
NtRp2498
(dp2499
g73
(dp2500
g93
g94
ssg82
g2494
sg75
(lp2501
S'HTTP_ACCEPT_ENCODING'
p2502
asbag68
(g89
g70
NtRp2503
(dp2504
g73
(dp2505
g100
g101
ssg82
g2494
sg75
(lp2506
S':'
asbag68
(g89
g70
NtRp2507
(dp2508
g73
(dp2509
sg82
g2494
sg75
(lp2510
g68
(g69
g70
NtRp2511
(dp2512
g73
(dp2513
g81
I3
ssg82
g2507
sg75
(lp2514
g897
asbasbasbag68
(g84
g70
NtRp2515
(dp2516
g73
(dp2517
sg82
g2448
sg75
(lp2518
g68
(g89
g70
NtRp2519
(dp2520
g73
(dp2521
g93
g94
ssg82
g2515
sg75
(lp2522
S'HTTP_ACCEPT_LANGUAGE'
p2523
asbag68
(g89
g70
NtRp2524
(dp2525
g73
(dp2526
g100
g101
ssg82
g2515
sg75
(lp2527
S':'
asbag68
(g89
g70
NtRp2528
(dp2529
g73
(dp2530
sg82
g2515
sg75
(lp2531
g68
(g69
g70
NtRp2532
(dp2533
g73
(dp2534
g81
I3
ssg82
g2528
sg75
(lp2535
g919
asbasbasbag68
(g84
g70
NtRp2536
(dp2537
g73
(dp2538
sg82
g2448
sg75
(lp2539
g68
(g89
g70
NtRp2540
(dp2541
g73
(dp2542
g93
g94
ssg82
g2536
sg75
(lp2543
S'HTTP_CACHE_CONTROL'
p2544
asbag68
(g89
g70
NtRp2545
(dp2546
g73
(dp2547
g100
g101
ssg82
g2536
sg75
(lp2548
S':'
asbag68
(g89
g70
NtRp2549
(dp2550
g73
(dp2551
sg82
g2536
sg75
(lp2552
g68
(g69
g70
NtRp2553
(dp2554
g73
(dp2555
g81
I3
ssg82
g2549
sg75
(lp2556
g941
asbasbasbag68
(g84
g70
NtRp2557
(dp2558
g73
(dp2559
sg82
g2448
sg75
(lp2560
g68
(g89
g70
NtRp2561
(dp2562
g73
(dp2563
g93
g94
ssg82
g2557
sg75
(lp2564
S'HTTP_CONNECTION'
p2565
asbag68
(g89
g70
NtRp2566
(dp2567
g73
(dp2568
g100
g101
ssg82
g2557
sg75
(lp2569
S':'
asbag68
(g89
g70
NtRp2570
(dp2571
g73
(dp2572
sg82
g2557
sg75
(lp2573
g68
(g69
g70
NtRp2574
(dp2575
g73
(dp2576
g81
I3
ssg82
g2570
sg75
(lp2577
g963
asbasbasbag68
(g84
g70
NtRp2578
(dp2579
g73
(dp2580
sg82
g2448
sg75
(lp2581
g68
(g89
g70
NtRp2582
(dp2583
g73
(dp2584
g93
g94
ssg82
g2578
sg75
(lp2585
S'HTTP_COOKIE'
p2586
asbag68
(g89
g70
NtRp2587
(dp2588
g73
(dp2589
g100
g101
ssg82
g2578
sg75
(lp2590
S':'
asbag68
(g89
g70
NtRp2591
(dp2592
g73
(dp2593
sg82
g2578
sg75
(lp2594
g68
(g69
g70
NtRp2595
(dp2596
g73
(dp2597
g81
I3
ssg82
g2591
sg75
(lp2598
g985
asbasbasbag68
(g84
g70
NtRp2599
(dp2600
g73
(dp2601
sg82
g2448
sg75
(lp2602
g68
(g89
g70
NtRp2603
(dp2604
g73
(dp2605
g93
g94
ssg82
g2599
sg75
(lp2606
S'HTTP_HOST'
p2607
asbag68
(g89
g70
NtRp2608
(dp2609
g73
(dp2610
g100
g101
ssg82
g2599
sg75
(lp2611
S':'
asbag68
(g89
g70
NtRp2612
(dp2613
g73
(dp2614
sg82
g2599
sg75
(lp2615
g68
(g69
g70
NtRp2616
(dp2617
g73
(dp2618
g81
I3
ssg82
g2612
sg75
(lp2619
g1007
asbasbasbag68
(g84
g70
NtRp2620
(dp2621
g73
(dp2622
sg82
g2448
sg75
(lp2623
g68
(g89
g70
NtRp2624
(dp2625
g73
(dp2626
g93
g94
ssg82
g2620
sg75
(lp2627
S'HTTP_USER_AGENT'
p2628
asbag68
(g89
g70
NtRp2629
(dp2630
g73
(dp2631
g100
g101
ssg82
g2620
sg75
(lp2632
S':'
asbag68
(g89
g70
NtRp2633
(dp2634
g73
(dp2635
sg82
g2620
sg75
(lp2636
g68
(g69
g70
NtRp2637
(dp2638
g73
(dp2639
g81
I3
ssg82
g2633
sg75
(lp2640
g1029
asbasbasbag68
(g84
g70
NtRp2641
(dp2642
g73
(dp2643
sg82
g2448
sg75
(lp2644
g68
(g89
g70
NtRp2645
(dp2646
g73
(dp2647
g93
g94
ssg82
g2641
sg75
(lp2648
S'PATH_INFO'
p2649
asbag68
(g89
g70
NtRp2650
(dp2651
g73
(dp2652
g100
g101
ssg82
g2641
sg75
(lp2653
S':'
asbag68
(g89
g70
NtRp2654
(dp2655
g73
(dp2656
sg82
g2641
sg75
(lp2657
g68
(g69
g70
NtRp2658
(dp2659
g73
(dp2660
g81
I3
ssg82
g2654
sg75
(lp2661
S'/'
asbasbasbag68
(g84
g70
NtRp2662
(dp2663
g73
(dp2664
sg82
g2448
sg75
(lp2665
g68
(g89
g70
NtRp2666
(dp2667
g73
(dp2668
g93
g94
ssg82
g2662
sg75
(lp2669
S'QUERY_STRING'
p2670
asbag68
(g89
g70
NtRp2671
(dp2672
g73
(dp2673
g100
g101
ssg82
g2662
sg75
(lp2674
S':'
asbag68
(g89
g70
NtRp2675
(dp2676
g73
(dp2677
sg82
g2662
sg75
(lp2678
g68
(g69
g70
NtRp2679
(dp2680
g73
(dp2681
g81
I3
ssg82
g2675
sg75
(lp2682
S''
asbasbasbag68
(g84
g70
NtRp2683
(dp2684
g73
(dp2685
sg82
g2448
sg75
(lp2686
g68
(g89
g70
NtRp2687
(dp2688
g73
(dp2689
g93
g94
ssg82
g2683
sg75
(lp2690
S'REMOTE_ADDR'
p2691
asbag68
(g89
g70
NtRp2692
(dp2693
g73
(dp2694
g100
g101
ssg82
g2683
sg75
(lp2695
S':'
asbag68
(g89
g70
NtRp2696
(dp2697
g73
(dp2698
sg82
g2683
sg75
(lp2699
g68
(g69
g70
NtRp2700
(dp2701
g73
(dp2702
g81
I3
ssg82
g2696
sg75
(lp2703
g223
asbasbasbag68
(g84
g70
NtRp2704
(dp2705
g73
(dp2706
sg82
g2448
sg75
(lp2707
g68
(g89
g70
NtRp2708
(dp2709
g73
(dp2710
g93
g94
ssg82
g2704
sg75
(lp2711
S'REMOTE_PORT'
p2712
asbag68
(g89
g70
NtRp2713
(dp2714
g73
(dp2715
g100
g101
ssg82
g2704
sg75
(lp2716
S':'
asbag68
(g89
g70
NtRp2717
(dp2718
g73
(dp2719
sg82
g2704
sg75
(lp2720
g68
(g69
g70
NtRp2721
(dp2722
g73
(dp2723
g81
I3
ssg82
g2717
sg75
(lp2724
g1246
asbasbasbag68
(g84
g70
NtRp2725
(dp2726
g73
(dp2727
sg82
g2448
sg75
(lp2728
g68
(g89
g70
NtRp2729
(dp2730
g73
(dp2731
g93
g94
ssg82
g2725
sg75
(lp2732
S'REQUEST_METHOD'
p2733
asbag68
(g89
g70
NtRp2734
(dp2735
g73
(dp2736
g100
g101
ssg82
g2725
sg75
(lp2737
S':'
asbag68
(g89
g70
NtRp2738
(dp2739
g73
(dp2740
sg82
g2725
sg75
(lp2741
g68
(g69
g70
NtRp2742
(dp2743
g73
(dp2744
g81
I3
ssg82
g2738
sg75
(lp2745
g1268
asbasbasbag68
(g84
g70
NtRp2746
(dp2747
g73
(dp2748
sg82
g2448
sg75
(lp2749
g68
(g89
g70
NtRp2750
(dp2751
g73
(dp2752
g93
g94
ssg82
g2746
sg75
(lp2753
S'REQUEST_URI'
p2754
asbag68
(g89
g70
NtRp2755
(dp2756
g73
(dp2757
g100
g101
ssg82
g2746
sg75
(lp2758
S':'
asbag68
(g89
g70
NtRp2759
(dp2760
g73
(dp2761
sg82
g2746
sg75
(lp2762
g68
(g69
g70
NtRp2763
(dp2764
g73
(dp2765
g81
I3
ssg82
g2759
sg75
(lp2766
g1290
asbasbasbag68
(g84
g70
NtRp2767
(dp2768
g73
(dp2769
sg82
g2448
sg75
(lp2770
g68
(g89
g70
NtRp2771
(dp2772
g73
(dp2773
g93
g94
ssg82
g2767
sg75
(lp2774
S'SCRIPT_NAME'
p2775
asbag68
(g89
g70
NtRp2776
(dp2777
g73
(dp2778
g100
g101
ssg82
g2767
sg75
(lp2779
S':'
asbag68
(g89
g70
NtRp2780
(dp2781
g73
(dp2782
sg82
g2767
sg75
(lp2783
g68
(g69
g70
NtRp2784
(dp2785
g73
(dp2786
g81
I3
ssg82
g2780
sg75
(lp2787
S''
asbasbasbag68
(g84
g70
NtRp2788
(dp2789
g73
(dp2790
sg82
g2448
sg75
(lp2791
g68
(g89
g70
NtRp2792
(dp2793
g73
(dp2794
g93
g94
ssg82
g2788
sg75
(lp2795
S'SERVER_NAME'
p2796
asbag68
(g89
g70
NtRp2797
(dp2798
g73
(dp2799
g100
g101
ssg82
g2788
sg75
(lp2800
S':'
asbag68
(g89
g70
NtRp2801
(dp2802
g73
(dp2803
sg82
g2788
sg75
(lp2804
g68
(g69
g70
NtRp2805
(dp2806
g73
(dp2807
g81
I3
ssg82
g2801
sg75
(lp2808
g1333
asbasbasbag68
(g84
g70
NtRp2809
(dp2810
g73
(dp2811
sg82
g2448
sg75
(lp2812
g68
(g89
g70
NtRp2813
(dp2814
g73
(dp2815
g93
g94
ssg82
g2809
sg75
(lp2816
S'SERVER_PORT'
p2817
asbag68
(g89
g70
NtRp2818
(dp2819
g73
(dp2820
g100
g101
ssg82
g2809
sg75
(lp2821
S':'
asbag68
(g89
g70
NtRp2822
(dp2823
g73
(dp2824
sg82
g2809
sg75
(lp2825
g68
(g69
g70
NtRp2826
(dp2827
g73
(dp2828
g81
I3
ssg82
g2822
sg75
(lp2829
g1355
asbasbasbag68
(g84
g70
NtRp2830
(dp2831
g73
(dp2832
sg82
g2448
sg75
(lp2833
g68
(g89
g70
NtRp2834
(dp2835
g73
(dp2836
g93
g94
ssg82
g2830
sg75
(lp2837
S'SERVER_PROTOCOL'
p2838
asbag68
(g89
g70
NtRp2839
(dp2840
g73
(dp2841
g100
g101
ssg82
g2830
sg75
(lp2842
S':'
asbag68
(g89
g70
NtRp2843
(dp2844
g73
(dp2845
sg82
g2830
sg75
(lp2846
g68
(g69
g70
NtRp2847
(dp2848
g73
(dp2849
g81
I3
ssg82
g2843
sg75
(lp2850
g1377
asbasbasbag68
(g84
g70
NtRp2851
(dp2852
g73
(dp2853
sg82
g2448
sg75
(lp2854
g68
(g89
g70
NtRp2855
(dp2856
g73
(dp2857
g93
g94
ssg82
g2851
sg75
(lp2858
S'SERVER_SOFTWARE'
p2859
asbag68
(g89
g70
NtRp2860
(dp2861
g73
(dp2862
g100
g101
ssg82
g2851
sg75
(lp2863
S':'
asbag68
(g89
g70
NtRp2864
(dp2865
g73
(dp2866
sg82
g2851
sg75
(lp2867
g68
(g69
g70
NtRp2868
(dp2869
g73
(dp2870
g81
I3
ssg82
g2864
sg75
(lp2871
g1399
asbasbasbag68
(g84
g70
NtRp2872
(dp2873
g73
(dp2874
sg82
g2448
sg75
(lp2875
g68
(g89
g70
NtRp2876
(dp2877
g73
(dp2878
g93
g94
ssg82
g2872
sg75
(lp2879
S'WEB2PY_ORIGINAL_URI'
p2880
asbag68
(g89
g70
NtRp2881
(dp2882
g73
(dp2883
g100
g101
ssg82
g2872
sg75
(lp2884
S':'
asbag68
(g89
g70
NtRp2885
(dp2886
g73
(dp2887
sg82
g2872
sg75
(lp2888
g68
(g69
g70
NtRp2889
(dp2890
g73
(dp2891
g81
I3
ssg82
g2885
sg75
(lp2892
S'/'
asbasbasbag68
(g84
g70
NtRp2893
(dp2894
g73
(dp2895
sg82
g2448
sg75
(lp2896
g68
(g89
g70
NtRp2897
(dp2898
g73
(dp2899
g93
g94
ssg82
g2893
sg75
(lp2900
S'wsgi.errors'
p2901
asbag68
(g89
g70
NtRp2902
(dp2903
g73
(dp2904
g100
g101
ssg82
g2893
sg75
(lp2905
S':'
asbag68
(g89
g70
NtRp2906
(dp2907
g73
(dp2908
sg82
g2893
sg75
(lp2909
g68
(g69
g70
NtRp2910
(dp2911
g73
(dp2912
g81
I3
ssg82
g2906
sg75
(lp2913
S"<open file '<stderr>', mode 'w' at 0x7fe5e28a2270>"
p2914
asbasbasbag68
(g84
g70
NtRp2915
(dp2916
g73
(dp2917
sg82
g2448
sg75
(lp2918
g68
(g89
g70
NtRp2919
(dp2920
g73
(dp2921
g93
g94
ssg82
g2915
sg75
(lp2922
S'wsgi.file_wrapper'
p2923
asbag68
(g89
g70
NtRp2924
(dp2925
g73
(dp2926
g100
g101
ssg82
g2915
sg75
(lp2927
S':'
asbag68
(g89
g70
NtRp2928
(dp2929
g73
(dp2930
sg82
g2915
sg75
(lp2931
g68
(g69
g70
NtRp2932
(dp2933
g73
(dp2934
g81
I3
ssg82
g2928
sg75
(lp2935
S'<class wsgiref.util.FileWrapper at 0x33c4808>'
p2936
asbasbasbag68
(g84
g70
NtRp2937
(dp2938
g73
(dp2939
sg82
g2448
sg75
(lp2940
g68
(g89
g70
NtRp2941
(dp2942
g73
(dp2943
g93
g94
ssg82
g2937
sg75
(lp2944
S'wsgi.input'
p2945
asbag68
(g89
g70
NtRp2946
(dp2947
g73
(dp2948
g100
g101
ssg82
g2937
sg75
(lp2949
S':'
asbag68
(g89
g70
NtRp2950
(dp2951
g73
(dp2952
sg82
g2937
sg75
(lp2953
g68
(g69
g70
NtRp2954
(dp2955
g73
(dp2956
g81
I3
ssg82
g2950
sg75
(lp2957
S'<cStringIO.StringO object at 0x7fe5cc1a5f48>'
p2958
asbasbasbag68
(g84
g70
NtRp2959
(dp2960
g73
(dp2961
sg82
g2448
sg75
(lp2962
g68
(g89
g70
NtRp2963
(dp2964
g73
(dp2965
g93
g94
ssg82
g2959
sg75
(lp2966
S'wsgi.multiprocess'
p2967
asbag68
(g89
g70
NtRp2968
(dp2969
g73
(dp2970
g100
g101
ssg82
g2959
sg75
(lp2971
S':'
asbag68
(g89
g70
NtRp2972
(dp2973
g73
(dp2974
sg82
g2959
sg75
(lp2975
g68
(g69
g70
NtRp2976
(dp2977
g73
(dp2978
g81
I3
ssg82
g2972
sg75
(lp2979
g111
asbasbasbag68
(g84
g70
NtRp2980
(dp2981
g73
(dp2982
sg82
g2448
sg75
(lp2983
g68
(g89
g70
NtRp2984
(dp2985
g73
(dp2986
g93
g94
ssg82
g2980
sg75
(lp2987
S'wsgi.multithread'
p2988
asbag68
(g89
g70
NtRp2989
(dp2990
g73
(dp2991
g100
g101
ssg82
g2980
sg75
(lp2992
S':'
asbag68
(g89
g70
NtRp2993
(dp2994
g73
(dp2995
sg82
g2980
sg75
(lp2996
g68
(g69
g70
NtRp2997
(dp2998
g73
(dp2999
g81
I3
ssg82
g2993
sg75
(lp3000
g1637
asbasbasbag68
(g84
g70
NtRp3001
(dp3002
g73
(dp3003
sg82
g2448
sg75
(lp3004
g68
(g89
g70
NtRp3005
(dp3006
g73
(dp3007
g93
g94
ssg82
g3001
sg75
(lp3008
S'wsgi.run_once'
p3009
asbag68
(g89
g70
NtRp3010
(dp3011
g73
(dp3012
g100
g101
ssg82
g3001
sg75
(lp3013
S':'
asbag68
(g89
g70
NtRp3014
(dp3015
g73
(dp3016
sg82
g3001
sg75
(lp3017
g68
(g69
g70
NtRp3018
(dp3019
g73
(dp3020
g81
I3
ssg82
g3014
sg75
(lp3021
g111
asbasbasbag68
(g84
g70
NtRp3022
(dp3023
g73
(dp3024
sg82
g2448
sg75
(lp3025
g68
(g89
g70
NtRp3026
(dp3027
g73
(dp3028
g93
g94
ssg82
g3022
sg75
(lp3029
S'wsgi.url_scheme'
p3030
asbag68
(g89
g70
NtRp3031
(dp3032
g73
(dp3033
g100
g101
ssg82
g3022
sg75
(lp3034
S':'
asbag68
(g89
g70
NtRp3035
(dp3036
g73
(dp3037
sg82
g3022
sg75
(lp3038
g68
(g69
g70
NtRp3039
(dp3040
g73
(dp3041
g81
I3
ssg82
g3035
sg75
(lp3042
g1680
asbasbasbag68
(g84
g70
NtRp3043
(dp3044
g73
(dp3045
sg82
g2448
sg75
(lp3046
g68
(g89
g70
NtRp3047
(dp3048
g73
(dp3049
g93
g94
ssg82
g3043
sg75
(lp3050
S'wsgi.version'
p3051
asbag68
(g89
g70
NtRp3052
(dp3053
g73
(dp3054
g100
g101
ssg82
g3043
sg75
(lp3055
S':'
asbag68
(g89
g70
NtRp3056
(dp3057
g73
(dp3058
sg82
g3043
sg75
(lp3059
g68
(g69
g70
NtRp3060
(dp3061
g73
(dp3062
g81
I3
ssg82
g3056
sg75
(lp3063
S'1'
asbasbasbasbasbasbasbasbasbasbasbasbasbsS'frames'
p3064
(lp3065
(dp3066
S'file'
p3067
S'/var/www/web2py_curso/gluon/restricted.py'
p3068
sS'dump'
p3069
(dp3070
S'code'
p3071
S"'# coding: utf-8\\n\\ndef home():\\n\\tposts = db(db.post... x + y\\n\\n \\n\\nresponse._vars=response._caller(home)\\n'"
p3072
sS'layer'
p3073
S"'/var/www/web2py_curso/applications/projeto/controllers/initial.py'"
p3074
sS'global compile2'
p3075
S'<function compile2>'
p3076
sS'ccode'
p3077
S'undefined'
p3078
ssS'lnum'
p3079
I211
sS'lines'
p3080
(dp3081
I206
S"    environment['__name__'] = '__restricted__'"
p3082
sI207
S'    try:'
p3083
sI208
S'        if isinstance(code, types.CodeType):'
p3084
sI209
S'            ccode = code'
p3085
sI210
S'        else:'
p3086
sI211
S'            ccode = compile2(code, layer)'
p3087
sI212
S'        exec ccode in environment'
p3088
sI213
S'    except HTTP:'
p3089
sI214
S'        raise'
p3090
sI215
S'    except RestrictedError:'
p3091
ssS'call'
p3092
S"(code='# coding: utf-8\\n\\ndef home():\\n\\tposts = db(db.post... x + y\\n\\n \\n\\nresponse._vars=response._caller(home)\\n', environment={'A': <class 'gluon.html.A'>, 'Auth': <class 'gluon.tools.Auth'>, 'B': <class 'gluon.html.B'>, 'BEAUTIFY': <class 'gluon.html.BEAUTIFY'>, 'BODY': <class 'gluon.html.BODY'>, 'BR': <class 'gluon.html.BR'>, 'BUTTON': <class 'gluon.html.BUTTON'>, 'Blog': <Table blog (id,title,description)>, 'CAT': <class 'gluon.html.CAT'>, 'CENTER': <class 'gluon.html.CENTER'>, ...}, layer='/var/www/web2py_curso/applications/projeto/controllers/initial.py')"
p3093
sS'func'
p3094
S'restricted'
p3095
sa(dp3096
g3067
S'/var/www/web2py_curso/gluon/restricted.py'
p3097
sg3069
(dp3098
S'builtincompile'
p3099
S'<built-in function compile>'
p3100
sS'code'
p3101
S"'# coding: utf-8\\n\\ndef home():\\n\\tposts = db(db.post... x + y\\n\\n \\n\\nresponse._vars=response._caller(home)\\n'"
p3102
sS'code.rstrip'
p3103
S'<built-in method rstrip of str object>'
p3104
sS').replace'
p3105
g3078
sS'layer'
p3106
S"'/var/www/web2py_curso/applications/projeto/controllers/initial.py'"
p3107
ssg3079
I194
sg3080
(dp3108
I192
S"    The +'\\n' is necessary else compile fails when code ends in a comment."
p3109
sI193
S'    """'
p3110
sI194
S"    return compile(code.rstrip().replace('\\r\\n', '\\n') + '\\n', layer, 'exec')"
p3111
sI195
S''
sI196
S''
sI197
S"def restricted(code, environment=None, layer='Unknown'):"
p3112
sI198
S'    """'
p3113
sI189
S''
sI190
S'def compile2(code, layer):'
p3114
sI191
S'    """'
p3115
ssg3092
S"(code='# coding: utf-8\\n\\ndef home():\\n\\tposts = db(db.post... x + y\\n\\n \\n\\nresponse._vars=response._caller(home)\\n', layer='/var/www/web2py_curso/applications/projeto/controllers/initial.py')"
p3116
sg3094
S'compile2'
p3117
sasS'pyver'
p3118
S'Python 2.7.3: /usr/bin/python'
p3119
sS'session'
p3120
g68
(g69
g70
NtRp3121
(dp3122
g73
(dp3123
sg75
(lp3124
g68
(g77
g70
NtRp3125
(dp3126
g73
(dp3127
g81
I5
ssg82
Nsg75
(lp3128
g68
(g84
g70
NtRp3129
(dp3130
g73
(dp3131
sg82
g3125
sg75
(lp3132
g68
(g89
g70
NtRp3133
(dp3134
g73
(dp3135
g93
g94
ssg82
g3129
sg75
(lp3136
S'auth'
p3137
asbag68
(g89
g70
NtRp3138
(dp3139
g73
(dp3140
g100
g101
ssg82
g3129
sg75
(lp3141
S':'
asbag68
(g89
g70
NtRp3142
(dp3143
g73
(dp3144
sg82
g3129
sg75
(lp3145
g68
(g69
g70
NtRp3146
(dp3147
g73
(dp3148
g81
I5
ssg82
g3142
sg75
(lp3149
g68
(g77
g70
NtRp3150
(dp3151
g73
(dp3152
g81
I4
ssg82
Nsg75
(lp3153
g68
(g84
g70
NtRp3154
(dp3155
g73
(dp3156
sg82
g3150
sg75
(lp3157
g68
(g89
g70
NtRp3158
(dp3159
g73
(dp3160
g93
g94
ssg82
g3154
sg75
(lp3161
S'expiration'
p3162
asbag68
(g89
g70
NtRp3163
(dp3164
g73
(dp3165
g100
g101
ssg82
g3154
sg75
(lp3166
S':'
asbag68
(g89
g70
NtRp3167
(dp3168
g73
(dp3169
sg82
g3154
sg75
(lp3170
g68
(g69
g70
NtRp3171
(dp3172
g73
(dp3173
g81
I4
ssg82
g3167
sg75
(lp3174
S'3600'
p3175
asbasbasbag68
(g84
g70
NtRp3176
(dp3177
g73
(dp3178
sg82
g3150
sg75
(lp3179
g68
(g89
g70
NtRp3180
(dp3181
g73
(dp3182
g93
g94
ssg82
g3176
sg75
(lp3183
S'hmac_key'
p3184
asbag68
(g89
g70
NtRp3185
(dp3186
g73
(dp3187
g100
g101
ssg82
g3176
sg75
(lp3188
S':'
asbag68
(g89
g70
NtRp3189
(dp3190
g73
(dp3191
sg82
g3176
sg75
(lp3192
g68
(g69
g70
NtRp3193
(dp3194
g73
(dp3195
g81
I4
ssg82
g3189
sg75
(lp3196
S'f2fe6488-3b2b-47f7-b59b-636fa5c1979d'
p3197
asbasbasbag68
(g84
g70
NtRp3198
(dp3199
g73
(dp3200
sg82
g3150
sg75
(lp3201
g68
(g89
g70
NtRp3202
(dp3203
g73
(dp3204
g93
g94
ssg82
g3198
sg75
(lp3205
S'last_visit'
p3206
asbag68
(g89
g70
NtRp3207
(dp3208
g73
(dp3209
g100
g101
ssg82
g3198
sg75
(lp3210
S':'
asbag68
(g89
g70
NtRp3211
(dp3212
g73
(dp3213
sg82
g3198
sg75
(lp3214
g68
(g69
g70
NtRp3215
(dp3216
g73
(dp3217
g81
I4
ssg82
g3211
sg75
(lp3218
S'datetime.datetime(2013, 2, 2, 21, 45, 32, 588209)'
p3219
asbasbasbag68
(g84
g70
NtRp3220
(dp3221
g73
(dp3222
sg82
g3150
sg75
(lp3223
g68
(g89
g70
NtRp3224
(dp3225
g73
(dp3226
g93
g94
ssg82
g3220
sg75
(lp3227
S'remember'
p3228
asbag68
(g89
g70
NtRp3229
(dp3230
g73
(dp3231
g100
g101
ssg82
g3220
sg75
(lp3232
S':'
asbag68
(g89
g70
NtRp3233
(dp3234
g73
(dp3235
sg82
g3220
sg75
(lp3236
g68
(g69
g70
NtRp3237
(dp3238
g73
(dp3239
g81
I4
ssg82
g3233
sg75
(lp3240
g111
asbasbasbag68
(g84
g70
NtRp3241
(dp3242
g73
(dp3243
sg82
g3150
sg75
(lp3244
g68
(g89
g70
NtRp3245
(dp3246
g73
(dp3247
g93
g94
ssg82
g3241
sg75
(lp3248
S'user'
p3249
asbag68
(g89
g70
NtRp3250
(dp3251
g73
(dp3252
g100
g101
ssg82
g3241
sg75
(lp3253
S':'
asbag68
(g89
g70
NtRp3254
(dp3255
g73
(dp3256
sg82
g3241
sg75
(lp3257
g68
(g69
g70
NtRp3258
(dp3259
g73
(dp3260
g81
I4
ssg82
g3254
sg75
(lp3261
g68
(g77
g70
NtRp3262
(dp3263
g73
(dp3264
g81
I3
ssg82
Nsg75
(lp3265
g68
(g84
g70
NtRp3266
(dp3267
g73
(dp3268
sg82
g3262
sg75
(lp3269
g68
(g89
g70
NtRp3270
(dp3271
g73
(dp3272
g93
g94
ssg82
g3266
sg75
(lp3273
S'bio'
p3274
asbag68
(g89
g70
NtRp3275
(dp3276
g73
(dp3277
g100
g101
ssg82
g3266
sg75
(lp3278
S':'
asbag68
(g89
g70
NtRp3279
(dp3280
g73
(dp3281
sg82
g3266
sg75
(lp3282
g68
(g69
g70
NtRp3283
(dp3284
g73
(dp3285
g81
I3
ssg82
g3279
sg75
(lp3286
S'None'
p3287
asbasbasbag68
(g84
g70
NtRp3288
(dp3289
g73
(dp3290
sg82
g3262
sg75
(lp3291
g68
(g89
g70
NtRp3292
(dp3293
g73
(dp3294
g93
g94
ssg82
g3288
sg75
(lp3295
S'email'
p3296
asbag68
(g89
g70
NtRp3297
(dp3298
g73
(dp3299
g100
g101
ssg82
g3288
sg75
(lp3300
S':'
asbag68
(g89
g70
NtRp3301
(dp3302
g73
(dp3303
sg82
g3288
sg75
(lp3304
g68
(g69
g70
NtRp3305
(dp3306
g73
(dp3307
g81
I3
ssg82
g3301
sg75
(lp3308
S'fernando@ad2.com.br'
p3309
asbasbasbag68
(g84
g70
NtRp3310
(dp3311
g73
(dp3312
sg82
g3262
sg75
(lp3313
g68
(g89
g70
NtRp3314
(dp3315
g73
(dp3316
g93
g94
ssg82
g3310
sg75
(lp3317
S'first_name'
p3318
asbag68
(g89
g70
NtRp3319
(dp3320
g73
(dp3321
g100
g101
ssg82
g3310
sg75
(lp3322
S':'
asbag68
(g89
g70
NtRp3323
(dp3324
g73
(dp3325
sg82
g3310
sg75
(lp3326
g68
(g69
g70
NtRp3327
(dp3328
g73
(dp3329
g81
I3
ssg82
g3323
sg75
(lp3330
S'Dend'
p3331
asbasbasbag68
(g84
g70
NtRp3332
(dp3333
g73
(dp3334
sg82
g3262
sg75
(lp3335
g68
(g89
g70
NtRp3336
(dp3337
g73
(dp3338
g93
g94
ssg82
g3332
sg75
(lp3339
S'gender'
p3340
asbag68
(g89
g70
NtRp3341
(dp3342
g73
(dp3343
g100
g101
ssg82
g3332
sg75
(lp3344
S':'
asbag68
(g89
g70
NtRp3345
(dp3346
g73
(dp3347
sg82
g3332
sg75
(lp3348
g68
(g69
g70
NtRp3349
(dp3350
g73
(dp3351
g81
I3
ssg82
g3345
sg75
(lp3352
S'masculino'
p3353
asbasbasbag68
(g84
g70
NtRp3354
(dp3355
g73
(dp3356
sg82
g3262
sg75
(lp3357
g68
(g89
g70
NtRp3358
(dp3359
g73
(dp3360
g93
g94
ssg82
g3354
sg75
(lp3361
S'id'
p3362
asbag68
(g89
g70
NtRp3363
(dp3364
g73
(dp3365
g100
g101
ssg82
g3354
sg75
(lp3366
S':'
asbag68
(g89
g70
NtRp3367
(dp3368
g73
(dp3369
sg82
g3354
sg75
(lp3370
g68
(g69
g70
NtRp3371
(dp3372
g73
(dp3373
g81
I3
ssg82
g3367
sg75
(lp3374
S'5'
asbasbasbag68
(g84
g70
NtRp3375
(dp3376
g73
(dp3377
sg82
g3262
sg75
(lp3378
g68
(g89
g70
NtRp3379
(dp3380
g73
(dp3381
g93
g94
ssg82
g3375
sg75
(lp3382
S'last_name'
p3383
asbag68
(g89
g70
NtRp3384
(dp3385
g73
(dp3386
g100
g101
ssg82
g3375
sg75
(lp3387
S':'
asbag68
(g89
g70
NtRp3388
(dp3389
g73
(dp3390
sg82
g3375
sg75
(lp3391
g68
(g69
g70
NtRp3392
(dp3393
g73
(dp3394
g81
I3
ssg82
g3388
sg75
(lp3395
S'delkson'
p3396
asbasbasbag68
(g84
g70
NtRp3397
(dp3398
g73
(dp3399
sg82
g3262
sg75
(lp3400
g68
(g89
g70
NtRp3401
(dp3402
g73
(dp3403
g93
g94
ssg82
g3397
sg75
(lp3404
S'photo'
p3405
asbag68
(g89
g70
NtRp3406
(dp3407
g73
(dp3408
g100
g101
ssg82
g3397
sg75
(lp3409
S':'
asbag68
(g89
g70
NtRp3410
(dp3411
g73
(dp3412
sg82
g3397
sg75
(lp3413
g68
(g69
g70
NtRp3414
(dp3415
g73
(dp3416
g81
I3
ssg82
g3410
sg75
(lp3417
S'auth_user.photo.852c1e9d624a7670.746563686e6f6c6f676965735f7068702e706e67.png'
p3418
asbasbasbag68
(g84
g70
NtRp3419
(dp3420
g73
(dp3421
sg82
g3262
sg75
(lp3422
g68
(g89
g70
NtRp3423
(dp3424
g73
(dp3425
g93
g94
ssg82
g3419
sg75
(lp3426
S'registration_id'
p3427
asbag68
(g89
g70
NtRp3428
(dp3429
g73
(dp3430
g100
g101
ssg82
g3419
sg75
(lp3431
S':'
asbag68
(g89
g70
NtRp3432
(dp3433
g73
(dp3434
sg82
g3419
sg75
(lp3435
g68
(g69
g70
NtRp3436
(dp3437
g73
(dp3438
g81
I3
ssg82
g3432
sg75
(lp3439
S''
asbasbasbag68
(g84
g70
NtRp3440
(dp3441
g73
(dp3442
sg82
g3262
sg75
(lp3443
g68
(g89
g70
NtRp3444
(dp3445
g73
(dp3446
g93
g94
ssg82
g3440
sg75
(lp3447
S'registration_key'
p3448
asbag68
(g89
g70
NtRp3449
(dp3450
g73
(dp3451
g100
g101
ssg82
g3440
sg75
(lp3452
S':'
asbag68
(g89
g70
NtRp3453
(dp3454
g73
(dp3455
sg82
g3440
sg75
(lp3456
g68
(g69
g70
NtRp3457
(dp3458
g73
(dp3459
g81
I3
ssg82
g3453
sg75
(lp3460
S''
asbasbasbag68
(g84
g70
NtRp3461
(dp3462
g73
(dp3463
sg82
g3262
sg75
(lp3464
g68
(g89
g70
NtRp3465
(dp3466
g73
(dp3467
g93
g94
ssg82
g3461
sg75
(lp3468
S'reset_password_key'
p3469
asbag68
(g89
g70
NtRp3470
(dp3471
g73
(dp3472
g100
g101
ssg82
g3461
sg75
(lp3473
S':'
asbag68
(g89
g70
NtRp3474
(dp3475
g73
(dp3476
sg82
g3461
sg75
(lp3477
g68
(g69
g70
NtRp3478
(dp3479
g73
(dp3480
g81
I3
ssg82
g3474
sg75
(lp3481
S''
asbasbasbasbasbasbasbag68
(g84
g70
NtRp3482
(dp3483
g73
(dp3484
sg82
g3150
sg75
(lp3485
g68
(g89
g70
NtRp3486
(dp3487
g73
(dp3488
g93
g94
ssg82
g3482
sg75
(lp3489
S'user_groups'
p3490
asbag68
(g89
g70
NtRp3491
(dp3492
g73
(dp3493
g100
g101
ssg82
g3482
sg75
(lp3494
S':'
asbag68
(g89
g70
NtRp3495
(dp3496
g73
(dp3497
sg82
g3482
sg75
(lp3498
g68
(g69
g70
NtRp3499
(dp3500
g73
(dp3501
g81
I4
ssg82
g3495
sg75
(lp3502
g68
(g77
g70
NtRp3503
(dp3504
g73
(dp3505
g81
I3
ssg82
Nsg75
(lp3506
g68
(g84
g70
NtRp3507
(dp3508
g73
(dp3509
sg82
g3503
sg75
(lp3510
g68
(g89
g70
NtRp3511
(dp3512
g73
(dp3513
g93
g94
ssg82
g3507
sg75
(lp3514
S'5'
asbag68
(g89
g70
NtRp3515
(dp3516
g73
(dp3517
g100
g101
ssg82
g3507
sg75
(lp3518
S':'
asbag68
(g89
g70
NtRp3519
(dp3520
g73
(dp3521
sg82
g3507
sg75
(lp3522
g68
(g69
g70
NtRp3523
(dp3524
g73
(dp3525
g81
I3
ssg82
g3519
sg75
(lp3526
S'user_5'
p3527
asbasbasbasbasbasbasbasbasbasbasbag68
(g84
g70
NtRp3528
(dp3529
g73
(dp3530
sg82
g3125
sg75
(lp3531
g68
(g89
g70
NtRp3532
(dp3533
g73
(dp3534
g93
g94
ssg82
g3528
sg75
(lp3535
S'flash'
p3536
asbag68
(g89
g70
NtRp3537
(dp3538
g73
(dp3539
g100
g101
ssg82
g3528
sg75
(lp3540
S':'
asbag68
(g89
g70
NtRp3541
(dp3542
g73
(dp3543
sg82
g3528
sg75
(lp3544
g68
(g69
g70
NtRp3545
(dp3546
g73
(dp3547
g81
I5
ssg82
g3541
sg75
(lp3548
S'None'
p3549
asbasbasbasbasbsS'etype'
p3550
S"<type 'exceptions.SyntaxError'>"
p3551
sS'date'
p3552
S'Sat Feb  2 21:51:17 2013'
p3553
sS'response'
p3554
g68
(g69
g70
NtRp3555
(dp3556
g73
(dp3557
sg75
(lp3558
g68
(g77
g70
NtRp3559
(dp3560
g73
(dp3561
g81
I5
ssg82
Nsg75
(lp3562
g68
(g84
g70
NtRp3563
(dp3564
g73
(dp3565
sg82
g3559
sg75
(lp3566
g68
(g89
g70
NtRp3567
(dp3568
g73
(dp3569
g93
g94
ssg82
g3563
sg75
(lp3570
g166
asbag68
(g89
g70
NtRp3571
(dp3572
g73
(dp3573
g100
g101
ssg82
g3563
sg75
(lp3574
S':'
asbag68
(g89
g70
NtRp3575
(dp3576
g73
(dp3577
sg82
g3563
sg75
(lp3578
g68
(g69
g70
NtRp3579
(dp3580
g73
(dp3581
g81
I5
ssg82
g3575
sg75
(lp3582
S'<cStringIO.StringO object at 0x7fe5cc1a5848>'
p3583
asbasbasbag68
(g84
g70
NtRp3584
(dp3585
g73
(dp3586
sg82
g3559
sg75
(lp3587
g68
(g89
g70
NtRp3588
(dp3589
g73
(dp3590
g93
g94
ssg82
g3584
sg75
(lp3591
g254
asbag68
(g89
g70
NtRp3592
(dp3593
g73
(dp3594
g100
g101
ssg82
g3584
sg75
(lp3595
S':'
asbag68
(g89
g70
NtRp3596
(dp3597
g73
(dp3598
sg82
g3584
sg75
(lp3599
g68
(g69
g70
NtRp3600
(dp3601
g73
(dp3602
g81
I5
ssg82
g3596
sg75
(lp3603
g68
(g77
g70
NtRp3604
(dp3605
g73
(dp3606
g81
I4
ssg82
Nsg75
(lp3607
g68
(g84
g70
NtRp3608
(dp3609
g73
(dp3610
sg82
g3604
sg75
(lp3611
g68
(g89
g70
NtRp3612
(dp3613
g73
(dp3614
g93
g94
ssg82
g3608
sg75
(lp3615
S'session_id_projeto'
p3616
asbag68
(g89
g70
NtRp3617
(dp3618
g73
(dp3619
g100
g101
ssg82
g3608
sg75
(lp3620
S':'
asbag68
(g89
g70
NtRp3621
(dp3622
g73
(dp3623
sg82
g3608
sg75
(lp3624
g68
(g69
g70
NtRp3625
(dp3626
g73
(dp3627
g81
I4
ssg82
g3621
sg75
(lp3628
g486
ag68
(g77
g70
NtRp3629
(dp3630
g73
(dp3631
g81
I3
ssg82
Nsg75
(lp3632
g68
(g84
g70
NtRp3633
(dp3634
g73
(dp3635
sg82
g3629
sg75
(lp3636
g68
(g89
g70
NtRp3637
(dp3638
g73
(dp3639
g93
g94
ssg82
g3633
sg75
(lp3640
g305
asbag68
(g89
g70
NtRp3641
(dp3642
g73
(dp3643
g100
g101
ssg82
g3633
sg75
(lp3644
S':'
asbag68
(g89
g70
NtRp3645
(dp3646
g73
(dp3647
sg82
g3633
sg75
(lp3648
g68
(g69
g70
NtRp3649
(dp3650
g73
(dp3651
g81
I3
ssg82
g3645
sg75
(lp3652
S''
asbasbasbag68
(g84
g70
NtRp3653
(dp3654
g73
(dp3655
sg82
g3629
sg75
(lp3656
g68
(g89
g70
NtRp3657
(dp3658
g73
(dp3659
g93
g94
ssg82
g3653
sg75
(lp3660
g326
asbag68
(g89
g70
NtRp3661
(dp3662
g73
(dp3663
g100
g101
ssg82
g3653
sg75
(lp3664
S':'
asbag68
(g89
g70
NtRp3665
(dp3666
g73
(dp3667
sg82
g3653
sg75
(lp3668
g68
(g69
g70
NtRp3669
(dp3670
g73
(dp3671
g81
I3
ssg82
g3665
sg75
(lp3672
S''
asbasbasbag68
(g84
g70
NtRp3673
(dp3674
g73
(dp3675
sg82
g3629
sg75
(lp3676
g68
(g89
g70
NtRp3677
(dp3678
g73
(dp3679
g93
g94
ssg82
g3673
sg75
(lp3680
g347
asbag68
(g89
g70
NtRp3681
(dp3682
g73
(dp3683
g100
g101
ssg82
g3673
sg75
(lp3684
S':'
asbag68
(g89
g70
NtRp3685
(dp3686
g73
(dp3687
sg82
g3673
sg75
(lp3688
g68
(g69
g70
NtRp3689
(dp3690
g73
(dp3691
g81
I3
ssg82
g3685
sg75
(lp3692
S''
asbasbasbag68
(g84
g70
NtRp3693
(dp3694
g73
(dp3695
sg82
g3629
sg75
(lp3696
g68
(g89
g70
NtRp3697
(dp3698
g73
(dp3699
g93
g94
ssg82
g3693
sg75
(lp3700
g368
asbag68
(g89
g70
NtRp3701
(dp3702
g73
(dp3703
g100
g101
ssg82
g3693
sg75
(lp3704
S':'
asbag68
(g89
g70
NtRp3705
(dp3706
g73
(dp3707
sg82
g3693
sg75
(lp3708
g68
(g69
g70
NtRp3709
(dp3710
g73
(dp3711
g81
I3
ssg82
g3705
sg75
(lp3712
S''
asbasbasbag68
(g84
g70
NtRp3713
(dp3714
g73
(dp3715
sg82
g3629
sg75
(lp3716
g68
(g89
g70
NtRp3717
(dp3718
g73
(dp3719
g93
g94
ssg82
g3713
sg75
(lp3720
g389
asbag68
(g89
g70
NtRp3721
(dp3722
g73
(dp3723
g100
g101
ssg82
g3713
sg75
(lp3724
S':'
asbag68
(g89
g70
NtRp3725
(dp3726
g73
(dp3727
sg82
g3713
sg75
(lp3728
g68
(g69
g70
NtRp3729
(dp3730
g73
(dp3731
g81
I3
ssg82
g3725
sg75
(lp3732
S''
asbasbasbag68
(g84
g70
NtRp3733
(dp3734
g73
(dp3735
sg82
g3629
sg75
(lp3736
g68
(g89
g70
NtRp3737
(dp3738
g73
(dp3739
g93
g94
ssg82
g3733
sg75
(lp3740
g410
asbag68
(g89
g70
NtRp3741
(dp3742
g73
(dp3743
g100
g101
ssg82
g3733
sg75
(lp3744
S':'
asbag68
(g89
g70
NtRp3745
(dp3746
g73
(dp3747
sg82
g3733
sg75
(lp3748
g68
(g69
g70
NtRp3749
(dp3750
g73
(dp3751
g81
I3
ssg82
g3745
sg75
(lp3752
S'/'
asbasbasbag68
(g84
g70
NtRp3753
(dp3754
g73
(dp3755
sg82
g3629
sg75
(lp3756
g68
(g89
g70
NtRp3757
(dp3758
g73
(dp3759
g93
g94
ssg82
g3753
sg75
(lp3760
g431
asbag68
(g89
g70
NtRp3761
(dp3762
g73
(dp3763
g100
g101
ssg82
g3753
sg75
(lp3764
S':'
asbag68
(g89
g70
NtRp3765
(dp3766
g73
(dp3767
sg82
g3753
sg75
(lp3768
g68
(g69
g70
NtRp3769
(dp3770
g73
(dp3771
g81
I3
ssg82
g3765
sg75
(lp3772
S''
asbasbasbag68
(g84
g70
NtRp3773
(dp3774
g73
(dp3775
sg82
g3629
sg75
(lp3776
g68
(g89
g70
NtRp3777
(dp3778
g73
(dp3779
g93
g94
ssg82
g3773
sg75
(lp3780
g452
asbag68
(g89
g70
NtRp3781
(dp3782
g73
(dp3783
g100
g101
ssg82
g3773
sg75
(lp3784
S':'
asbag68
(g89
g70
NtRp3785
(dp3786
g73
(dp3787
sg82
g3773
sg75
(lp3788
g68
(g69
g70
NtRp3789
(dp3790
g73
(dp3791
g81
I3
ssg82
g3785
sg75
(lp3792
S''
asbasbasbasbasbasbasbasbasbasbasbag68
(g84
g70
NtRp3793
(dp3794
g73
(dp3795
sg82
g3559
sg75
(lp3796
g68
(g89
g70
NtRp3797
(dp3798
g73
(dp3799
g93
g94
ssg82
g3793
sg75
(lp3800
S'delimiters'
p3801
asbag68
(g89
g70
NtRp3802
(dp3803
g73
(dp3804
g100
g101
ssg82
g3793
sg75
(lp3805
S':'
asbag68
(g89
g70
NtRp3806
(dp3807
g73
(dp3808
sg82
g3793
sg75
(lp3809
g68
(g69
g70
NtRp3810
(dp3811
g73
(dp3812
g81
I5
ssg82
g3806
sg75
(lp3813
g68
(g77
g70
NtRp3814
(dp3815
g73
(dp3816
g81
I4
ssg82
Nsg75
(lp3817
g68
(g84
g70
NtRp3818
(dp3819
g73
(dp3820
sg82
g3814
sg75
(lp3821
g68
(g89
g70
NtRp3822
(dp3823
g73
(dp3824
sg82
g3818
sg75
(lp3825
g68
(g69
g70
NtRp3826
(dp3827
g73
(dp3828
g81
I4
ssg82
g3822
sg75
(lp3829
S'{{'
p3830
asbasbasbag68
(g84
g70
NtRp3831
(dp3832
g73
(dp3833
sg82
g3814
sg75
(lp3834
g68
(g89
g70
NtRp3835
(dp3836
g73
(dp3837
sg82
g3831
sg75
(lp3838
g68
(g69
g70
NtRp3839
(dp3840
g73
(dp3841
g81
I4
ssg82
g3835
sg75
(lp3842
S'}}'
p3843
asbasbasbasbasbasbasbag68
(g84
g70
NtRp3844
(dp3845
g73
(dp3846
sg82
g3559
sg75
(lp3847
g68
(g89
g70
NtRp3848
(dp3849
g73
(dp3850
g93
g94
ssg82
g3844
sg75
(lp3851
S'files'
p3852
asbag68
(g89
g70
NtRp3853
(dp3854
g73
(dp3855
g100
g101
ssg82
g3844
sg75
(lp3856
S':'
asbag68
(g89
g70
NtRp3857
(dp3858
g73
(dp3859
sg82
g3844
sg75
(lp3860
g68
(g69
g70
NtRp3861
(dp3862
g73
(dp3863
g81
I5
ssg82
g3857
sg75
(lp3864
g68
(g77
g70
NtRp3865
(dp3866
g73
(dp3867
g81
I4
ssg82
Nsg75
(lp3868
sbasbasbasbag68
(g84
g70
NtRp3869
(dp3870
g73
(dp3871
sg82
g3559
sg75
(lp3872
g68
(g89
g70
NtRp3873
(dp3874
g73
(dp3875
g93
g94
ssg82
g3869
sg75
(lp3876
S'flash'
p3877
asbag68
(g89
g70
NtRp3878
(dp3879
g73
(dp3880
g100
g101
ssg82
g3869
sg75
(lp3881
S':'
asbag68
(g89
g70
NtRp3882
(dp3883
g73
(dp3884
sg82
g3869
sg75
(lp3885
g68
(g69
g70
NtRp3886
(dp3887
g73
(dp3888
g81
I5
ssg82
g3882
sg75
(lp3889
S''
asbasbasbag68
(g84
g70
NtRp3890
(dp3891
g73
(dp3892
sg82
g3559
sg75
(lp3893
g68
(g89
g70
NtRp3894
(dp3895
g73
(dp3896
g93
g94
ssg82
g3890
sg75
(lp3897
S'generic_patterns'
p3898
asbag68
(g89
g70
NtRp3899
(dp3900
g73
(dp3901
g100
g101
ssg82
g3890
sg75
(lp3902
S':'
asbag68
(g89
g70
NtRp3903
(dp3904
g73
(dp3905
sg82
g3890
sg75
(lp3906
g68
(g69
g70
NtRp3907
(dp3908
g73
(dp3909
g81
I5
ssg82
g3903
sg75
(lp3910
g68
(g77
g70
NtRp3911
(dp3912
g73
(dp3913
g81
I4
ssg82
Nsg75
(lp3914
g68
(g84
g70
NtRp3915
(dp3916
g73
(dp3917
sg82
g3911
sg75
(lp3918
g68
(g89
g70
NtRp3919
(dp3920
g73
(dp3921
sg82
g3915
sg75
(lp3922
g68
(g69
g70
NtRp3923
(dp3924
g73
(dp3925
g81
I4
ssg82
g3919
sg75
(lp3926
S'*'
asbasbasbasbasbasbasbag68
(g84
g70
NtRp3927
(dp3928
g73
(dp3929
sg82
g3559
sg75
(lp3930
g68
(g89
g70
NtRp3931
(dp3932
g73
(dp3933
g93
g94
ssg82
g3927
sg75
(lp3934
S'headers'
p3935
asbag68
(g89
g70
NtRp3936
(dp3937
g73
(dp3938
g100
g101
ssg82
g3927
sg75
(lp3939
S':'
asbag68
(g89
g70
NtRp3940
(dp3941
g73
(dp3942
sg82
g3927
sg75
(lp3943
g68
(g69
g70
NtRp3944
(dp3945
g73
(dp3946
g81
I5
ssg82
g3940
sg75
(lp3947
g68
(g77
g70
NtRp3948
(dp3949
g73
(dp3950
g81
I4
ssg82
Nsg75
(lp3951
g68
(g84
g70
NtRp3952
(dp3953
g73
(dp3954
sg82
g3948
sg75
(lp3955
g68
(g89
g70
NtRp3956
(dp3957
g73
(dp3958
g93
g94
ssg82
g3952
sg75
(lp3959
S'X-Powered-By'
p3960
asbag68
(g89
g70
NtRp3961
(dp3962
g73
(dp3963
g100
g101
ssg82
g3952
sg75
(lp3964
S':'
asbag68
(g89
g70
NtRp3965
(dp3966
g73
(dp3967
sg82
g3952
sg75
(lp3968
g68
(g69
g70
NtRp3969
(dp3970
g73
(dp3971
g81
I4
ssg82
g3965
sg75
(lp3972
S'web2py'
p3973
asbasbasbasbasbasbasbag68
(g84
g70
NtRp3974
(dp3975
g73
(dp3976
sg82
g3559
sg75
(lp3977
g68
(g89
g70
NtRp3978
(dp3979
g73
(dp3980
g93
g94
ssg82
g3974
sg75
(lp3981
S'menu'
p3982
asbag68
(g89
g70
NtRp3983
(dp3984
g73
(dp3985
g100
g101
ssg82
g3974
sg75
(lp3986
S':'
asbag68
(g89
g70
NtRp3987
(dp3988
g73
(dp3989
sg82
g3974
sg75
(lp3990
g68
(g69
g70
NtRp3991
(dp3992
g73
(dp3993
g81
I5
ssg82
g3987
sg75
(lp3994
g68
(g77
g70
NtRp3995
(dp3996
g73
(dp3997
g81
I4
ssg82
Nsg75
(lp3998
sbasbasbasbag68
(g84
g70
NtRp3999
(dp4000
g73
(dp4001
sg82
g3559
sg75
(lp4002
g68
(g89
g70
NtRp4003
(dp4004
g73
(dp4005
g93
g94
ssg82
g3999
sg75
(lp4006
S'meta'
p4007
asbag68
(g89
g70
NtRp4008
(dp4009
g73
(dp4010
g100
g101
ssg82
g3999
sg75
(lp4011
S':'
asbag68
(g89
g70
NtRp4012
(dp4013
g73
(dp4014
sg82
g3999
sg75
(lp4015
g68
(g69
g70
NtRp4016
(dp4017
g73
(dp4018
g81
I5
ssg82
g4012
sg75
(lp4019
g68
(g77
g70
NtRp4020
(dp4021
g73
(dp4022
g81
I4
ssg82
Nsg75
(lp4023
g68
(g84
g70
NtRp4024
(dp4025
g73
(dp4026
sg82
g4020
sg75
(lp4027
g68
(g89
g70
NtRp4028
(dp4029
g73
(dp4030
g93
g94
ssg82
g4024
sg75
(lp4031
S'description'
p4032
asbag68
(g89
g70
NtRp4033
(dp4034
g73
(dp4035
g100
g101
ssg82
g4024
sg75
(lp4036
S':'
asbag68
(g89
g70
NtRp4037
(dp4038
g73
(dp4039
sg82
g4024
sg75
(lp4040
g68
(g69
g70
NtRp4041
(dp4042
g73
(dp4043
g81
I4
ssg82
g4037
sg75
(lp4044
S'blog do shedon'
p4045
asbasbasbag68
(g84
g70
NtRp4046
(dp4047
g73
(dp4048
sg82
g4020
sg75
(lp4049
g68
(g89
g70
NtRp4050
(dp4051
g73
(dp4052
g93
g94
ssg82
g4046
sg75
(lp4053
S'keywords'
p4054
asbag68
(g89
g70
NtRp4055
(dp4056
g73
(dp4057
g100
g101
ssg82
g4046
sg75
(lp4058
S':'
asbag68
(g89
g70
NtRp4059
(dp4060
g73
(dp4061
sg82
g4046
sg75
(lp4062
g68
(g69
g70
NtRp4063
(dp4064
g73
(dp4065
g81
I4
ssg82
g4059
sg75
(lp4066
S'chave, outra, e utra'
p4067
asbasbasbasbasbasbasbag68
(g84
g70
NtRp4068
(dp4069
g73
(dp4070
sg82
g3559
sg75
(lp4071
g68
(g89
g70
NtRp4072
(dp4073
g73
(dp4074
g93
g94
ssg82
g4068
sg75
(lp4075
S'models_to_run'
p4076
asbag68
(g89
g70
NtRp4077
(dp4078
g73
(dp4079
g100
g101
ssg82
g4068
sg75
(lp4080
S':'
asbag68
(g89
g70
NtRp4081
(dp4082
g73
(dp4083
sg82
g4068
sg75
(lp4084
g68
(g69
g70
NtRp4085
(dp4086
g73
(dp4087
g81
I5
ssg82
g4081
sg75
(lp4088
g68
(g77
g70
NtRp4089
(dp4090
g73
(dp4091
g81
I4
ssg82
Nsg75
(lp4092
g68
(g84
g70
NtRp4093
(dp4094
g73
(dp4095
sg82
g4089
sg75
(lp4096
g68
(g89
g70
NtRp4097
(dp4098
g73
(dp4099
sg82
g4093
sg75
(lp4100
g68
(g69
g70
NtRp4101
(dp4102
g73
(dp4103
g81
I4
ssg82
g4097
sg75
(lp4104
S'^\\w+\\.py$'
p4105
asbasbasbag68
(g84
g70
NtRp4106
(dp4107
g73
(dp4108
sg82
g4089
sg75
(lp4109
g68
(g89
g70
NtRp4110
(dp4111
g73
(dp4112
sg82
g4106
sg75
(lp4113
g68
(g69
g70
NtRp4114
(dp4115
g73
(dp4116
g81
I4
ssg82
g4110
sg75
(lp4117
S'^initial/\\w+\\.py$'
p4118
asbasbasbag68
(g84
g70
NtRp4119
(dp4120
g73
(dp4121
sg82
g4089
sg75
(lp4122
g68
(g89
g70
NtRp4123
(dp4124
g73
(dp4125
sg82
g4119
sg75
(lp4126
g68
(g69
g70
NtRp4127
(dp4128
g73
(dp4129
g81
I4
ssg82
g4123
sg75
(lp4130
S'^initial/home/\\w+\\.py$'
p4131
asbasbasbasbasbasbasbag68
(g84
g70
NtRp4132
(dp4133
g73
(dp4134
sg82
g3559
sg75
(lp4135
g68
(g89
g70
NtRp4136
(dp4137
g73
(dp4138
g93
g94
ssg82
g4132
sg75
(lp4139
S'postprocessing'
p4140
asbag68
(g89
g70
NtRp4141
(dp4142
g73
(dp4143
g100
g101
ssg82
g4132
sg75
(lp4144
S':'
asbag68
(g89
g70
NtRp4145
(dp4146
g73
(dp4147
sg82
g4132
sg75
(lp4148
g68
(g69
g70
NtRp4149
(dp4150
g73
(dp4151
g81
I5
ssg82
g4145
sg75
(lp4152
g68
(g77
g70
NtRp4153
(dp4154
g73
(dp4155
g81
I4
ssg82
Nsg75
(lp4156
sbasbasbasbag68
(g84
g70
NtRp4157
(dp4158
g73
(dp4159
sg82
g3559
sg75
(lp4160
g68
(g89
g70
NtRp4161
(dp4162
g73
(dp4163
g93
g94
ssg82
g4157
sg75
(lp4164
S'session_cookie_expires'
p4165
asbag68
(g89
g70
NtRp4166
(dp4167
g73
(dp4168
g100
g101
ssg82
g4157
sg75
(lp4169
S':'
asbag68
(g89
g70
NtRp4170
(dp4171
g73
(dp4172
sg82
g4157
sg75
(lp4173
g68
(g69
g70
NtRp4174
(dp4175
g73
(dp4176
g81
I5
ssg82
g4170
sg75
(lp4177
S'None'
p4178
asbasbasbag68
(g84
g70
NtRp4179
(dp4180
g73
(dp4181
sg82
g3559
sg75
(lp4182
g68
(g89
g70
NtRp4183
(dp4184
g73
(dp4185
g93
g94
ssg82
g4179
sg75
(lp4186
S'session_data_name'
p4187
asbag68
(g89
g70
NtRp4188
(dp4189
g73
(dp4190
g100
g101
ssg82
g4179
sg75
(lp4191
S':'
asbag68
(g89
g70
NtRp4192
(dp4193
g73
(dp4194
sg82
g4179
sg75
(lp4195
g68
(g69
g70
NtRp4196
(dp4197
g73
(dp4198
g81
I5
ssg82
g4192
sg75
(lp4199
S'session_data_projeto'
p4200
asbasbasbag68
(g84
g70
NtRp4201
(dp4202
g73
(dp4203
sg82
g3559
sg75
(lp4204
g68
(g89
g70
NtRp4205
(dp4206
g73
(dp4207
g93
g94
ssg82
g4201
sg75
(lp4208
S'session_file'
p4209
asbag68
(g89
g70
NtRp4210
(dp4211
g73
(dp4212
g100
g101
ssg82
g4201
sg75
(lp4213
S':'
asbag68
(g89
g70
NtRp4214
(dp4215
g73
(dp4216
sg82
g4201
sg75
(lp4217
g68
(g69
g70
NtRp4218
(dp4219
g73
(dp4220
g81
I5
ssg82
g4214
sg75
(lp4221
S"<open file '/var/www/web2py_curso/applications/projeto/sessions/127.0.0.1-71851f1a-a738-4589-a6cd-6594e5094ab6', mode 'rb+' at 0x7fe5d4148540>"
p4222
asbasbasbag68
(g84
g70
NtRp4223
(dp4224
g73
(dp4225
sg82
g3559
sg75
(lp4226
g68
(g89
g70
NtRp4227
(dp4228
g73
(dp4229
g93
g94
ssg82
g4223
sg75
(lp4230
S'session_filename'
p4231
asbag68
(g89
g70
NtRp4232
(dp4233
g73
(dp4234
g100
g101
ssg82
g4223
sg75
(lp4235
S':'
asbag68
(g89
g70
NtRp4236
(dp4237
g73
(dp4238
sg82
g4223
sg75
(lp4239
g68
(g69
g70
NtRp4240
(dp4241
g73
(dp4242
g81
I5
ssg82
g4236
sg75
(lp4243
S'/var/www/web2py_curso/applications/projeto/sessions/127.0.0.1-71851f1a-a738-4589-a6cd-6594e5094ab6'
p4244
asbasbasbag68
(g84
g70
NtRp4245
(dp4246
g73
(dp4247
sg82
g3559
sg75
(lp4248
g68
(g89
g70
NtRp4249
(dp4250
g73
(dp4251
g93
g94
ssg82
g4245
sg75
(lp4252
S'session_id'
p4253
asbag68
(g89
g70
NtRp4254
(dp4255
g73
(dp4256
g100
g101
ssg82
g4245
sg75
(lp4257
S':'
asbag68
(g89
g70
NtRp4258
(dp4259
g73
(dp4260
sg82
g4245
sg75
(lp4261
g68
(g69
g70
NtRp4262
(dp4263
g73
(dp4264
g81
I5
ssg82
g4258
sg75
(lp4265
g486
asbasbasbag68
(g84
g70
NtRp4266
(dp4267
g73
(dp4268
sg82
g3559
sg75
(lp4269
g68
(g89
g70
NtRp4270
(dp4271
g73
(dp4272
g93
g94
ssg82
g4266
sg75
(lp4273
S'session_id_name'
p4274
asbag68
(g89
g70
NtRp4275
(dp4276
g73
(dp4277
g100
g101
ssg82
g4266
sg75
(lp4278
S':'
asbag68
(g89
g70
NtRp4279
(dp4280
g73
(dp4281
sg82
g4266
sg75
(lp4282
g68
(g69
g70
NtRp4283
(dp4284
g73
(dp4285
g81
I5
ssg82
g4279
sg75
(lp4286
g3616
asbasbasbag68
(g84
g70
NtRp4287
(dp4288
g73
(dp4289
sg82
g3559
sg75
(lp4290
g68
(g89
g70
NtRp4291
(dp4292
g73
(dp4293
g93
g94
ssg82
g4287
sg75
(lp4294
S'session_locked'
p4295
asbag68
(g89
g70
NtRp4296
(dp4297
g73
(dp4298
g100
g101
ssg82
g4287
sg75
(lp4299
S':'
asbag68
(g89
g70
NtRp4300
(dp4301
g73
(dp4302
sg82
g4287
sg75
(lp4303
g68
(g69
g70
NtRp4304
(dp4305
g73
(dp4306
g81
I5
ssg82
g4300
sg75
(lp4307
g1637
asbasbasbag68
(g84
g70
NtRp4308
(dp4309
g73
(dp4310
sg82
g3559
sg75
(lp4311
g68
(g89
g70
NtRp4312
(dp4313
g73
(dp4314
g93
g94
ssg82
g4308
sg75
(lp4315
S'session_new'
p4316
asbag68
(g89
g70
NtRp4317
(dp4318
g73
(dp4319
g100
g101
ssg82
g4308
sg75
(lp4320
S':'
asbag68
(g89
g70
NtRp4321
(dp4322
g73
(dp4323
sg82
g4308
sg75
(lp4324
g68
(g69
g70
NtRp4325
(dp4326
g73
(dp4327
g81
I5
ssg82
g4321
sg75
(lp4328
g111
asbasbasbag68
(g84
g70
NtRp4329
(dp4330
g73
(dp4331
sg82
g3559
sg75
(lp4332
g68
(g89
g70
NtRp4333
(dp4334
g73
(dp4335
g93
g94
ssg82
g4329
sg75
(lp4336
S'session_storage_type'
p4337
asbag68
(g89
g70
NtRp4338
(dp4339
g73
(dp4340
g100
g101
ssg82
g4329
sg75
(lp4341
S':'
asbag68
(g89
g70
NtRp4342
(dp4343
g73
(dp4344
sg82
g4329
sg75
(lp4345
g68
(g69
g70
NtRp4346
(dp4347
g73
(dp4348
g81
I5
ssg82
g4342
sg75
(lp4349
g3067
asbasbasbag68
(g84
g70
NtRp4350
(dp4351
g73
(dp4352
sg82
g3559
sg75
(lp4353
g68
(g89
g70
NtRp4354
(dp4355
g73
(dp4356
g93
g94
ssg82
g4350
sg75
(lp4357
S'status'
p4358
asbag68
(g89
g70
NtRp4359
(dp4360
g73
(dp4361
g100
g101
ssg82
g4350
sg75
(lp4362
S':'
asbag68
(g89
g70
NtRp4363
(dp4364
g73
(dp4365
sg82
g4350
sg75
(lp4366
g68
(g69
g70
NtRp4367
(dp4368
g73
(dp4369
g81
I5
ssg82
g4363
sg75
(lp4370
S'200'
p4371
asbasbasbag68
(g84
g70
NtRp4372
(dp4373
g73
(dp4374
sg82
g3559
sg75
(lp4375
g68
(g89
g70
NtRp4376
(dp4377
g73
(dp4378
g93
g94
ssg82
g4372
sg75
(lp4379
S'subtitle'
p4380
asbag68
(g89
g70
NtRp4381
(dp4382
g73
(dp4383
g100
g101
ssg82
g4372
sg75
(lp4384
S':'
asbag68
(g89
g70
NtRp4385
(dp4386
g73
(dp4387
sg82
g4372
sg75
(lp4388
g68
(g69
g70
NtRp4389
(dp4390
g73
(dp4391
g81
I5
ssg82
g4385
sg75
(lp4392
S'O blog do sheldon'
p4393
asbasbasbag68
(g84
g70
NtRp4394
(dp4395
g73
(dp4396
sg82
g3559
sg75
(lp4397
g68
(g89
g70
NtRp4398
(dp4399
g73
(dp4400
g93
g94
ssg82
g4394
sg75
(lp4401
S'title'
p4402
asbag68
(g89
g70
NtRp4403
(dp4404
g73
(dp4405
g100
g101
ssg82
g4394
sg75
(lp4406
S':'
asbag68
(g89
g70
NtRp4407
(dp4408
g73
(dp4409
sg82
g4394
sg75
(lp4410
g68
(g69
g70
NtRp4411
(dp4412
g73
(dp4413
g81
I5
ssg82
g4407
sg75
(lp4414
S'Meu site magnifico'
p4415
asbasbasbag68
(g84
g70
NtRp4416
(dp4417
g73
(dp4418
sg82
g3559
sg75
(lp4419
g68
(g89
g70
NtRp4420
(dp4421
g73
(dp4422
g93
g94
ssg82
g4416
sg75
(lp4423
S'view'
p4424
asbag68
(g89
g70
NtRp4425
(dp4426
g73
(dp4427
g100
g101
ssg82
g4416
sg75
(lp4428
S':'
asbag68
(g89
g70
NtRp4429
(dp4430
g73
(dp4431
sg82
g4416
sg75
(lp4432
g68
(g69
g70
NtRp4433
(dp4434
g73
(dp4435
g81
I5
ssg82
g4429
sg75
(lp4436
S'initial/home.html'
p4437
asbasbasbasbasbsS'locals'
p4438
(dp4439
g4
S"'/var/www/web2py_curso/applications/projeto/controllers/initial.py'"
p4440
sg6
S"'# coding: utf-8\\n\\ndef home():\\n\\tposts = db(db.post... x + y\\n\\n \\n\\nresponse._vars=response._caller(home)\\n'"
p4441
sssS'traceback'
p4442
S'Traceback (most recent call last):\n  File "/var/www/web2py_curso/gluon/restricted.py", line 211, in restricted\n    ccode = compile2(code, layer)\n  File "/var/www/web2py_curso/gluon/restricted.py", line 194, in compile2\n    return compile(code.rstrip().replace(\'\\r\\n\', \'\\n\') + \'\\n\', layer, \'exec\')\n  File "/var/www/web2py_curso/applications/projeto/controllers/initial.py", line 8\n    return dict(, nome=nome)\n                ^\nSyntaxError: invalid syntax\n'
p4443
s.