(dp1
S'output'
p2
S''
sS'layer'
p3
S'Framework'
p4
sS'code'
p5
S''
sS'snapshot'
p6
(dp7
S'exception'
p8
(dp9
S'__getslice__'
p10
S"<method-wrapper '__getslice__' of exceptions.IOError object>"
p11
sS'__str__'
p12
S"<method-wrapper '__str__' of exceptions.IOError object>"
p13
sS'__reduce__'
p14
S'<built-in method __reduce__ of exceptions.IOError object>'
p15
sS'__dict__'
p16
S'{}'
p17
sS'__sizeof__'
p18
S'<built-in method __sizeof__ of exceptions.IOError object>'
p19
sS'__init__'
p20
S"<method-wrapper '__init__' of exceptions.IOError object>"
p21
sS'__setattr__'
p22
S"<method-wrapper '__setattr__' of exceptions.IOError object>"
p23
sS'__reduce_ex__'
p24
S'<built-in method __reduce_ex__ of exceptions.IOError object>'
p25
sS'__new__'
p26
S'<built-in method __new__ of type object>'
p27
sS'errno'
p28
S'13'
p29
sS'__format__'
p30
S'<built-in method __format__ of exceptions.IOError object>'
p31
sS'__class__'
p32
S"<type 'exceptions.IOError'>"
p33
sS'filename'
p34
S"'/var/www/web2py_curso/applications/projeto/sessions/127.0.0.1-71851f1a-a738-4589-a6cd-6594e5094ab6'"
p35
sS'__doc__'
p36
S"'I/O operation failed.'"
p37
sS'__getitem__'
p38
S"<method-wrapper '__getitem__' of exceptions.IOError object>"
p39
sS'__setstate__'
p40
S'<built-in method __setstate__ of exceptions.IOError object>'
p41
sS'__getattribute__'
p42
S"<method-wrapper '__getattribute__' of exceptions.IOError object>"
p43
sS'args'
p44
S"(13, 'Permission denied')"
p45
sS'__subclasshook__'
p46
S'<built-in method __subclasshook__ of type object>'
p47
sS'__unicode__'
p48
S'<built-in method __unicode__ of exceptions.IOError object>'
p49
sS'strerror'
p50
S"'Permission denied'"
p51
sS'__delattr__'
p52
S"<method-wrapper '__delattr__' of exceptions.IOError object>"
p53
sS'__repr__'
p54
S"<method-wrapper '__repr__' of exceptions.IOError object>"
p55
sS'__hash__'
p56
S"<method-wrapper '__hash__' of exceptions.IOError object>"
p57
ssS'evalue'
p58
S"[Errno 13] Permission denied: '/var/www/web2py_curso/applications/projeto/sessions/127.0.0.1-71851f1a-a738-4589-a6cd-6594e5094ab6'"
p59
sS'request'
p60
ccopy_reg
_reconstructor
p61
(cgluon.html
BEAUTIFY
p62
c__builtin__
object
p63
NtRp64
(dp65
S'attributes'
p66
(dp67
sS'components'
p68
(lp69
g61
(cgluon.html
TABLE
p70
g63
NtRp71
(dp72
g66
(dp73
S'level'
p74
I5
ssS'parent'
p75
Nsg68
(lp76
g61
(cgluon.html
TR
p77
g63
NtRp78
(dp79
g66
(dp80
sg75
g71
sg68
(lp81
g61
(cgluon.html
TD
p82
g63
NtRp83
(dp84
g66
(dp85
S'_style'
p86
S'font-weight:bold;vertical-align:top'
p87
ssg75
g78
sg68
(lp88
S'ajax'
p89
asbag61
(g82
g63
NtRp90
(dp91
g66
(dp92
S'_valign'
p93
S'top'
p94
ssg75
g78
sg68
(lp95
S':'
asbag61
(g82
g63
NtRp96
(dp97
g66
(dp98
sg75
g78
sg68
(lp99
g61
(g62
g63
NtRp100
(dp101
g66
(dp102
g74
I5
ssg75
g96
sg68
(lp103
S'False'
p104
asbasbasbag61
(g77
g63
NtRp105
(dp106
g66
(dp107
sg75
g71
sg68
(lp108
g61
(g82
g63
NtRp109
(dp110
g66
(dp111
g86
g87
ssg75
g105
sg68
(lp112
S'application'
p113
asbag61
(g82
g63
NtRp114
(dp115
g66
(dp116
g93
g94
ssg75
g105
sg68
(lp117
S':'
asbag61
(g82
g63
NtRp118
(dp119
g66
(dp120
sg75
g105
sg68
(lp121
g61
(g62
g63
NtRp122
(dp123
g66
(dp124
g74
I5
ssg75
g118
sg68
(lp125
S'projeto'
p126
asbasbasbag61
(g77
g63
NtRp127
(dp128
g66
(dp129
sg75
g71
sg68
(lp130
g61
(g82
g63
NtRp131
(dp132
g66
(dp133
g86
g87
ssg75
g127
sg68
(lp134
g44
asbag61
(g82
g63
NtRp135
(dp136
g66
(dp137
g93
g94
ssg75
g127
sg68
(lp138
S':'
asbag61
(g82
g63
NtRp139
(dp140
g66
(dp141
sg75
g127
sg68
(lp142
g61
(g62
g63
NtRp143
(dp144
g66
(dp145
g74
I5
ssg75
g139
sg68
(lp146
g61
(g70
g63
NtRp147
(dp148
g66
(dp149
g74
I4
ssg75
Nsg68
(lp150
g61
(g77
g63
NtRp151
(dp152
g66
(dp153
sg75
g147
sg68
(lp154
g61
(g82
g63
NtRp155
(dp156
g66
(dp157
sg75
g151
sg68
(lp158
g61
(g62
g63
NtRp159
(dp160
g66
(dp161
g74
I4
ssg75
g155
sg68
(lp162
S'login'
p163
asbasbasbasbasbasbasbag61
(g77
g63
NtRp164
(dp165
g66
(dp166
sg75
g71
sg68
(lp167
g61
(g82
g63
NtRp168
(dp169
g66
(dp170
g86
g87
ssg75
g164
sg68
(lp171
S'body'
p172
asbag61
(g82
g63
NtRp173
(dp174
g66
(dp175
g93
g94
ssg75
g164
sg68
(lp176
S':'
asbag61
(g82
g63
NtRp177
(dp178
g66
(dp179
sg75
g164
sg68
(lp180
g61
(g62
g63
NtRp181
(dp182
g66
(dp183
g74
I5
ssg75
g177
sg68
(lp184
S'<cStringIO.StringO object at 0x7f3fd02a9c38>'
p185
asbasbasbag61
(g77
g63
NtRp186
(dp187
g66
(dp188
sg75
g71
sg68
(lp189
g61
(g82
g63
NtRp190
(dp191
g66
(dp192
g86
g87
ssg75
g186
sg68
(lp193
S'cid'
p194
asbag61
(g82
g63
NtRp195
(dp196
g66
(dp197
g93
g94
ssg75
g186
sg68
(lp198
S':'
asbag61
(g82
g63
NtRp199
(dp200
g66
(dp201
sg75
g186
sg68
(lp202
g61
(g62
g63
NtRp203
(dp204
g66
(dp205
g74
I5
ssg75
g199
sg68
(lp206
S'None'
p207
asbasbasbag61
(g77
g63
NtRp208
(dp209
g66
(dp210
sg75
g71
sg68
(lp211
g61
(g82
g63
NtRp212
(dp213
g66
(dp214
g86
g87
ssg75
g208
sg68
(lp215
S'client'
p216
asbag61
(g82
g63
NtRp217
(dp218
g66
(dp219
g93
g94
ssg75
g208
sg68
(lp220
S':'
asbag61
(g82
g63
NtRp221
(dp222
g66
(dp223
sg75
g208
sg68
(lp224
g61
(g62
g63
NtRp225
(dp226
g66
(dp227
g74
I5
ssg75
g221
sg68
(lp228
S'127.0.0.1'
p229
asbasbasbag61
(g77
g63
NtRp230
(dp231
g66
(dp232
sg75
g71
sg68
(lp233
g61
(g82
g63
NtRp234
(dp235
g66
(dp236
g86
g87
ssg75
g230
sg68
(lp237
S'controller'
p238
asbag61
(g82
g63
NtRp239
(dp240
g66
(dp241
g93
g94
ssg75
g230
sg68
(lp242
S':'
asbag61
(g82
g63
NtRp243
(dp244
g66
(dp245
sg75
g230
sg68
(lp246
g61
(g62
g63
NtRp247
(dp248
g66
(dp249
g74
I5
ssg75
g243
sg68
(lp250
S'initial'
p251
asbasbasbag61
(g77
g63
NtRp252
(dp253
g66
(dp254
sg75
g71
sg68
(lp255
g61
(g82
g63
NtRp256
(dp257
g66
(dp258
g86
g87
ssg75
g252
sg68
(lp259
S'cookies'
p260
asbag61
(g82
g63
NtRp261
(dp262
g66
(dp263
g93
g94
ssg75
g252
sg68
(lp264
S':'
asbag61
(g82
g63
NtRp265
(dp266
g66
(dp267
sg75
g252
sg68
(lp268
g61
(g62
g63
NtRp269
(dp270
g66
(dp271
g74
I5
ssg75
g265
sg68
(lp272
g61
(g70
g63
NtRp273
(dp274
g66
(dp275
g74
I4
ssg75
Nsg68
(lp276
g61
(g77
g63
NtRp277
(dp278
g66
(dp279
sg75
g273
sg68
(lp280
g61
(g82
g63
NtRp281
(dp282
g66
(dp283
g86
g87
ssg75
g277
sg68
(lp284
S'session_id_projeto'
p285
asbag61
(g82
g63
NtRp286
(dp287
g66
(dp288
g93
g94
ssg75
g277
sg68
(lp289
S':'
asbag61
(g82
g63
NtRp290
(dp291
g66
(dp292
sg75
g277
sg68
(lp293
g61
(g62
g63
NtRp294
(dp295
g66
(dp296
g74
I4
ssg75
g290
sg68
(lp297
S'127.0.0.1-71851f1a-a738-4589-a6cd-6594e5094ab6'
p298
ag61
(g70
g63
NtRp299
(dp300
g66
(dp301
g74
I3
ssg75
Nsg68
(lp302
g61
(g77
g63
NtRp303
(dp304
g66
(dp305
sg75
g299
sg68
(lp306
g61
(g82
g63
NtRp307
(dp308
g66
(dp309
g86
g87
ssg75
g303
sg68
(lp310
S'comment'
p311
asbag61
(g82
g63
NtRp312
(dp313
g66
(dp314
g93
g94
ssg75
g303
sg68
(lp315
S':'
asbag61
(g82
g63
NtRp316
(dp317
g66
(dp318
sg75
g303
sg68
(lp319
g61
(g62
g63
NtRp320
(dp321
g66
(dp322
g74
I3
ssg75
g316
sg68
(lp323
S''
asbasbasbag61
(g77
g63
NtRp324
(dp325
g66
(dp326
sg75
g299
sg68
(lp327
g61
(g82
g63
NtRp328
(dp329
g66
(dp330
g86
g87
ssg75
g324
sg68
(lp331
S'domain'
p332
asbag61
(g82
g63
NtRp333
(dp334
g66
(dp335
g93
g94
ssg75
g324
sg68
(lp336
S':'
asbag61
(g82
g63
NtRp337
(dp338
g66
(dp339
sg75
g324
sg68
(lp340
g61
(g62
g63
NtRp341
(dp342
g66
(dp343
g74
I3
ssg75
g337
sg68
(lp344
S''
asbasbasbag61
(g77
g63
NtRp345
(dp346
g66
(dp347
sg75
g299
sg68
(lp348
g61
(g82
g63
NtRp349
(dp350
g66
(dp351
g86
g87
ssg75
g345
sg68
(lp352
S'expires'
p353
asbag61
(g82
g63
NtRp354
(dp355
g66
(dp356
g93
g94
ssg75
g345
sg68
(lp357
S':'
asbag61
(g82
g63
NtRp358
(dp359
g66
(dp360
sg75
g345
sg68
(lp361
g61
(g62
g63
NtRp362
(dp363
g66
(dp364
g74
I3
ssg75
g358
sg68
(lp365
S''
asbasbasbag61
(g77
g63
NtRp366
(dp367
g66
(dp368
sg75
g299
sg68
(lp369
g61
(g82
g63
NtRp370
(dp371
g66
(dp372
g86
g87
ssg75
g366
sg68
(lp373
S'httponly'
p374
asbag61
(g82
g63
NtRp375
(dp376
g66
(dp377
g93
g94
ssg75
g366
sg68
(lp378
S':'
asbag61
(g82
g63
NtRp379
(dp380
g66
(dp381
sg75
g366
sg68
(lp382
g61
(g62
g63
NtRp383
(dp384
g66
(dp385
g74
I3
ssg75
g379
sg68
(lp386
S''
asbasbasbag61
(g77
g63
NtRp387
(dp388
g66
(dp389
sg75
g299
sg68
(lp390
g61
(g82
g63
NtRp391
(dp392
g66
(dp393
g86
g87
ssg75
g387
sg68
(lp394
S'max-age'
p395
asbag61
(g82
g63
NtRp396
(dp397
g66
(dp398
g93
g94
ssg75
g387
sg68
(lp399
S':'
asbag61
(g82
g63
NtRp400
(dp401
g66
(dp402
sg75
g387
sg68
(lp403
g61
(g62
g63
NtRp404
(dp405
g66
(dp406
g74
I3
ssg75
g400
sg68
(lp407
S''
asbasbasbag61
(g77
g63
NtRp408
(dp409
g66
(dp410
sg75
g299
sg68
(lp411
g61
(g82
g63
NtRp412
(dp413
g66
(dp414
g86
g87
ssg75
g408
sg68
(lp415
S'path'
p416
asbag61
(g82
g63
NtRp417
(dp418
g66
(dp419
g93
g94
ssg75
g408
sg68
(lp420
S':'
asbag61
(g82
g63
NtRp421
(dp422
g66
(dp423
sg75
g408
sg68
(lp424
g61
(g62
g63
NtRp425
(dp426
g66
(dp427
g74
I3
ssg75
g421
sg68
(lp428
S''
asbasbasbag61
(g77
g63
NtRp429
(dp430
g66
(dp431
sg75
g299
sg68
(lp432
g61
(g82
g63
NtRp433
(dp434
g66
(dp435
g86
g87
ssg75
g429
sg68
(lp436
S'secure'
p437
asbag61
(g82
g63
NtRp438
(dp439
g66
(dp440
g93
g94
ssg75
g429
sg68
(lp441
S':'
asbag61
(g82
g63
NtRp442
(dp443
g66
(dp444
sg75
g429
sg68
(lp445
g61
(g62
g63
NtRp446
(dp447
g66
(dp448
g74
I3
ssg75
g442
sg68
(lp449
S''
asbasbasbag61
(g77
g63
NtRp450
(dp451
g66
(dp452
sg75
g299
sg68
(lp453
g61
(g82
g63
NtRp454
(dp455
g66
(dp456
g86
g87
ssg75
g450
sg68
(lp457
S'version'
p458
asbag61
(g82
g63
NtRp459
(dp460
g66
(dp461
g93
g94
ssg75
g450
sg68
(lp462
S':'
asbag61
(g82
g63
NtRp463
(dp464
g66
(dp465
sg75
g450
sg68
(lp466
g61
(g62
g63
NtRp467
(dp468
g66
(dp469
g74
I3
ssg75
g463
sg68
(lp470
S''
asbasbasbasbasbasbasbasbasbasbasbag61
(g77
g63
NtRp471
(dp472
g66
(dp473
sg75
g71
sg68
(lp474
g61
(g82
g63
NtRp475
(dp476
g66
(dp477
g86
g87
ssg75
g471
sg68
(lp478
S'env'
p479
asbag61
(g82
g63
NtRp480
(dp481
g66
(dp482
g93
g94
ssg75
g471
sg68
(lp483
S':'
asbag61
(g82
g63
NtRp484
(dp485
g66
(dp486
sg75
g471
sg68
(lp487
g61
(g62
g63
NtRp488
(dp489
g66
(dp490
g74
I5
ssg75
g484
sg68
(lp491
g61
(g70
g63
NtRp492
(dp493
g66
(dp494
g74
I4
ssg75
Nsg68
(lp495
g61
(g77
g63
NtRp496
(dp497
g66
(dp498
sg75
g492
sg68
(lp499
g61
(g82
g63
NtRp500
(dp501
g66
(dp502
g86
g87
ssg75
g496
sg68
(lp503
S'app_folders'
p504
asbag61
(g82
g63
NtRp505
(dp506
g66
(dp507
g93
g94
ssg75
g496
sg68
(lp508
S':'
asbag61
(g82
g63
NtRp509
(dp510
g66
(dp511
sg75
g496
sg68
(lp512
g61
(g62
g63
NtRp513
(dp514
g66
(dp515
g74
I4
ssg75
g509
sg68
(lp516
S"set(['/var/www/web2py_curso/applications/projeto/'])"
p517
asbasbasbag61
(g77
g63
NtRp518
(dp519
g66
(dp520
sg75
g492
sg68
(lp521
g61
(g82
g63
NtRp522
(dp523
g66
(dp524
g86
g87
ssg75
g518
sg68
(lp525
S'applications_parent'
p526
asbag61
(g82
g63
NtRp527
(dp528
g66
(dp529
g93
g94
ssg75
g518
sg68
(lp530
S':'
asbag61
(g82
g63
NtRp531
(dp532
g66
(dp533
sg75
g518
sg68
(lp534
g61
(g62
g63
NtRp535
(dp536
g66
(dp537
g74
I4
ssg75
g531
sg68
(lp538
S'/var/www/web2py_curso'
p539
asbasbasbag61
(g77
g63
NtRp540
(dp541
g66
(dp542
sg75
g492
sg68
(lp543
g61
(g82
g63
NtRp544
(dp545
g66
(dp546
g86
g87
ssg75
g540
sg68
(lp547
S'cmd_args'
p548
asbag61
(g82
g63
NtRp549
(dp550
g66
(dp551
g93
g94
ssg75
g540
sg68
(lp552
S':'
asbag61
(g82
g63
NtRp553
(dp554
g66
(dp555
sg75
g540
sg68
(lp556
g61
(g62
g63
NtRp557
(dp558
g66
(dp559
g74
I4
ssg75
g553
sg68
(lp560
g61
(g70
g63
NtRp561
(dp562
g66
(dp563
g74
I3
ssg75
Nsg68
(lp564
sbasbasbasbag61
(g77
g63
NtRp565
(dp566
g66
(dp567
sg75
g492
sg68
(lp568
g61
(g82
g63
NtRp569
(dp570
g66
(dp571
g86
g87
ssg75
g565
sg68
(lp572
S'cmd_options'
p573
asbag61
(g82
g63
NtRp574
(dp575
g66
(dp576
g93
g94
ssg75
g565
sg68
(lp577
S':'
asbag61
(g82
g63
NtRp578
(dp579
g66
(dp580
sg75
g565
sg68
(lp581
g61
(g62
g63
NtRp582
(dp583
g66
(dp584
g74
I4
ssg75
g578
sg68
(lp585
S"<Values at 0x1701a28: {'verbose': False, 'ip': '127.0.0.1', 'with_scheduler': False, 'ips': [], 'shutdown_timeout': 5, 'taskbar': False, 'port': 8000, 'maxthreads': None, 'softcron': False, 'server_name': 'fernando-pc', 'bpython': False, 'nogui': False, 'pid_filename': 'httpserver.pid', 'extcron': False, 'runcron': False, 'run_system_tests': False, 'test': None, 'folder': '/var/www/web2py_curso', 'config': '', 'minthreads': None, 'winservice': '', 'shell': None, 'run': '', 'log_filename': 'httpserver.log', 'debuglevel': 30, 'args': [''], 'socket_timeout': 5, 'ssl_ca_certificate': None, 'scheduler': None, 'profiler_filename': None, 'ssl_private_key': '', 'scheduler_groups': None, 'password': '123456', 'request_queue_size': 5, 'ssl_certificate': '', 'cronjob': False, 'numthreads': None, 'quiet': False, 'interfaces': None, 'import_models': False, 'timeout': 10, 'plain': False, 'nobanner': False}>"
p586
asbasbasbag61
(g77
g63
NtRp587
(dp588
g66
(dp589
sg75
g492
sg68
(lp590
g61
(g82
g63
NtRp591
(dp592
g66
(dp593
g86
g87
ssg75
g587
sg68
(lp594
S'db_sessions'
p595
asbag61
(g82
g63
NtRp596
(dp597
g66
(dp598
g93
g94
ssg75
g587
sg68
(lp599
S':'
asbag61
(g82
g63
NtRp600
(dp601
g66
(dp602
sg75
g587
sg68
(lp603
g61
(g62
g63
NtRp604
(dp605
g66
(dp606
g74
I4
ssg75
g600
sg68
(lp607
S'set([])'
p608
asbasbasbag61
(g77
g63
NtRp609
(dp610
g66
(dp611
sg75
g492
sg68
(lp612
g61
(g82
g63
NtRp613
(dp614
g66
(dp615
g86
g87
ssg75
g609
sg68
(lp616
S'debugging'
p617
asbag61
(g82
g63
NtRp618
(dp619
g66
(dp620
g93
g94
ssg75
g609
sg68
(lp621
S':'
asbag61
(g82
g63
NtRp622
(dp623
g66
(dp624
sg75
g609
sg68
(lp625
g61
(g62
g63
NtRp626
(dp627
g66
(dp628
g74
I4
ssg75
g622
sg68
(lp629
g104
asbasbasbag61
(g77
g63
NtRp630
(dp631
g66
(dp632
sg75
g492
sg68
(lp633
g61
(g82
g63
NtRp634
(dp635
g66
(dp636
g86
g87
ssg75
g630
sg68
(lp637
S'gluon_parent'
p638
asbag61
(g82
g63
NtRp639
(dp640
g66
(dp641
g93
g94
ssg75
g630
sg68
(lp642
S':'
asbag61
(g82
g63
NtRp643
(dp644
g66
(dp645
sg75
g630
sg68
(lp646
g61
(g62
g63
NtRp647
(dp648
g66
(dp649
g74
I4
ssg75
g643
sg68
(lp650
S'/var/www/web2py_curso'
p651
asbasbasbag61
(g77
g63
NtRp652
(dp653
g66
(dp654
sg75
g492
sg68
(lp655
g61
(g82
g63
NtRp656
(dp657
g66
(dp658
g86
g87
ssg75
g652
sg68
(lp659
S'http_accept'
p660
asbag61
(g82
g63
NtRp661
(dp662
g66
(dp663
g93
g94
ssg75
g652
sg68
(lp664
S':'
asbag61
(g82
g63
NtRp665
(dp666
g66
(dp667
sg75
g652
sg68
(lp668
g61
(g62
g63
NtRp669
(dp670
g66
(dp671
g74
I4
ssg75
g665
sg68
(lp672
S'text/html,application/xhtml+xml,application/xml;q=0.9,*/*;q=0.8'
p673
asbasbasbag61
(g77
g63
NtRp674
(dp675
g66
(dp676
sg75
g492
sg68
(lp677
g61
(g82
g63
NtRp678
(dp679
g66
(dp680
g86
g87
ssg75
g674
sg68
(lp681
S'http_accept_charset'
p682
asbag61
(g82
g63
NtRp683
(dp684
g66
(dp685
g93
g94
ssg75
g674
sg68
(lp686
S':'
asbag61
(g82
g63
NtRp687
(dp688
g66
(dp689
sg75
g674
sg68
(lp690
g61
(g62
g63
NtRp691
(dp692
g66
(dp693
g74
I4
ssg75
g687
sg68
(lp694
S'ISO-8859-1,utf-8;q=0.7,*;q=0.3'
p695
asbasbasbag61
(g77
g63
NtRp696
(dp697
g66
(dp698
sg75
g492
sg68
(lp699
g61
(g82
g63
NtRp700
(dp701
g66
(dp702
g86
g87
ssg75
g696
sg68
(lp703
S'http_accept_encoding'
p704
asbag61
(g82
g63
NtRp705
(dp706
g66
(dp707
g93
g94
ssg75
g696
sg68
(lp708
S':'
asbag61
(g82
g63
NtRp709
(dp710
g66
(dp711
sg75
g696
sg68
(lp712
g61
(g62
g63
NtRp713
(dp714
g66
(dp715
g74
I4
ssg75
g709
sg68
(lp716
S'gzip,deflate,sdch'
p717
asbasbasbag61
(g77
g63
NtRp718
(dp719
g66
(dp720
sg75
g492
sg68
(lp721
g61
(g82
g63
NtRp722
(dp723
g66
(dp724
g86
g87
ssg75
g718
sg68
(lp725
S'http_accept_language'
p726
asbag61
(g82
g63
NtRp727
(dp728
g66
(dp729
g93
g94
ssg75
g718
sg68
(lp730
S':'
asbag61
(g82
g63
NtRp731
(dp732
g66
(dp733
sg75
g718
sg68
(lp734
g61
(g62
g63
NtRp735
(dp736
g66
(dp737
g74
I4
ssg75
g731
sg68
(lp738
S'pt-BR,pt;q=0.8,en-US;q=0.6,en;q=0.4'
p739
asbasbasbag61
(g77
g63
NtRp740
(dp741
g66
(dp742
sg75
g492
sg68
(lp743
g61
(g82
g63
NtRp744
(dp745
g66
(dp746
g86
g87
ssg75
g740
sg68
(lp747
S'http_connection'
p748
asbag61
(g82
g63
NtRp749
(dp750
g66
(dp751
g93
g94
ssg75
g740
sg68
(lp752
S':'
asbag61
(g82
g63
NtRp753
(dp754
g66
(dp755
sg75
g740
sg68
(lp756
g61
(g62
g63
NtRp757
(dp758
g66
(dp759
g74
I4
ssg75
g753
sg68
(lp760
S'keep-alive'
p761
asbasbasbag61
(g77
g63
NtRp762
(dp763
g66
(dp764
sg75
g492
sg68
(lp765
g61
(g82
g63
NtRp766
(dp767
g66
(dp768
g86
g87
ssg75
g762
sg68
(lp769
S'http_cookie'
p770
asbag61
(g82
g63
NtRp771
(dp772
g66
(dp773
g93
g94
ssg75
g762
sg68
(lp774
S':'
asbag61
(g82
g63
NtRp775
(dp776
g66
(dp777
sg75
g762
sg68
(lp778
g61
(g62
g63
NtRp779
(dp780
g66
(dp781
g74
I4
ssg75
g775
sg68
(lp782
S'session_id_projeto=127.0.0.1-71851f1a-a738-4589-a6cd-6594e5094ab6'
p783
asbasbasbag61
(g77
g63
NtRp784
(dp785
g66
(dp786
sg75
g492
sg68
(lp787
g61
(g82
g63
NtRp788
(dp789
g66
(dp790
g86
g87
ssg75
g784
sg68
(lp791
S'http_host'
p792
asbag61
(g82
g63
NtRp793
(dp794
g66
(dp795
g93
g94
ssg75
g784
sg68
(lp796
S':'
asbag61
(g82
g63
NtRp797
(dp798
g66
(dp799
sg75
g784
sg68
(lp800
g61
(g62
g63
NtRp801
(dp802
g66
(dp803
g74
I4
ssg75
g797
sg68
(lp804
S'127.0.0.1:8000'
p805
asbasbasbag61
(g77
g63
NtRp806
(dp807
g66
(dp808
sg75
g492
sg68
(lp809
g61
(g82
g63
NtRp810
(dp811
g66
(dp812
g86
g87
ssg75
g806
sg68
(lp813
S'http_user_agent'
p814
asbag61
(g82
g63
NtRp815
(dp816
g66
(dp817
g93
g94
ssg75
g806
sg68
(lp818
S':'
asbag61
(g82
g63
NtRp819
(dp820
g66
(dp821
sg75
g806
sg68
(lp822
g61
(g62
g63
NtRp823
(dp824
g66
(dp825
g74
I4
ssg75
g819
sg68
(lp826
S'Mozilla/5.0 (X11; Linux x86_64) AppleWebKit/536.11 (KHTML, like Gecko) Ubuntu/12.04 Chromium/20.0.1132.47 Chrome/20.0.1132.47 Safari/536.11'
p827
asbasbasbag61
(g77
g63
NtRp828
(dp829
g66
(dp830
sg75
g492
sg68
(lp831
g61
(g82
g63
NtRp832
(dp833
g66
(dp834
g86
g87
ssg75
g828
sg68
(lp835
S'is_jython'
p836
asbag61
(g82
g63
NtRp837
(dp838
g66
(dp839
g93
g94
ssg75
g828
sg68
(lp840
S':'
asbag61
(g82
g63
NtRp841
(dp842
g66
(dp843
sg75
g828
sg68
(lp844
g61
(g62
g63
NtRp845
(dp846
g66
(dp847
g74
I4
ssg75
g841
sg68
(lp848
g104
asbasbasbag61
(g77
g63
NtRp849
(dp850
g66
(dp851
sg75
g492
sg68
(lp852
g61
(g82
g63
NtRp853
(dp854
g66
(dp855
g86
g87
ssg75
g849
sg68
(lp856
S'is_pypy'
p857
asbag61
(g82
g63
NtRp858
(dp859
g66
(dp860
g93
g94
ssg75
g849
sg68
(lp861
S':'
asbag61
(g82
g63
NtRp862
(dp863
g66
(dp864
sg75
g849
sg68
(lp865
g61
(g62
g63
NtRp866
(dp867
g66
(dp868
g74
I4
ssg75
g862
sg68
(lp869
g104
asbasbasbag61
(g77
g63
NtRp870
(dp871
g66
(dp872
sg75
g492
sg68
(lp873
g61
(g82
g63
NtRp874
(dp875
g66
(dp876
g86
g87
ssg75
g870
sg68
(lp877
S'local_hosts'
p878
asbag61
(g82
g63
NtRp879
(dp880
g66
(dp881
g93
g94
ssg75
g870
sg68
(lp882
S':'
asbag61
(g82
g63
NtRp883
(dp884
g66
(dp885
sg75
g870
sg68
(lp886
g61
(g62
g63
NtRp887
(dp888
g66
(dp889
g74
I4
ssg75
g883
sg68
(lp890
g61
(g70
g63
NtRp891
(dp892
g66
(dp893
g74
I3
ssg75
Nsg68
(lp894
g61
(g77
g63
NtRp895
(dp896
g66
(dp897
sg75
g891
sg68
(lp898
g61
(g82
g63
NtRp899
(dp900
g66
(dp901
sg75
g895
sg68
(lp902
g61
(g62
g63
NtRp903
(dp904
g66
(dp905
g74
I3
ssg75
g899
sg68
(lp906
S'::1'
p907
asbasbasbag61
(g77
g63
NtRp908
(dp909
g66
(dp910
sg75
g891
sg68
(lp911
g61
(g82
g63
NtRp912
(dp913
g66
(dp914
sg75
g908
sg68
(lp915
g61
(g62
g63
NtRp916
(dp917
g66
(dp918
g74
I3
ssg75
g912
sg68
(lp919
S'127.0.1.1'
p920
asbasbasbag61
(g77
g63
NtRp921
(dp922
g66
(dp923
sg75
g891
sg68
(lp924
g61
(g82
g63
NtRp925
(dp926
g66
(dp927
sg75
g921
sg68
(lp928
g61
(g62
g63
NtRp929
(dp930
g66
(dp931
g74
I3
ssg75
g925
sg68
(lp932
S'fernando-pc'
p933
asbasbasbag61
(g77
g63
NtRp934
(dp935
g66
(dp936
sg75
g891
sg68
(lp937
g61
(g82
g63
NtRp938
(dp939
g66
(dp940
sg75
g934
sg68
(lp941
g61
(g62
g63
NtRp942
(dp943
g66
(dp944
g74
I3
ssg75
g938
sg68
(lp945
S'::ffff:127.0.0.1'
p946
asbasbasbag61
(g77
g63
NtRp947
(dp948
g66
(dp949
sg75
g891
sg68
(lp950
g61
(g82
g63
NtRp951
(dp952
g66
(dp953
sg75
g947
sg68
(lp954
g61
(g62
g63
NtRp955
(dp956
g66
(dp957
g74
I3
ssg75
g951
sg68
(lp958
S'127.0.0.1'
p959
asbasbasbasbasbasbasbag61
(g77
g63
NtRp960
(dp961
g66
(dp962
sg75
g492
sg68
(lp963
g61
(g82
g63
NtRp964
(dp965
g66
(dp966
g86
g87
ssg75
g960
sg68
(lp967
S'path_info'
p968
asbag61
(g82
g63
NtRp969
(dp970
g66
(dp971
g93
g94
ssg75
g960
sg68
(lp972
S':'
asbag61
(g82
g63
NtRp973
(dp974
g66
(dp975
sg75
g960
sg68
(lp976
g61
(g62
g63
NtRp977
(dp978
g66
(dp979
g74
I4
ssg75
g973
sg68
(lp980
S'/user/login'
p981
asbasbasbag61
(g77
g63
NtRp982
(dp983
g66
(dp984
sg75
g492
sg68
(lp985
g61
(g82
g63
NtRp986
(dp987
g66
(dp988
g86
g87
ssg75
g982
sg68
(lp989
S'query_string'
p990
asbag61
(g82
g63
NtRp991
(dp992
g66
(dp993
g93
g94
ssg75
g982
sg68
(lp994
S':'
asbag61
(g82
g63
NtRp995
(dp996
g66
(dp997
sg75
g982
sg68
(lp998
g61
(g62
g63
NtRp999
(dp1000
g66
(dp1001
g74
I4
ssg75
g995
sg68
(lp1002
S''
asbasbasbag61
(g77
g63
NtRp1003
(dp1004
g66
(dp1005
sg75
g492
sg68
(lp1006
g61
(g82
g63
NtRp1007
(dp1008
g66
(dp1009
g86
g87
ssg75
g1003
sg68
(lp1010
S'remote_addr'
p1011
asbag61
(g82
g63
NtRp1012
(dp1013
g66
(dp1014
g93
g94
ssg75
g1003
sg68
(lp1015
S':'
asbag61
(g82
g63
NtRp1016
(dp1017
g66
(dp1018
sg75
g1003
sg68
(lp1019
g61
(g62
g63
NtRp1020
(dp1021
g66
(dp1022
g74
I4
ssg75
g1016
sg68
(lp1023
g229
asbasbasbag61
(g77
g63
NtRp1024
(dp1025
g66
(dp1026
sg75
g492
sg68
(lp1027
g61
(g82
g63
NtRp1028
(dp1029
g66
(dp1030
g86
g87
ssg75
g1024
sg68
(lp1031
S'remote_port'
p1032
asbag61
(g82
g63
NtRp1033
(dp1034
g66
(dp1035
g93
g94
ssg75
g1024
sg68
(lp1036
S':'
asbag61
(g82
g63
NtRp1037
(dp1038
g66
(dp1039
sg75
g1024
sg68
(lp1040
g61
(g62
g63
NtRp1041
(dp1042
g66
(dp1043
g74
I4
ssg75
g1037
sg68
(lp1044
S'46898'
p1045
asbasbasbag61
(g77
g63
NtRp1046
(dp1047
g66
(dp1048
sg75
g492
sg68
(lp1049
g61
(g82
g63
NtRp1050
(dp1051
g66
(dp1052
g86
g87
ssg75
g1046
sg68
(lp1053
S'request_method'
p1054
asbag61
(g82
g63
NtRp1055
(dp1056
g66
(dp1057
g93
g94
ssg75
g1046
sg68
(lp1058
S':'
asbag61
(g82
g63
NtRp1059
(dp1060
g66
(dp1061
sg75
g1046
sg68
(lp1062
g61
(g62
g63
NtRp1063
(dp1064
g66
(dp1065
g74
I4
ssg75
g1059
sg68
(lp1066
S'GET'
p1067
asbasbasbag61
(g77
g63
NtRp1068
(dp1069
g66
(dp1070
sg75
g492
sg68
(lp1071
g61
(g82
g63
NtRp1072
(dp1073
g66
(dp1074
g86
g87
ssg75
g1068
sg68
(lp1075
S'request_uri'
p1076
asbag61
(g82
g63
NtRp1077
(dp1078
g66
(dp1079
g93
g94
ssg75
g1068
sg68
(lp1080
S':'
asbag61
(g82
g63
NtRp1081
(dp1082
g66
(dp1083
sg75
g1068
sg68
(lp1084
g61
(g62
g63
NtRp1085
(dp1086
g66
(dp1087
g74
I4
ssg75
g1081
sg68
(lp1088
S'/projeto/initial/user/login'
p1089
asbasbasbag61
(g77
g63
NtRp1090
(dp1091
g66
(dp1092
sg75
g492
sg68
(lp1093
g61
(g82
g63
NtRp1094
(dp1095
g66
(dp1096
g86
g87
ssg75
g1090
sg68
(lp1097
S'script_name'
p1098
asbag61
(g82
g63
NtRp1099
(dp1100
g66
(dp1101
g93
g94
ssg75
g1090
sg68
(lp1102
S':'
asbag61
(g82
g63
NtRp1103
(dp1104
g66
(dp1105
sg75
g1090
sg68
(lp1106
g61
(g62
g63
NtRp1107
(dp1108
g66
(dp1109
g74
I4
ssg75
g1103
sg68
(lp1110
S''
asbasbasbag61
(g77
g63
NtRp1111
(dp1112
g66
(dp1113
sg75
g492
sg68
(lp1114
g61
(g82
g63
NtRp1115
(dp1116
g66
(dp1117
g86
g87
ssg75
g1111
sg68
(lp1118
S'server_name'
p1119
asbag61
(g82
g63
NtRp1120
(dp1121
g66
(dp1122
g93
g94
ssg75
g1111
sg68
(lp1123
S':'
asbag61
(g82
g63
NtRp1124
(dp1125
g66
(dp1126
sg75
g1111
sg68
(lp1127
g61
(g62
g63
NtRp1128
(dp1129
g66
(dp1130
g74
I4
ssg75
g1124
sg68
(lp1131
S'fernando-pc'
p1132
asbasbasbag61
(g77
g63
NtRp1133
(dp1134
g66
(dp1135
sg75
g492
sg68
(lp1136
g61
(g82
g63
NtRp1137
(dp1138
g66
(dp1139
g86
g87
ssg75
g1133
sg68
(lp1140
S'server_port'
p1141
asbag61
(g82
g63
NtRp1142
(dp1143
g66
(dp1144
g93
g94
ssg75
g1133
sg68
(lp1145
S':'
asbag61
(g82
g63
NtRp1146
(dp1147
g66
(dp1148
sg75
g1133
sg68
(lp1149
g61
(g62
g63
NtRp1150
(dp1151
g66
(dp1152
g74
I4
ssg75
g1146
sg68
(lp1153
S'8000'
p1154
asbasbasbag61
(g77
g63
NtRp1155
(dp1156
g66
(dp1157
sg75
g492
sg68
(lp1158
g61
(g82
g63
NtRp1159
(dp1160
g66
(dp1161
g86
g87
ssg75
g1155
sg68
(lp1162
S'server_protocol'
p1163
asbag61
(g82
g63
NtRp1164
(dp1165
g66
(dp1166
g93
g94
ssg75
g1155
sg68
(lp1167
S':'
asbag61
(g82
g63
NtRp1168
(dp1169
g66
(dp1170
sg75
g1155
sg68
(lp1171
g61
(g62
g63
NtRp1172
(dp1173
g66
(dp1174
g74
I4
ssg75
g1168
sg68
(lp1175
S'HTTP/1.1'
p1176
asbasbasbag61
(g77
g63
NtRp1177
(dp1178
g66
(dp1179
sg75
g492
sg68
(lp1180
g61
(g82
g63
NtRp1181
(dp1182
g66
(dp1183
g86
g87
ssg75
g1177
sg68
(lp1184
S'server_software'
p1185
asbag61
(g82
g63
NtRp1186
(dp1187
g66
(dp1188
g93
g94
ssg75
g1177
sg68
(lp1189
S':'
asbag61
(g82
g63
NtRp1190
(dp1191
g66
(dp1192
sg75
g1177
sg68
(lp1193
g61
(g62
g63
NtRp1194
(dp1195
g66
(dp1196
g74
I4
ssg75
g1190
sg68
(lp1197
S'Rocket 1.2.6'
p1198
asbasbasbag61
(g77
g63
NtRp1199
(dp1200
g66
(dp1201
sg75
g492
sg68
(lp1202
g61
(g82
g63
NtRp1203
(dp1204
g66
(dp1205
g86
g87
ssg75
g1199
sg68
(lp1206
S'web2py_original_uri'
p1207
asbag61
(g82
g63
NtRp1208
(dp1209
g66
(dp1210
g93
g94
ssg75
g1199
sg68
(lp1211
S':'
asbag61
(g82
g63
NtRp1212
(dp1213
g66
(dp1214
sg75
g1199
sg68
(lp1215
g61
(g62
g63
NtRp1216
(dp1217
g66
(dp1218
g74
I4
ssg75
g1212
sg68
(lp1219
g981
asbasbasbag61
(g77
g63
NtRp1220
(dp1221
g66
(dp1222
sg75
g492
sg68
(lp1223
g61
(g82
g63
NtRp1224
(dp1225
g66
(dp1226
g86
g87
ssg75
g1220
sg68
(lp1227
S'web2py_path'
p1228
asbag61
(g82
g63
NtRp1229
(dp1230
g66
(dp1231
g93
g94
ssg75
g1220
sg68
(lp1232
S':'
asbag61
(g82
g63
NtRp1233
(dp1234
g66
(dp1235
sg75
g1220
sg68
(lp1236
g61
(g62
g63
NtRp1237
(dp1238
g66
(dp1239
g74
I4
ssg75
g1233
sg68
(lp1240
g539
asbasbasbag61
(g77
g63
NtRp1241
(dp1242
g66
(dp1243
sg75
g492
sg68
(lp1244
g61
(g82
g63
NtRp1245
(dp1246
g66
(dp1247
g86
g87
ssg75
g1241
sg68
(lp1248
S'web2py_version'
p1249
asbag61
(g82
g63
NtRp1250
(dp1251
g66
(dp1252
g93
g94
ssg75
g1241
sg68
(lp1253
S':'
asbag61
(g82
g63
NtRp1254
(dp1255
g66
(dp1256
sg75
g1241
sg68
(lp1257
g61
(g62
g63
NtRp1258
(dp1259
g66
(dp1260
g74
I4
ssg75
g1254
sg68
(lp1261
g61
(g70
g63
NtRp1262
(dp1263
g66
(dp1264
g74
I3
ssg75
Nsg68
(lp1265
g61
(g77
g63
NtRp1266
(dp1267
g66
(dp1268
sg75
g1262
sg68
(lp1269
g61
(g82
g63
NtRp1270
(dp1271
g66
(dp1272
sg75
g1266
sg68
(lp1273
g61
(g62
g63
NtRp1274
(dp1275
g66
(dp1276
g74
I3
ssg75
g1270
sg68
(lp1277
S'2'
asbasbasbag61
(g77
g63
NtRp1278
(dp1279
g66
(dp1280
sg75
g1262
sg68
(lp1281
g61
(g82
g63
NtRp1282
(dp1283
g66
(dp1284
sg75
g1278
sg68
(lp1285
g61
(g62
g63
NtRp1286
(dp1287
g66
(dp1288
g74
I3
ssg75
g1282
sg68
(lp1289
S'3'
asbasbasbag61
(g77
g63
NtRp1290
(dp1291
g66
(dp1292
sg75
g1262
sg68
(lp1293
g61
(g82
g63
NtRp1294
(dp1295
g66
(dp1296
sg75
g1290
sg68
(lp1297
g61
(g62
g63
NtRp1298
(dp1299
g66
(dp1300
g74
I3
ssg75
g1294
sg68
(lp1301
S'2'
asbasbasbag61
(g77
g63
NtRp1302
(dp1303
g66
(dp1304
sg75
g1262
sg68
(lp1305
g61
(g82
g63
NtRp1306
(dp1307
g66
(dp1308
sg75
g1302
sg68
(lp1309
g61
(g62
g63
NtRp1310
(dp1311
g66
(dp1312
g74
I3
ssg75
g1306
sg68
(lp1313
S'datetime.datetime(2012, 12, 17, 15, 3, 30)'
p1314
asbasbasbag61
(g77
g63
NtRp1315
(dp1316
g66
(dp1317
sg75
g1262
sg68
(lp1318
g61
(g82
g63
NtRp1319
(dp1320
g66
(dp1321
sg75
g1315
sg68
(lp1322
g61
(g62
g63
NtRp1323
(dp1324
g66
(dp1325
g74
I3
ssg75
g1319
sg68
(lp1326
S'stable'
p1327
asbasbasbasbasbasbasbag61
(g77
g63
NtRp1328
(dp1329
g66
(dp1330
sg75
g492
sg68
(lp1331
g61
(g82
g63
NtRp1332
(dp1333
g66
(dp1334
g86
g87
ssg75
g1328
sg68
(lp1335
S'wsgi_errors'
p1336
asbag61
(g82
g63
NtRp1337
(dp1338
g66
(dp1339
g93
g94
ssg75
g1328
sg68
(lp1340
S':'
asbag61
(g82
g63
NtRp1341
(dp1342
g66
(dp1343
sg75
g1328
sg68
(lp1344
g61
(g62
g63
NtRp1345
(dp1346
g66
(dp1347
g74
I4
ssg75
g1341
sg68
(lp1348
S"<open file '<stderr>', mode 'w' at 0x7f3fde94f270>"
p1349
asbasbasbag61
(g77
g63
NtRp1350
(dp1351
g66
(dp1352
sg75
g492
sg68
(lp1353
g61
(g82
g63
NtRp1354
(dp1355
g66
(dp1356
g86
g87
ssg75
g1350
sg68
(lp1357
S'wsgi_file_wrapper'
p1358
asbag61
(g82
g63
NtRp1359
(dp1360
g66
(dp1361
g93
g94
ssg75
g1350
sg68
(lp1362
S':'
asbag61
(g82
g63
NtRp1363
(dp1364
g66
(dp1365
sg75
g1350
sg68
(lp1366
g61
(g62
g63
NtRp1367
(dp1368
g66
(dp1369
g74
I4
ssg75
g1363
sg68
(lp1370
S'<class wsgiref.util.FileWrapper at 0x164f808>'
p1371
asbasbasbag61
(g77
g63
NtRp1372
(dp1373
g66
(dp1374
sg75
g492
sg68
(lp1375
g61
(g82
g63
NtRp1376
(dp1377
g66
(dp1378
g86
g87
ssg75
g1372
sg68
(lp1379
S'wsgi_input'
p1380
asbag61
(g82
g63
NtRp1381
(dp1382
g66
(dp1383
g93
g94
ssg75
g1372
sg68
(lp1384
S':'
asbag61
(g82
g63
NtRp1385
(dp1386
g66
(dp1387
sg75
g1372
sg68
(lp1388
g61
(g62
g63
NtRp1389
(dp1390
g66
(dp1391
g74
I4
ssg75
g1385
sg68
(lp1392
S'<socket._fileobject object at 0x7f3fd02b65d0>'
p1393
asbasbasbag61
(g77
g63
NtRp1394
(dp1395
g66
(dp1396
sg75
g492
sg68
(lp1397
g61
(g82
g63
NtRp1398
(dp1399
g66
(dp1400
g86
g87
ssg75
g1394
sg68
(lp1401
S'wsgi_multiprocess'
p1402
asbag61
(g82
g63
NtRp1403
(dp1404
g66
(dp1405
g93
g94
ssg75
g1394
sg68
(lp1406
S':'
asbag61
(g82
g63
NtRp1407
(dp1408
g66
(dp1409
sg75
g1394
sg68
(lp1410
g61
(g62
g63
NtRp1411
(dp1412
g66
(dp1413
g74
I4
ssg75
g1407
sg68
(lp1414
g104
asbasbasbag61
(g77
g63
NtRp1415
(dp1416
g66
(dp1417
sg75
g492
sg68
(lp1418
g61
(g82
g63
NtRp1419
(dp1420
g66
(dp1421
g86
g87
ssg75
g1415
sg68
(lp1422
S'wsgi_multithread'
p1423
asbag61
(g82
g63
NtRp1424
(dp1425
g66
(dp1426
g93
g94
ssg75
g1415
sg68
(lp1427
S':'
asbag61
(g82
g63
NtRp1428
(dp1429
g66
(dp1430
sg75
g1415
sg68
(lp1431
g61
(g62
g63
NtRp1432
(dp1433
g66
(dp1434
g74
I4
ssg75
g1428
sg68
(lp1435
S'True'
p1436
asbasbasbag61
(g77
g63
NtRp1437
(dp1438
g66
(dp1439
sg75
g492
sg68
(lp1440
g61
(g82
g63
NtRp1441
(dp1442
g66
(dp1443
g86
g87
ssg75
g1437
sg68
(lp1444
S'wsgi_run_once'
p1445
asbag61
(g82
g63
NtRp1446
(dp1447
g66
(dp1448
g93
g94
ssg75
g1437
sg68
(lp1449
S':'
asbag61
(g82
g63
NtRp1450
(dp1451
g66
(dp1452
sg75
g1437
sg68
(lp1453
g61
(g62
g63
NtRp1454
(dp1455
g66
(dp1456
g74
I4
ssg75
g1450
sg68
(lp1457
g104
asbasbasbag61
(g77
g63
NtRp1458
(dp1459
g66
(dp1460
sg75
g492
sg68
(lp1461
g61
(g82
g63
NtRp1462
(dp1463
g66
(dp1464
g86
g87
ssg75
g1458
sg68
(lp1465
S'wsgi_url_scheme'
p1466
asbag61
(g82
g63
NtRp1467
(dp1468
g66
(dp1469
g93
g94
ssg75
g1458
sg68
(lp1470
S':'
asbag61
(g82
g63
NtRp1471
(dp1472
g66
(dp1473
sg75
g1458
sg68
(lp1474
g61
(g62
g63
NtRp1475
(dp1476
g66
(dp1477
g74
I4
ssg75
g1471
sg68
(lp1478
S'http'
p1479
asbasbasbag61
(g77
g63
NtRp1480
(dp1481
g66
(dp1482
sg75
g492
sg68
(lp1483
g61
(g82
g63
NtRp1484
(dp1485
g66
(dp1486
g86
g87
ssg75
g1480
sg68
(lp1487
S'wsgi_version'
p1488
asbag61
(g82
g63
NtRp1489
(dp1490
g66
(dp1491
g93
g94
ssg75
g1480
sg68
(lp1492
S':'
asbag61
(g82
g63
NtRp1493
(dp1494
g66
(dp1495
sg75
g1480
sg68
(lp1496
g61
(g62
g63
NtRp1497
(dp1498
g66
(dp1499
g74
I4
ssg75
g1493
sg68
(lp1500
g61
(g70
g63
NtRp1501
(dp1502
g66
(dp1503
g74
I3
ssg75
Nsg68
(lp1504
g61
(g77
g63
NtRp1505
(dp1506
g66
(dp1507
sg75
g1501
sg68
(lp1508
g61
(g82
g63
NtRp1509
(dp1510
g66
(dp1511
sg75
g1505
sg68
(lp1512
g61
(g62
g63
NtRp1513
(dp1514
g66
(dp1515
g74
I3
ssg75
g1509
sg68
(lp1516
S'1'
asbasbasbag61
(g77
g63
NtRp1517
(dp1518
g66
(dp1519
sg75
g1501
sg68
(lp1520
g61
(g82
g63
NtRp1521
(dp1522
g66
(dp1523
sg75
g1517
sg68
(lp1524
g61
(g62
g63
NtRp1525
(dp1526
g66
(dp1527
g74
I3
ssg75
g1521
sg68
(lp1528
S'0'
asbasbasbasbasbasbasbasbasbasbasbag61
(g77
g63
NtRp1529
(dp1530
g66
(dp1531
sg75
g71
sg68
(lp1532
g61
(g82
g63
NtRp1533
(dp1534
g66
(dp1535
g86
g87
ssg75
g1529
sg68
(lp1536
S'extension'
p1537
asbag61
(g82
g63
NtRp1538
(dp1539
g66
(dp1540
g93
g94
ssg75
g1529
sg68
(lp1541
S':'
asbag61
(g82
g63
NtRp1542
(dp1543
g66
(dp1544
sg75
g1529
sg68
(lp1545
g61
(g62
g63
NtRp1546
(dp1547
g66
(dp1548
g74
I5
ssg75
g1542
sg68
(lp1549
S'html'
p1550
asbasbasbag61
(g77
g63
NtRp1551
(dp1552
g66
(dp1553
sg75
g71
sg68
(lp1554
g61
(g82
g63
NtRp1555
(dp1556
g66
(dp1557
g86
g87
ssg75
g1551
sg68
(lp1558
S'folder'
p1559
asbag61
(g82
g63
NtRp1560
(dp1561
g66
(dp1562
g93
g94
ssg75
g1551
sg68
(lp1563
S':'
asbag61
(g82
g63
NtRp1564
(dp1565
g66
(dp1566
sg75
g1551
sg68
(lp1567
g61
(g62
g63
NtRp1568
(dp1569
g66
(dp1570
g74
I5
ssg75
g1564
sg68
(lp1571
S'/var/www/web2py_curso/applications/projeto/'
p1572
asbasbasbag61
(g77
g63
NtRp1573
(dp1574
g66
(dp1575
sg75
g71
sg68
(lp1576
g61
(g82
g63
NtRp1577
(dp1578
g66
(dp1579
g86
g87
ssg75
g1573
sg68
(lp1580
S'function'
p1581
asbag61
(g82
g63
NtRp1582
(dp1583
g66
(dp1584
g93
g94
ssg75
g1573
sg68
(lp1585
S':'
asbag61
(g82
g63
NtRp1586
(dp1587
g66
(dp1588
sg75
g1573
sg68
(lp1589
g61
(g62
g63
NtRp1590
(dp1591
g66
(dp1592
g74
I5
ssg75
g1586
sg68
(lp1593
S'user'
p1594
asbasbasbag61
(g77
g63
NtRp1595
(dp1596
g66
(dp1597
sg75
g71
sg68
(lp1598
g61
(g82
g63
NtRp1599
(dp1600
g66
(dp1601
g86
g87
ssg75
g1595
sg68
(lp1602
S'get_vars'
p1603
asbag61
(g82
g63
NtRp1604
(dp1605
g66
(dp1606
g93
g94
ssg75
g1595
sg68
(lp1607
S':'
asbag61
(g82
g63
NtRp1608
(dp1609
g66
(dp1610
sg75
g1595
sg68
(lp1611
g61
(g62
g63
NtRp1612
(dp1613
g66
(dp1614
g74
I5
ssg75
g1608
sg68
(lp1615
g61
(g70
g63
NtRp1616
(dp1617
g66
(dp1618
g74
I4
ssg75
Nsg68
(lp1619
sbasbasbasbag61
(g77
g63
NtRp1620
(dp1621
g66
(dp1622
sg75
g71
sg68
(lp1623
g61
(g82
g63
NtRp1624
(dp1625
g66
(dp1626
g86
g87
ssg75
g1620
sg68
(lp1627
S'global_settings'
p1628
asbag61
(g82
g63
NtRp1629
(dp1630
g66
(dp1631
g93
g94
ssg75
g1620
sg68
(lp1632
S':'
asbag61
(g82
g63
NtRp1633
(dp1634
g66
(dp1635
sg75
g1620
sg68
(lp1636
g61
(g62
g63
NtRp1637
(dp1638
g66
(dp1639
g74
I5
ssg75
g1633
sg68
(lp1640
g61
(g70
g63
NtRp1641
(dp1642
g66
(dp1643
g74
I4
ssg75
Nsg68
(lp1644
g61
(g77
g63
NtRp1645
(dp1646
g66
(dp1647
sg75
g1641
sg68
(lp1648
g61
(g82
g63
NtRp1649
(dp1650
g66
(dp1651
g86
g87
ssg75
g1645
sg68
(lp1652
g504
asbag61
(g82
g63
NtRp1653
(dp1654
g66
(dp1655
g93
g94
ssg75
g1645
sg68
(lp1656
S':'
asbag61
(g82
g63
NtRp1657
(dp1658
g66
(dp1659
sg75
g1645
sg68
(lp1660
g61
(g62
g63
NtRp1661
(dp1662
g66
(dp1663
g74
I4
ssg75
g1657
sg68
(lp1664
S"set(['/var/www/web2py_curso/applications/projeto/'])"
p1665
asbasbasbag61
(g77
g63
NtRp1666
(dp1667
g66
(dp1668
sg75
g1641
sg68
(lp1669
g61
(g82
g63
NtRp1670
(dp1671
g66
(dp1672
g86
g87
ssg75
g1666
sg68
(lp1673
g526
asbag61
(g82
g63
NtRp1674
(dp1675
g66
(dp1676
g93
g94
ssg75
g1666
sg68
(lp1677
S':'
asbag61
(g82
g63
NtRp1678
(dp1679
g66
(dp1680
sg75
g1666
sg68
(lp1681
g61
(g62
g63
NtRp1682
(dp1683
g66
(dp1684
g74
I4
ssg75
g1678
sg68
(lp1685
g539
asbasbasbag61
(g77
g63
NtRp1686
(dp1687
g66
(dp1688
sg75
g1641
sg68
(lp1689
g61
(g82
g63
NtRp1690
(dp1691
g66
(dp1692
g86
g87
ssg75
g1686
sg68
(lp1693
g548
asbag61
(g82
g63
NtRp1694
(dp1695
g66
(dp1696
g93
g94
ssg75
g1686
sg68
(lp1697
S':'
asbag61
(g82
g63
NtRp1698
(dp1699
g66
(dp1700
sg75
g1686
sg68
(lp1701
g61
(g62
g63
NtRp1702
(dp1703
g66
(dp1704
g74
I4
ssg75
g1698
sg68
(lp1705
g61
(g70
g63
NtRp1706
(dp1707
g66
(dp1708
g74
I3
ssg75
Nsg68
(lp1709
sbasbasbasbag61
(g77
g63
NtRp1710
(dp1711
g66
(dp1712
sg75
g1641
sg68
(lp1713
g61
(g82
g63
NtRp1714
(dp1715
g66
(dp1716
g86
g87
ssg75
g1710
sg68
(lp1717
g573
asbag61
(g82
g63
NtRp1718
(dp1719
g66
(dp1720
g93
g94
ssg75
g1710
sg68
(lp1721
S':'
asbag61
(g82
g63
NtRp1722
(dp1723
g66
(dp1724
sg75
g1710
sg68
(lp1725
g61
(g62
g63
NtRp1726
(dp1727
g66
(dp1728
g74
I4
ssg75
g1722
sg68
(lp1729
S"<Values at 0x1701a28: {'verbose': False, 'ip': '127.0.0.1', 'with_scheduler': False, 'ips': [], 'shutdown_timeout': 5, 'taskbar': False, 'port': 8000, 'maxthreads': None, 'softcron': False, 'server_name': 'fernando-pc', 'bpython': False, 'nogui': False, 'pid_filename': 'httpserver.pid', 'extcron': False, 'runcron': False, 'run_system_tests': False, 'test': None, 'folder': '/var/www/web2py_curso', 'config': '', 'minthreads': None, 'winservice': '', 'shell': None, 'run': '', 'log_filename': 'httpserver.log', 'debuglevel': 30, 'args': [''], 'socket_timeout': 5, 'ssl_ca_certificate': None, 'scheduler': None, 'profiler_filename': None, 'ssl_private_key': '', 'scheduler_groups': None, 'password': '123456', 'request_queue_size': 5, 'ssl_certificate': '', 'cronjob': False, 'numthreads': None, 'quiet': False, 'interfaces': None, 'import_models': False, 'timeout': 10, 'plain': False, 'nobanner': False}>"
p1730
asbasbasbag61
(g77
g63
NtRp1731
(dp1732
g66
(dp1733
sg75
g1641
sg68
(lp1734
g61
(g82
g63
NtRp1735
(dp1736
g66
(dp1737
g86
g87
ssg75
g1731
sg68
(lp1738
g595
asbag61
(g82
g63
NtRp1739
(dp1740
g66
(dp1741
g93
g94
ssg75
g1731
sg68
(lp1742
S':'
asbag61
(g82
g63
NtRp1743
(dp1744
g66
(dp1745
sg75
g1731
sg68
(lp1746
g61
(g62
g63
NtRp1747
(dp1748
g66
(dp1749
g74
I4
ssg75
g1743
sg68
(lp1750
S'set([])'
p1751
asbasbasbag61
(g77
g63
NtRp1752
(dp1753
g66
(dp1754
sg75
g1641
sg68
(lp1755
g61
(g82
g63
NtRp1756
(dp1757
g66
(dp1758
g86
g87
ssg75
g1752
sg68
(lp1759
g617
asbag61
(g82
g63
NtRp1760
(dp1761
g66
(dp1762
g93
g94
ssg75
g1752
sg68
(lp1763
S':'
asbag61
(g82
g63
NtRp1764
(dp1765
g66
(dp1766
sg75
g1752
sg68
(lp1767
g61
(g62
g63
NtRp1768
(dp1769
g66
(dp1770
g74
I4
ssg75
g1764
sg68
(lp1771
g104
asbasbasbag61
(g77
g63
NtRp1772
(dp1773
g66
(dp1774
sg75
g1641
sg68
(lp1775
g61
(g82
g63
NtRp1776
(dp1777
g66
(dp1778
g86
g87
ssg75
g1772
sg68
(lp1779
g638
asbag61
(g82
g63
NtRp1780
(dp1781
g66
(dp1782
g93
g94
ssg75
g1772
sg68
(lp1783
S':'
asbag61
(g82
g63
NtRp1784
(dp1785
g66
(dp1786
sg75
g1772
sg68
(lp1787
g61
(g62
g63
NtRp1788
(dp1789
g66
(dp1790
g74
I4
ssg75
g1784
sg68
(lp1791
g651
asbasbasbag61
(g77
g63
NtRp1792
(dp1793
g66
(dp1794
sg75
g1641
sg68
(lp1795
g61
(g82
g63
NtRp1796
(dp1797
g66
(dp1798
g86
g87
ssg75
g1792
sg68
(lp1799
g836
asbag61
(g82
g63
NtRp1800
(dp1801
g66
(dp1802
g93
g94
ssg75
g1792
sg68
(lp1803
S':'
asbag61
(g82
g63
NtRp1804
(dp1805
g66
(dp1806
sg75
g1792
sg68
(lp1807
g61
(g62
g63
NtRp1808
(dp1809
g66
(dp1810
g74
I4
ssg75
g1804
sg68
(lp1811
g104
asbasbasbag61
(g77
g63
NtRp1812
(dp1813
g66
(dp1814
sg75
g1641
sg68
(lp1815
g61
(g82
g63
NtRp1816
(dp1817
g66
(dp1818
g86
g87
ssg75
g1812
sg68
(lp1819
g857
asbag61
(g82
g63
NtRp1820
(dp1821
g66
(dp1822
g93
g94
ssg75
g1812
sg68
(lp1823
S':'
asbag61
(g82
g63
NtRp1824
(dp1825
g66
(dp1826
sg75
g1812
sg68
(lp1827
g61
(g62
g63
NtRp1828
(dp1829
g66
(dp1830
g74
I4
ssg75
g1824
sg68
(lp1831
g104
asbasbasbag61
(g77
g63
NtRp1832
(dp1833
g66
(dp1834
sg75
g1641
sg68
(lp1835
g61
(g82
g63
NtRp1836
(dp1837
g66
(dp1838
g86
g87
ssg75
g1832
sg68
(lp1839
g878
asbag61
(g82
g63
NtRp1840
(dp1841
g66
(dp1842
g93
g94
ssg75
g1832
sg68
(lp1843
S':'
asbag61
(g82
g63
NtRp1844
(dp1845
g66
(dp1846
sg75
g1832
sg68
(lp1847
g61
(g62
g63
NtRp1848
(dp1849
g66
(dp1850
g74
I4
ssg75
g1844
sg68
(lp1851
g61
(g70
g63
NtRp1852
(dp1853
g66
(dp1854
g74
I3
ssg75
Nsg68
(lp1855
g61
(g77
g63
NtRp1856
(dp1857
g66
(dp1858
sg75
g1852
sg68
(lp1859
g61
(g82
g63
NtRp1860
(dp1861
g66
(dp1862
sg75
g1856
sg68
(lp1863
g61
(g62
g63
NtRp1864
(dp1865
g66
(dp1866
g74
I3
ssg75
g1860
sg68
(lp1867
g907
asbasbasbag61
(g77
g63
NtRp1868
(dp1869
g66
(dp1870
sg75
g1852
sg68
(lp1871
g61
(g82
g63
NtRp1872
(dp1873
g66
(dp1874
sg75
g1868
sg68
(lp1875
g61
(g62
g63
NtRp1876
(dp1877
g66
(dp1878
g74
I3
ssg75
g1872
sg68
(lp1879
g920
asbasbasbag61
(g77
g63
NtRp1880
(dp1881
g66
(dp1882
sg75
g1852
sg68
(lp1883
g61
(g82
g63
NtRp1884
(dp1885
g66
(dp1886
sg75
g1880
sg68
(lp1887
g61
(g62
g63
NtRp1888
(dp1889
g66
(dp1890
g74
I3
ssg75
g1884
sg68
(lp1891
g933
asbasbasbag61
(g77
g63
NtRp1892
(dp1893
g66
(dp1894
sg75
g1852
sg68
(lp1895
g61
(g82
g63
NtRp1896
(dp1897
g66
(dp1898
sg75
g1892
sg68
(lp1899
g61
(g62
g63
NtRp1900
(dp1901
g66
(dp1902
g74
I3
ssg75
g1896
sg68
(lp1903
g946
asbasbasbag61
(g77
g63
NtRp1904
(dp1905
g66
(dp1906
sg75
g1852
sg68
(lp1907
g61
(g82
g63
NtRp1908
(dp1909
g66
(dp1910
sg75
g1904
sg68
(lp1911
g61
(g62
g63
NtRp1912
(dp1913
g66
(dp1914
g74
I3
ssg75
g1908
sg68
(lp1915
g959
asbasbasbasbasbasbasbag61
(g77
g63
NtRp1916
(dp1917
g66
(dp1918
sg75
g1641
sg68
(lp1919
g61
(g82
g63
NtRp1920
(dp1921
g66
(dp1922
g86
g87
ssg75
g1916
sg68
(lp1923
g1249
asbag61
(g82
g63
NtRp1924
(dp1925
g66
(dp1926
g93
g94
ssg75
g1916
sg68
(lp1927
S':'
asbag61
(g82
g63
NtRp1928
(dp1929
g66
(dp1930
sg75
g1916
sg68
(lp1931
g61
(g62
g63
NtRp1932
(dp1933
g66
(dp1934
g74
I4
ssg75
g1928
sg68
(lp1935
g61
(g70
g63
NtRp1936
(dp1937
g66
(dp1938
g74
I3
ssg75
Nsg68
(lp1939
g61
(g77
g63
NtRp1940
(dp1941
g66
(dp1942
sg75
g1936
sg68
(lp1943
g61
(g82
g63
NtRp1944
(dp1945
g66
(dp1946
sg75
g1940
sg68
(lp1947
g61
(g62
g63
NtRp1948
(dp1949
g66
(dp1950
g74
I3
ssg75
g1944
sg68
(lp1951
S'2'
asbasbasbag61
(g77
g63
NtRp1952
(dp1953
g66
(dp1954
sg75
g1936
sg68
(lp1955
g61
(g82
g63
NtRp1956
(dp1957
g66
(dp1958
sg75
g1952
sg68
(lp1959
g61
(g62
g63
NtRp1960
(dp1961
g66
(dp1962
g74
I3
ssg75
g1956
sg68
(lp1963
S'3'
asbasbasbag61
(g77
g63
NtRp1964
(dp1965
g66
(dp1966
sg75
g1936
sg68
(lp1967
g61
(g82
g63
NtRp1968
(dp1969
g66
(dp1970
sg75
g1964
sg68
(lp1971
g61
(g62
g63
NtRp1972
(dp1973
g66
(dp1974
g74
I3
ssg75
g1968
sg68
(lp1975
S'2'
asbasbasbag61
(g77
g63
NtRp1976
(dp1977
g66
(dp1978
sg75
g1936
sg68
(lp1979
g61
(g82
g63
NtRp1980
(dp1981
g66
(dp1982
sg75
g1976
sg68
(lp1983
g61
(g62
g63
NtRp1984
(dp1985
g66
(dp1986
g74
I3
ssg75
g1980
sg68
(lp1987
S'datetime.datetime(2012, 12, 17, 15, 3, 30)'
p1988
asbasbasbag61
(g77
g63
NtRp1989
(dp1990
g66
(dp1991
sg75
g1936
sg68
(lp1992
g61
(g82
g63
NtRp1993
(dp1994
g66
(dp1995
sg75
g1989
sg68
(lp1996
g61
(g62
g63
NtRp1997
(dp1998
g66
(dp1999
g74
I3
ssg75
g1993
sg68
(lp2000
g1327
asbasbasbasbasbasbasbasbasbasbasbag61
(g77
g63
NtRp2001
(dp2002
g66
(dp2003
sg75
g71
sg68
(lp2004
g61
(g82
g63
NtRp2005
(dp2006
g66
(dp2007
g86
g87
ssg75
g2001
sg68
(lp2008
S'is_https'
p2009
asbag61
(g82
g63
NtRp2010
(dp2011
g66
(dp2012
g93
g94
ssg75
g2001
sg68
(lp2013
S':'
asbag61
(g82
g63
NtRp2014
(dp2015
g66
(dp2016
sg75
g2001
sg68
(lp2017
g61
(g62
g63
NtRp2018
(dp2019
g66
(dp2020
g74
I5
ssg75
g2014
sg68
(lp2021
g104
asbasbasbag61
(g77
g63
NtRp2022
(dp2023
g66
(dp2024
sg75
g71
sg68
(lp2025
g61
(g82
g63
NtRp2026
(dp2027
g66
(dp2028
g86
g87
ssg75
g2022
sg68
(lp2029
S'is_local'
p2030
asbag61
(g82
g63
NtRp2031
(dp2032
g66
(dp2033
g93
g94
ssg75
g2022
sg68
(lp2034
S':'
asbag61
(g82
g63
NtRp2035
(dp2036
g66
(dp2037
sg75
g2022
sg68
(lp2038
g61
(g62
g63
NtRp2039
(dp2040
g66
(dp2041
g74
I5
ssg75
g2035
sg68
(lp2042
g1436
asbasbasbag61
(g77
g63
NtRp2043
(dp2044
g66
(dp2045
sg75
g71
sg68
(lp2046
g61
(g82
g63
NtRp2047
(dp2048
g66
(dp2049
g86
g87
ssg75
g2043
sg68
(lp2050
S'is_restful'
p2051
asbag61
(g82
g63
NtRp2052
(dp2053
g66
(dp2054
g93
g94
ssg75
g2043
sg68
(lp2055
S':'
asbag61
(g82
g63
NtRp2056
(dp2057
g66
(dp2058
sg75
g2043
sg68
(lp2059
g61
(g62
g63
NtRp2060
(dp2061
g66
(dp2062
g74
I5
ssg75
g2056
sg68
(lp2063
g104
asbasbasbag61
(g77
g63
NtRp2064
(dp2065
g66
(dp2066
sg75
g71
sg68
(lp2067
g61
(g82
g63
NtRp2068
(dp2069
g66
(dp2070
g86
g87
ssg75
g2064
sg68
(lp2071
S'now'
p2072
asbag61
(g82
g63
NtRp2073
(dp2074
g66
(dp2075
g93
g94
ssg75
g2064
sg68
(lp2076
S':'
asbag61
(g82
g63
NtRp2077
(dp2078
g66
(dp2079
sg75
g2064
sg68
(lp2080
g61
(g62
g63
NtRp2081
(dp2082
g66
(dp2083
g74
I5
ssg75
g2077
sg68
(lp2084
S'datetime.datetime(2013, 2, 2, 21, 42, 32, 982531)'
p2085
asbasbasbag61
(g77
g63
NtRp2086
(dp2087
g66
(dp2088
sg75
g71
sg68
(lp2089
g61
(g82
g63
NtRp2090
(dp2091
g66
(dp2092
g86
g87
ssg75
g2086
sg68
(lp2093
S'post_vars'
p2094
asbag61
(g82
g63
NtRp2095
(dp2096
g66
(dp2097
g93
g94
ssg75
g2086
sg68
(lp2098
S':'
asbag61
(g82
g63
NtRp2099
(dp2100
g66
(dp2101
sg75
g2086
sg68
(lp2102
g61
(g62
g63
NtRp2103
(dp2104
g66
(dp2105
g74
I5
ssg75
g2099
sg68
(lp2106
g61
(g70
g63
NtRp2107
(dp2108
g66
(dp2109
g74
I4
ssg75
Nsg68
(lp2110
sbasbasbasbag61
(g77
g63
NtRp2111
(dp2112
g66
(dp2113
sg75
g71
sg68
(lp2114
g61
(g82
g63
NtRp2115
(dp2116
g66
(dp2117
g86
g87
ssg75
g2111
sg68
(lp2118
S'url'
p2119
asbag61
(g82
g63
NtRp2120
(dp2121
g66
(dp2122
g93
g94
ssg75
g2111
sg68
(lp2123
S':'
asbag61
(g82
g63
NtRp2124
(dp2125
g66
(dp2126
sg75
g2111
sg68
(lp2127
g61
(g62
g63
NtRp2128
(dp2129
g66
(dp2130
g74
I5
ssg75
g2124
sg68
(lp2131
g981
asbasbasbag61
(g77
g63
NtRp2132
(dp2133
g66
(dp2134
sg75
g71
sg68
(lp2135
g61
(g82
g63
NtRp2136
(dp2137
g66
(dp2138
g86
g87
ssg75
g2132
sg68
(lp2139
S'utcnow'
p2140
asbag61
(g82
g63
NtRp2141
(dp2142
g66
(dp2143
g93
g94
ssg75
g2132
sg68
(lp2144
S':'
asbag61
(g82
g63
NtRp2145
(dp2146
g66
(dp2147
sg75
g2132
sg68
(lp2148
g61
(g62
g63
NtRp2149
(dp2150
g66
(dp2151
g74
I5
ssg75
g2145
sg68
(lp2152
S'datetime.datetime(2013, 2, 2, 23, 42, 32, 982548)'
p2153
asbasbasbag61
(g77
g63
NtRp2154
(dp2155
g66
(dp2156
sg75
g71
sg68
(lp2157
g61
(g82
g63
NtRp2158
(dp2159
g66
(dp2160
g86
g87
ssg75
g2154
sg68
(lp2161
S'uuid'
p2162
asbag61
(g82
g63
NtRp2163
(dp2164
g66
(dp2165
g93
g94
ssg75
g2154
sg68
(lp2166
S':'
asbag61
(g82
g63
NtRp2167
(dp2168
g66
(dp2169
sg75
g2154
sg68
(lp2170
g61
(g62
g63
NtRp2171
(dp2172
g66
(dp2173
g74
I5
ssg75
g2167
sg68
(lp2174
S'projeto/127.0.0.1.2013-02-02.21-42-32.86b0eb89-42c9-4d3e-85be-ad49cb09edd8'
p2175
asbasbasbag61
(g77
g63
NtRp2176
(dp2177
g66
(dp2178
sg75
g71
sg68
(lp2179
g61
(g82
g63
NtRp2180
(dp2181
g66
(dp2182
g86
g87
ssg75
g2176
sg68
(lp2183
S'vars'
p2184
asbag61
(g82
g63
NtRp2185
(dp2186
g66
(dp2187
g93
g94
ssg75
g2176
sg68
(lp2188
S':'
asbag61
(g82
g63
NtRp2189
(dp2190
g66
(dp2191
sg75
g2176
sg68
(lp2192
g61
(g62
g63
NtRp2193
(dp2194
g66
(dp2195
g74
I5
ssg75
g2189
sg68
(lp2196
g61
(g70
g63
NtRp2197
(dp2198
g66
(dp2199
g74
I4
ssg75
Nsg68
(lp2200
sbasbasbasbag61
(g77
g63
NtRp2201
(dp2202
g66
(dp2203
sg75
g71
sg68
(lp2204
g61
(g82
g63
NtRp2205
(dp2206
g66
(dp2207
g86
g87
ssg75
g2201
sg68
(lp2208
S'wsgi'
p2209
asbag61
(g82
g63
NtRp2210
(dp2211
g66
(dp2212
g93
g94
ssg75
g2201
sg68
(lp2213
S':'
asbag61
(g82
g63
NtRp2214
(dp2215
g66
(dp2216
sg75
g2201
sg68
(lp2217
g61
(g62
g63
NtRp2218
(dp2219
g66
(dp2220
g74
I5
ssg75
g2214
sg68
(lp2221
g61
(g70
g63
NtRp2222
(dp2223
g66
(dp2224
g74
I4
ssg75
Nsg68
(lp2225
g61
(g77
g63
NtRp2226
(dp2227
g66
(dp2228
sg75
g2222
sg68
(lp2229
g61
(g82
g63
NtRp2230
(dp2231
g66
(dp2232
g86
g87
ssg75
g2226
sg68
(lp2233
S'environ'
p2234
asbag61
(g82
g63
NtRp2235
(dp2236
g66
(dp2237
g93
g94
ssg75
g2226
sg68
(lp2238
S':'
asbag61
(g82
g63
NtRp2239
(dp2240
g66
(dp2241
sg75
g2226
sg68
(lp2242
g61
(g62
g63
NtRp2243
(dp2244
g66
(dp2245
g74
I4
ssg75
g2239
sg68
(lp2246
g61
(g70
g63
NtRp2247
(dp2248
g66
(dp2249
g74
I3
ssg75
Nsg68
(lp2250
g61
(g77
g63
NtRp2251
(dp2252
g66
(dp2253
sg75
g2247
sg68
(lp2254
g61
(g82
g63
NtRp2255
(dp2256
g66
(dp2257
g86
g87
ssg75
g2251
sg68
(lp2258
S'HTTP_ACCEPT'
p2259
asbag61
(g82
g63
NtRp2260
(dp2261
g66
(dp2262
g93
g94
ssg75
g2251
sg68
(lp2263
S':'
asbag61
(g82
g63
NtRp2264
(dp2265
g66
(dp2266
sg75
g2251
sg68
(lp2267
g61
(g62
g63
NtRp2268
(dp2269
g66
(dp2270
g74
I3
ssg75
g2264
sg68
(lp2271
g673
asbasbasbag61
(g77
g63
NtRp2272
(dp2273
g66
(dp2274
sg75
g2247
sg68
(lp2275
g61
(g82
g63
NtRp2276
(dp2277
g66
(dp2278
g86
g87
ssg75
g2272
sg68
(lp2279
S'HTTP_ACCEPT_CHARSET'
p2280
asbag61
(g82
g63
NtRp2281
(dp2282
g66
(dp2283
g93
g94
ssg75
g2272
sg68
(lp2284
S':'
asbag61
(g82
g63
NtRp2285
(dp2286
g66
(dp2287
sg75
g2272
sg68
(lp2288
g61
(g62
g63
NtRp2289
(dp2290
g66
(dp2291
g74
I3
ssg75
g2285
sg68
(lp2292
g695
asbasbasbag61
(g77
g63
NtRp2293
(dp2294
g66
(dp2295
sg75
g2247
sg68
(lp2296
g61
(g82
g63
NtRp2297
(dp2298
g66
(dp2299
g86
g87
ssg75
g2293
sg68
(lp2300
S'HTTP_ACCEPT_ENCODING'
p2301
asbag61
(g82
g63
NtRp2302
(dp2303
g66
(dp2304
g93
g94
ssg75
g2293
sg68
(lp2305
S':'
asbag61
(g82
g63
NtRp2306
(dp2307
g66
(dp2308
sg75
g2293
sg68
(lp2309
g61
(g62
g63
NtRp2310
(dp2311
g66
(dp2312
g74
I3
ssg75
g2306
sg68
(lp2313
g717
asbasbasbag61
(g77
g63
NtRp2314
(dp2315
g66
(dp2316
sg75
g2247
sg68
(lp2317
g61
(g82
g63
NtRp2318
(dp2319
g66
(dp2320
g86
g87
ssg75
g2314
sg68
(lp2321
S'HTTP_ACCEPT_LANGUAGE'
p2322
asbag61
(g82
g63
NtRp2323
(dp2324
g66
(dp2325
g93
g94
ssg75
g2314
sg68
(lp2326
S':'
asbag61
(g82
g63
NtRp2327
(dp2328
g66
(dp2329
sg75
g2314
sg68
(lp2330
g61
(g62
g63
NtRp2331
(dp2332
g66
(dp2333
g74
I3
ssg75
g2327
sg68
(lp2334
g739
asbasbasbag61
(g77
g63
NtRp2335
(dp2336
g66
(dp2337
sg75
g2247
sg68
(lp2338
g61
(g82
g63
NtRp2339
(dp2340
g66
(dp2341
g86
g87
ssg75
g2335
sg68
(lp2342
S'HTTP_CONNECTION'
p2343
asbag61
(g82
g63
NtRp2344
(dp2345
g66
(dp2346
g93
g94
ssg75
g2335
sg68
(lp2347
S':'
asbag61
(g82
g63
NtRp2348
(dp2349
g66
(dp2350
sg75
g2335
sg68
(lp2351
g61
(g62
g63
NtRp2352
(dp2353
g66
(dp2354
g74
I3
ssg75
g2348
sg68
(lp2355
g761
asbasbasbag61
(g77
g63
NtRp2356
(dp2357
g66
(dp2358
sg75
g2247
sg68
(lp2359
g61
(g82
g63
NtRp2360
(dp2361
g66
(dp2362
g86
g87
ssg75
g2356
sg68
(lp2363
S'HTTP_COOKIE'
p2364
asbag61
(g82
g63
NtRp2365
(dp2366
g66
(dp2367
g93
g94
ssg75
g2356
sg68
(lp2368
S':'
asbag61
(g82
g63
NtRp2369
(dp2370
g66
(dp2371
sg75
g2356
sg68
(lp2372
g61
(g62
g63
NtRp2373
(dp2374
g66
(dp2375
g74
I3
ssg75
g2369
sg68
(lp2376
g783
asbasbasbag61
(g77
g63
NtRp2377
(dp2378
g66
(dp2379
sg75
g2247
sg68
(lp2380
g61
(g82
g63
NtRp2381
(dp2382
g66
(dp2383
g86
g87
ssg75
g2377
sg68
(lp2384
S'HTTP_HOST'
p2385
asbag61
(g82
g63
NtRp2386
(dp2387
g66
(dp2388
g93
g94
ssg75
g2377
sg68
(lp2389
S':'
asbag61
(g82
g63
NtRp2390
(dp2391
g66
(dp2392
sg75
g2377
sg68
(lp2393
g61
(g62
g63
NtRp2394
(dp2395
g66
(dp2396
g74
I3
ssg75
g2390
sg68
(lp2397
g805
asbasbasbag61
(g77
g63
NtRp2398
(dp2399
g66
(dp2400
sg75
g2247
sg68
(lp2401
g61
(g82
g63
NtRp2402
(dp2403
g66
(dp2404
g86
g87
ssg75
g2398
sg68
(lp2405
S'HTTP_USER_AGENT'
p2406
asbag61
(g82
g63
NtRp2407
(dp2408
g66
(dp2409
g93
g94
ssg75
g2398
sg68
(lp2410
S':'
asbag61
(g82
g63
NtRp2411
(dp2412
g66
(dp2413
sg75
g2398
sg68
(lp2414
g61
(g62
g63
NtRp2415
(dp2416
g66
(dp2417
g74
I3
ssg75
g2411
sg68
(lp2418
g827
asbasbasbag61
(g77
g63
NtRp2419
(dp2420
g66
(dp2421
sg75
g2247
sg68
(lp2422
g61
(g82
g63
NtRp2423
(dp2424
g66
(dp2425
g86
g87
ssg75
g2419
sg68
(lp2426
S'PATH_INFO'
p2427
asbag61
(g82
g63
NtRp2428
(dp2429
g66
(dp2430
g93
g94
ssg75
g2419
sg68
(lp2431
S':'
asbag61
(g82
g63
NtRp2432
(dp2433
g66
(dp2434
sg75
g2419
sg68
(lp2435
g61
(g62
g63
NtRp2436
(dp2437
g66
(dp2438
g74
I3
ssg75
g2432
sg68
(lp2439
g981
asbasbasbag61
(g77
g63
NtRp2440
(dp2441
g66
(dp2442
sg75
g2247
sg68
(lp2443
g61
(g82
g63
NtRp2444
(dp2445
g66
(dp2446
g86
g87
ssg75
g2440
sg68
(lp2447
S'QUERY_STRING'
p2448
asbag61
(g82
g63
NtRp2449
(dp2450
g66
(dp2451
g93
g94
ssg75
g2440
sg68
(lp2452
S':'
asbag61
(g82
g63
NtRp2453
(dp2454
g66
(dp2455
sg75
g2440
sg68
(lp2456
g61
(g62
g63
NtRp2457
(dp2458
g66
(dp2459
g74
I3
ssg75
g2453
sg68
(lp2460
S''
asbasbasbag61
(g77
g63
NtRp2461
(dp2462
g66
(dp2463
sg75
g2247
sg68
(lp2464
g61
(g82
g63
NtRp2465
(dp2466
g66
(dp2467
g86
g87
ssg75
g2461
sg68
(lp2468
S'REMOTE_ADDR'
p2469
asbag61
(g82
g63
NtRp2470
(dp2471
g66
(dp2472
g93
g94
ssg75
g2461
sg68
(lp2473
S':'
asbag61
(g82
g63
NtRp2474
(dp2475
g66
(dp2476
sg75
g2461
sg68
(lp2477
g61
(g62
g63
NtRp2478
(dp2479
g66
(dp2480
g74
I3
ssg75
g2474
sg68
(lp2481
g229
asbasbasbag61
(g77
g63
NtRp2482
(dp2483
g66
(dp2484
sg75
g2247
sg68
(lp2485
g61
(g82
g63
NtRp2486
(dp2487
g66
(dp2488
g86
g87
ssg75
g2482
sg68
(lp2489
S'REMOTE_PORT'
p2490
asbag61
(g82
g63
NtRp2491
(dp2492
g66
(dp2493
g93
g94
ssg75
g2482
sg68
(lp2494
S':'
asbag61
(g82
g63
NtRp2495
(dp2496
g66
(dp2497
sg75
g2482
sg68
(lp2498
g61
(g62
g63
NtRp2499
(dp2500
g66
(dp2501
g74
I3
ssg75
g2495
sg68
(lp2502
g1045
asbasbasbag61
(g77
g63
NtRp2503
(dp2504
g66
(dp2505
sg75
g2247
sg68
(lp2506
g61
(g82
g63
NtRp2507
(dp2508
g66
(dp2509
g86
g87
ssg75
g2503
sg68
(lp2510
S'REQUEST_METHOD'
p2511
asbag61
(g82
g63
NtRp2512
(dp2513
g66
(dp2514
g93
g94
ssg75
g2503
sg68
(lp2515
S':'
asbag61
(g82
g63
NtRp2516
(dp2517
g66
(dp2518
sg75
g2503
sg68
(lp2519
g61
(g62
g63
NtRp2520
(dp2521
g66
(dp2522
g74
I3
ssg75
g2516
sg68
(lp2523
g1067
asbasbasbag61
(g77
g63
NtRp2524
(dp2525
g66
(dp2526
sg75
g2247
sg68
(lp2527
g61
(g82
g63
NtRp2528
(dp2529
g66
(dp2530
g86
g87
ssg75
g2524
sg68
(lp2531
S'REQUEST_URI'
p2532
asbag61
(g82
g63
NtRp2533
(dp2534
g66
(dp2535
g93
g94
ssg75
g2524
sg68
(lp2536
S':'
asbag61
(g82
g63
NtRp2537
(dp2538
g66
(dp2539
sg75
g2524
sg68
(lp2540
g61
(g62
g63
NtRp2541
(dp2542
g66
(dp2543
g74
I3
ssg75
g2537
sg68
(lp2544
g1089
asbasbasbag61
(g77
g63
NtRp2545
(dp2546
g66
(dp2547
sg75
g2247
sg68
(lp2548
g61
(g82
g63
NtRp2549
(dp2550
g66
(dp2551
g86
g87
ssg75
g2545
sg68
(lp2552
S'SCRIPT_NAME'
p2553
asbag61
(g82
g63
NtRp2554
(dp2555
g66
(dp2556
g93
g94
ssg75
g2545
sg68
(lp2557
S':'
asbag61
(g82
g63
NtRp2558
(dp2559
g66
(dp2560
sg75
g2545
sg68
(lp2561
g61
(g62
g63
NtRp2562
(dp2563
g66
(dp2564
g74
I3
ssg75
g2558
sg68
(lp2565
S''
asbasbasbag61
(g77
g63
NtRp2566
(dp2567
g66
(dp2568
sg75
g2247
sg68
(lp2569
g61
(g82
g63
NtRp2570
(dp2571
g66
(dp2572
g86
g87
ssg75
g2566
sg68
(lp2573
S'SERVER_NAME'
p2574
asbag61
(g82
g63
NtRp2575
(dp2576
g66
(dp2577
g93
g94
ssg75
g2566
sg68
(lp2578
S':'
asbag61
(g82
g63
NtRp2579
(dp2580
g66
(dp2581
sg75
g2566
sg68
(lp2582
g61
(g62
g63
NtRp2583
(dp2584
g66
(dp2585
g74
I3
ssg75
g2579
sg68
(lp2586
g1132
asbasbasbag61
(g77
g63
NtRp2587
(dp2588
g66
(dp2589
sg75
g2247
sg68
(lp2590
g61
(g82
g63
NtRp2591
(dp2592
g66
(dp2593
g86
g87
ssg75
g2587
sg68
(lp2594
S'SERVER_PORT'
p2595
asbag61
(g82
g63
NtRp2596
(dp2597
g66
(dp2598
g93
g94
ssg75
g2587
sg68
(lp2599
S':'
asbag61
(g82
g63
NtRp2600
(dp2601
g66
(dp2602
sg75
g2587
sg68
(lp2603
g61
(g62
g63
NtRp2604
(dp2605
g66
(dp2606
g74
I3
ssg75
g2600
sg68
(lp2607
g1154
asbasbasbag61
(g77
g63
NtRp2608
(dp2609
g66
(dp2610
sg75
g2247
sg68
(lp2611
g61
(g82
g63
NtRp2612
(dp2613
g66
(dp2614
g86
g87
ssg75
g2608
sg68
(lp2615
S'SERVER_PROTOCOL'
p2616
asbag61
(g82
g63
NtRp2617
(dp2618
g66
(dp2619
g93
g94
ssg75
g2608
sg68
(lp2620
S':'
asbag61
(g82
g63
NtRp2621
(dp2622
g66
(dp2623
sg75
g2608
sg68
(lp2624
g61
(g62
g63
NtRp2625
(dp2626
g66
(dp2627
g74
I3
ssg75
g2621
sg68
(lp2628
g1176
asbasbasbag61
(g77
g63
NtRp2629
(dp2630
g66
(dp2631
sg75
g2247
sg68
(lp2632
g61
(g82
g63
NtRp2633
(dp2634
g66
(dp2635
g86
g87
ssg75
g2629
sg68
(lp2636
S'SERVER_SOFTWARE'
p2637
asbag61
(g82
g63
NtRp2638
(dp2639
g66
(dp2640
g93
g94
ssg75
g2629
sg68
(lp2641
S':'
asbag61
(g82
g63
NtRp2642
(dp2643
g66
(dp2644
sg75
g2629
sg68
(lp2645
g61
(g62
g63
NtRp2646
(dp2647
g66
(dp2648
g74
I3
ssg75
g2642
sg68
(lp2649
g1198
asbasbasbag61
(g77
g63
NtRp2650
(dp2651
g66
(dp2652
sg75
g2247
sg68
(lp2653
g61
(g82
g63
NtRp2654
(dp2655
g66
(dp2656
g86
g87
ssg75
g2650
sg68
(lp2657
S'WEB2PY_ORIGINAL_URI'
p2658
asbag61
(g82
g63
NtRp2659
(dp2660
g66
(dp2661
g93
g94
ssg75
g2650
sg68
(lp2662
S':'
asbag61
(g82
g63
NtRp2663
(dp2664
g66
(dp2665
sg75
g2650
sg68
(lp2666
g61
(g62
g63
NtRp2667
(dp2668
g66
(dp2669
g74
I3
ssg75
g2663
sg68
(lp2670
g981
asbasbasbag61
(g77
g63
NtRp2671
(dp2672
g66
(dp2673
sg75
g2247
sg68
(lp2674
g61
(g82
g63
NtRp2675
(dp2676
g66
(dp2677
g86
g87
ssg75
g2671
sg68
(lp2678
S'wsgi.errors'
p2679
asbag61
(g82
g63
NtRp2680
(dp2681
g66
(dp2682
g93
g94
ssg75
g2671
sg68
(lp2683
S':'
asbag61
(g82
g63
NtRp2684
(dp2685
g66
(dp2686
sg75
g2671
sg68
(lp2687
g61
(g62
g63
NtRp2688
(dp2689
g66
(dp2690
g74
I3
ssg75
g2684
sg68
(lp2691
S"<open file '<stderr>', mode 'w' at 0x7f3fde94f270>"
p2692
asbasbasbag61
(g77
g63
NtRp2693
(dp2694
g66
(dp2695
sg75
g2247
sg68
(lp2696
g61
(g82
g63
NtRp2697
(dp2698
g66
(dp2699
g86
g87
ssg75
g2693
sg68
(lp2700
S'wsgi.file_wrapper'
p2701
asbag61
(g82
g63
NtRp2702
(dp2703
g66
(dp2704
g93
g94
ssg75
g2693
sg68
(lp2705
S':'
asbag61
(g82
g63
NtRp2706
(dp2707
g66
(dp2708
sg75
g2693
sg68
(lp2709
g61
(g62
g63
NtRp2710
(dp2711
g66
(dp2712
g74
I3
ssg75
g2706
sg68
(lp2713
S'<class wsgiref.util.FileWrapper at 0x164f808>'
p2714
asbasbasbag61
(g77
g63
NtRp2715
(dp2716
g66
(dp2717
sg75
g2247
sg68
(lp2718
g61
(g82
g63
NtRp2719
(dp2720
g66
(dp2721
g86
g87
ssg75
g2715
sg68
(lp2722
S'wsgi.input'
p2723
asbag61
(g82
g63
NtRp2724
(dp2725
g66
(dp2726
g93
g94
ssg75
g2715
sg68
(lp2727
S':'
asbag61
(g82
g63
NtRp2728
(dp2729
g66
(dp2730
sg75
g2715
sg68
(lp2731
g61
(g62
g63
NtRp2732
(dp2733
g66
(dp2734
g74
I3
ssg75
g2728
sg68
(lp2735
S'<cStringIO.StringO object at 0x7f3fd02a9c38>'
p2736
asbasbasbag61
(g77
g63
NtRp2737
(dp2738
g66
(dp2739
sg75
g2247
sg68
(lp2740
g61
(g82
g63
NtRp2741
(dp2742
g66
(dp2743
g86
g87
ssg75
g2737
sg68
(lp2744
S'wsgi.multiprocess'
p2745
asbag61
(g82
g63
NtRp2746
(dp2747
g66
(dp2748
g93
g94
ssg75
g2737
sg68
(lp2749
S':'
asbag61
(g82
g63
NtRp2750
(dp2751
g66
(dp2752
sg75
g2737
sg68
(lp2753
g61
(g62
g63
NtRp2754
(dp2755
g66
(dp2756
g74
I3
ssg75
g2750
sg68
(lp2757
g104
asbasbasbag61
(g77
g63
NtRp2758
(dp2759
g66
(dp2760
sg75
g2247
sg68
(lp2761
g61
(g82
g63
NtRp2762
(dp2763
g66
(dp2764
g86
g87
ssg75
g2758
sg68
(lp2765
S'wsgi.multithread'
p2766
asbag61
(g82
g63
NtRp2767
(dp2768
g66
(dp2769
g93
g94
ssg75
g2758
sg68
(lp2770
S':'
asbag61
(g82
g63
NtRp2771
(dp2772
g66
(dp2773
sg75
g2758
sg68
(lp2774
g61
(g62
g63
NtRp2775
(dp2776
g66
(dp2777
g74
I3
ssg75
g2771
sg68
(lp2778
g1436
asbasbasbag61
(g77
g63
NtRp2779
(dp2780
g66
(dp2781
sg75
g2247
sg68
(lp2782
g61
(g82
g63
NtRp2783
(dp2784
g66
(dp2785
g86
g87
ssg75
g2779
sg68
(lp2786
S'wsgi.run_once'
p2787
asbag61
(g82
g63
NtRp2788
(dp2789
g66
(dp2790
g93
g94
ssg75
g2779
sg68
(lp2791
S':'
asbag61
(g82
g63
NtRp2792
(dp2793
g66
(dp2794
sg75
g2779
sg68
(lp2795
g61
(g62
g63
NtRp2796
(dp2797
g66
(dp2798
g74
I3
ssg75
g2792
sg68
(lp2799
g104
asbasbasbag61
(g77
g63
NtRp2800
(dp2801
g66
(dp2802
sg75
g2247
sg68
(lp2803
g61
(g82
g63
NtRp2804
(dp2805
g66
(dp2806
g86
g87
ssg75
g2800
sg68
(lp2807
S'wsgi.url_scheme'
p2808
asbag61
(g82
g63
NtRp2809
(dp2810
g66
(dp2811
g93
g94
ssg75
g2800
sg68
(lp2812
S':'
asbag61
(g82
g63
NtRp2813
(dp2814
g66
(dp2815
sg75
g2800
sg68
(lp2816
g61
(g62
g63
NtRp2817
(dp2818
g66
(dp2819
g74
I3
ssg75
g2813
sg68
(lp2820
g1479
asbasbasbag61
(g77
g63
NtRp2821
(dp2822
g66
(dp2823
sg75
g2247
sg68
(lp2824
g61
(g82
g63
NtRp2825
(dp2826
g66
(dp2827
g86
g87
ssg75
g2821
sg68
(lp2828
S'wsgi.version'
p2829
asbag61
(g82
g63
NtRp2830
(dp2831
g66
(dp2832
g93
g94
ssg75
g2821
sg68
(lp2833
S':'
asbag61
(g82
g63
NtRp2834
(dp2835
g66
(dp2836
sg75
g2821
sg68
(lp2837
g61
(g62
g63
NtRp2838
(dp2839
g66
(dp2840
g74
I3
ssg75
g2834
sg68
(lp2841
S'1'
asbasbasbasbasbasbasbasbasbasbasbasbasbsS'frames'
p2842
(lp2843
(dp2844
S'file'
p2845
S'/var/www/web2py_curso/gluon/main.py'
p2846
sS'dump'
p2847
(dp2848
S'session._try_store_in_cookie_or_file'
p2849
S"<bound method Session._try_store_in_cookie_or_fi...{'version': '20.0.1132.47', 'name': 'Chrome'}}}>>"
p2850
sS'session'
p2851
S"<Storage {'_session_hash': '311dea479a62f8f17862... {'version': '20.0.1132.47', 'name': 'Chrome'}}}>"
p2852
sS'request'
p2853
S"<Storage {'function': 'user', 'body': <cStringIO...plications/projeto/', 'post_vars': <Storage {}>}>"
p2854
sS'response'
p2855
S"<Storage {'body': <cStringIO.StringO object at 0...at 0x7f3fd02ba758>, 'view': 'initial/user.html'}>"
p2856
ssS'lnum'
p2857
I576
sS'lines'
p2858
(dp2859
I576
S'                session._try_store_in_cookie_or_file(request, response)'
p2860
sI577
S''
sI578
S'                if request.cid:'
p2861
sI579
S'                    if response.flash:'
p2862
sI580
S"                        http_response.headers['web2py-component-flash'] = \\"
p2863
sI571
S'                # ##################################################'
p2864
sI572
S'                # if session not in db try store session on filesystem'
p2865
sI573
S'                # this must be done after trying to commit database!'
p2866
sI574
S'                # ##################################################'
p2867
sI575
S''
ssS'call'
p2868
S"(environ={'HTTP_ACCEPT': 'text/html,application/xhtml+xml,application/xml;q=0.9,*/*;q=0.8', 'HTTP_ACCEPT_CHARSET': 'ISO-8859-1,utf-8;q=0.7,*;q=0.3', 'HTTP_ACCEPT_ENCODING': 'gzip,deflate,sdch', 'HTTP_ACCEPT_LANGUAGE': 'pt-BR,pt;q=0.8,en-US;q=0.6,en;q=0.4', 'HTTP_CONNECTION': 'keep-alive', 'HTTP_COOKIE': 'session_id_projeto=127.0.0.1-71851f1a-a738-4589-a6cd-6594e5094ab6', 'HTTP_HOST': '127.0.0.1:8000', 'HTTP_USER_AGENT': 'Mozilla/5.0 (X11; Linux x86_64) AppleWebKit/536....um/20.0.1132.47 Chrome/20.0.1132.47 Safari/536.11', 'PATH_INFO': '/user/login', 'QUERY_STRING': '', ...}, responder=<function responder2>)"
p2869
sS'func'
p2870
S'wsgibase'
p2871
sa(dp2872
g2845
S'/var/www/web2py_curso/gluon/globals.py'
p2873
sg2847
(dp2874
S'self._try_store_in_file'
p2875
S"<bound method Session._try_store_in_file of <Sto...{'version': '20.0.1132.47', 'name': 'Chrome'}}}>>"
p2876
sS'self'
p2877
S"<Storage {'_session_hash': '311dea479a62f8f17862... {'version': '20.0.1132.47', 'name': 'Chrome'}}}>"
p2878
sS'request'
p2879
S"<Storage {'function': 'user', 'body': <cStringIO...plications/projeto/', 'post_vars': <Storage {}>}>"
p2880
sS'response'
p2881
S"<Storage {'body': <cStringIO.StringO object at 0...at 0x7f3fd02ba758>, 'view': 'initial/user.html'}>"
p2882
ssg2857
I749
sg2858
(dp2883
I744
S'        return True'
p2884
sI745
S''
sI746
S'    def _try_store_in_cookie_or_file(self, request, response):'
p2885
sI747
S'        return \\'
p2886
sI748
S'            self._try_store_in_cookie(request, response) or \\'
p2887
sI749
S'            self._try_store_in_file(request, response)'
p2888
sI750
S''
sI751
S'    def _try_store_in_file(self, request, response):'
p2889
sI752
S"        if response.session_storage_type != 'file':"
p2890
sI753
S'            return False'
p2891
ssg2868
S"(self=<Storage {'_session_hash': '311dea479a62f8f17862... {'version': '20.0.1132.47', 'name': 'Chrome'}}}>, request=<Storage {'function': 'user', 'body': <cStringIO...plications/projeto/', 'post_vars': <Storage {}>}>, response=<Storage {'body': <cStringIO.StringO object at 0...at 0x7f3fd02ba758>, 'view': 'initial/user.html'}>)"
p2892
sg2870
S'_try_store_in_cookie_or_file'
p2893
sa(dp2894
g2845
S'/var/www/web2py_curso/gluon/globals.py'
p2895
sg2847
(dp2896
S'response.session_filename'
p2897
S"'/var/www/web2py_curso/applications/projeto/sessions/127.0.0.1-71851f1a-a738-4589-a6cd-6594e5094ab6'"
p2898
sS'builtinopen'
p2899
S'<built-in function open>'
p2900
sS'response'
p2901
S"<Storage {'body': <cStringIO.StringO object at 0...at 0x7f3fd02ba758>, 'view': 'initial/user.html'}>"
p2902
sS'response.session_file'
p2903
S'None'
p2904
ssg2857
I762
sg2858
(dp2905
I757
S'            if response.session_new or not response.session_file:'
p2906
sI758
S'                # Tests if the session sub-folder exists, if not, create it'
p2907
sI759
S'                session_folder = os.path.dirname(response.session_filename)'
p2908
sI760
S'                if not os.path.exists(session_folder):'
p2909
sI761
S'                    os.mkdir(session_folder)'
p2910
sI762
S"                response.session_file = open(response.session_filename, 'wb')"
p2911
sI763
S'                portalocker.lock(response.session_file, portalocker.LOCK_EX)'
p2912
sI764
S'                response.session_locked = True'
p2913
sI765
S''
sI766
S'            if response.session_file:'
p2914
ssg2868
S"(self=<Storage {'_session_hash': '311dea479a62f8f17862... {'version': '20.0.1132.47', 'name': 'Chrome'}}}>, request=<Storage {'function': 'user', 'body': <cStringIO...plications/projeto/', 'post_vars': <Storage {}>}>, response=<Storage {'body': <cStringIO.StringO object at 0...at 0x7f3fd02ba758>, 'view': 'initial/user.html'}>)"
p2915
sg2870
S'_try_store_in_file'
p2916
sasS'pyver'
p2917
S'Python 2.7.3: /usr/bin/python'
p2918
sS'session'
p2919
g61
(g62
g63
NtRp2920
(dp2921
g66
(dp2922
sg68
(lp2923
g61
(g70
g63
NtRp2924
(dp2925
g66
(dp2926
g74
I5
ssg75
Nsg68
(lp2927
sbasbsS'etype'
p2928
S"<type 'exceptions.IOError'>"
p2929
sS'date'
p2930
S'Sat Feb  2 21:42:33 2013'
p2931
sS'response'
p2932
g61
(g62
g63
NtRp2933
(dp2934
g66
(dp2935
sg68
(lp2936
g61
(g70
g63
NtRp2937
(dp2938
g66
(dp2939
g74
I5
ssg75
Nsg68
(lp2940
g61
(g77
g63
NtRp2941
(dp2942
g66
(dp2943
sg75
g2937
sg68
(lp2944
g61
(g82
g63
NtRp2945
(dp2946
g66
(dp2947
g86
g87
ssg75
g2941
sg68
(lp2948
g172
asbag61
(g82
g63
NtRp2949
(dp2950
g66
(dp2951
g93
g94
ssg75
g2941
sg68
(lp2952
S':'
asbag61
(g82
g63
NtRp2953
(dp2954
g66
(dp2955
sg75
g2941
sg68
(lp2956
g61
(g62
g63
NtRp2957
(dp2958
g66
(dp2959
g74
I5
ssg75
g2953
sg68
(lp2960
S'<cStringIO.StringO object at 0x7f3fd02a98b8>'
p2961
asbasbasbag61
(g77
g63
NtRp2962
(dp2963
g66
(dp2964
sg75
g2937
sg68
(lp2965
g61
(g82
g63
NtRp2966
(dp2967
g66
(dp2968
g86
g87
ssg75
g2962
sg68
(lp2969
g260
asbag61
(g82
g63
NtRp2970
(dp2971
g66
(dp2972
g93
g94
ssg75
g2962
sg68
(lp2973
S':'
asbag61
(g82
g63
NtRp2974
(dp2975
g66
(dp2976
sg75
g2962
sg68
(lp2977
g61
(g62
g63
NtRp2978
(dp2979
g66
(dp2980
g74
I5
ssg75
g2974
sg68
(lp2981
g61
(g70
g63
NtRp2982
(dp2983
g66
(dp2984
g74
I4
ssg75
Nsg68
(lp2985
g61
(g77
g63
NtRp2986
(dp2987
g66
(dp2988
sg75
g2982
sg68
(lp2989
g61
(g82
g63
NtRp2990
(dp2991
g66
(dp2992
g86
g87
ssg75
g2986
sg68
(lp2993
S'session_id_projeto'
p2994
asbag61
(g82
g63
NtRp2995
(dp2996
g66
(dp2997
g93
g94
ssg75
g2986
sg68
(lp2998
S':'
asbag61
(g82
g63
NtRp2999
(dp3000
g66
(dp3001
sg75
g2986
sg68
(lp3002
g61
(g62
g63
NtRp3003
(dp3004
g66
(dp3005
g74
I4
ssg75
g2999
sg68
(lp3006
g298
ag61
(g70
g63
NtRp3007
(dp3008
g66
(dp3009
g74
I3
ssg75
Nsg68
(lp3010
g61
(g77
g63
NtRp3011
(dp3012
g66
(dp3013
sg75
g3007
sg68
(lp3014
g61
(g82
g63
NtRp3015
(dp3016
g66
(dp3017
g86
g87
ssg75
g3011
sg68
(lp3018
g311
asbag61
(g82
g63
NtRp3019
(dp3020
g66
(dp3021
g93
g94
ssg75
g3011
sg68
(lp3022
S':'
asbag61
(g82
g63
NtRp3023
(dp3024
g66
(dp3025
sg75
g3011
sg68
(lp3026
g61
(g62
g63
NtRp3027
(dp3028
g66
(dp3029
g74
I3
ssg75
g3023
sg68
(lp3030
S''
asbasbasbag61
(g77
g63
NtRp3031
(dp3032
g66
(dp3033
sg75
g3007
sg68
(lp3034
g61
(g82
g63
NtRp3035
(dp3036
g66
(dp3037
g86
g87
ssg75
g3031
sg68
(lp3038
g332
asbag61
(g82
g63
NtRp3039
(dp3040
g66
(dp3041
g93
g94
ssg75
g3031
sg68
(lp3042
S':'
asbag61
(g82
g63
NtRp3043
(dp3044
g66
(dp3045
sg75
g3031
sg68
(lp3046
g61
(g62
g63
NtRp3047
(dp3048
g66
(dp3049
g74
I3
ssg75
g3043
sg68
(lp3050
S''
asbasbasbag61
(g77
g63
NtRp3051
(dp3052
g66
(dp3053
sg75
g3007
sg68
(lp3054
g61
(g82
g63
NtRp3055
(dp3056
g66
(dp3057
g86
g87
ssg75
g3051
sg68
(lp3058
g353
asbag61
(g82
g63
NtRp3059
(dp3060
g66
(dp3061
g93
g94
ssg75
g3051
sg68
(lp3062
S':'
asbag61
(g82
g63
NtRp3063
(dp3064
g66
(dp3065
sg75
g3051
sg68
(lp3066
g61
(g62
g63
NtRp3067
(dp3068
g66
(dp3069
g74
I3
ssg75
g3063
sg68
(lp3070
S''
asbasbasbag61
(g77
g63
NtRp3071
(dp3072
g66
(dp3073
sg75
g3007
sg68
(lp3074
g61
(g82
g63
NtRp3075
(dp3076
g66
(dp3077
g86
g87
ssg75
g3071
sg68
(lp3078
g374
asbag61
(g82
g63
NtRp3079
(dp3080
g66
(dp3081
g93
g94
ssg75
g3071
sg68
(lp3082
S':'
asbag61
(g82
g63
NtRp3083
(dp3084
g66
(dp3085
sg75
g3071
sg68
(lp3086
g61
(g62
g63
NtRp3087
(dp3088
g66
(dp3089
g74
I3
ssg75
g3083
sg68
(lp3090
S''
asbasbasbag61
(g77
g63
NtRp3091
(dp3092
g66
(dp3093
sg75
g3007
sg68
(lp3094
g61
(g82
g63
NtRp3095
(dp3096
g66
(dp3097
g86
g87
ssg75
g3091
sg68
(lp3098
g395
asbag61
(g82
g63
NtRp3099
(dp3100
g66
(dp3101
g93
g94
ssg75
g3091
sg68
(lp3102
S':'
asbag61
(g82
g63
NtRp3103
(dp3104
g66
(dp3105
sg75
g3091
sg68
(lp3106
g61
(g62
g63
NtRp3107
(dp3108
g66
(dp3109
g74
I3
ssg75
g3103
sg68
(lp3110
S''
asbasbasbag61
(g77
g63
NtRp3111
(dp3112
g66
(dp3113
sg75
g3007
sg68
(lp3114
g61
(g82
g63
NtRp3115
(dp3116
g66
(dp3117
g86
g87
ssg75
g3111
sg68
(lp3118
g416
asbag61
(g82
g63
NtRp3119
(dp3120
g66
(dp3121
g93
g94
ssg75
g3111
sg68
(lp3122
S':'
asbag61
(g82
g63
NtRp3123
(dp3124
g66
(dp3125
sg75
g3111
sg68
(lp3126
g61
(g62
g63
NtRp3127
(dp3128
g66
(dp3129
g74
I3
ssg75
g3123
sg68
(lp3130
S'/'
asbasbasbag61
(g77
g63
NtRp3131
(dp3132
g66
(dp3133
sg75
g3007
sg68
(lp3134
g61
(g82
g63
NtRp3135
(dp3136
g66
(dp3137
g86
g87
ssg75
g3131
sg68
(lp3138
g437
asbag61
(g82
g63
NtRp3139
(dp3140
g66
(dp3141
g93
g94
ssg75
g3131
sg68
(lp3142
S':'
asbag61
(g82
g63
NtRp3143
(dp3144
g66
(dp3145
sg75
g3131
sg68
(lp3146
g61
(g62
g63
NtRp3147
(dp3148
g66
(dp3149
g74
I3
ssg75
g3143
sg68
(lp3150
S''
asbasbasbag61
(g77
g63
NtRp3151
(dp3152
g66
(dp3153
sg75
g3007
sg68
(lp3154
g61
(g82
g63
NtRp3155
(dp3156
g66
(dp3157
g86
g87
ssg75
g3151
sg68
(lp3158
g458
asbag61
(g82
g63
NtRp3159
(dp3160
g66
(dp3161
g93
g94
ssg75
g3151
sg68
(lp3162
S':'
asbag61
(g82
g63
NtRp3163
(dp3164
g66
(dp3165
sg75
g3151
sg68
(lp3166
g61
(g62
g63
NtRp3167
(dp3168
g66
(dp3169
g74
I3
ssg75
g3163
sg68
(lp3170
S''
asbasbasbasbasbasbasbasbasbasbasbag61
(g77
g63
NtRp3171
(dp3172
g66
(dp3173
sg75
g2937
sg68
(lp3174
g61
(g82
g63
NtRp3175
(dp3176
g66
(dp3177
g86
g87
ssg75
g3171
sg68
(lp3178
S'delimiters'
p3179
asbag61
(g82
g63
NtRp3180
(dp3181
g66
(dp3182
g93
g94
ssg75
g3171
sg68
(lp3183
S':'
asbag61
(g82
g63
NtRp3184
(dp3185
g66
(dp3186
sg75
g3171
sg68
(lp3187
g61
(g62
g63
NtRp3188
(dp3189
g66
(dp3190
g74
I5
ssg75
g3184
sg68
(lp3191
g61
(g70
g63
NtRp3192
(dp3193
g66
(dp3194
g74
I4
ssg75
Nsg68
(lp3195
g61
(g77
g63
NtRp3196
(dp3197
g66
(dp3198
sg75
g3192
sg68
(lp3199
g61
(g82
g63
NtRp3200
(dp3201
g66
(dp3202
sg75
g3196
sg68
(lp3203
g61
(g62
g63
NtRp3204
(dp3205
g66
(dp3206
g74
I4
ssg75
g3200
sg68
(lp3207
S'{{'
p3208
asbasbasbag61
(g77
g63
NtRp3209
(dp3210
g66
(dp3211
sg75
g3192
sg68
(lp3212
g61
(g82
g63
NtRp3213
(dp3214
g66
(dp3215
sg75
g3209
sg68
(lp3216
g61
(g62
g63
NtRp3217
(dp3218
g66
(dp3219
g74
I4
ssg75
g3213
sg68
(lp3220
S'}}'
p3221
asbasbasbasbasbasbasbag61
(g77
g63
NtRp3222
(dp3223
g66
(dp3224
sg75
g2937
sg68
(lp3225
g61
(g82
g63
NtRp3226
(dp3227
g66
(dp3228
g86
g87
ssg75
g3222
sg68
(lp3229
S'files'
p3230
asbag61
(g82
g63
NtRp3231
(dp3232
g66
(dp3233
g93
g94
ssg75
g3222
sg68
(lp3234
S':'
asbag61
(g82
g63
NtRp3235
(dp3236
g66
(dp3237
sg75
g3222
sg68
(lp3238
g61
(g62
g63
NtRp3239
(dp3240
g66
(dp3241
g74
I5
ssg75
g3235
sg68
(lp3242
g61
(g70
g63
NtRp3243
(dp3244
g66
(dp3245
g74
I4
ssg75
Nsg68
(lp3246
g61
(g77
g63
NtRp3247
(dp3248
g66
(dp3249
sg75
g3243
sg68
(lp3250
g61
(g82
g63
NtRp3251
(dp3252
g66
(dp3253
sg75
g3247
sg68
(lp3254
g61
(g62
g63
NtRp3255
(dp3256
g66
(dp3257
g74
I4
ssg75
g3251
sg68
(lp3258
S'/projeto/static/js/jquery.js'
p3259
asbasbasbag61
(g77
g63
NtRp3260
(dp3261
g66
(dp3262
sg75
g3243
sg68
(lp3263
g61
(g82
g63
NtRp3264
(dp3265
g66
(dp3266
sg75
g3260
sg68
(lp3267
g61
(g62
g63
NtRp3268
(dp3269
g66
(dp3270
g74
I4
ssg75
g3264
sg68
(lp3271
S'/projeto/static/css/calendar.css'
p3272
asbasbasbag61
(g77
g63
NtRp3273
(dp3274
g66
(dp3275
sg75
g3243
sg68
(lp3276
g61
(g82
g63
NtRp3277
(dp3278
g66
(dp3279
sg75
g3273
sg68
(lp3280
g61
(g62
g63
NtRp3281
(dp3282
g66
(dp3283
g74
I4
ssg75
g3277
sg68
(lp3284
S'/projeto/static/js/calendar.js'
p3285
asbasbasbag61
(g77
g63
NtRp3286
(dp3287
g66
(dp3288
sg75
g3243
sg68
(lp3289
g61
(g82
g63
NtRp3290
(dp3291
g66
(dp3292
sg75
g3286
sg68
(lp3293
g61
(g62
g63
NtRp3294
(dp3295
g66
(dp3296
g74
I4
ssg75
g3290
sg68
(lp3297
S'/projeto/static/js/web2py.js'
p3298
asbasbasbag61
(g77
g63
NtRp3299
(dp3300
g66
(dp3301
sg75
g3243
sg68
(lp3302
g61
(g82
g63
NtRp3303
(dp3304
g66
(dp3305
sg75
g3299
sg68
(lp3306
g61
(g62
g63
NtRp3307
(dp3308
g66
(dp3309
g74
I4
ssg75
g3303
sg68
(lp3310
S'/projeto/static/css/web2py.css'
p3311
asbasbasbag61
(g77
g63
NtRp3312
(dp3313
g66
(dp3314
sg75
g3243
sg68
(lp3315
g61
(g82
g63
NtRp3316
(dp3317
g66
(dp3318
sg75
g3312
sg68
(lp3319
g61
(g62
g63
NtRp3320
(dp3321
g66
(dp3322
g74
I4
ssg75
g3316
sg68
(lp3323
S'/projeto/static/css/bootstrap.min.css'
p3324
asbasbasbag61
(g77
g63
NtRp3325
(dp3326
g66
(dp3327
sg75
g3243
sg68
(lp3328
g61
(g82
g63
NtRp3329
(dp3330
g66
(dp3331
sg75
g3325
sg68
(lp3332
g61
(g62
g63
NtRp3333
(dp3334
g66
(dp3335
g74
I4
ssg75
g3329
sg68
(lp3336
S'/projeto/static/css/bootstrap-responsive.min.css'
p3337
asbasbasbag61
(g77
g63
NtRp3338
(dp3339
g66
(dp3340
sg75
g3243
sg68
(lp3341
g61
(g82
g63
NtRp3342
(dp3343
g66
(dp3344
sg75
g3338
sg68
(lp3345
g61
(g62
g63
NtRp3346
(dp3347
g66
(dp3348
g74
I4
ssg75
g3342
sg68
(lp3349
S'/projeto/static/css/web2py_bootstrap.css'
p3350
asbasbasbasbasbasbasbag61
(g77
g63
NtRp3351
(dp3352
g66
(dp3353
sg75
g2937
sg68
(lp3354
g61
(g82
g63
NtRp3355
(dp3356
g66
(dp3357
g86
g87
ssg75
g3351
sg68
(lp3358
S'flash'
p3359
asbag61
(g82
g63
NtRp3360
(dp3361
g66
(dp3362
g93
g94
ssg75
g3351
sg68
(lp3363
S':'
asbag61
(g82
g63
NtRp3364
(dp3365
g66
(dp3366
sg75
g3351
sg68
(lp3367
g61
(g62
g63
NtRp3368
(dp3369
g66
(dp3370
g74
I5
ssg75
g3364
sg68
(lp3371
S''
asbasbasbag61
(g77
g63
NtRp3372
(dp3373
g66
(dp3374
sg75
g2937
sg68
(lp3375
g61
(g82
g63
NtRp3376
(dp3377
g66
(dp3378
g86
g87
ssg75
g3372
sg68
(lp3379
S'generic_patterns'
p3380
asbag61
(g82
g63
NtRp3381
(dp3382
g66
(dp3383
g93
g94
ssg75
g3372
sg68
(lp3384
S':'
asbag61
(g82
g63
NtRp3385
(dp3386
g66
(dp3387
sg75
g3372
sg68
(lp3388
g61
(g62
g63
NtRp3389
(dp3390
g66
(dp3391
g74
I5
ssg75
g3385
sg68
(lp3392
g61
(g70
g63
NtRp3393
(dp3394
g66
(dp3395
g74
I4
ssg75
Nsg68
(lp3396
g61
(g77
g63
NtRp3397
(dp3398
g66
(dp3399
sg75
g3393
sg68
(lp3400
g61
(g82
g63
NtRp3401
(dp3402
g66
(dp3403
sg75
g3397
sg68
(lp3404
g61
(g62
g63
NtRp3405
(dp3406
g66
(dp3407
g74
I4
ssg75
g3401
sg68
(lp3408
S'*'
asbasbasbasbasbasbasbag61
(g77
g63
NtRp3409
(dp3410
g66
(dp3411
sg75
g2937
sg68
(lp3412
g61
(g82
g63
NtRp3413
(dp3414
g66
(dp3415
g86
g87
ssg75
g3409
sg68
(lp3416
S'headers'
p3417
asbag61
(g82
g63
NtRp3418
(dp3419
g66
(dp3420
g93
g94
ssg75
g3409
sg68
(lp3421
S':'
asbag61
(g82
g63
NtRp3422
(dp3423
g66
(dp3424
sg75
g3409
sg68
(lp3425
g61
(g62
g63
NtRp3426
(dp3427
g66
(dp3428
g74
I5
ssg75
g3422
sg68
(lp3429
g61
(g70
g63
NtRp3430
(dp3431
g66
(dp3432
g74
I4
ssg75
Nsg68
(lp3433
g61
(g77
g63
NtRp3434
(dp3435
g66
(dp3436
sg75
g3430
sg68
(lp3437
g61
(g82
g63
NtRp3438
(dp3439
g66
(dp3440
g86
g87
ssg75
g3434
sg68
(lp3441
S'Cache-Control'
p3442
asbag61
(g82
g63
NtRp3443
(dp3444
g66
(dp3445
g93
g94
ssg75
g3434
sg68
(lp3446
S':'
asbag61
(g82
g63
NtRp3447
(dp3448
g66
(dp3449
sg75
g3434
sg68
(lp3450
g61
(g62
g63
NtRp3451
(dp3452
g66
(dp3453
g74
I4
ssg75
g3447
sg68
(lp3454
S'no-store, no-cache, must-revalidate, post-check=0, pre-check=0'
p3455
asbasbasbag61
(g77
g63
NtRp3456
(dp3457
g66
(dp3458
sg75
g3430
sg68
(lp3459
g61
(g82
g63
NtRp3460
(dp3461
g66
(dp3462
g86
g87
ssg75
g3456
sg68
(lp3463
S'Content-Type'
p3464
asbag61
(g82
g63
NtRp3465
(dp3466
g66
(dp3467
g93
g94
ssg75
g3456
sg68
(lp3468
S':'
asbag61
(g82
g63
NtRp3469
(dp3470
g66
(dp3471
sg75
g3456
sg68
(lp3472
g61
(g62
g63
NtRp3473
(dp3474
g66
(dp3475
g74
I4
ssg75
g3469
sg68
(lp3476
S'text/html; charset=utf-8'
p3477
asbasbasbag61
(g77
g63
NtRp3478
(dp3479
g66
(dp3480
sg75
g3430
sg68
(lp3481
g61
(g82
g63
NtRp3482
(dp3483
g66
(dp3484
g86
g87
ssg75
g3478
sg68
(lp3485
S'Expires'
p3486
asbag61
(g82
g63
NtRp3487
(dp3488
g66
(dp3489
g93
g94
ssg75
g3478
sg68
(lp3490
S':'
asbag61
(g82
g63
NtRp3491
(dp3492
g66
(dp3493
sg75
g3478
sg68
(lp3494
g61
(g62
g63
NtRp3495
(dp3496
g66
(dp3497
g74
I4
ssg75
g3491
sg68
(lp3498
S'Sat, 02 Feb 2013 23:42:33 GMT'
p3499
asbasbasbag61
(g77
g63
NtRp3500
(dp3501
g66
(dp3502
sg75
g3430
sg68
(lp3503
g61
(g82
g63
NtRp3504
(dp3505
g66
(dp3506
g86
g87
ssg75
g3500
sg68
(lp3507
S'Pragma'
p3508
asbag61
(g82
g63
NtRp3509
(dp3510
g66
(dp3511
g93
g94
ssg75
g3500
sg68
(lp3512
S':'
asbag61
(g82
g63
NtRp3513
(dp3514
g66
(dp3515
sg75
g3500
sg68
(lp3516
g61
(g62
g63
NtRp3517
(dp3518
g66
(dp3519
g74
I4
ssg75
g3513
sg68
(lp3520
S'no-cache'
p3521
asbasbasbag61
(g77
g63
NtRp3522
(dp3523
g66
(dp3524
sg75
g3430
sg68
(lp3525
g61
(g82
g63
NtRp3526
(dp3527
g66
(dp3528
g86
g87
ssg75
g3522
sg68
(lp3529
S'X-Powered-By'
p3530
asbag61
(g82
g63
NtRp3531
(dp3532
g66
(dp3533
g93
g94
ssg75
g3522
sg68
(lp3534
S':'
asbag61
(g82
g63
NtRp3535
(dp3536
g66
(dp3537
sg75
g3522
sg68
(lp3538
g61
(g62
g63
NtRp3539
(dp3540
g66
(dp3541
g74
I4
ssg75
g3535
sg68
(lp3542
S'web2py'
p3543
asbasbasbasbasbasbasbag61
(g77
g63
NtRp3544
(dp3545
g66
(dp3546
sg75
g2937
sg68
(lp3547
g61
(g82
g63
NtRp3548
(dp3549
g66
(dp3550
g86
g87
ssg75
g3544
sg68
(lp3551
S'menu'
p3552
asbag61
(g82
g63
NtRp3553
(dp3554
g66
(dp3555
g93
g94
ssg75
g3544
sg68
(lp3556
S':'
asbag61
(g82
g63
NtRp3557
(dp3558
g66
(dp3559
sg75
g3544
sg68
(lp3560
g61
(g62
g63
NtRp3561
(dp3562
g66
(dp3563
g74
I5
ssg75
g3557
sg68
(lp3564
g61
(g70
g63
NtRp3565
(dp3566
g66
(dp3567
g74
I4
ssg75
Nsg68
(lp3568
sbasbasbasbag61
(g77
g63
NtRp3569
(dp3570
g66
(dp3571
sg75
g2937
sg68
(lp3572
g61
(g82
g63
NtRp3573
(dp3574
g66
(dp3575
g86
g87
ssg75
g3569
sg68
(lp3576
S'meta'
p3577
asbag61
(g82
g63
NtRp3578
(dp3579
g66
(dp3580
g93
g94
ssg75
g3569
sg68
(lp3581
S':'
asbag61
(g82
g63
NtRp3582
(dp3583
g66
(dp3584
sg75
g3569
sg68
(lp3585
g61
(g62
g63
NtRp3586
(dp3587
g66
(dp3588
g74
I5
ssg75
g3582
sg68
(lp3589
g61
(g70
g63
NtRp3590
(dp3591
g66
(dp3592
g74
I4
ssg75
Nsg68
(lp3593
g61
(g77
g63
NtRp3594
(dp3595
g66
(dp3596
sg75
g3590
sg68
(lp3597
g61
(g82
g63
NtRp3598
(dp3599
g66
(dp3600
g86
g87
ssg75
g3594
sg68
(lp3601
S'description'
p3602
asbag61
(g82
g63
NtRp3603
(dp3604
g66
(dp3605
g93
g94
ssg75
g3594
sg68
(lp3606
S':'
asbag61
(g82
g63
NtRp3607
(dp3608
g66
(dp3609
sg75
g3594
sg68
(lp3610
g61
(g62
g63
NtRp3611
(dp3612
g66
(dp3613
g74
I4
ssg75
g3607
sg68
(lp3614
S'blog do shedon'
p3615
asbasbasbag61
(g77
g63
NtRp3616
(dp3617
g66
(dp3618
sg75
g3590
sg68
(lp3619
g61
(g82
g63
NtRp3620
(dp3621
g66
(dp3622
g86
g87
ssg75
g3616
sg68
(lp3623
S'keywords'
p3624
asbag61
(g82
g63
NtRp3625
(dp3626
g66
(dp3627
g93
g94
ssg75
g3616
sg68
(lp3628
S':'
asbag61
(g82
g63
NtRp3629
(dp3630
g66
(dp3631
sg75
g3616
sg68
(lp3632
g61
(g62
g63
NtRp3633
(dp3634
g66
(dp3635
g74
I4
ssg75
g3629
sg68
(lp3636
S'chave, outra, e utra'
p3637
asbasbasbasbasbasbasbag61
(g77
g63
NtRp3638
(dp3639
g66
(dp3640
sg75
g2937
sg68
(lp3641
g61
(g82
g63
NtRp3642
(dp3643
g66
(dp3644
g86
g87
ssg75
g3638
sg68
(lp3645
S'models_to_run'
p3646
asbag61
(g82
g63
NtRp3647
(dp3648
g66
(dp3649
g93
g94
ssg75
g3638
sg68
(lp3650
S':'
asbag61
(g82
g63
NtRp3651
(dp3652
g66
(dp3653
sg75
g3638
sg68
(lp3654
g61
(g62
g63
NtRp3655
(dp3656
g66
(dp3657
g74
I5
ssg75
g3651
sg68
(lp3658
g61
(g70
g63
NtRp3659
(dp3660
g66
(dp3661
g74
I4
ssg75
Nsg68
(lp3662
g61
(g77
g63
NtRp3663
(dp3664
g66
(dp3665
sg75
g3659
sg68
(lp3666
g61
(g82
g63
NtRp3667
(dp3668
g66
(dp3669
sg75
g3663
sg68
(lp3670
g61
(g62
g63
NtRp3671
(dp3672
g66
(dp3673
g74
I4
ssg75
g3667
sg68
(lp3674
S'^\\w+\\.py$'
p3675
asbasbasbag61
(g77
g63
NtRp3676
(dp3677
g66
(dp3678
sg75
g3659
sg68
(lp3679
g61
(g82
g63
NtRp3680
(dp3681
g66
(dp3682
sg75
g3676
sg68
(lp3683
g61
(g62
g63
NtRp3684
(dp3685
g66
(dp3686
g74
I4
ssg75
g3680
sg68
(lp3687
S'^initial/\\w+\\.py$'
p3688
asbasbasbag61
(g77
g63
NtRp3689
(dp3690
g66
(dp3691
sg75
g3659
sg68
(lp3692
g61
(g82
g63
NtRp3693
(dp3694
g66
(dp3695
sg75
g3689
sg68
(lp3696
g61
(g62
g63
NtRp3697
(dp3698
g66
(dp3699
g74
I4
ssg75
g3693
sg68
(lp3700
S'^initial/user/\\w+\\.py$'
p3701
asbasbasbasbasbasbasbag61
(g77
g63
NtRp3702
(dp3703
g66
(dp3704
sg75
g2937
sg68
(lp3705
g61
(g82
g63
NtRp3706
(dp3707
g66
(dp3708
g86
g87
ssg75
g3702
sg68
(lp3709
S'postprocessing'
p3710
asbag61
(g82
g63
NtRp3711
(dp3712
g66
(dp3713
g93
g94
ssg75
g3702
sg68
(lp3714
S':'
asbag61
(g82
g63
NtRp3715
(dp3716
g66
(dp3717
sg75
g3702
sg68
(lp3718
g61
(g62
g63
NtRp3719
(dp3720
g66
(dp3721
g74
I5
ssg75
g3715
sg68
(lp3722
g61
(g70
g63
NtRp3723
(dp3724
g66
(dp3725
g74
I4
ssg75
Nsg68
(lp3726
sbasbasbasbag61
(g77
g63
NtRp3727
(dp3728
g66
(dp3729
sg75
g2937
sg68
(lp3730
g61
(g82
g63
NtRp3731
(dp3732
g66
(dp3733
g86
g87
ssg75
g3727
sg68
(lp3734
S'session_cookie_expires'
p3735
asbag61
(g82
g63
NtRp3736
(dp3737
g66
(dp3738
g93
g94
ssg75
g3727
sg68
(lp3739
S':'
asbag61
(g82
g63
NtRp3740
(dp3741
g66
(dp3742
sg75
g3727
sg68
(lp3743
g61
(g62
g63
NtRp3744
(dp3745
g66
(dp3746
g74
I5
ssg75
g3740
sg68
(lp3747
S'None'
p3748
asbasbasbag61
(g77
g63
NtRp3749
(dp3750
g66
(dp3751
sg75
g2937
sg68
(lp3752
g61
(g82
g63
NtRp3753
(dp3754
g66
(dp3755
g86
g87
ssg75
g3749
sg68
(lp3756
S'session_data_name'
p3757
asbag61
(g82
g63
NtRp3758
(dp3759
g66
(dp3760
g93
g94
ssg75
g3749
sg68
(lp3761
S':'
asbag61
(g82
g63
NtRp3762
(dp3763
g66
(dp3764
sg75
g3749
sg68
(lp3765
g61
(g62
g63
NtRp3766
(dp3767
g66
(dp3768
g74
I5
ssg75
g3762
sg68
(lp3769
S'session_data_projeto'
p3770
asbasbasbag61
(g77
g63
NtRp3771
(dp3772
g66
(dp3773
sg75
g2937
sg68
(lp3774
g61
(g82
g63
NtRp3775
(dp3776
g66
(dp3777
g86
g87
ssg75
g3771
sg68
(lp3778
S'session_file'
p3779
asbag61
(g82
g63
NtRp3780
(dp3781
g66
(dp3782
g93
g94
ssg75
g3771
sg68
(lp3783
S':'
asbag61
(g82
g63
NtRp3784
(dp3785
g66
(dp3786
sg75
g3771
sg68
(lp3787
g61
(g62
g63
NtRp3788
(dp3789
g66
(dp3790
g74
I5
ssg75
g3784
sg68
(lp3791
S'None'
p3792
asbasbasbag61
(g77
g63
NtRp3793
(dp3794
g66
(dp3795
sg75
g2937
sg68
(lp3796
g61
(g82
g63
NtRp3797
(dp3798
g66
(dp3799
g86
g87
ssg75
g3793
sg68
(lp3800
S'session_filename'
p3801
asbag61
(g82
g63
NtRp3802
(dp3803
g66
(dp3804
g93
g94
ssg75
g3793
sg68
(lp3805
S':'
asbag61
(g82
g63
NtRp3806
(dp3807
g66
(dp3808
sg75
g3793
sg68
(lp3809
g61
(g62
g63
NtRp3810
(dp3811
g66
(dp3812
g74
I5
ssg75
g3806
sg68
(lp3813
S'/var/www/web2py_curso/applications/projeto/sessions/127.0.0.1-71851f1a-a738-4589-a6cd-6594e5094ab6'
p3814
asbasbasbag61
(g77
g63
NtRp3815
(dp3816
g66
(dp3817
sg75
g2937
sg68
(lp3818
g61
(g82
g63
NtRp3819
(dp3820
g66
(dp3821
g86
g87
ssg75
g3815
sg68
(lp3822
S'session_id'
p3823
asbag61
(g82
g63
NtRp3824
(dp3825
g66
(dp3826
g93
g94
ssg75
g3815
sg68
(lp3827
S':'
asbag61
(g82
g63
NtRp3828
(dp3829
g66
(dp3830
sg75
g3815
sg68
(lp3831
g61
(g62
g63
NtRp3832
(dp3833
g66
(dp3834
g74
I5
ssg75
g3828
sg68
(lp3835
g298
asbasbasbag61
(g77
g63
NtRp3836
(dp3837
g66
(dp3838
sg75
g2937
sg68
(lp3839
g61
(g82
g63
NtRp3840
(dp3841
g66
(dp3842
g86
g87
ssg75
g3836
sg68
(lp3843
S'session_id_name'
p3844
asbag61
(g82
g63
NtRp3845
(dp3846
g66
(dp3847
g93
g94
ssg75
g3836
sg68
(lp3848
S':'
asbag61
(g82
g63
NtRp3849
(dp3850
g66
(dp3851
sg75
g3836
sg68
(lp3852
g61
(g62
g63
NtRp3853
(dp3854
g66
(dp3855
g74
I5
ssg75
g3849
sg68
(lp3856
g2994
asbasbasbag61
(g77
g63
NtRp3857
(dp3858
g66
(dp3859
sg75
g2937
sg68
(lp3860
g61
(g82
g63
NtRp3861
(dp3862
g66
(dp3863
g86
g87
ssg75
g3857
sg68
(lp3864
S'session_new'
p3865
asbag61
(g82
g63
NtRp3866
(dp3867
g66
(dp3868
g93
g94
ssg75
g3857
sg68
(lp3869
S':'
asbag61
(g82
g63
NtRp3870
(dp3871
g66
(dp3872
sg75
g3857
sg68
(lp3873
g61
(g62
g63
NtRp3874
(dp3875
g66
(dp3876
g74
I5
ssg75
g3870
sg68
(lp3877
g104
asbasbasbag61
(g77
g63
NtRp3878
(dp3879
g66
(dp3880
sg75
g2937
sg68
(lp3881
g61
(g82
g63
NtRp3882
(dp3883
g66
(dp3884
g86
g87
ssg75
g3878
sg68
(lp3885
S'session_storage_type'
p3886
asbag61
(g82
g63
NtRp3887
(dp3888
g66
(dp3889
g93
g94
ssg75
g3878
sg68
(lp3890
S':'
asbag61
(g82
g63
NtRp3891
(dp3892
g66
(dp3893
sg75
g3878
sg68
(lp3894
g61
(g62
g63
NtRp3895
(dp3896
g66
(dp3897
g74
I5
ssg75
g3891
sg68
(lp3898
g2845
asbasbasbag61
(g77
g63
NtRp3899
(dp3900
g66
(dp3901
sg75
g2937
sg68
(lp3902
g61
(g82
g63
NtRp3903
(dp3904
g66
(dp3905
g86
g87
ssg75
g3899
sg68
(lp3906
S'status'
p3907
asbag61
(g82
g63
NtRp3908
(dp3909
g66
(dp3910
g93
g94
ssg75
g3899
sg68
(lp3911
S':'
asbag61
(g82
g63
NtRp3912
(dp3913
g66
(dp3914
sg75
g3899
sg68
(lp3915
g61
(g62
g63
NtRp3916
(dp3917
g66
(dp3918
g74
I5
ssg75
g3912
sg68
(lp3919
S'200'
p3920
asbasbasbag61
(g77
g63
NtRp3921
(dp3922
g66
(dp3923
sg75
g2937
sg68
(lp3924
g61
(g82
g63
NtRp3925
(dp3926
g66
(dp3927
g86
g87
ssg75
g3921
sg68
(lp3928
S'subtitle'
p3929
asbag61
(g82
g63
NtRp3930
(dp3931
g66
(dp3932
g93
g94
ssg75
g3921
sg68
(lp3933
S':'
asbag61
(g82
g63
NtRp3934
(dp3935
g66
(dp3936
sg75
g3921
sg68
(lp3937
g61
(g62
g63
NtRp3938
(dp3939
g66
(dp3940
g74
I5
ssg75
g3934
sg68
(lp3941
S'O blog do sheldon'
p3942
asbasbasbag61
(g77
g63
NtRp3943
(dp3944
g66
(dp3945
sg75
g2937
sg68
(lp3946
g61
(g82
g63
NtRp3947
(dp3948
g66
(dp3949
g86
g87
ssg75
g3943
sg68
(lp3950
S'title'
p3951
asbag61
(g82
g63
NtRp3952
(dp3953
g66
(dp3954
g93
g94
ssg75
g3943
sg68
(lp3955
S':'
asbag61
(g82
g63
NtRp3956
(dp3957
g66
(dp3958
sg75
g3943
sg68
(lp3959
g61
(g62
g63
NtRp3960
(dp3961
g66
(dp3962
g74
I5
ssg75
g3956
sg68
(lp3963
S'Meu site magnifico'
p3964
asbasbasbag61
(g77
g63
NtRp3965
(dp3966
g66
(dp3967
sg75
g2937
sg68
(lp3968
g61
(g82
g63
NtRp3969
(dp3970
g66
(dp3971
g86
g87
ssg75
g3965
sg68
(lp3972
S'view'
p3973
asbag61
(g82
g63
NtRp3974
(dp3975
g66
(dp3976
g93
g94
ssg75
g3965
sg68
(lp3977
S':'
asbag61
(g82
g63
NtRp3978
(dp3979
g66
(dp3980
sg75
g3965
sg68
(lp3981
g61
(g62
g63
NtRp3982
(dp3983
g66
(dp3984
g74
I5
ssg75
g3978
sg68
(lp3985
S'initial/user.html'
p3986
asbasbasbasbasbsS'locals'
p3987
(dp3988
S'self'
p3989
S"<Storage {'_session_hash': '311dea479a62f8f17862... {'version': '20.0.1132.47', 'name': 'Chrome'}}}>"
p3990
sg60
S"<Storage {'function': 'user', 'body': <cStringIO...plications/projeto/', 'post_vars': <Storage {}>}>"
p3991
sS'session_folder'
p3992
S"'/var/www/web2py_curso/applications/projeto/sessions'"
p3993
sg2932
S"<Storage {'body': <cStringIO.StringO object at 0...at 0x7f3fd02ba758>, 'view': 'initial/user.html'}>"
p3994
sssS'traceback'
p3995
S'Traceback (most recent call last):\n  File "/var/www/web2py_curso/gluon/main.py", line 576, in wsgibase\n    session._try_store_in_cookie_or_file(request, response)\n  File "/var/www/web2py_curso/gluon/globals.py", line 749, in _try_store_in_cookie_or_file\n    self._try_store_in_file(request, response)\n  File "/var/www/web2py_curso/gluon/globals.py", line 762, in _try_store_in_file\n    response.session_file = open(response.session_filename, \'wb\')\nIOError: [Errno 13] Permission denied: \'/var/www/web2py_curso/applications/projeto/sessions/127.0.0.1-71851f1a-a738-4589-a6cd-6594e5094ab6\'\n'
p3996
s.