(dp1
S'output'
p2
S"<type 'exceptions.SyntaxError'> invalid syntax (home.html, line 8)"
p3
sS'layer'
p4
S'/var/www/web2py_curso/applications/projeto/views/initial/home.html'
p5
sS'code'
p6
S'response.write(\'<!DOCTYPE HTML>\\n<html lang="en">\\n<head>\\n  <meta charset="UTF-8">\\n  <title> \', escape=False)\nresponse.write(response.title)\nresponse.write(\'</title>\\n  <meta name="description" content="\', escape=False)\nresponse.write(response.meta.description)\nresponse.write(\'">\\n  <meta name="keywords" content="\', escape=False)\nresponse.write(response.meta.keyworks)\nresponse.write(\'">\\n  <meta name="date" content="2012-01-06">\\n\\n\\n\\n  <link rel="stylesheet" href="\', escape=False)\nresponse.write(URL(a=\'projeto, c=\'static\', f=\'css\'))\nresponse.write(\'/css/master.css" type="text/css" media="screen" charset="utf-8">\\n\\n  <link rel="stylesheet" href="http://code.jquery.com/ui/1.10.0/themes/base/jquery-ui.css">\\n <link rel="stylesheet" href="/bootstrap.min.css">\\n\\n  <script src="/jquery.js" type="text/javascript" charset="utf-8"></script>\\n  <script src="http://code.jquery.com/ui/1.10.0/jquery-ui.js"></script>\\n\\n  <script src="/bootstrap.min.js"></script>\\n\\n</head>\\n<body>\\n\\n  <header id="top">\\n    \\n      <div id="logo">\\n        <a href="/">\\n           <img src="/logo.png" alt="logo" />\\n        </a>\\n      </div>\\n      <hgroup>\\n          <h1>\', escape=False)\nresponse.write(response.title)\nresponse.write(\'</h1>\\n          <h2>\', escape=False)\nresponse.write(response.subtitle)\nresponse.write(\'</h2>\\n      </hgroup>\\n      <nav>\\n          <ul>\\n            <li><a href="/">Home</a></li>\\n            <li><a href="#">item menu</a></li>\\n            <li><a href="#">item menu</a></li>\\n            <li><a href="#">item menu</a></li>\\n          </ul>\\n      </nav>\\n      \\n  </header>\\n\\n  <section id="banner">\\n    \\n      <img src="/banner.png" alt="banner"/>\\n      <!-- <img src="img/banner2.png" alt="banner" /> -->\\n    \\n  </section>\\n \\n\\n\\n<!-- <section id="banner" class="carousel slide">\\n  \\n  <div class="carousel-inner">\\n    <div class="active item"><img src="img/banner.png" alt="banner"/></div>\\n    <div class="item"><img src="img/banner2.png" alt="banner" /></div>\\n  </div>\\n \\n  <a class="carousel-control left" href="#banner" data-slide="prev">&lsaquo;</a>\\n  <a class="carousel-control right" href="#banner" data-slide="next">&rsaquo;</a>\\n</section> -->\\n\\n  <aside id="sidebar">\\n    \\n      <div id="info">\\n           <h3>About me</h3>\\n           <figure id="photo">\\n             <img src="/photo.jpg" alt="photo" />\\n             <img src="/photo2.jpg" alt="photo" />\\n             <figcaption>Dr Sheldon Cooper</figcaption>\\n           </figure>\\n           <p><blockquote>Este blog \\xc3\\xa9 o melhor blog do universo</blockquote></p>\\n      </div>\\n      <nav>\\n          <ul>\\n            <li><a href="#contact">contato</a></li>\\n            <li><a href="fotos.html">fotos</a></li>\\n            <li><a href="admin.html">admin</a></li>\\n          </ul>\\n      </nav>\\n      <section id="tweets" class="side">\\n          <header><h3>Twitter feed @TheRealSheldonC</h3></header>\\n\\n      </section>\\n      \\n  </aside>\\n\\n\\n\\n  <script>\\n\\n  $.getJSON("http://search.twitter.com/search.json?callback=?&q=therealsheldonc&include_entities=true&rpp=5",\\n  loadtweets);\\n\\n  // $.ajax({url: "twitter.json"}).done(loadtweets);\\n\\n  function loadtweets(data){\\n    results = data.results;\\n    for (var i in results){\\n      tweet = results[i]\\n      html = "<article class=\\\'well\\\'>"\\n      html += "<header><small><a href=\\\'\\\'>Postado em <time datetime=\\\'"\\n      html += tweet.created_at +"\\\'>"+tweet.created_at;\\n      html += "</time></a></small></header>"\\n      html += "<p>" + tweet.text + "</p>";\\n      html += "</article>"\\n      $(\\\'#tweets\\\').append(html);\\n    }\\n  }\\n\\n  \\n  $(function(){\\n      \\n      var imagens = [];\\n      $(\\\'#photo img\\\').each(function(){\\n        imagens.push($(this).attr(\\\'src\\\'));\\n      });\\n      console.log(imagens);\\n\\n      var counter = imagens.length;\\n      \\n      newimg = $("<img id=\\\'slider\\\' class=\\\'img-polaroid\\\'>").attr({\\\'src\\\': imagens[1]});\\n\\n      $(\\\'#photo img\\\').remove();\\n      $(\\\'#photo\\\').prepend(newimg);\\n\\n      var slider = $(\\\'#slider\\\');\\n\\n      setInterval(function(){\\n          $(\\\'#slider\\\').fadeOut("slow", function(){\\n             $(this).attr(\\\'src\\\', imagens[(imagens.length++) % counter]).fadeIn(\\\'slow\\\');\\n          });\\n\\n      }, 3000);\\n  \\n  });\\n\\n  </script>\\n\\n\\n\\n  <div class="postcontainer">\\n    \\n    <section id="ciencia" class="post">\\n        <header>\\n           <h1> Artigos cientificos e experimentos</h1>\\n        </header>\\n\\n      \\n\\n    </section>\\n\\n    <section id="games" class="post">\\n        <header>\\n           <h1> Games e trens!</h1>\\n        </header>\\n        <article>\\n           <header>\\n              <h2>Sheldon Cooper inventa Xadrez para 3 pessoas</h2>\\n           </header>\\n           <p> Lorem ipsum dolor sit amet, consectetuer adipiscing elit, sed diam inonummy nibh euismod tincidunt ut laoreet dolore magna aliquam erat volutpat.\\n             \\n            <video onclick="this.play()"  height="310" width="550" poster="/video.png" controls>\\n              <source src="/video13.mp4" type="" media="" />\\n              <source src="/video2.mp4" type="" media="" />\\n            </video>\\n\\n\\n           </p>\\n           <footer>\\n              <span>Postado por <b> Sheldon</b> em <time pubdate date="2012-12-22"> 22/12/2012</time>\\n           </footer>\\n        </article>\\n    </section>\\n   \\n  </div>\\n\\n  <footer>\\n    \\n     <form id="contact" method="POST" action="" oninput="idade.value = 28" >\\n        <h3>Entre em contato</h3>\\n        <label>Nome</label>\\n        <input type="text" name="nome" value="" required>\\n        <input type="text" name="idade" id="idade" value="" />\\n        <input type="file" accept="image/*;capture=camera">\\n        <input type="text" class="date">\\n        <input type="submit" value="Enviar" />\\n     </form>\\n\\n     <div>\\n       Copyright &copy; 2013\\n     </div>\\n     \\n  </footer>\\n\\n<div id="dialog" class="hidden" title="Basic dialog">\\n  <p>This is the default dialog which is useful for displaying information. The dialog window can be moved, resized and closed with the \\\'x\\\' icon.</p>\\n</div>\\n\\n</body>\\n</html>\', escape=False)'
p7
sS'snapshot'
p8
(dp9
S'exception'
p10
(dp11
S'__getslice__'
p12
S"<method-wrapper '__getslice__' of exceptions.SyntaxError object>"
p13
sS'text'
p14
S'"response.write(URL(a=\'projeto, c=\'static\', f=\'css\'))\\n"'
p15
sS'__str__'
p16
S"<method-wrapper '__str__' of exceptions.SyntaxError object>"
p17
sS'__reduce__'
p18
S'<built-in method __reduce__ of exceptions.SyntaxError object>'
p19
sS'__dict__'
p20
S'{}'
p21
sS'__sizeof__'
p22
S'<built-in method __sizeof__ of exceptions.SyntaxError object>'
p23
sS'__init__'
p24
S"<method-wrapper '__init__' of exceptions.SyntaxError object>"
p25
sS'__setattr__'
p26
S"<method-wrapper '__setattr__' of exceptions.SyntaxError object>"
p27
sS'__reduce_ex__'
p28
S'<built-in method __reduce_ex__ of exceptions.SyntaxError object>'
p29
sS'__new__'
p30
S'<built-in method __new__ of type object>'
p31
sS'__format__'
p32
S'<built-in method __format__ of exceptions.SyntaxError object>'
p33
sS'__class__'
p34
S"<type 'exceptions.SyntaxError'>"
p35
sS'filename'
p36
S"'/var/www/web2py_curso/applications/projeto/views/initial/home.html'"
p37
sS'lineno'
p38
S'8'
sS'msg'
p39
S"'invalid syntax'"
p40
sS'__doc__'
p41
S"'Invalid syntax.'"
p42
sS'__getitem__'
p43
S"<method-wrapper '__getitem__' of exceptions.SyntaxError object>"
p44
sS'__setstate__'
p45
S'<built-in method __setstate__ of exceptions.SyntaxError object>'
p46
sS'__getattribute__'
p47
S"<method-wrapper '__getattribute__' of exceptions.SyntaxError object>"
p48
sS'print_file_and_line'
p49
S'None'
p50
sS'args'
p51
S'(\'invalid syntax\', (\'/var/www/web2py_curso/applications/projeto/views/initial/home.html\', 8, 40, "response.write(URL(a=\'projeto, c=\'static\', f=\'css\'))\\n"))'
p52
sS'__subclasshook__'
p53
S'<built-in method __subclasshook__ of type object>'
p54
sS'offset'
p55
S'40'
p56
sS'__unicode__'
p57
S'<built-in method __unicode__ of exceptions.SyntaxError object>'
p58
sS'__delattr__'
p59
S"<method-wrapper '__delattr__' of exceptions.SyntaxError object>"
p60
sS'__repr__'
p61
S"<method-wrapper '__repr__' of exceptions.SyntaxError object>"
p62
sS'__hash__'
p63
S"<method-wrapper '__hash__' of exceptions.SyntaxError object>"
p64
ssS'evalue'
p65
S'invalid syntax (home.html, line 8)'
p66
sS'request'
p67
ccopy_reg
_reconstructor
p68
(cgluon.html
BEAUTIFY
p69
c__builtin__
object
p70
NtRp71
(dp72
S'attributes'
p73
(dp74
sS'components'
p75
(lp76
g68
(cgluon.html
TABLE
p77
g70
NtRp78
(dp79
g73
(dp80
S'level'
p81
I5
ssS'parent'
p82
Nsg75
(lp83
g68
(cgluon.html
TR
p84
g70
NtRp85
(dp86
g73
(dp87
sg82
g78
sg75
(lp88
g68
(cgluon.html
TD
p89
g70
NtRp90
(dp91
g73
(dp92
S'_style'
p93
S'font-weight:bold;vertical-align:top'
p94
ssg82
g85
sg75
(lp95
S'ajax'
p96
asbag68
(g89
g70
NtRp97
(dp98
g73
(dp99
S'_valign'
p100
S'top'
p101
ssg82
g85
sg75
(lp102
S':'
asbag68
(g89
g70
NtRp103
(dp104
g73
(dp105
sg82
g85
sg75
(lp106
g68
(g69
g70
NtRp107
(dp108
g73
(dp109
g81
I5
ssg82
g103
sg75
(lp110
S'False'
p111
asbasbasbag68
(g84
g70
NtRp112
(dp113
g73
(dp114
sg82
g78
sg75
(lp115
g68
(g89
g70
NtRp116
(dp117
g73
(dp118
g93
g94
ssg82
g112
sg75
(lp119
S'application'
p120
asbag68
(g89
g70
NtRp121
(dp122
g73
(dp123
g100
g101
ssg82
g112
sg75
(lp124
S':'
asbag68
(g89
g70
NtRp125
(dp126
g73
(dp127
sg82
g112
sg75
(lp128
g68
(g69
g70
NtRp129
(dp130
g73
(dp131
g81
I5
ssg82
g125
sg75
(lp132
S'projeto'
p133
asbasbasbag68
(g84
g70
NtRp134
(dp135
g73
(dp136
sg82
g78
sg75
(lp137
g68
(g89
g70
NtRp138
(dp139
g73
(dp140
g93
g94
ssg82
g134
sg75
(lp141
g51
asbag68
(g89
g70
NtRp142
(dp143
g73
(dp144
g100
g101
ssg82
g134
sg75
(lp145
S':'
asbag68
(g89
g70
NtRp146
(dp147
g73
(dp148
sg82
g134
sg75
(lp149
g68
(g69
g70
NtRp150
(dp151
g73
(dp152
g81
I5
ssg82
g146
sg75
(lp153
g68
(g77
g70
NtRp154
(dp155
g73
(dp156
g81
I4
ssg82
Nsg75
(lp157
sbasbasbasbag68
(g84
g70
NtRp158
(dp159
g73
(dp160
sg82
g78
sg75
(lp161
g68
(g89
g70
NtRp162
(dp163
g73
(dp164
g93
g94
ssg82
g158
sg75
(lp165
S'body'
p166
asbag68
(g89
g70
NtRp167
(dp168
g73
(dp169
g100
g101
ssg82
g158
sg75
(lp170
S':'
asbag68
(g89
g70
NtRp171
(dp172
g73
(dp173
sg82
g158
sg75
(lp174
g68
(g69
g70
NtRp175
(dp176
g73
(dp177
g81
I5
ssg82
g171
sg75
(lp178
S'<cStringIO.StringO object at 0x7feea03c67a0>'
p179
asbasbasbag68
(g84
g70
NtRp180
(dp181
g73
(dp182
sg82
g78
sg75
(lp183
g68
(g89
g70
NtRp184
(dp185
g73
(dp186
g93
g94
ssg82
g180
sg75
(lp187
S'cid'
p188
asbag68
(g89
g70
NtRp189
(dp190
g73
(dp191
g100
g101
ssg82
g180
sg75
(lp192
S':'
asbag68
(g89
g70
NtRp193
(dp194
g73
(dp195
sg82
g180
sg75
(lp196
g68
(g69
g70
NtRp197
(dp198
g73
(dp199
g81
I5
ssg82
g193
sg75
(lp200
S'None'
p201
asbasbasbag68
(g84
g70
NtRp202
(dp203
g73
(dp204
sg82
g78
sg75
(lp205
g68
(g89
g70
NtRp206
(dp207
g73
(dp208
g93
g94
ssg82
g202
sg75
(lp209
S'client'
p210
asbag68
(g89
g70
NtRp211
(dp212
g73
(dp213
g100
g101
ssg82
g202
sg75
(lp214
S':'
asbag68
(g89
g70
NtRp215
(dp216
g73
(dp217
sg82
g202
sg75
(lp218
g68
(g69
g70
NtRp219
(dp220
g73
(dp221
g81
I5
ssg82
g215
sg75
(lp222
S'127.0.0.1'
p223
asbasbasbag68
(g84
g70
NtRp224
(dp225
g73
(dp226
sg82
g78
sg75
(lp227
g68
(g89
g70
NtRp228
(dp229
g73
(dp230
g93
g94
ssg82
g224
sg75
(lp231
S'controller'
p232
asbag68
(g89
g70
NtRp233
(dp234
g73
(dp235
g100
g101
ssg82
g224
sg75
(lp236
S':'
asbag68
(g89
g70
NtRp237
(dp238
g73
(dp239
sg82
g224
sg75
(lp240
g68
(g69
g70
NtRp241
(dp242
g73
(dp243
g81
I5
ssg82
g237
sg75
(lp244
S'initial'
p245
asbasbasbag68
(g84
g70
NtRp246
(dp247
g73
(dp248
sg82
g78
sg75
(lp249
g68
(g89
g70
NtRp250
(dp251
g73
(dp252
g93
g94
ssg82
g246
sg75
(lp253
S'cookies'
p254
asbag68
(g89
g70
NtRp255
(dp256
g73
(dp257
g100
g101
ssg82
g246
sg75
(lp258
S':'
asbag68
(g89
g70
NtRp259
(dp260
g73
(dp261
sg82
g246
sg75
(lp262
g68
(g69
g70
NtRp263
(dp264
g73
(dp265
g81
I5
ssg82
g259
sg75
(lp266
g68
(g77
g70
NtRp267
(dp268
g73
(dp269
g81
I4
ssg82
Nsg75
(lp270
g68
(g84
g70
NtRp271
(dp272
g73
(dp273
sg82
g267
sg75
(lp274
g68
(g89
g70
NtRp275
(dp276
g73
(dp277
g93
g94
ssg82
g271
sg75
(lp278
S'admin'
p279
asbag68
(g89
g70
NtRp280
(dp281
g73
(dp282
g100
g101
ssg82
g271
sg75
(lp283
S':'
asbag68
(g89
g70
NtRp284
(dp285
g73
(dp286
sg82
g271
sg75
(lp287
g68
(g69
g70
NtRp288
(dp289
g73
(dp290
g81
I4
ssg82
g284
sg75
(lp291
S'admin'
p292
ag68
(g77
g70
NtRp293
(dp294
g73
(dp295
g81
I3
ssg82
Nsg75
(lp296
g68
(g84
g70
NtRp297
(dp298
g73
(dp299
sg82
g293
sg75
(lp300
g68
(g89
g70
NtRp301
(dp302
g73
(dp303
g93
g94
ssg82
g297
sg75
(lp304
S'comment'
p305
asbag68
(g89
g70
NtRp306
(dp307
g73
(dp308
g100
g101
ssg82
g297
sg75
(lp309
S':'
asbag68
(g89
g70
NtRp310
(dp311
g73
(dp312
sg82
g297
sg75
(lp313
g68
(g69
g70
NtRp314
(dp315
g73
(dp316
g81
I3
ssg82
g310
sg75
(lp317
S''
asbasbasbag68
(g84
g70
NtRp318
(dp319
g73
(dp320
sg82
g293
sg75
(lp321
g68
(g89
g70
NtRp322
(dp323
g73
(dp324
g93
g94
ssg82
g318
sg75
(lp325
S'domain'
p326
asbag68
(g89
g70
NtRp327
(dp328
g73
(dp329
g100
g101
ssg82
g318
sg75
(lp330
S':'
asbag68
(g89
g70
NtRp331
(dp332
g73
(dp333
sg82
g318
sg75
(lp334
g68
(g69
g70
NtRp335
(dp336
g73
(dp337
g81
I3
ssg82
g331
sg75
(lp338
S''
asbasbasbag68
(g84
g70
NtRp339
(dp340
g73
(dp341
sg82
g293
sg75
(lp342
g68
(g89
g70
NtRp343
(dp344
g73
(dp345
g93
g94
ssg82
g339
sg75
(lp346
S'expires'
p347
asbag68
(g89
g70
NtRp348
(dp349
g73
(dp350
g100
g101
ssg82
g339
sg75
(lp351
S':'
asbag68
(g89
g70
NtRp352
(dp353
g73
(dp354
sg82
g339
sg75
(lp355
g68
(g69
g70
NtRp356
(dp357
g73
(dp358
g81
I3
ssg82
g352
sg75
(lp359
S''
asbasbasbag68
(g84
g70
NtRp360
(dp361
g73
(dp362
sg82
g293
sg75
(lp363
g68
(g89
g70
NtRp364
(dp365
g73
(dp366
g93
g94
ssg82
g360
sg75
(lp367
S'httponly'
p368
asbag68
(g89
g70
NtRp369
(dp370
g73
(dp371
g100
g101
ssg82
g360
sg75
(lp372
S':'
asbag68
(g89
g70
NtRp373
(dp374
g73
(dp375
sg82
g360
sg75
(lp376
g68
(g69
g70
NtRp377
(dp378
g73
(dp379
g81
I3
ssg82
g373
sg75
(lp380
S''
asbasbasbag68
(g84
g70
NtRp381
(dp382
g73
(dp383
sg82
g293
sg75
(lp384
g68
(g89
g70
NtRp385
(dp386
g73
(dp387
g93
g94
ssg82
g381
sg75
(lp388
S'max-age'
p389
asbag68
(g89
g70
NtRp390
(dp391
g73
(dp392
g100
g101
ssg82
g381
sg75
(lp393
S':'
asbag68
(g89
g70
NtRp394
(dp395
g73
(dp396
sg82
g381
sg75
(lp397
g68
(g69
g70
NtRp398
(dp399
g73
(dp400
g81
I3
ssg82
g394
sg75
(lp401
S''
asbasbasbag68
(g84
g70
NtRp402
(dp403
g73
(dp404
sg82
g293
sg75
(lp405
g68
(g89
g70
NtRp406
(dp407
g73
(dp408
g93
g94
ssg82
g402
sg75
(lp409
S'path'
p410
asbag68
(g89
g70
NtRp411
(dp412
g73
(dp413
g100
g101
ssg82
g402
sg75
(lp414
S':'
asbag68
(g89
g70
NtRp415
(dp416
g73
(dp417
sg82
g402
sg75
(lp418
g68
(g69
g70
NtRp419
(dp420
g73
(dp421
g81
I3
ssg82
g415
sg75
(lp422
S''
asbasbasbag68
(g84
g70
NtRp423
(dp424
g73
(dp425
sg82
g293
sg75
(lp426
g68
(g89
g70
NtRp427
(dp428
g73
(dp429
g93
g94
ssg82
g423
sg75
(lp430
S'secure'
p431
asbag68
(g89
g70
NtRp432
(dp433
g73
(dp434
g100
g101
ssg82
g423
sg75
(lp435
S':'
asbag68
(g89
g70
NtRp436
(dp437
g73
(dp438
sg82
g423
sg75
(lp439
g68
(g69
g70
NtRp440
(dp441
g73
(dp442
g81
I3
ssg82
g436
sg75
(lp443
S''
asbasbasbag68
(g84
g70
NtRp444
(dp445
g73
(dp446
sg82
g293
sg75
(lp447
g68
(g89
g70
NtRp448
(dp449
g73
(dp450
g93
g94
ssg82
g444
sg75
(lp451
S'version'
p452
asbag68
(g89
g70
NtRp453
(dp454
g73
(dp455
g100
g101
ssg82
g444
sg75
(lp456
S':'
asbag68
(g89
g70
NtRp457
(dp458
g73
(dp459
sg82
g444
sg75
(lp460
g68
(g69
g70
NtRp461
(dp462
g73
(dp463
g81
I3
ssg82
g457
sg75
(lp464
S''
asbasbasbasbasbasbasbag68
(g84
g70
NtRp465
(dp466
g73
(dp467
sg82
g267
sg75
(lp468
g68
(g89
g70
NtRp469
(dp470
g73
(dp471
g93
g94
ssg82
g465
sg75
(lp472
S'cookie'
p473
asbag68
(g89
g70
NtRp474
(dp475
g73
(dp476
g100
g101
ssg82
g465
sg75
(lp477
S':'
asbag68
(g89
g70
NtRp478
(dp479
g73
(dp480
sg82
g465
sg75
(lp481
g68
(g69
g70
NtRp482
(dp483
g73
(dp484
g81
I4
ssg82
g478
sg75
(lp485
S'1649423593'
p486
ag68
(g77
g70
NtRp487
(dp488
g73
(dp489
g81
I3
ssg82
Nsg75
(lp490
g68
(g84
g70
NtRp491
(dp492
g73
(dp493
sg82
g487
sg75
(lp494
g68
(g89
g70
NtRp495
(dp496
g73
(dp497
g93
g94
ssg82
g491
sg75
(lp498
g305
asbag68
(g89
g70
NtRp499
(dp500
g73
(dp501
g100
g101
ssg82
g491
sg75
(lp502
S':'
asbag68
(g89
g70
NtRp503
(dp504
g73
(dp505
sg82
g491
sg75
(lp506
g68
(g69
g70
NtRp507
(dp508
g73
(dp509
g81
I3
ssg82
g503
sg75
(lp510
S''
asbasbasbag68
(g84
g70
NtRp511
(dp512
g73
(dp513
sg82
g487
sg75
(lp514
g68
(g89
g70
NtRp515
(dp516
g73
(dp517
g93
g94
ssg82
g511
sg75
(lp518
g326
asbag68
(g89
g70
NtRp519
(dp520
g73
(dp521
g100
g101
ssg82
g511
sg75
(lp522
S':'
asbag68
(g89
g70
NtRp523
(dp524
g73
(dp525
sg82
g511
sg75
(lp526
g68
(g69
g70
NtRp527
(dp528
g73
(dp529
g81
I3
ssg82
g523
sg75
(lp530
S''
asbasbasbag68
(g84
g70
NtRp531
(dp532
g73
(dp533
sg82
g487
sg75
(lp534
g68
(g89
g70
NtRp535
(dp536
g73
(dp537
g93
g94
ssg82
g531
sg75
(lp538
g347
asbag68
(g89
g70
NtRp539
(dp540
g73
(dp541
g100
g101
ssg82
g531
sg75
(lp542
S':'
asbag68
(g89
g70
NtRp543
(dp544
g73
(dp545
sg82
g531
sg75
(lp546
g68
(g69
g70
NtRp547
(dp548
g73
(dp549
g81
I3
ssg82
g543
sg75
(lp550
S''
asbasbasbag68
(g84
g70
NtRp551
(dp552
g73
(dp553
sg82
g487
sg75
(lp554
g68
(g89
g70
NtRp555
(dp556
g73
(dp557
g93
g94
ssg82
g551
sg75
(lp558
g368
asbag68
(g89
g70
NtRp559
(dp560
g73
(dp561
g100
g101
ssg82
g551
sg75
(lp562
S':'
asbag68
(g89
g70
NtRp563
(dp564
g73
(dp565
sg82
g551
sg75
(lp566
g68
(g69
g70
NtRp567
(dp568
g73
(dp569
g81
I3
ssg82
g563
sg75
(lp570
S''
asbasbasbag68
(g84
g70
NtRp571
(dp572
g73
(dp573
sg82
g487
sg75
(lp574
g68
(g89
g70
NtRp575
(dp576
g73
(dp577
g93
g94
ssg82
g571
sg75
(lp578
g389
asbag68
(g89
g70
NtRp579
(dp580
g73
(dp581
g100
g101
ssg82
g571
sg75
(lp582
S':'
asbag68
(g89
g70
NtRp583
(dp584
g73
(dp585
sg82
g571
sg75
(lp586
g68
(g69
g70
NtRp587
(dp588
g73
(dp589
g81
I3
ssg82
g583
sg75
(lp590
S''
asbasbasbag68
(g84
g70
NtRp591
(dp592
g73
(dp593
sg82
g487
sg75
(lp594
g68
(g89
g70
NtRp595
(dp596
g73
(dp597
g93
g94
ssg82
g591
sg75
(lp598
g410
asbag68
(g89
g70
NtRp599
(dp600
g73
(dp601
g100
g101
ssg82
g591
sg75
(lp602
S':'
asbag68
(g89
g70
NtRp603
(dp604
g73
(dp605
sg82
g591
sg75
(lp606
g68
(g69
g70
NtRp607
(dp608
g73
(dp609
g81
I3
ssg82
g603
sg75
(lp610
S''
asbasbasbag68
(g84
g70
NtRp611
(dp612
g73
(dp613
sg82
g487
sg75
(lp614
g68
(g89
g70
NtRp615
(dp616
g73
(dp617
g93
g94
ssg82
g611
sg75
(lp618
g431
asbag68
(g89
g70
NtRp619
(dp620
g73
(dp621
g100
g101
ssg82
g611
sg75
(lp622
S':'
asbag68
(g89
g70
NtRp623
(dp624
g73
(dp625
sg82
g611
sg75
(lp626
g68
(g69
g70
NtRp627
(dp628
g73
(dp629
g81
I3
ssg82
g623
sg75
(lp630
S''
asbasbasbag68
(g84
g70
NtRp631
(dp632
g73
(dp633
sg82
g487
sg75
(lp634
g68
(g89
g70
NtRp635
(dp636
g73
(dp637
g93
g94
ssg82
g631
sg75
(lp638
g452
asbag68
(g89
g70
NtRp639
(dp640
g73
(dp641
g100
g101
ssg82
g631
sg75
(lp642
S':'
asbag68
(g89
g70
NtRp643
(dp644
g73
(dp645
sg82
g631
sg75
(lp646
g68
(g69
g70
NtRp647
(dp648
g73
(dp649
g81
I3
ssg82
g643
sg75
(lp650
S''
asbasbasbasbasbasbasbag68
(g84
g70
NtRp651
(dp652
g73
(dp653
sg82
g267
sg75
(lp654
g68
(g89
g70
NtRp655
(dp656
g73
(dp657
g93
g94
ssg82
g651
sg75
(lp658
S'hw_type'
p659
asbag68
(g89
g70
NtRp660
(dp661
g73
(dp662
g100
g101
ssg82
g651
sg75
(lp663
S':'
asbag68
(g89
g70
NtRp664
(dp665
g73
(dp666
sg82
g651
sg75
(lp667
g68
(g69
g70
NtRp668
(dp669
g73
(dp670
g81
I4
ssg82
g664
sg75
(lp671
S'MX60'
p672
ag68
(g77
g70
NtRp673
(dp674
g73
(dp675
g81
I3
ssg82
Nsg75
(lp676
g68
(g84
g70
NtRp677
(dp678
g73
(dp679
sg82
g673
sg75
(lp680
g68
(g89
g70
NtRp681
(dp682
g73
(dp683
g93
g94
ssg82
g677
sg75
(lp684
g305
asbag68
(g89
g70
NtRp685
(dp686
g73
(dp687
g100
g101
ssg82
g677
sg75
(lp688
S':'
asbag68
(g89
g70
NtRp689
(dp690
g73
(dp691
sg82
g677
sg75
(lp692
g68
(g69
g70
NtRp693
(dp694
g73
(dp695
g81
I3
ssg82
g689
sg75
(lp696
S''
asbasbasbag68
(g84
g70
NtRp697
(dp698
g73
(dp699
sg82
g673
sg75
(lp700
g68
(g89
g70
NtRp701
(dp702
g73
(dp703
g93
g94
ssg82
g697
sg75
(lp704
g326
asbag68
(g89
g70
NtRp705
(dp706
g73
(dp707
g100
g101
ssg82
g697
sg75
(lp708
S':'
asbag68
(g89
g70
NtRp709
(dp710
g73
(dp711
sg82
g697
sg75
(lp712
g68
(g69
g70
NtRp713
(dp714
g73
(dp715
g81
I3
ssg82
g709
sg75
(lp716
S''
asbasbasbag68
(g84
g70
NtRp717
(dp718
g73
(dp719
sg82
g673
sg75
(lp720
g68
(g89
g70
NtRp721
(dp722
g73
(dp723
g93
g94
ssg82
g717
sg75
(lp724
g347
asbag68
(g89
g70
NtRp725
(dp726
g73
(dp727
g100
g101
ssg82
g717
sg75
(lp728
S':'
asbag68
(g89
g70
NtRp729
(dp730
g73
(dp731
sg82
g717
sg75
(lp732
g68
(g69
g70
NtRp733
(dp734
g73
(dp735
g81
I3
ssg82
g729
sg75
(lp736
S''
asbasbasbag68
(g84
g70
NtRp737
(dp738
g73
(dp739
sg82
g673
sg75
(lp740
g68
(g89
g70
NtRp741
(dp742
g73
(dp743
g93
g94
ssg82
g737
sg75
(lp744
g368
asbag68
(g89
g70
NtRp745
(dp746
g73
(dp747
g100
g101
ssg82
g737
sg75
(lp748
S':'
asbag68
(g89
g70
NtRp749
(dp750
g73
(dp751
sg82
g737
sg75
(lp752
g68
(g69
g70
NtRp753
(dp754
g73
(dp755
g81
I3
ssg82
g749
sg75
(lp756
S''
asbasbasbag68
(g84
g70
NtRp757
(dp758
g73
(dp759
sg82
g673
sg75
(lp760
g68
(g89
g70
NtRp761
(dp762
g73
(dp763
g93
g94
ssg82
g757
sg75
(lp764
g389
asbag68
(g89
g70
NtRp765
(dp766
g73
(dp767
g100
g101
ssg82
g757
sg75
(lp768
S':'
asbag68
(g89
g70
NtRp769
(dp770
g73
(dp771
sg82
g757
sg75
(lp772
g68
(g69
g70
NtRp773
(dp774
g73
(dp775
g81
I3
ssg82
g769
sg75
(lp776
S''
asbasbasbag68
(g84
g70
NtRp777
(dp778
g73
(dp779
sg82
g673
sg75
(lp780
g68
(g89
g70
NtRp781
(dp782
g73
(dp783
g93
g94
ssg82
g777
sg75
(lp784
g410
asbag68
(g89
g70
NtRp785
(dp786
g73
(dp787
g100
g101
ssg82
g777
sg75
(lp788
S':'
asbag68
(g89
g70
NtRp789
(dp790
g73
(dp791
sg82
g777
sg75
(lp792
g68
(g69
g70
NtRp793
(dp794
g73
(dp795
g81
I3
ssg82
g789
sg75
(lp796
S''
asbasbasbag68
(g84
g70
NtRp797
(dp798
g73
(dp799
sg82
g673
sg75
(lp800
g68
(g89
g70
NtRp801
(dp802
g73
(dp803
g93
g94
ssg82
g797
sg75
(lp804
g431
asbag68
(g89
g70
NtRp805
(dp806
g73
(dp807
g100
g101
ssg82
g797
sg75
(lp808
S':'
asbag68
(g89
g70
NtRp809
(dp810
g73
(dp811
sg82
g797
sg75
(lp812
g68
(g69
g70
NtRp813
(dp814
g73
(dp815
g81
I3
ssg82
g809
sg75
(lp816
S''
asbasbasbag68
(g84
g70
NtRp817
(dp818
g73
(dp819
sg82
g673
sg75
(lp820
g68
(g89
g70
NtRp821
(dp822
g73
(dp823
g93
g94
ssg82
g817
sg75
(lp824
g452
asbag68
(g89
g70
NtRp825
(dp826
g73
(dp827
g100
g101
ssg82
g817
sg75
(lp828
S':'
asbag68
(g89
g70
NtRp829
(dp830
g73
(dp831
sg82
g817
sg75
(lp832
g68
(g69
g70
NtRp833
(dp834
g73
(dp835
g81
I3
ssg82
g829
sg75
(lp836
S''
asbasbasbasbasbasbasbag68
(g84
g70
NtRp837
(dp838
g73
(dp839
sg82
g267
sg75
(lp840
g68
(g89
g70
NtRp841
(dp842
g73
(dp843
g93
g94
ssg82
g837
sg75
(lp844
S'hw_version'
p845
asbag68
(g89
g70
NtRp846
(dp847
g73
(dp848
g100
g101
ssg82
g837
sg75
(lp849
S':'
asbag68
(g89
g70
NtRp850
(dp851
g73
(dp852
sg82
g837
sg75
(lp853
g68
(g69
g70
NtRp854
(dp855
g73
(dp856
g81
I4
ssg82
g850
sg75
(lp857
S'Rev%201.9.82.316'
p858
ag68
(g77
g70
NtRp859
(dp860
g73
(dp861
g81
I3
ssg82
Nsg75
(lp862
g68
(g84
g70
NtRp863
(dp864
g73
(dp865
sg82
g859
sg75
(lp866
g68
(g89
g70
NtRp867
(dp868
g73
(dp869
g93
g94
ssg82
g863
sg75
(lp870
g305
asbag68
(g89
g70
NtRp871
(dp872
g73
(dp873
g100
g101
ssg82
g863
sg75
(lp874
S':'
asbag68
(g89
g70
NtRp875
(dp876
g73
(dp877
sg82
g863
sg75
(lp878
g68
(g69
g70
NtRp879
(dp880
g73
(dp881
g81
I3
ssg82
g875
sg75
(lp882
S''
asbasbasbag68
(g84
g70
NtRp883
(dp884
g73
(dp885
sg82
g859
sg75
(lp886
g68
(g89
g70
NtRp887
(dp888
g73
(dp889
g93
g94
ssg82
g883
sg75
(lp890
g326
asbag68
(g89
g70
NtRp891
(dp892
g73
(dp893
g100
g101
ssg82
g883
sg75
(lp894
S':'
asbag68
(g89
g70
NtRp895
(dp896
g73
(dp897
sg82
g883
sg75
(lp898
g68
(g69
g70
NtRp899
(dp900
g73
(dp901
g81
I3
ssg82
g895
sg75
(lp902
S''
asbasbasbag68
(g84
g70
NtRp903
(dp904
g73
(dp905
sg82
g859
sg75
(lp906
g68
(g89
g70
NtRp907
(dp908
g73
(dp909
g93
g94
ssg82
g903
sg75
(lp910
g347
asbag68
(g89
g70
NtRp911
(dp912
g73
(dp913
g100
g101
ssg82
g903
sg75
(lp914
S':'
asbag68
(g89
g70
NtRp915
(dp916
g73
(dp917
sg82
g903
sg75
(lp918
g68
(g69
g70
NtRp919
(dp920
g73
(dp921
g81
I3
ssg82
g915
sg75
(lp922
S''
asbasbasbag68
(g84
g70
NtRp923
(dp924
g73
(dp925
sg82
g859
sg75
(lp926
g68
(g89
g70
NtRp927
(dp928
g73
(dp929
g93
g94
ssg82
g923
sg75
(lp930
g368
asbag68
(g89
g70
NtRp931
(dp932
g73
(dp933
g100
g101
ssg82
g923
sg75
(lp934
S':'
asbag68
(g89
g70
NtRp935
(dp936
g73
(dp937
sg82
g923
sg75
(lp938
g68
(g69
g70
NtRp939
(dp940
g73
(dp941
g81
I3
ssg82
g935
sg75
(lp942
S''
asbasbasbag68
(g84
g70
NtRp943
(dp944
g73
(dp945
sg82
g859
sg75
(lp946
g68
(g89
g70
NtRp947
(dp948
g73
(dp949
g93
g94
ssg82
g943
sg75
(lp950
g389
asbag68
(g89
g70
NtRp951
(dp952
g73
(dp953
g100
g101
ssg82
g943
sg75
(lp954
S':'
asbag68
(g89
g70
NtRp955
(dp956
g73
(dp957
sg82
g943
sg75
(lp958
g68
(g69
g70
NtRp959
(dp960
g73
(dp961
g81
I3
ssg82
g955
sg75
(lp962
S''
asbasbasbag68
(g84
g70
NtRp963
(dp964
g73
(dp965
sg82
g859
sg75
(lp966
g68
(g89
g70
NtRp967
(dp968
g73
(dp969
g93
g94
ssg82
g963
sg75
(lp970
g410
asbag68
(g89
g70
NtRp971
(dp972
g73
(dp973
g100
g101
ssg82
g963
sg75
(lp974
S':'
asbag68
(g89
g70
NtRp975
(dp976
g73
(dp977
sg82
g963
sg75
(lp978
g68
(g69
g70
NtRp979
(dp980
g73
(dp981
g81
I3
ssg82
g975
sg75
(lp982
S''
asbasbasbag68
(g84
g70
NtRp983
(dp984
g73
(dp985
sg82
g859
sg75
(lp986
g68
(g89
g70
NtRp987
(dp988
g73
(dp989
g93
g94
ssg82
g983
sg75
(lp990
g431
asbag68
(g89
g70
NtRp991
(dp992
g73
(dp993
g100
g101
ssg82
g983
sg75
(lp994
S':'
asbag68
(g89
g70
NtRp995
(dp996
g73
(dp997
sg82
g983
sg75
(lp998
g68
(g69
g70
NtRp999
(dp1000
g73
(dp1001
g81
I3
ssg82
g995
sg75
(lp1002
S''
asbasbasbag68
(g84
g70
NtRp1003
(dp1004
g73
(dp1005
sg82
g859
sg75
(lp1006
g68
(g89
g70
NtRp1007
(dp1008
g73
(dp1009
g93
g94
ssg82
g1003
sg75
(lp1010
g452
asbag68
(g89
g70
NtRp1011
(dp1012
g73
(dp1013
g100
g101
ssg82
g1003
sg75
(lp1014
S':'
asbag68
(g89
g70
NtRp1015
(dp1016
g73
(dp1017
sg82
g1003
sg75
(lp1018
g68
(g69
g70
NtRp1019
(dp1020
g73
(dp1021
g81
I3
ssg82
g1015
sg75
(lp1022
S''
asbasbasbasbasbasbasbag68
(g84
g70
NtRp1023
(dp1024
g73
(dp1025
sg82
g267
sg75
(lp1026
g68
(g89
g70
NtRp1027
(dp1028
g73
(dp1029
g93
g94
ssg82
g1023
sg75
(lp1030
S'language'
p1031
asbag68
(g89
g70
NtRp1032
(dp1033
g73
(dp1034
g100
g101
ssg82
g1023
sg75
(lp1035
S':'
asbag68
(g89
g70
NtRp1036
(dp1037
g73
(dp1038
sg82
g1023
sg75
(lp1039
g68
(g69
g70
NtRp1040
(dp1041
g73
(dp1042
g81
I4
ssg82
g1036
sg75
(lp1043
S'1'
ag68
(g77
g70
NtRp1044
(dp1045
g73
(dp1046
g81
I3
ssg82
Nsg75
(lp1047
g68
(g84
g70
NtRp1048
(dp1049
g73
(dp1050
sg82
g1044
sg75
(lp1051
g68
(g89
g70
NtRp1052
(dp1053
g73
(dp1054
g93
g94
ssg82
g1048
sg75
(lp1055
g305
asbag68
(g89
g70
NtRp1056
(dp1057
g73
(dp1058
g100
g101
ssg82
g1048
sg75
(lp1059
S':'
asbag68
(g89
g70
NtRp1060
(dp1061
g73
(dp1062
sg82
g1048
sg75
(lp1063
g68
(g69
g70
NtRp1064
(dp1065
g73
(dp1066
g81
I3
ssg82
g1060
sg75
(lp1067
S''
asbasbasbag68
(g84
g70
NtRp1068
(dp1069
g73
(dp1070
sg82
g1044
sg75
(lp1071
g68
(g89
g70
NtRp1072
(dp1073
g73
(dp1074
g93
g94
ssg82
g1068
sg75
(lp1075
g326
asbag68
(g89
g70
NtRp1076
(dp1077
g73
(dp1078
g100
g101
ssg82
g1068
sg75
(lp1079
S':'
asbag68
(g89
g70
NtRp1080
(dp1081
g73
(dp1082
sg82
g1068
sg75
(lp1083
g68
(g69
g70
NtRp1084
(dp1085
g73
(dp1086
g81
I3
ssg82
g1080
sg75
(lp1087
S''
asbasbasbag68
(g84
g70
NtRp1088
(dp1089
g73
(dp1090
sg82
g1044
sg75
(lp1091
g68
(g89
g70
NtRp1092
(dp1093
g73
(dp1094
g93
g94
ssg82
g1088
sg75
(lp1095
g347
asbag68
(g89
g70
NtRp1096
(dp1097
g73
(dp1098
g100
g101
ssg82
g1088
sg75
(lp1099
S':'
asbag68
(g89
g70
NtRp1100
(dp1101
g73
(dp1102
sg82
g1088
sg75
(lp1103
g68
(g69
g70
NtRp1104
(dp1105
g73
(dp1106
g81
I3
ssg82
g1100
sg75
(lp1107
S''
asbasbasbag68
(g84
g70
NtRp1108
(dp1109
g73
(dp1110
sg82
g1044
sg75
(lp1111
g68
(g89
g70
NtRp1112
(dp1113
g73
(dp1114
g93
g94
ssg82
g1108
sg75
(lp1115
g368
asbag68
(g89
g70
NtRp1116
(dp1117
g73
(dp1118
g100
g101
ssg82
g1108
sg75
(lp1119
S':'
asbag68
(g89
g70
NtRp1120
(dp1121
g73
(dp1122
sg82
g1108
sg75
(lp1123
g68
(g69
g70
NtRp1124
(dp1125
g73
(dp1126
g81
I3
ssg82
g1120
sg75
(lp1127
S''
asbasbasbag68
(g84
g70
NtRp1128
(dp1129
g73
(dp1130
sg82
g1044
sg75
(lp1131
g68
(g89
g70
NtRp1132
(dp1133
g73
(dp1134
g93
g94
ssg82
g1128
sg75
(lp1135
g389
asbag68
(g89
g70
NtRp1136
(dp1137
g73
(dp1138
g100
g101
ssg82
g1128
sg75
(lp1139
S':'
asbag68
(g89
g70
NtRp1140
(dp1141
g73
(dp1142
sg82
g1128
sg75
(lp1143
g68
(g69
g70
NtRp1144
(dp1145
g73
(dp1146
g81
I3
ssg82
g1140
sg75
(lp1147
S''
asbasbasbag68
(g84
g70
NtRp1148
(dp1149
g73
(dp1150
sg82
g1044
sg75
(lp1151
g68
(g89
g70
NtRp1152
(dp1153
g73
(dp1154
g93
g94
ssg82
g1148
sg75
(lp1155
g410
asbag68
(g89
g70
NtRp1156
(dp1157
g73
(dp1158
g100
g101
ssg82
g1148
sg75
(lp1159
S':'
asbag68
(g89
g70
NtRp1160
(dp1161
g73
(dp1162
sg82
g1148
sg75
(lp1163
g68
(g69
g70
NtRp1164
(dp1165
g73
(dp1166
g81
I3
ssg82
g1160
sg75
(lp1167
S''
asbasbasbag68
(g84
g70
NtRp1168
(dp1169
g73
(dp1170
sg82
g1044
sg75
(lp1171
g68
(g89
g70
NtRp1172
(dp1173
g73
(dp1174
g93
g94
ssg82
g1168
sg75
(lp1175
g431
asbag68
(g89
g70
NtRp1176
(dp1177
g73
(dp1178
g100
g101
ssg82
g1168
sg75
(lp1179
S':'
asbag68
(g89
g70
NtRp1180
(dp1181
g73
(dp1182
sg82
g1168
sg75
(lp1183
g68
(g69
g70
NtRp1184
(dp1185
g73
(dp1186
g81
I3
ssg82
g1180
sg75
(lp1187
S''
asbasbasbag68
(g84
g70
NtRp1188
(dp1189
g73
(dp1190
sg82
g1044
sg75
(lp1191
g68
(g89
g70
NtRp1192
(dp1193
g73
(dp1194
g93
g94
ssg82
g1188
sg75
(lp1195
g452
asbag68
(g89
g70
NtRp1196
(dp1197
g73
(dp1198
g100
g101
ssg82
g1188
sg75
(lp1199
S':'
asbag68
(g89
g70
NtRp1200
(dp1201
g73
(dp1202
sg82
g1188
sg75
(lp1203
g68
(g69
g70
NtRp1204
(dp1205
g73
(dp1206
g81
I3
ssg82
g1200
sg75
(lp1207
S''
asbasbasbasbasbasbasbag68
(g84
g70
NtRp1208
(dp1209
g73
(dp1210
sg82
g267
sg75
(lp1211
g68
(g89
g70
NtRp1212
(dp1213
g73
(dp1214
g93
g94
ssg82
g1208
sg75
(lp1215
S'model'
p1216
asbag68
(g89
g70
NtRp1217
(dp1218
g73
(dp1219
g100
g101
ssg82
g1208
sg75
(lp1220
S':'
asbag68
(g89
g70
NtRp1221
(dp1222
g73
(dp1223
sg82
g1208
sg75
(lp1224
g68
(g69
g70
NtRp1225
(dp1226
g73
(dp1227
g81
I4
ssg82
g1221
sg75
(lp1228
S'MX'
p1229
ag68
(g77
g70
NtRp1230
(dp1231
g73
(dp1232
g81
I3
ssg82
Nsg75
(lp1233
g68
(g84
g70
NtRp1234
(dp1235
g73
(dp1236
sg82
g1230
sg75
(lp1237
g68
(g89
g70
NtRp1238
(dp1239
g73
(dp1240
g93
g94
ssg82
g1234
sg75
(lp1241
g305
asbag68
(g89
g70
NtRp1242
(dp1243
g73
(dp1244
g100
g101
ssg82
g1234
sg75
(lp1245
S':'
asbag68
(g89
g70
NtRp1246
(dp1247
g73
(dp1248
sg82
g1234
sg75
(lp1249
g68
(g69
g70
NtRp1250
(dp1251
g73
(dp1252
g81
I3
ssg82
g1246
sg75
(lp1253
S''
asbasbasbag68
(g84
g70
NtRp1254
(dp1255
g73
(dp1256
sg82
g1230
sg75
(lp1257
g68
(g89
g70
NtRp1258
(dp1259
g73
(dp1260
g93
g94
ssg82
g1254
sg75
(lp1261
g326
asbag68
(g89
g70
NtRp1262
(dp1263
g73
(dp1264
g100
g101
ssg82
g1254
sg75
(lp1265
S':'
asbag68
(g89
g70
NtRp1266
(dp1267
g73
(dp1268
sg82
g1254
sg75
(lp1269
g68
(g69
g70
NtRp1270
(dp1271
g73
(dp1272
g81
I3
ssg82
g1266
sg75
(lp1273
S''
asbasbasbag68
(g84
g70
NtRp1274
(dp1275
g73
(dp1276
sg82
g1230
sg75
(lp1277
g68
(g89
g70
NtRp1278
(dp1279
g73
(dp1280
g93
g94
ssg82
g1274
sg75
(lp1281
g347
asbag68
(g89
g70
NtRp1282
(dp1283
g73
(dp1284
g100
g101
ssg82
g1274
sg75
(lp1285
S':'
asbag68
(g89
g70
NtRp1286
(dp1287
g73
(dp1288
sg82
g1274
sg75
(lp1289
g68
(g69
g70
NtRp1290
(dp1291
g73
(dp1292
g81
I3
ssg82
g1286
sg75
(lp1293
S''
asbasbasbag68
(g84
g70
NtRp1294
(dp1295
g73
(dp1296
sg82
g1230
sg75
(lp1297
g68
(g89
g70
NtRp1298
(dp1299
g73
(dp1300
g93
g94
ssg82
g1294
sg75
(lp1301
g368
asbag68
(g89
g70
NtRp1302
(dp1303
g73
(dp1304
g100
g101
ssg82
g1294
sg75
(lp1305
S':'
asbag68
(g89
g70
NtRp1306
(dp1307
g73
(dp1308
sg82
g1294
sg75
(lp1309
g68
(g69
g70
NtRp1310
(dp1311
g73
(dp1312
g81
I3
ssg82
g1306
sg75
(lp1313
S''
asbasbasbag68
(g84
g70
NtRp1314
(dp1315
g73
(dp1316
sg82
g1230
sg75
(lp1317
g68
(g89
g70
NtRp1318
(dp1319
g73
(dp1320
g93
g94
ssg82
g1314
sg75
(lp1321
g389
asbag68
(g89
g70
NtRp1322
(dp1323
g73
(dp1324
g100
g101
ssg82
g1314
sg75
(lp1325
S':'
asbag68
(g89
g70
NtRp1326
(dp1327
g73
(dp1328
sg82
g1314
sg75
(lp1329
g68
(g69
g70
NtRp1330
(dp1331
g73
(dp1332
g81
I3
ssg82
g1326
sg75
(lp1333
S''
asbasbasbag68
(g84
g70
NtRp1334
(dp1335
g73
(dp1336
sg82
g1230
sg75
(lp1337
g68
(g89
g70
NtRp1338
(dp1339
g73
(dp1340
g93
g94
ssg82
g1334
sg75
(lp1341
g410
asbag68
(g89
g70
NtRp1342
(dp1343
g73
(dp1344
g100
g101
ssg82
g1334
sg75
(lp1345
S':'
asbag68
(g89
g70
NtRp1346
(dp1347
g73
(dp1348
sg82
g1334
sg75
(lp1349
g68
(g69
g70
NtRp1350
(dp1351
g73
(dp1352
g81
I3
ssg82
g1346
sg75
(lp1353
S''
asbasbasbag68
(g84
g70
NtRp1354
(dp1355
g73
(dp1356
sg82
g1230
sg75
(lp1357
g68
(g89
g70
NtRp1358
(dp1359
g73
(dp1360
g93
g94
ssg82
g1354
sg75
(lp1361
g431
asbag68
(g89
g70
NtRp1362
(dp1363
g73
(dp1364
g100
g101
ssg82
g1354
sg75
(lp1365
S':'
asbag68
(g89
g70
NtRp1366
(dp1367
g73
(dp1368
sg82
g1354
sg75
(lp1369
g68
(g69
g70
NtRp1370
(dp1371
g73
(dp1372
g81
I3
ssg82
g1366
sg75
(lp1373
S''
asbasbasbag68
(g84
g70
NtRp1374
(dp1375
g73
(dp1376
sg82
g1230
sg75
(lp1377
g68
(g89
g70
NtRp1378
(dp1379
g73
(dp1380
g93
g94
ssg82
g1374
sg75
(lp1381
g452
asbag68
(g89
g70
NtRp1382
(dp1383
g73
(dp1384
g100
g101
ssg82
g1374
sg75
(lp1385
S':'
asbag68
(g89
g70
NtRp1386
(dp1387
g73
(dp1388
sg82
g1374
sg75
(lp1389
g68
(g69
g70
NtRp1390
(dp1391
g73
(dp1392
g81
I3
ssg82
g1386
sg75
(lp1393
S''
asbasbasbasbasbasbasbag68
(g84
g70
NtRp1394
(dp1395
g73
(dp1396
sg82
g267
sg75
(lp1397
g68
(g89
g70
NtRp1398
(dp1399
g73
(dp1400
g93
g94
ssg82
g1394
sg75
(lp1401
S'nr'
p1402
asbag68
(g89
g70
NtRp1403
(dp1404
g73
(dp1405
g100
g101
ssg82
g1394
sg75
(lp1406
S':'
asbag68
(g89
g70
NtRp1407
(dp1408
g73
(dp1409
sg82
g1394
sg75
(lp1410
g68
(g69
g70
NtRp1411
(dp1412
g73
(dp1413
g81
I4
ssg82
g1407
sg75
(lp1414
S'0'
ag68
(g77
g70
NtRp1415
(dp1416
g73
(dp1417
g81
I3
ssg82
Nsg75
(lp1418
g68
(g84
g70
NtRp1419
(dp1420
g73
(dp1421
sg82
g1415
sg75
(lp1422
g68
(g89
g70
NtRp1423
(dp1424
g73
(dp1425
g93
g94
ssg82
g1419
sg75
(lp1426
g305
asbag68
(g89
g70
NtRp1427
(dp1428
g73
(dp1429
g100
g101
ssg82
g1419
sg75
(lp1430
S':'
asbag68
(g89
g70
NtRp1431
(dp1432
g73
(dp1433
sg82
g1419
sg75
(lp1434
g68
(g69
g70
NtRp1435
(dp1436
g73
(dp1437
g81
I3
ssg82
g1431
sg75
(lp1438
S''
asbasbasbag68
(g84
g70
NtRp1439
(dp1440
g73
(dp1441
sg82
g1415
sg75
(lp1442
g68
(g89
g70
NtRp1443
(dp1444
g73
(dp1445
g93
g94
ssg82
g1439
sg75
(lp1446
g326
asbag68
(g89
g70
NtRp1447
(dp1448
g73
(dp1449
g100
g101
ssg82
g1439
sg75
(lp1450
S':'
asbag68
(g89
g70
NtRp1451
(dp1452
g73
(dp1453
sg82
g1439
sg75
(lp1454
g68
(g69
g70
NtRp1455
(dp1456
g73
(dp1457
g81
I3
ssg82
g1451
sg75
(lp1458
S''
asbasbasbag68
(g84
g70
NtRp1459
(dp1460
g73
(dp1461
sg82
g1415
sg75
(lp1462
g68
(g89
g70
NtRp1463
(dp1464
g73
(dp1465
g93
g94
ssg82
g1459
sg75
(lp1466
g347
asbag68
(g89
g70
NtRp1467
(dp1468
g73
(dp1469
g100
g101
ssg82
g1459
sg75
(lp1470
S':'
asbag68
(g89
g70
NtRp1471
(dp1472
g73
(dp1473
sg82
g1459
sg75
(lp1474
g68
(g69
g70
NtRp1475
(dp1476
g73
(dp1477
g81
I3
ssg82
g1471
sg75
(lp1478
S''
asbasbasbag68
(g84
g70
NtRp1479
(dp1480
g73
(dp1481
sg82
g1415
sg75
(lp1482
g68
(g89
g70
NtRp1483
(dp1484
g73
(dp1485
g93
g94
ssg82
g1479
sg75
(lp1486
g368
asbag68
(g89
g70
NtRp1487
(dp1488
g73
(dp1489
g100
g101
ssg82
g1479
sg75
(lp1490
S':'
asbag68
(g89
g70
NtRp1491
(dp1492
g73
(dp1493
sg82
g1479
sg75
(lp1494
g68
(g69
g70
NtRp1495
(dp1496
g73
(dp1497
g81
I3
ssg82
g1491
sg75
(lp1498
S''
asbasbasbag68
(g84
g70
NtRp1499
(dp1500
g73
(dp1501
sg82
g1415
sg75
(lp1502
g68
(g89
g70
NtRp1503
(dp1504
g73
(dp1505
g93
g94
ssg82
g1499
sg75
(lp1506
g389
asbag68
(g89
g70
NtRp1507
(dp1508
g73
(dp1509
g100
g101
ssg82
g1499
sg75
(lp1510
S':'
asbag68
(g89
g70
NtRp1511
(dp1512
g73
(dp1513
sg82
g1499
sg75
(lp1514
g68
(g69
g70
NtRp1515
(dp1516
g73
(dp1517
g81
I3
ssg82
g1511
sg75
(lp1518
S''
asbasbasbag68
(g84
g70
NtRp1519
(dp1520
g73
(dp1521
sg82
g1415
sg75
(lp1522
g68
(g89
g70
NtRp1523
(dp1524
g73
(dp1525
g93
g94
ssg82
g1519
sg75
(lp1526
g410
asbag68
(g89
g70
NtRp1527
(dp1528
g73
(dp1529
g100
g101
ssg82
g1519
sg75
(lp1530
S':'
asbag68
(g89
g70
NtRp1531
(dp1532
g73
(dp1533
sg82
g1519
sg75
(lp1534
g68
(g69
g70
NtRp1535
(dp1536
g73
(dp1537
g81
I3
ssg82
g1531
sg75
(lp1538
S''
asbasbasbag68
(g84
g70
NtRp1539
(dp1540
g73
(dp1541
sg82
g1415
sg75
(lp1542
g68
(g89
g70
NtRp1543
(dp1544
g73
(dp1545
g93
g94
ssg82
g1539
sg75
(lp1546
g431
asbag68
(g89
g70
NtRp1547
(dp1548
g73
(dp1549
g100
g101
ssg82
g1539
sg75
(lp1550
S':'
asbag68
(g89
g70
NtRp1551
(dp1552
g73
(dp1553
sg82
g1539
sg75
(lp1554
g68
(g69
g70
NtRp1555
(dp1556
g73
(dp1557
g81
I3
ssg82
g1551
sg75
(lp1558
S''
asbasbasbag68
(g84
g70
NtRp1559
(dp1560
g73
(dp1561
sg82
g1415
sg75
(lp1562
g68
(g89
g70
NtRp1563
(dp1564
g73
(dp1565
g93
g94
ssg82
g1559
sg75
(lp1566
g452
asbag68
(g89
g70
NtRp1567
(dp1568
g73
(dp1569
g100
g101
ssg82
g1559
sg75
(lp1570
S':'
asbag68
(g89
g70
NtRp1571
(dp1572
g73
(dp1573
sg82
g1559
sg75
(lp1574
g68
(g69
g70
NtRp1575
(dp1576
g73
(dp1577
g81
I3
ssg82
g1571
sg75
(lp1578
S''
asbasbasbasbasbasbasbag68
(g84
g70
NtRp1579
(dp1580
g73
(dp1581
sg82
g267
sg75
(lp1582
g68
(g89
g70
NtRp1583
(dp1584
g73
(dp1585
g93
g94
ssg82
g1579
sg75
(lp1586
S'session_id_admin'
p1587
asbag68
(g89
g70
NtRp1588
(dp1589
g73
(dp1590
g100
g101
ssg82
g1579
sg75
(lp1591
S':'
asbag68
(g89
g70
NtRp1592
(dp1593
g73
(dp1594
sg82
g1579
sg75
(lp1595
g68
(g69
g70
NtRp1596
(dp1597
g73
(dp1598
g81
I4
ssg82
g1592
sg75
(lp1599
S'127.0.0.1-1b245eab-7eb6-4362-8fe9-bd57be48714b'
p1600
ag68
(g77
g70
NtRp1601
(dp1602
g73
(dp1603
g81
I3
ssg82
Nsg75
(lp1604
g68
(g84
g70
NtRp1605
(dp1606
g73
(dp1607
sg82
g1601
sg75
(lp1608
g68
(g89
g70
NtRp1609
(dp1610
g73
(dp1611
g93
g94
ssg82
g1605
sg75
(lp1612
g305
asbag68
(g89
g70
NtRp1613
(dp1614
g73
(dp1615
g100
g101
ssg82
g1605
sg75
(lp1616
S':'
asbag68
(g89
g70
NtRp1617
(dp1618
g73
(dp1619
sg82
g1605
sg75
(lp1620
g68
(g69
g70
NtRp1621
(dp1622
g73
(dp1623
g81
I3
ssg82
g1617
sg75
(lp1624
S''
asbasbasbag68
(g84
g70
NtRp1625
(dp1626
g73
(dp1627
sg82
g1601
sg75
(lp1628
g68
(g89
g70
NtRp1629
(dp1630
g73
(dp1631
g93
g94
ssg82
g1625
sg75
(lp1632
g326
asbag68
(g89
g70
NtRp1633
(dp1634
g73
(dp1635
g100
g101
ssg82
g1625
sg75
(lp1636
S':'
asbag68
(g89
g70
NtRp1637
(dp1638
g73
(dp1639
sg82
g1625
sg75
(lp1640
g68
(g69
g70
NtRp1641
(dp1642
g73
(dp1643
g81
I3
ssg82
g1637
sg75
(lp1644
S''
asbasbasbag68
(g84
g70
NtRp1645
(dp1646
g73
(dp1647
sg82
g1601
sg75
(lp1648
g68
(g89
g70
NtRp1649
(dp1650
g73
(dp1651
g93
g94
ssg82
g1645
sg75
(lp1652
g347
asbag68
(g89
g70
NtRp1653
(dp1654
g73
(dp1655
g100
g101
ssg82
g1645
sg75
(lp1656
S':'
asbag68
(g89
g70
NtRp1657
(dp1658
g73
(dp1659
sg82
g1645
sg75
(lp1660
g68
(g69
g70
NtRp1661
(dp1662
g73
(dp1663
g81
I3
ssg82
g1657
sg75
(lp1664
S''
asbasbasbag68
(g84
g70
NtRp1665
(dp1666
g73
(dp1667
sg82
g1601
sg75
(lp1668
g68
(g89
g70
NtRp1669
(dp1670
g73
(dp1671
g93
g94
ssg82
g1665
sg75
(lp1672
g368
asbag68
(g89
g70
NtRp1673
(dp1674
g73
(dp1675
g100
g101
ssg82
g1665
sg75
(lp1676
S':'
asbag68
(g89
g70
NtRp1677
(dp1678
g73
(dp1679
sg82
g1665
sg75
(lp1680
g68
(g69
g70
NtRp1681
(dp1682
g73
(dp1683
g81
I3
ssg82
g1677
sg75
(lp1684
S''
asbasbasbag68
(g84
g70
NtRp1685
(dp1686
g73
(dp1687
sg82
g1601
sg75
(lp1688
g68
(g89
g70
NtRp1689
(dp1690
g73
(dp1691
g93
g94
ssg82
g1685
sg75
(lp1692
g389
asbag68
(g89
g70
NtRp1693
(dp1694
g73
(dp1695
g100
g101
ssg82
g1685
sg75
(lp1696
S':'
asbag68
(g89
g70
NtRp1697
(dp1698
g73
(dp1699
sg82
g1685
sg75
(lp1700
g68
(g69
g70
NtRp1701
(dp1702
g73
(dp1703
g81
I3
ssg82
g1697
sg75
(lp1704
S''
asbasbasbag68
(g84
g70
NtRp1705
(dp1706
g73
(dp1707
sg82
g1601
sg75
(lp1708
g68
(g89
g70
NtRp1709
(dp1710
g73
(dp1711
g93
g94
ssg82
g1705
sg75
(lp1712
g410
asbag68
(g89
g70
NtRp1713
(dp1714
g73
(dp1715
g100
g101
ssg82
g1705
sg75
(lp1716
S':'
asbag68
(g89
g70
NtRp1717
(dp1718
g73
(dp1719
sg82
g1705
sg75
(lp1720
g68
(g69
g70
NtRp1721
(dp1722
g73
(dp1723
g81
I3
ssg82
g1717
sg75
(lp1724
S''
asbasbasbag68
(g84
g70
NtRp1725
(dp1726
g73
(dp1727
sg82
g1601
sg75
(lp1728
g68
(g89
g70
NtRp1729
(dp1730
g73
(dp1731
g93
g94
ssg82
g1725
sg75
(lp1732
g431
asbag68
(g89
g70
NtRp1733
(dp1734
g73
(dp1735
g100
g101
ssg82
g1725
sg75
(lp1736
S':'
asbag68
(g89
g70
NtRp1737
(dp1738
g73
(dp1739
sg82
g1725
sg75
(lp1740
g68
(g69
g70
NtRp1741
(dp1742
g73
(dp1743
g81
I3
ssg82
g1737
sg75
(lp1744
S''
asbasbasbag68
(g84
g70
NtRp1745
(dp1746
g73
(dp1747
sg82
g1601
sg75
(lp1748
g68
(g89
g70
NtRp1749
(dp1750
g73
(dp1751
g93
g94
ssg82
g1745
sg75
(lp1752
g452
asbag68
(g89
g70
NtRp1753
(dp1754
g73
(dp1755
g100
g101
ssg82
g1745
sg75
(lp1756
S':'
asbag68
(g89
g70
NtRp1757
(dp1758
g73
(dp1759
sg82
g1745
sg75
(lp1760
g68
(g69
g70
NtRp1761
(dp1762
g73
(dp1763
g81
I3
ssg82
g1757
sg75
(lp1764
S''
asbasbasbasbasbasbasbag68
(g84
g70
NtRp1765
(dp1766
g73
(dp1767
sg82
g267
sg75
(lp1768
g68
(g89
g70
NtRp1769
(dp1770
g73
(dp1771
g93
g94
ssg82
g1765
sg75
(lp1772
S'session_id_projeto'
p1773
asbag68
(g89
g70
NtRp1774
(dp1775
g73
(dp1776
g100
g101
ssg82
g1765
sg75
(lp1777
S':'
asbag68
(g89
g70
NtRp1778
(dp1779
g73
(dp1780
sg82
g1765
sg75
(lp1781
g68
(g69
g70
NtRp1782
(dp1783
g73
(dp1784
g81
I4
ssg82
g1778
sg75
(lp1785
S'127.0.0.1-a92e0168-6f87-49ed-a239-5acc06287f24'
p1786
ag68
(g77
g70
NtRp1787
(dp1788
g73
(dp1789
g81
I3
ssg82
Nsg75
(lp1790
g68
(g84
g70
NtRp1791
(dp1792
g73
(dp1793
sg82
g1787
sg75
(lp1794
g68
(g89
g70
NtRp1795
(dp1796
g73
(dp1797
g93
g94
ssg82
g1791
sg75
(lp1798
g305
asbag68
(g89
g70
NtRp1799
(dp1800
g73
(dp1801
g100
g101
ssg82
g1791
sg75
(lp1802
S':'
asbag68
(g89
g70
NtRp1803
(dp1804
g73
(dp1805
sg82
g1791
sg75
(lp1806
g68
(g69
g70
NtRp1807
(dp1808
g73
(dp1809
g81
I3
ssg82
g1803
sg75
(lp1810
S''
asbasbasbag68
(g84
g70
NtRp1811
(dp1812
g73
(dp1813
sg82
g1787
sg75
(lp1814
g68
(g89
g70
NtRp1815
(dp1816
g73
(dp1817
g93
g94
ssg82
g1811
sg75
(lp1818
g326
asbag68
(g89
g70
NtRp1819
(dp1820
g73
(dp1821
g100
g101
ssg82
g1811
sg75
(lp1822
S':'
asbag68
(g89
g70
NtRp1823
(dp1824
g73
(dp1825
sg82
g1811
sg75
(lp1826
g68
(g69
g70
NtRp1827
(dp1828
g73
(dp1829
g81
I3
ssg82
g1823
sg75
(lp1830
S''
asbasbasbag68
(g84
g70
NtRp1831
(dp1832
g73
(dp1833
sg82
g1787
sg75
(lp1834
g68
(g89
g70
NtRp1835
(dp1836
g73
(dp1837
g93
g94
ssg82
g1831
sg75
(lp1838
g347
asbag68
(g89
g70
NtRp1839
(dp1840
g73
(dp1841
g100
g101
ssg82
g1831
sg75
(lp1842
S':'
asbag68
(g89
g70
NtRp1843
(dp1844
g73
(dp1845
sg82
g1831
sg75
(lp1846
g68
(g69
g70
NtRp1847
(dp1848
g73
(dp1849
g81
I3
ssg82
g1843
sg75
(lp1850
S''
asbasbasbag68
(g84
g70
NtRp1851
(dp1852
g73
(dp1853
sg82
g1787
sg75
(lp1854
g68
(g89
g70
NtRp1855
(dp1856
g73
(dp1857
g93
g94
ssg82
g1851
sg75
(lp1858
g368
asbag68
(g89
g70
NtRp1859
(dp1860
g73
(dp1861
g100
g101
ssg82
g1851
sg75
(lp1862
S':'
asbag68
(g89
g70
NtRp1863
(dp1864
g73
(dp1865
sg82
g1851
sg75
(lp1866
g68
(g69
g70
NtRp1867
(dp1868
g73
(dp1869
g81
I3
ssg82
g1863
sg75
(lp1870
S''
asbasbasbag68
(g84
g70
NtRp1871
(dp1872
g73
(dp1873
sg82
g1787
sg75
(lp1874
g68
(g89
g70
NtRp1875
(dp1876
g73
(dp1877
g93
g94
ssg82
g1871
sg75
(lp1878
g389
asbag68
(g89
g70
NtRp1879
(dp1880
g73
(dp1881
g100
g101
ssg82
g1871
sg75
(lp1882
S':'
asbag68
(g89
g70
NtRp1883
(dp1884
g73
(dp1885
sg82
g1871
sg75
(lp1886
g68
(g69
g70
NtRp1887
(dp1888
g73
(dp1889
g81
I3
ssg82
g1883
sg75
(lp1890
S''
asbasbasbag68
(g84
g70
NtRp1891
(dp1892
g73
(dp1893
sg82
g1787
sg75
(lp1894
g68
(g89
g70
NtRp1895
(dp1896
g73
(dp1897
g93
g94
ssg82
g1891
sg75
(lp1898
g410
asbag68
(g89
g70
NtRp1899
(dp1900
g73
(dp1901
g100
g101
ssg82
g1891
sg75
(lp1902
S':'
asbag68
(g89
g70
NtRp1903
(dp1904
g73
(dp1905
sg82
g1891
sg75
(lp1906
g68
(g69
g70
NtRp1907
(dp1908
g73
(dp1909
g81
I3
ssg82
g1903
sg75
(lp1910
S''
asbasbasbag68
(g84
g70
NtRp1911
(dp1912
g73
(dp1913
sg82
g1787
sg75
(lp1914
g68
(g89
g70
NtRp1915
(dp1916
g73
(dp1917
g93
g94
ssg82
g1911
sg75
(lp1918
g431
asbag68
(g89
g70
NtRp1919
(dp1920
g73
(dp1921
g100
g101
ssg82
g1911
sg75
(lp1922
S':'
asbag68
(g89
g70
NtRp1923
(dp1924
g73
(dp1925
sg82
g1911
sg75
(lp1926
g68
(g69
g70
NtRp1927
(dp1928
g73
(dp1929
g81
I3
ssg82
g1923
sg75
(lp1930
S''
asbasbasbag68
(g84
g70
NtRp1931
(dp1932
g73
(dp1933
sg82
g1787
sg75
(lp1934
g68
(g89
g70
NtRp1935
(dp1936
g73
(dp1937
g93
g94
ssg82
g1931
sg75
(lp1938
g452
asbag68
(g89
g70
NtRp1939
(dp1940
g73
(dp1941
g100
g101
ssg82
g1931
sg75
(lp1942
S':'
asbag68
(g89
g70
NtRp1943
(dp1944
g73
(dp1945
sg82
g1931
sg75
(lp1946
g68
(g69
g70
NtRp1947
(dp1948
g73
(dp1949
g81
I3
ssg82
g1943
sg75
(lp1950
S''
asbasbasbasbasbasbasbag68
(g84
g70
NtRp1951
(dp1952
g73
(dp1953
sg82
g267
sg75
(lp1954
g68
(g89
g70
NtRp1955
(dp1956
g73
(dp1957
g93
g94
ssg82
g1951
sg75
(lp1958
S'types'
p1959
asbag68
(g89
g70
NtRp1960
(dp1961
g73
(dp1962
g100
g101
ssg82
g1951
sg75
(lp1963
S':'
asbag68
(g89
g70
NtRp1964
(dp1965
g73
(dp1966
sg82
g1951
sg75
(lp1967
g68
(g69
g70
NtRp1968
(dp1969
g73
(dp1970
g81
I4
ssg82
g1964
sg75
(lp1971
S'Rev%201.0.1%20MX60-32S%20%20Kernel%201.0.11%20%28F%29'
p1972
ag68
(g77
g70
NtRp1973
(dp1974
g73
(dp1975
g81
I3
ssg82
Nsg75
(lp1976
g68
(g84
g70
NtRp1977
(dp1978
g73
(dp1979
sg82
g1973
sg75
(lp1980
g68
(g89
g70
NtRp1981
(dp1982
g73
(dp1983
g93
g94
ssg82
g1977
sg75
(lp1984
g305
asbag68
(g89
g70
NtRp1985
(dp1986
g73
(dp1987
g100
g101
ssg82
g1977
sg75
(lp1988
S':'
asbag68
(g89
g70
NtRp1989
(dp1990
g73
(dp1991
sg82
g1977
sg75
(lp1992
g68
(g69
g70
NtRp1993
(dp1994
g73
(dp1995
g81
I3
ssg82
g1989
sg75
(lp1996
S''
asbasbasbag68
(g84
g70
NtRp1997
(dp1998
g73
(dp1999
sg82
g1973
sg75
(lp2000
g68
(g89
g70
NtRp2001
(dp2002
g73
(dp2003
g93
g94
ssg82
g1997
sg75
(lp2004
g326
asbag68
(g89
g70
NtRp2005
(dp2006
g73
(dp2007
g100
g101
ssg82
g1997
sg75
(lp2008
S':'
asbag68
(g89
g70
NtRp2009
(dp2010
g73
(dp2011
sg82
g1997
sg75
(lp2012
g68
(g69
g70
NtRp2013
(dp2014
g73
(dp2015
g81
I3
ssg82
g2009
sg75
(lp2016
S''
asbasbasbag68
(g84
g70
NtRp2017
(dp2018
g73
(dp2019
sg82
g1973
sg75
(lp2020
g68
(g89
g70
NtRp2021
(dp2022
g73
(dp2023
g93
g94
ssg82
g2017
sg75
(lp2024
g347
asbag68
(g89
g70
NtRp2025
(dp2026
g73
(dp2027
g100
g101
ssg82
g2017
sg75
(lp2028
S':'
asbag68
(g89
g70
NtRp2029
(dp2030
g73
(dp2031
sg82
g2017
sg75
(lp2032
g68
(g69
g70
NtRp2033
(dp2034
g73
(dp2035
g81
I3
ssg82
g2029
sg75
(lp2036
S''
asbasbasbag68
(g84
g70
NtRp2037
(dp2038
g73
(dp2039
sg82
g1973
sg75
(lp2040
g68
(g89
g70
NtRp2041
(dp2042
g73
(dp2043
g93
g94
ssg82
g2037
sg75
(lp2044
g368
asbag68
(g89
g70
NtRp2045
(dp2046
g73
(dp2047
g100
g101
ssg82
g2037
sg75
(lp2048
S':'
asbag68
(g89
g70
NtRp2049
(dp2050
g73
(dp2051
sg82
g2037
sg75
(lp2052
g68
(g69
g70
NtRp2053
(dp2054
g73
(dp2055
g81
I3
ssg82
g2049
sg75
(lp2056
S''
asbasbasbag68
(g84
g70
NtRp2057
(dp2058
g73
(dp2059
sg82
g1973
sg75
(lp2060
g68
(g89
g70
NtRp2061
(dp2062
g73
(dp2063
g93
g94
ssg82
g2057
sg75
(lp2064
g389
asbag68
(g89
g70
NtRp2065
(dp2066
g73
(dp2067
g100
g101
ssg82
g2057
sg75
(lp2068
S':'
asbag68
(g89
g70
NtRp2069
(dp2070
g73
(dp2071
sg82
g2057
sg75
(lp2072
g68
(g69
g70
NtRp2073
(dp2074
g73
(dp2075
g81
I3
ssg82
g2069
sg75
(lp2076
S''
asbasbasbag68
(g84
g70
NtRp2077
(dp2078
g73
(dp2079
sg82
g1973
sg75
(lp2080
g68
(g89
g70
NtRp2081
(dp2082
g73
(dp2083
g93
g94
ssg82
g2077
sg75
(lp2084
g410
asbag68
(g89
g70
NtRp2085
(dp2086
g73
(dp2087
g100
g101
ssg82
g2077
sg75
(lp2088
S':'
asbag68
(g89
g70
NtRp2089
(dp2090
g73
(dp2091
sg82
g2077
sg75
(lp2092
g68
(g69
g70
NtRp2093
(dp2094
g73
(dp2095
g81
I3
ssg82
g2089
sg75
(lp2096
S''
asbasbasbag68
(g84
g70
NtRp2097
(dp2098
g73
(dp2099
sg82
g1973
sg75
(lp2100
g68
(g89
g70
NtRp2101
(dp2102
g73
(dp2103
g93
g94
ssg82
g2097
sg75
(lp2104
g431
asbag68
(g89
g70
NtRp2105
(dp2106
g73
(dp2107
g100
g101
ssg82
g2097
sg75
(lp2108
S':'
asbag68
(g89
g70
NtRp2109
(dp2110
g73
(dp2111
sg82
g2097
sg75
(lp2112
g68
(g69
g70
NtRp2113
(dp2114
g73
(dp2115
g81
I3
ssg82
g2109
sg75
(lp2116
S''
asbasbasbag68
(g84
g70
NtRp2117
(dp2118
g73
(dp2119
sg82
g1973
sg75
(lp2120
g68
(g89
g70
NtRp2121
(dp2122
g73
(dp2123
g93
g94
ssg82
g2117
sg75
(lp2124
g452
asbag68
(g89
g70
NtRp2125
(dp2126
g73
(dp2127
g100
g101
ssg82
g2117
sg75
(lp2128
S':'
asbag68
(g89
g70
NtRp2129
(dp2130
g73
(dp2131
sg82
g2117
sg75
(lp2132
g68
(g69
g70
NtRp2133
(dp2134
g73
(dp2135
g81
I3
ssg82
g2129
sg75
(lp2136
S''
asbasbasbasbasbasbasbasbasbasbasbag68
(g84
g70
NtRp2137
(dp2138
g73
(dp2139
sg82
g78
sg75
(lp2140
g68
(g89
g70
NtRp2141
(dp2142
g73
(dp2143
g93
g94
ssg82
g2137
sg75
(lp2144
S'env'
p2145
asbag68
(g89
g70
NtRp2146
(dp2147
g73
(dp2148
g100
g101
ssg82
g2137
sg75
(lp2149
S':'
asbag68
(g89
g70
NtRp2150
(dp2151
g73
(dp2152
sg82
g2137
sg75
(lp2153
g68
(g69
g70
NtRp2154
(dp2155
g73
(dp2156
g81
I5
ssg82
g2150
sg75
(lp2157
g68
(g77
g70
NtRp2158
(dp2159
g73
(dp2160
g81
I4
ssg82
Nsg75
(lp2161
g68
(g84
g70
NtRp2162
(dp2163
g73
(dp2164
sg82
g2158
sg75
(lp2165
g68
(g89
g70
NtRp2166
(dp2167
g73
(dp2168
g93
g94
ssg82
g2162
sg75
(lp2169
S'app_folders'
p2170
asbag68
(g89
g70
NtRp2171
(dp2172
g73
(dp2173
g100
g101
ssg82
g2162
sg75
(lp2174
S':'
asbag68
(g89
g70
NtRp2175
(dp2176
g73
(dp2177
sg82
g2162
sg75
(lp2178
g68
(g69
g70
NtRp2179
(dp2180
g73
(dp2181
g81
I4
ssg82
g2175
sg75
(lp2182
S"set(['/var/www/web2py_curso/applications/admin/', '/var/www/web2py_curso/applications/projeto/'])"
p2183
asbasbasbag68
(g84
g70
NtRp2184
(dp2185
g73
(dp2186
sg82
g2158
sg75
(lp2187
g68
(g89
g70
NtRp2188
(dp2189
g73
(dp2190
g93
g94
ssg82
g2184
sg75
(lp2191
S'applications_parent'
p2192
asbag68
(g89
g70
NtRp2193
(dp2194
g73
(dp2195
g100
g101
ssg82
g2184
sg75
(lp2196
S':'
asbag68
(g89
g70
NtRp2197
(dp2198
g73
(dp2199
sg82
g2184
sg75
(lp2200
g68
(g69
g70
NtRp2201
(dp2202
g73
(dp2203
g81
I4
ssg82
g2197
sg75
(lp2204
S'/var/www/web2py_curso'
p2205
asbasbasbag68
(g84
g70
NtRp2206
(dp2207
g73
(dp2208
sg82
g2158
sg75
(lp2209
g68
(g89
g70
NtRp2210
(dp2211
g73
(dp2212
g93
g94
ssg82
g2206
sg75
(lp2213
S'cmd_args'
p2214
asbag68
(g89
g70
NtRp2215
(dp2216
g73
(dp2217
g100
g101
ssg82
g2206
sg75
(lp2218
S':'
asbag68
(g89
g70
NtRp2219
(dp2220
g73
(dp2221
sg82
g2206
sg75
(lp2222
g68
(g69
g70
NtRp2223
(dp2224
g73
(dp2225
g81
I4
ssg82
g2219
sg75
(lp2226
g68
(g77
g70
NtRp2227
(dp2228
g73
(dp2229
g81
I3
ssg82
Nsg75
(lp2230
sbasbasbasbag68
(g84
g70
NtRp2231
(dp2232
g73
(dp2233
sg82
g2158
sg75
(lp2234
g68
(g89
g70
NtRp2235
(dp2236
g73
(dp2237
g93
g94
ssg82
g2231
sg75
(lp2238
S'cmd_options'
p2239
asbag68
(g89
g70
NtRp2240
(dp2241
g73
(dp2242
g100
g101
ssg82
g2231
sg75
(lp2243
S':'
asbag68
(g89
g70
NtRp2244
(dp2245
g73
(dp2246
sg82
g2231
sg75
(lp2247
g68
(g69
g70
NtRp2248
(dp2249
g73
(dp2250
g81
I4
ssg82
g2244
sg75
(lp2251
S"<Values at 0x17c6488: {'verbose': False, 'ip': '127.0.0.1', 'with_scheduler': False, 'ips': [], 'shutdown_timeout': 5, 'taskbar': False, 'port': 8000, 'maxthreads': None, 'softcron': False, 'server_name': 'fernado-desktop', 'bpython': False, 'nogui': False, 'pid_filename': 'httpserver.pid', 'extcron': False, 'runcron': False, 'run_system_tests': False, 'test': None, 'folder': '/var/www/web2py_curso', 'config': '', 'minthreads': None, 'winservice': '', 'shell': None, 'run': '', 'log_filename': 'httpserver.log', 'debuglevel': 30, 'args': [''], 'socket_timeout': 5, 'ssl_ca_certificate': None, 'scheduler': None, 'profiler_filename': None, 'ssl_private_key': '', 'scheduler_groups': None, 'password': '123456', 'request_queue_size': 5, 'ssl_certificate': '', 'cronjob': False, 'numthreads': None, 'quiet': False, 'interfaces': None, 'import_models': False, 'timeout': 10, 'plain': False, 'nobanner': False}>"
p2252
asbasbasbag68
(g84
g70
NtRp2253
(dp2254
g73
(dp2255
sg82
g2158
sg75
(lp2256
g68
(g89
g70
NtRp2257
(dp2258
g73
(dp2259
g93
g94
ssg82
g2253
sg75
(lp2260
S'db_sessions'
p2261
asbag68
(g89
g70
NtRp2262
(dp2263
g73
(dp2264
g100
g101
ssg82
g2253
sg75
(lp2265
S':'
asbag68
(g89
g70
NtRp2266
(dp2267
g73
(dp2268
sg82
g2253
sg75
(lp2269
g68
(g69
g70
NtRp2270
(dp2271
g73
(dp2272
g81
I4
ssg82
g2266
sg75
(lp2273
S'set([])'
p2274
asbasbasbag68
(g84
g70
NtRp2275
(dp2276
g73
(dp2277
sg82
g2158
sg75
(lp2278
g68
(g89
g70
NtRp2279
(dp2280
g73
(dp2281
g93
g94
ssg82
g2275
sg75
(lp2282
S'debugging'
p2283
asbag68
(g89
g70
NtRp2284
(dp2285
g73
(dp2286
g100
g101
ssg82
g2275
sg75
(lp2287
S':'
asbag68
(g89
g70
NtRp2288
(dp2289
g73
(dp2290
sg82
g2275
sg75
(lp2291
g68
(g69
g70
NtRp2292
(dp2293
g73
(dp2294
g81
I4
ssg82
g2288
sg75
(lp2295
g111
asbasbasbag68
(g84
g70
NtRp2296
(dp2297
g73
(dp2298
sg82
g2158
sg75
(lp2299
g68
(g89
g70
NtRp2300
(dp2301
g73
(dp2302
g93
g94
ssg82
g2296
sg75
(lp2303
S'gluon_parent'
p2304
asbag68
(g89
g70
NtRp2305
(dp2306
g73
(dp2307
g100
g101
ssg82
g2296
sg75
(lp2308
S':'
asbag68
(g89
g70
NtRp2309
(dp2310
g73
(dp2311
sg82
g2296
sg75
(lp2312
g68
(g69
g70
NtRp2313
(dp2314
g73
(dp2315
g81
I4
ssg82
g2309
sg75
(lp2316
S'/var/www/web2py_curso'
p2317
asbasbasbag68
(g84
g70
NtRp2318
(dp2319
g73
(dp2320
sg82
g2158
sg75
(lp2321
g68
(g89
g70
NtRp2322
(dp2323
g73
(dp2324
g93
g94
ssg82
g2318
sg75
(lp2325
S'http_accept'
p2326
asbag68
(g89
g70
NtRp2327
(dp2328
g73
(dp2329
g100
g101
ssg82
g2318
sg75
(lp2330
S':'
asbag68
(g89
g70
NtRp2331
(dp2332
g73
(dp2333
sg82
g2318
sg75
(lp2334
g68
(g69
g70
NtRp2335
(dp2336
g73
(dp2337
g81
I4
ssg82
g2331
sg75
(lp2338
S'text/html,application/xhtml+xml,application/xml;q=0.9,*/*;q=0.8'
p2339
asbasbasbag68
(g84
g70
NtRp2340
(dp2341
g73
(dp2342
sg82
g2158
sg75
(lp2343
g68
(g89
g70
NtRp2344
(dp2345
g73
(dp2346
g93
g94
ssg82
g2340
sg75
(lp2347
S'http_accept_charset'
p2348
asbag68
(g89
g70
NtRp2349
(dp2350
g73
(dp2351
g100
g101
ssg82
g2340
sg75
(lp2352
S':'
asbag68
(g89
g70
NtRp2353
(dp2354
g73
(dp2355
sg82
g2340
sg75
(lp2356
g68
(g69
g70
NtRp2357
(dp2358
g73
(dp2359
g81
I4
ssg82
g2353
sg75
(lp2360
S'ISO-8859-1,utf-8;q=0.7,*;q=0.3'
p2361
asbasbasbag68
(g84
g70
NtRp2362
(dp2363
g73
(dp2364
sg82
g2158
sg75
(lp2365
g68
(g89
g70
NtRp2366
(dp2367
g73
(dp2368
g93
g94
ssg82
g2362
sg75
(lp2369
S'http_accept_encoding'
p2370
asbag68
(g89
g70
NtRp2371
(dp2372
g73
(dp2373
g100
g101
ssg82
g2362
sg75
(lp2374
S':'
asbag68
(g89
g70
NtRp2375
(dp2376
g73
(dp2377
sg82
g2362
sg75
(lp2378
g68
(g69
g70
NtRp2379
(dp2380
g73
(dp2381
g81
I4
ssg82
g2375
sg75
(lp2382
S'gzip,deflate,sdch'
p2383
asbasbasbag68
(g84
g70
NtRp2384
(dp2385
g73
(dp2386
sg82
g2158
sg75
(lp2387
g68
(g89
g70
NtRp2388
(dp2389
g73
(dp2390
g93
g94
ssg82
g2384
sg75
(lp2391
S'http_accept_language'
p2392
asbag68
(g89
g70
NtRp2393
(dp2394
g73
(dp2395
g100
g101
ssg82
g2384
sg75
(lp2396
S':'
asbag68
(g89
g70
NtRp2397
(dp2398
g73
(dp2399
sg82
g2384
sg75
(lp2400
g68
(g69
g70
NtRp2401
(dp2402
g73
(dp2403
g81
I4
ssg82
g2397
sg75
(lp2404
S'pt-BR,pt;q=0.8,en-US;q=0.6,en;q=0.4'
p2405
asbasbasbag68
(g84
g70
NtRp2406
(dp2407
g73
(dp2408
sg82
g2158
sg75
(lp2409
g68
(g89
g70
NtRp2410
(dp2411
g73
(dp2412
g93
g94
ssg82
g2406
sg75
(lp2413
S'http_cache_control'
p2414
asbag68
(g89
g70
NtRp2415
(dp2416
g73
(dp2417
g100
g101
ssg82
g2406
sg75
(lp2418
S':'
asbag68
(g89
g70
NtRp2419
(dp2420
g73
(dp2421
sg82
g2406
sg75
(lp2422
g68
(g69
g70
NtRp2423
(dp2424
g73
(dp2425
g81
I4
ssg82
g2419
sg75
(lp2426
S'max-age=0'
p2427
asbasbasbag68
(g84
g70
NtRp2428
(dp2429
g73
(dp2430
sg82
g2158
sg75
(lp2431
g68
(g89
g70
NtRp2432
(dp2433
g73
(dp2434
g93
g94
ssg82
g2428
sg75
(lp2435
S'http_connection'
p2436
asbag68
(g89
g70
NtRp2437
(dp2438
g73
(dp2439
g100
g101
ssg82
g2428
sg75
(lp2440
S':'
asbag68
(g89
g70
NtRp2441
(dp2442
g73
(dp2443
sg82
g2428
sg75
(lp2444
g68
(g69
g70
NtRp2445
(dp2446
g73
(dp2447
g81
I4
ssg82
g2441
sg75
(lp2448
S'keep-alive'
p2449
asbasbasbag68
(g84
g70
NtRp2450
(dp2451
g73
(dp2452
sg82
g2158
sg75
(lp2453
g68
(g89
g70
NtRp2454
(dp2455
g73
(dp2456
g93
g94
ssg82
g2450
sg75
(lp2457
S'http_cookie'
p2458
asbag68
(g89
g70
NtRp2459
(dp2460
g73
(dp2461
g100
g101
ssg82
g2450
sg75
(lp2462
S':'
asbag68
(g89
g70
NtRp2463
(dp2464
g73
(dp2465
sg82
g2450
sg75
(lp2466
g68
(g69
g70
NtRp2467
(dp2468
g73
(dp2469
g81
I4
ssg82
g2463
sg75
(lp2470
S'hw_type=MX60; hw_version=Rev%201.9.82.316; types=Rev%201.0.1%20MX60-32S%20%20Kernel%201.0.11%20%28F%29; language=1; admin=admin; cookie=1649423593; nr=0; model=MX; session_id_admin=127.0.0.1-1b245eab-7eb6-4362-8fe9-bd57be48714b; session_id_projeto=127.0.0.1-a92e0168-6f87-49ed-a239-5acc06287f24'
p2471
asbasbasbag68
(g84
g70
NtRp2472
(dp2473
g73
(dp2474
sg82
g2158
sg75
(lp2475
g68
(g89
g70
NtRp2476
(dp2477
g73
(dp2478
g93
g94
ssg82
g2472
sg75
(lp2479
S'http_host'
p2480
asbag68
(g89
g70
NtRp2481
(dp2482
g73
(dp2483
g100
g101
ssg82
g2472
sg75
(lp2484
S':'
asbag68
(g89
g70
NtRp2485
(dp2486
g73
(dp2487
sg82
g2472
sg75
(lp2488
g68
(g69
g70
NtRp2489
(dp2490
g73
(dp2491
g81
I4
ssg82
g2485
sg75
(lp2492
S'127.0.0.1:8000'
p2493
asbasbasbag68
(g84
g70
NtRp2494
(dp2495
g73
(dp2496
sg82
g2158
sg75
(lp2497
g68
(g89
g70
NtRp2498
(dp2499
g73
(dp2500
g93
g94
ssg82
g2494
sg75
(lp2501
S'http_user_agent'
p2502
asbag68
(g89
g70
NtRp2503
(dp2504
g73
(dp2505
g100
g101
ssg82
g2494
sg75
(lp2506
S':'
asbag68
(g89
g70
NtRp2507
(dp2508
g73
(dp2509
sg82
g2494
sg75
(lp2510
g68
(g69
g70
NtRp2511
(dp2512
g73
(dp2513
g81
I4
ssg82
g2507
sg75
(lp2514
S'Mozilla/5.0 (X11; Linux x86_64) AppleWebKit/537.4 (KHTML, like Gecko) Ubuntu/12.10 Chromium/22.0.1229.94 Chrome/22.0.1229.94 Safari/537.4'
p2515
asbasbasbag68
(g84
g70
NtRp2516
(dp2517
g73
(dp2518
sg82
g2158
sg75
(lp2519
g68
(g89
g70
NtRp2520
(dp2521
g73
(dp2522
g93
g94
ssg82
g2516
sg75
(lp2523
S'is_jython'
p2524
asbag68
(g89
g70
NtRp2525
(dp2526
g73
(dp2527
g100
g101
ssg82
g2516
sg75
(lp2528
S':'
asbag68
(g89
g70
NtRp2529
(dp2530
g73
(dp2531
sg82
g2516
sg75
(lp2532
g68
(g69
g70
NtRp2533
(dp2534
g73
(dp2535
g81
I4
ssg82
g2529
sg75
(lp2536
g111
asbasbasbag68
(g84
g70
NtRp2537
(dp2538
g73
(dp2539
sg82
g2158
sg75
(lp2540
g68
(g89
g70
NtRp2541
(dp2542
g73
(dp2543
g93
g94
ssg82
g2537
sg75
(lp2544
S'is_pypy'
p2545
asbag68
(g89
g70
NtRp2546
(dp2547
g73
(dp2548
g100
g101
ssg82
g2537
sg75
(lp2549
S':'
asbag68
(g89
g70
NtRp2550
(dp2551
g73
(dp2552
sg82
g2537
sg75
(lp2553
g68
(g69
g70
NtRp2554
(dp2555
g73
(dp2556
g81
I4
ssg82
g2550
sg75
(lp2557
g111
asbasbasbag68
(g84
g70
NtRp2558
(dp2559
g73
(dp2560
sg82
g2158
sg75
(lp2561
g68
(g89
g70
NtRp2562
(dp2563
g73
(dp2564
g93
g94
ssg82
g2558
sg75
(lp2565
S'local_hosts'
p2566
asbag68
(g89
g70
NtRp2567
(dp2568
g73
(dp2569
g100
g101
ssg82
g2558
sg75
(lp2570
S':'
asbag68
(g89
g70
NtRp2571
(dp2572
g73
(dp2573
sg82
g2558
sg75
(lp2574
g68
(g69
g70
NtRp2575
(dp2576
g73
(dp2577
g81
I4
ssg82
g2571
sg75
(lp2578
g68
(g77
g70
NtRp2579
(dp2580
g73
(dp2581
g81
I3
ssg82
Nsg75
(lp2582
g68
(g84
g70
NtRp2583
(dp2584
g73
(dp2585
sg82
g2579
sg75
(lp2586
g68
(g89
g70
NtRp2587
(dp2588
g73
(dp2589
sg82
g2583
sg75
(lp2590
g68
(g69
g70
NtRp2591
(dp2592
g73
(dp2593
g81
I3
ssg82
g2587
sg75
(lp2594
S'127.0.1.1'
p2595
asbasbasbag68
(g84
g70
NtRp2596
(dp2597
g73
(dp2598
sg82
g2579
sg75
(lp2599
g68
(g89
g70
NtRp2600
(dp2601
g73
(dp2602
sg82
g2596
sg75
(lp2603
g68
(g69
g70
NtRp2604
(dp2605
g73
(dp2606
g81
I3
ssg82
g2600
sg75
(lp2607
S'::1'
p2608
asbasbasbag68
(g84
g70
NtRp2609
(dp2610
g73
(dp2611
sg82
g2579
sg75
(lp2612
g68
(g89
g70
NtRp2613
(dp2614
g73
(dp2615
sg82
g2609
sg75
(lp2616
g68
(g69
g70
NtRp2617
(dp2618
g73
(dp2619
g81
I3
ssg82
g2613
sg75
(lp2620
S'fernado-desktop'
p2621
asbasbasbag68
(g84
g70
NtRp2622
(dp2623
g73
(dp2624
sg82
g2579
sg75
(lp2625
g68
(g89
g70
NtRp2626
(dp2627
g73
(dp2628
sg82
g2622
sg75
(lp2629
g68
(g69
g70
NtRp2630
(dp2631
g73
(dp2632
g81
I3
ssg82
g2626
sg75
(lp2633
S'::ffff:127.0.0.1'
p2634
asbasbasbag68
(g84
g70
NtRp2635
(dp2636
g73
(dp2637
sg82
g2579
sg75
(lp2638
g68
(g89
g70
NtRp2639
(dp2640
g73
(dp2641
sg82
g2635
sg75
(lp2642
g68
(g69
g70
NtRp2643
(dp2644
g73
(dp2645
g81
I3
ssg82
g2639
sg75
(lp2646
S'127.0.0.1'
p2647
asbasbasbasbasbasbasbag68
(g84
g70
NtRp2648
(dp2649
g73
(dp2650
sg82
g2158
sg75
(lp2651
g68
(g89
g70
NtRp2652
(dp2653
g73
(dp2654
g93
g94
ssg82
g2648
sg75
(lp2655
S'path_info'
p2656
asbag68
(g89
g70
NtRp2657
(dp2658
g73
(dp2659
g100
g101
ssg82
g2648
sg75
(lp2660
S':'
asbag68
(g89
g70
NtRp2661
(dp2662
g73
(dp2663
sg82
g2648
sg75
(lp2664
g68
(g69
g70
NtRp2665
(dp2666
g73
(dp2667
g81
I4
ssg82
g2661
sg75
(lp2668
S'/'
asbasbasbag68
(g84
g70
NtRp2669
(dp2670
g73
(dp2671
sg82
g2158
sg75
(lp2672
g68
(g89
g70
NtRp2673
(dp2674
g73
(dp2675
g93
g94
ssg82
g2669
sg75
(lp2676
S'query_string'
p2677
asbag68
(g89
g70
NtRp2678
(dp2679
g73
(dp2680
g100
g101
ssg82
g2669
sg75
(lp2681
S':'
asbag68
(g89
g70
NtRp2682
(dp2683
g73
(dp2684
sg82
g2669
sg75
(lp2685
g68
(g69
g70
NtRp2686
(dp2687
g73
(dp2688
g81
I4
ssg82
g2682
sg75
(lp2689
S''
asbasbasbag68
(g84
g70
NtRp2690
(dp2691
g73
(dp2692
sg82
g2158
sg75
(lp2693
g68
(g89
g70
NtRp2694
(dp2695
g73
(dp2696
g93
g94
ssg82
g2690
sg75
(lp2697
S'remote_addr'
p2698
asbag68
(g89
g70
NtRp2699
(dp2700
g73
(dp2701
g100
g101
ssg82
g2690
sg75
(lp2702
S':'
asbag68
(g89
g70
NtRp2703
(dp2704
g73
(dp2705
sg82
g2690
sg75
(lp2706
g68
(g69
g70
NtRp2707
(dp2708
g73
(dp2709
g81
I4
ssg82
g2703
sg75
(lp2710
g223
asbasbasbag68
(g84
g70
NtRp2711
(dp2712
g73
(dp2713
sg82
g2158
sg75
(lp2714
g68
(g89
g70
NtRp2715
(dp2716
g73
(dp2717
g93
g94
ssg82
g2711
sg75
(lp2718
S'remote_port'
p2719
asbag68
(g89
g70
NtRp2720
(dp2721
g73
(dp2722
g100
g101
ssg82
g2711
sg75
(lp2723
S':'
asbag68
(g89
g70
NtRp2724
(dp2725
g73
(dp2726
sg82
g2711
sg75
(lp2727
g68
(g69
g70
NtRp2728
(dp2729
g73
(dp2730
g81
I4
ssg82
g2724
sg75
(lp2731
S'36670'
p2732
asbasbasbag68
(g84
g70
NtRp2733
(dp2734
g73
(dp2735
sg82
g2158
sg75
(lp2736
g68
(g89
g70
NtRp2737
(dp2738
g73
(dp2739
g93
g94
ssg82
g2733
sg75
(lp2740
S'request_method'
p2741
asbag68
(g89
g70
NtRp2742
(dp2743
g73
(dp2744
g100
g101
ssg82
g2733
sg75
(lp2745
S':'
asbag68
(g89
g70
NtRp2746
(dp2747
g73
(dp2748
sg82
g2733
sg75
(lp2749
g68
(g69
g70
NtRp2750
(dp2751
g73
(dp2752
g81
I4
ssg82
g2746
sg75
(lp2753
S'GET'
p2754
asbasbasbag68
(g84
g70
NtRp2755
(dp2756
g73
(dp2757
sg82
g2158
sg75
(lp2758
g68
(g89
g70
NtRp2759
(dp2760
g73
(dp2761
g93
g94
ssg82
g2755
sg75
(lp2762
S'request_uri'
p2763
asbag68
(g89
g70
NtRp2764
(dp2765
g73
(dp2766
g100
g101
ssg82
g2755
sg75
(lp2767
S':'
asbag68
(g89
g70
NtRp2768
(dp2769
g73
(dp2770
sg82
g2755
sg75
(lp2771
g68
(g69
g70
NtRp2772
(dp2773
g73
(dp2774
g81
I4
ssg82
g2768
sg75
(lp2775
S'/projeto/initial/home'
p2776
asbasbasbag68
(g84
g70
NtRp2777
(dp2778
g73
(dp2779
sg82
g2158
sg75
(lp2780
g68
(g89
g70
NtRp2781
(dp2782
g73
(dp2783
g93
g94
ssg82
g2777
sg75
(lp2784
S'script_name'
p2785
asbag68
(g89
g70
NtRp2786
(dp2787
g73
(dp2788
g100
g101
ssg82
g2777
sg75
(lp2789
S':'
asbag68
(g89
g70
NtRp2790
(dp2791
g73
(dp2792
sg82
g2777
sg75
(lp2793
g68
(g69
g70
NtRp2794
(dp2795
g73
(dp2796
g81
I4
ssg82
g2790
sg75
(lp2797
S''
asbasbasbag68
(g84
g70
NtRp2798
(dp2799
g73
(dp2800
sg82
g2158
sg75
(lp2801
g68
(g89
g70
NtRp2802
(dp2803
g73
(dp2804
g93
g94
ssg82
g2798
sg75
(lp2805
S'server_name'
p2806
asbag68
(g89
g70
NtRp2807
(dp2808
g73
(dp2809
g100
g101
ssg82
g2798
sg75
(lp2810
S':'
asbag68
(g89
g70
NtRp2811
(dp2812
g73
(dp2813
sg82
g2798
sg75
(lp2814
g68
(g69
g70
NtRp2815
(dp2816
g73
(dp2817
g81
I4
ssg82
g2811
sg75
(lp2818
S'fernado-desktop'
p2819
asbasbasbag68
(g84
g70
NtRp2820
(dp2821
g73
(dp2822
sg82
g2158
sg75
(lp2823
g68
(g89
g70
NtRp2824
(dp2825
g73
(dp2826
g93
g94
ssg82
g2820
sg75
(lp2827
S'server_port'
p2828
asbag68
(g89
g70
NtRp2829
(dp2830
g73
(dp2831
g100
g101
ssg82
g2820
sg75
(lp2832
S':'
asbag68
(g89
g70
NtRp2833
(dp2834
g73
(dp2835
sg82
g2820
sg75
(lp2836
g68
(g69
g70
NtRp2837
(dp2838
g73
(dp2839
g81
I4
ssg82
g2833
sg75
(lp2840
S'8000'
p2841
asbasbasbag68
(g84
g70
NtRp2842
(dp2843
g73
(dp2844
sg82
g2158
sg75
(lp2845
g68
(g89
g70
NtRp2846
(dp2847
g73
(dp2848
g93
g94
ssg82
g2842
sg75
(lp2849
S'server_protocol'
p2850
asbag68
(g89
g70
NtRp2851
(dp2852
g73
(dp2853
g100
g101
ssg82
g2842
sg75
(lp2854
S':'
asbag68
(g89
g70
NtRp2855
(dp2856
g73
(dp2857
sg82
g2842
sg75
(lp2858
g68
(g69
g70
NtRp2859
(dp2860
g73
(dp2861
g81
I4
ssg82
g2855
sg75
(lp2862
S'HTTP/1.1'
p2863
asbasbasbag68
(g84
g70
NtRp2864
(dp2865
g73
(dp2866
sg82
g2158
sg75
(lp2867
g68
(g89
g70
NtRp2868
(dp2869
g73
(dp2870
g93
g94
ssg82
g2864
sg75
(lp2871
S'server_software'
p2872
asbag68
(g89
g70
NtRp2873
(dp2874
g73
(dp2875
g100
g101
ssg82
g2864
sg75
(lp2876
S':'
asbag68
(g89
g70
NtRp2877
(dp2878
g73
(dp2879
sg82
g2864
sg75
(lp2880
g68
(g69
g70
NtRp2881
(dp2882
g73
(dp2883
g81
I4
ssg82
g2877
sg75
(lp2884
S'Rocket 1.2.6'
p2885
asbasbasbag68
(g84
g70
NtRp2886
(dp2887
g73
(dp2888
sg82
g2158
sg75
(lp2889
g68
(g89
g70
NtRp2890
(dp2891
g73
(dp2892
g93
g94
ssg82
g2886
sg75
(lp2893
S'web2py_original_uri'
p2894
asbag68
(g89
g70
NtRp2895
(dp2896
g73
(dp2897
g100
g101
ssg82
g2886
sg75
(lp2898
S':'
asbag68
(g89
g70
NtRp2899
(dp2900
g73
(dp2901
sg82
g2886
sg75
(lp2902
g68
(g69
g70
NtRp2903
(dp2904
g73
(dp2905
g81
I4
ssg82
g2899
sg75
(lp2906
S'/'
asbasbasbag68
(g84
g70
NtRp2907
(dp2908
g73
(dp2909
sg82
g2158
sg75
(lp2910
g68
(g89
g70
NtRp2911
(dp2912
g73
(dp2913
g93
g94
ssg82
g2907
sg75
(lp2914
S'web2py_path'
p2915
asbag68
(g89
g70
NtRp2916
(dp2917
g73
(dp2918
g100
g101
ssg82
g2907
sg75
(lp2919
S':'
asbag68
(g89
g70
NtRp2920
(dp2921
g73
(dp2922
sg82
g2907
sg75
(lp2923
g68
(g69
g70
NtRp2924
(dp2925
g73
(dp2926
g81
I4
ssg82
g2920
sg75
(lp2927
g2205
asbasbasbag68
(g84
g70
NtRp2928
(dp2929
g73
(dp2930
sg82
g2158
sg75
(lp2931
g68
(g89
g70
NtRp2932
(dp2933
g73
(dp2934
g93
g94
ssg82
g2928
sg75
(lp2935
S'web2py_version'
p2936
asbag68
(g89
g70
NtRp2937
(dp2938
g73
(dp2939
g100
g101
ssg82
g2928
sg75
(lp2940
S':'
asbag68
(g89
g70
NtRp2941
(dp2942
g73
(dp2943
sg82
g2928
sg75
(lp2944
g68
(g69
g70
NtRp2945
(dp2946
g73
(dp2947
g81
I4
ssg82
g2941
sg75
(lp2948
g68
(g77
g70
NtRp2949
(dp2950
g73
(dp2951
g81
I3
ssg82
Nsg75
(lp2952
g68
(g84
g70
NtRp2953
(dp2954
g73
(dp2955
sg82
g2949
sg75
(lp2956
g68
(g89
g70
NtRp2957
(dp2958
g73
(dp2959
sg82
g2953
sg75
(lp2960
g68
(g69
g70
NtRp2961
(dp2962
g73
(dp2963
g81
I3
ssg82
g2957
sg75
(lp2964
S'2'
asbasbasbag68
(g84
g70
NtRp2965
(dp2966
g73
(dp2967
sg82
g2949
sg75
(lp2968
g68
(g89
g70
NtRp2969
(dp2970
g73
(dp2971
sg82
g2965
sg75
(lp2972
g68
(g69
g70
NtRp2973
(dp2974
g73
(dp2975
g81
I3
ssg82
g2969
sg75
(lp2976
S'3'
asbasbasbag68
(g84
g70
NtRp2977
(dp2978
g73
(dp2979
sg82
g2949
sg75
(lp2980
g68
(g89
g70
NtRp2981
(dp2982
g73
(dp2983
sg82
g2977
sg75
(lp2984
g68
(g69
g70
NtRp2985
(dp2986
g73
(dp2987
g81
I3
ssg82
g2981
sg75
(lp2988
S'2'
asbasbasbag68
(g84
g70
NtRp2989
(dp2990
g73
(dp2991
sg82
g2949
sg75
(lp2992
g68
(g89
g70
NtRp2993
(dp2994
g73
(dp2995
sg82
g2989
sg75
(lp2996
g68
(g69
g70
NtRp2997
(dp2998
g73
(dp2999
g81
I3
ssg82
g2993
sg75
(lp3000
S'datetime.datetime(2012, 12, 17, 15, 3, 30)'
p3001
asbasbasbag68
(g84
g70
NtRp3002
(dp3003
g73
(dp3004
sg82
g2949
sg75
(lp3005
g68
(g89
g70
NtRp3006
(dp3007
g73
(dp3008
sg82
g3002
sg75
(lp3009
g68
(g69
g70
NtRp3010
(dp3011
g73
(dp3012
g81
I3
ssg82
g3006
sg75
(lp3013
S'stable'
p3014
asbasbasbasbasbasbasbag68
(g84
g70
NtRp3015
(dp3016
g73
(dp3017
sg82
g2158
sg75
(lp3018
g68
(g89
g70
NtRp3019
(dp3020
g73
(dp3021
g93
g94
ssg82
g3015
sg75
(lp3022
S'wsgi_errors'
p3023
asbag68
(g89
g70
NtRp3024
(dp3025
g73
(dp3026
g100
g101
ssg82
g3015
sg75
(lp3027
S':'
asbag68
(g89
g70
NtRp3028
(dp3029
g73
(dp3030
sg82
g3015
sg75
(lp3031
g68
(g69
g70
NtRp3032
(dp3033
g73
(dp3034
g81
I4
ssg82
g3028
sg75
(lp3035
S"<open file '<stderr>', mode 'w' at 0x7feebf81f270>"
p3036
asbasbasbag68
(g84
g70
NtRp3037
(dp3038
g73
(dp3039
sg82
g2158
sg75
(lp3040
g68
(g89
g70
NtRp3041
(dp3042
g73
(dp3043
g93
g94
ssg82
g3037
sg75
(lp3044
S'wsgi_file_wrapper'
p3045
asbag68
(g89
g70
NtRp3046
(dp3047
g73
(dp3048
g100
g101
ssg82
g3037
sg75
(lp3049
S':'
asbag68
(g89
g70
NtRp3050
(dp3051
g73
(dp3052
sg82
g3037
sg75
(lp3053
g68
(g69
g70
NtRp3054
(dp3055
g73
(dp3056
g81
I4
ssg82
g3050
sg75
(lp3057
S'<class wsgiref.util.FileWrapper at 0x171aa10>'
p3058
asbasbasbag68
(g84
g70
NtRp3059
(dp3060
g73
(dp3061
sg82
g2158
sg75
(lp3062
g68
(g89
g70
NtRp3063
(dp3064
g73
(dp3065
g93
g94
ssg82
g3059
sg75
(lp3066
S'wsgi_input'
p3067
asbag68
(g89
g70
NtRp3068
(dp3069
g73
(dp3070
g100
g101
ssg82
g3059
sg75
(lp3071
S':'
asbag68
(g89
g70
NtRp3072
(dp3073
g73
(dp3074
sg82
g3059
sg75
(lp3075
g68
(g69
g70
NtRp3076
(dp3077
g73
(dp3078
g81
I4
ssg82
g3072
sg75
(lp3079
S'<socket._fileobject object at 0x7feea81e6750>'
p3080
asbasbasbag68
(g84
g70
NtRp3081
(dp3082
g73
(dp3083
sg82
g2158
sg75
(lp3084
g68
(g89
g70
NtRp3085
(dp3086
g73
(dp3087
g93
g94
ssg82
g3081
sg75
(lp3088
S'wsgi_multiprocess'
p3089
asbag68
(g89
g70
NtRp3090
(dp3091
g73
(dp3092
g100
g101
ssg82
g3081
sg75
(lp3093
S':'
asbag68
(g89
g70
NtRp3094
(dp3095
g73
(dp3096
sg82
g3081
sg75
(lp3097
g68
(g69
g70
NtRp3098
(dp3099
g73
(dp3100
g81
I4
ssg82
g3094
sg75
(lp3101
g111
asbasbasbag68
(g84
g70
NtRp3102
(dp3103
g73
(dp3104
sg82
g2158
sg75
(lp3105
g68
(g89
g70
NtRp3106
(dp3107
g73
(dp3108
g93
g94
ssg82
g3102
sg75
(lp3109
S'wsgi_multithread'
p3110
asbag68
(g89
g70
NtRp3111
(dp3112
g73
(dp3113
g100
g101
ssg82
g3102
sg75
(lp3114
S':'
asbag68
(g89
g70
NtRp3115
(dp3116
g73
(dp3117
sg82
g3102
sg75
(lp3118
g68
(g69
g70
NtRp3119
(dp3120
g73
(dp3121
g81
I4
ssg82
g3115
sg75
(lp3122
S'True'
p3123
asbasbasbag68
(g84
g70
NtRp3124
(dp3125
g73
(dp3126
sg82
g2158
sg75
(lp3127
g68
(g89
g70
NtRp3128
(dp3129
g73
(dp3130
g93
g94
ssg82
g3124
sg75
(lp3131
S'wsgi_run_once'
p3132
asbag68
(g89
g70
NtRp3133
(dp3134
g73
(dp3135
g100
g101
ssg82
g3124
sg75
(lp3136
S':'
asbag68
(g89
g70
NtRp3137
(dp3138
g73
(dp3139
sg82
g3124
sg75
(lp3140
g68
(g69
g70
NtRp3141
(dp3142
g73
(dp3143
g81
I4
ssg82
g3137
sg75
(lp3144
g111
asbasbasbag68
(g84
g70
NtRp3145
(dp3146
g73
(dp3147
sg82
g2158
sg75
(lp3148
g68
(g89
g70
NtRp3149
(dp3150
g73
(dp3151
g93
g94
ssg82
g3145
sg75
(lp3152
S'wsgi_url_scheme'
p3153
asbag68
(g89
g70
NtRp3154
(dp3155
g73
(dp3156
g100
g101
ssg82
g3145
sg75
(lp3157
S':'
asbag68
(g89
g70
NtRp3158
(dp3159
g73
(dp3160
sg82
g3145
sg75
(lp3161
g68
(g69
g70
NtRp3162
(dp3163
g73
(dp3164
g81
I4
ssg82
g3158
sg75
(lp3165
S'http'
p3166
asbasbasbag68
(g84
g70
NtRp3167
(dp3168
g73
(dp3169
sg82
g2158
sg75
(lp3170
g68
(g89
g70
NtRp3171
(dp3172
g73
(dp3173
g93
g94
ssg82
g3167
sg75
(lp3174
S'wsgi_version'
p3175
asbag68
(g89
g70
NtRp3176
(dp3177
g73
(dp3178
g100
g101
ssg82
g3167
sg75
(lp3179
S':'
asbag68
(g89
g70
NtRp3180
(dp3181
g73
(dp3182
sg82
g3167
sg75
(lp3183
g68
(g69
g70
NtRp3184
(dp3185
g73
(dp3186
g81
I4
ssg82
g3180
sg75
(lp3187
g68
(g77
g70
NtRp3188
(dp3189
g73
(dp3190
g81
I3
ssg82
Nsg75
(lp3191
g68
(g84
g70
NtRp3192
(dp3193
g73
(dp3194
sg82
g3188
sg75
(lp3195
g68
(g89
g70
NtRp3196
(dp3197
g73
(dp3198
sg82
g3192
sg75
(lp3199
g68
(g69
g70
NtRp3200
(dp3201
g73
(dp3202
g81
I3
ssg82
g3196
sg75
(lp3203
S'1'
asbasbasbag68
(g84
g70
NtRp3204
(dp3205
g73
(dp3206
sg82
g3188
sg75
(lp3207
g68
(g89
g70
NtRp3208
(dp3209
g73
(dp3210
sg82
g3204
sg75
(lp3211
g68
(g69
g70
NtRp3212
(dp3213
g73
(dp3214
g81
I3
ssg82
g3208
sg75
(lp3215
S'0'
asbasbasbasbasbasbasbasbasbasbasbag68
(g84
g70
NtRp3216
(dp3217
g73
(dp3218
sg82
g78
sg75
(lp3219
g68
(g89
g70
NtRp3220
(dp3221
g73
(dp3222
g93
g94
ssg82
g3216
sg75
(lp3223
S'extension'
p3224
asbag68
(g89
g70
NtRp3225
(dp3226
g73
(dp3227
g100
g101
ssg82
g3216
sg75
(lp3228
S':'
asbag68
(g89
g70
NtRp3229
(dp3230
g73
(dp3231
sg82
g3216
sg75
(lp3232
g68
(g69
g70
NtRp3233
(dp3234
g73
(dp3235
g81
I5
ssg82
g3229
sg75
(lp3236
S'html'
p3237
asbasbasbag68
(g84
g70
NtRp3238
(dp3239
g73
(dp3240
sg82
g78
sg75
(lp3241
g68
(g89
g70
NtRp3242
(dp3243
g73
(dp3244
g93
g94
ssg82
g3238
sg75
(lp3245
S'folder'
p3246
asbag68
(g89
g70
NtRp3247
(dp3248
g73
(dp3249
g100
g101
ssg82
g3238
sg75
(lp3250
S':'
asbag68
(g89
g70
NtRp3251
(dp3252
g73
(dp3253
sg82
g3238
sg75
(lp3254
g68
(g69
g70
NtRp3255
(dp3256
g73
(dp3257
g81
I5
ssg82
g3251
sg75
(lp3258
S'/var/www/web2py_curso/applications/projeto/'
p3259
asbasbasbag68
(g84
g70
NtRp3260
(dp3261
g73
(dp3262
sg82
g78
sg75
(lp3263
g68
(g89
g70
NtRp3264
(dp3265
g73
(dp3266
g93
g94
ssg82
g3260
sg75
(lp3267
S'function'
p3268
asbag68
(g89
g70
NtRp3269
(dp3270
g73
(dp3271
g100
g101
ssg82
g3260
sg75
(lp3272
S':'
asbag68
(g89
g70
NtRp3273
(dp3274
g73
(dp3275
sg82
g3260
sg75
(lp3276
g68
(g69
g70
NtRp3277
(dp3278
g73
(dp3279
g81
I5
ssg82
g3273
sg75
(lp3280
S'home'
p3281
asbasbasbag68
(g84
g70
NtRp3282
(dp3283
g73
(dp3284
sg82
g78
sg75
(lp3285
g68
(g89
g70
NtRp3286
(dp3287
g73
(dp3288
g93
g94
ssg82
g3282
sg75
(lp3289
S'get_vars'
p3290
asbag68
(g89
g70
NtRp3291
(dp3292
g73
(dp3293
g100
g101
ssg82
g3282
sg75
(lp3294
S':'
asbag68
(g89
g70
NtRp3295
(dp3296
g73
(dp3297
sg82
g3282
sg75
(lp3298
g68
(g69
g70
NtRp3299
(dp3300
g73
(dp3301
g81
I5
ssg82
g3295
sg75
(lp3302
g68
(g77
g70
NtRp3303
(dp3304
g73
(dp3305
g81
I4
ssg82
Nsg75
(lp3306
sbasbasbasbag68
(g84
g70
NtRp3307
(dp3308
g73
(dp3309
sg82
g78
sg75
(lp3310
g68
(g89
g70
NtRp3311
(dp3312
g73
(dp3313
g93
g94
ssg82
g3307
sg75
(lp3314
S'global_settings'
p3315
asbag68
(g89
g70
NtRp3316
(dp3317
g73
(dp3318
g100
g101
ssg82
g3307
sg75
(lp3319
S':'
asbag68
(g89
g70
NtRp3320
(dp3321
g73
(dp3322
sg82
g3307
sg75
(lp3323
g68
(g69
g70
NtRp3324
(dp3325
g73
(dp3326
g81
I5
ssg82
g3320
sg75
(lp3327
g68
(g77
g70
NtRp3328
(dp3329
g73
(dp3330
g81
I4
ssg82
Nsg75
(lp3331
g68
(g84
g70
NtRp3332
(dp3333
g73
(dp3334
sg82
g3328
sg75
(lp3335
g68
(g89
g70
NtRp3336
(dp3337
g73
(dp3338
g93
g94
ssg82
g3332
sg75
(lp3339
g2170
asbag68
(g89
g70
NtRp3340
(dp3341
g73
(dp3342
g100
g101
ssg82
g3332
sg75
(lp3343
S':'
asbag68
(g89
g70
NtRp3344
(dp3345
g73
(dp3346
sg82
g3332
sg75
(lp3347
g68
(g69
g70
NtRp3348
(dp3349
g73
(dp3350
g81
I4
ssg82
g3344
sg75
(lp3351
S"set(['/var/www/web2py_curso/applications/admin/', '/var/www/web2py_curso/applications/projeto/'])"
p3352
asbasbasbag68
(g84
g70
NtRp3353
(dp3354
g73
(dp3355
sg82
g3328
sg75
(lp3356
g68
(g89
g70
NtRp3357
(dp3358
g73
(dp3359
g93
g94
ssg82
g3353
sg75
(lp3360
g2192
asbag68
(g89
g70
NtRp3361
(dp3362
g73
(dp3363
g100
g101
ssg82
g3353
sg75
(lp3364
S':'
asbag68
(g89
g70
NtRp3365
(dp3366
g73
(dp3367
sg82
g3353
sg75
(lp3368
g68
(g69
g70
NtRp3369
(dp3370
g73
(dp3371
g81
I4
ssg82
g3365
sg75
(lp3372
g2205
asbasbasbag68
(g84
g70
NtRp3373
(dp3374
g73
(dp3375
sg82
g3328
sg75
(lp3376
g68
(g89
g70
NtRp3377
(dp3378
g73
(dp3379
g93
g94
ssg82
g3373
sg75
(lp3380
g2214
asbag68
(g89
g70
NtRp3381
(dp3382
g73
(dp3383
g100
g101
ssg82
g3373
sg75
(lp3384
S':'
asbag68
(g89
g70
NtRp3385
(dp3386
g73
(dp3387
sg82
g3373
sg75
(lp3388
g68
(g69
g70
NtRp3389
(dp3390
g73
(dp3391
g81
I4
ssg82
g3385
sg75
(lp3392
g68
(g77
g70
NtRp3393
(dp3394
g73
(dp3395
g81
I3
ssg82
Nsg75
(lp3396
sbasbasbasbag68
(g84
g70
NtRp3397
(dp3398
g73
(dp3399
sg82
g3328
sg75
(lp3400
g68
(g89
g70
NtRp3401
(dp3402
g73
(dp3403
g93
g94
ssg82
g3397
sg75
(lp3404
g2239
asbag68
(g89
g70
NtRp3405
(dp3406
g73
(dp3407
g100
g101
ssg82
g3397
sg75
(lp3408
S':'
asbag68
(g89
g70
NtRp3409
(dp3410
g73
(dp3411
sg82
g3397
sg75
(lp3412
g68
(g69
g70
NtRp3413
(dp3414
g73
(dp3415
g81
I4
ssg82
g3409
sg75
(lp3416
S"<Values at 0x17c6488: {'verbose': False, 'ip': '127.0.0.1', 'with_scheduler': False, 'ips': [], 'shutdown_timeout': 5, 'taskbar': False, 'port': 8000, 'maxthreads': None, 'softcron': False, 'server_name': 'fernado-desktop', 'bpython': False, 'nogui': False, 'pid_filename': 'httpserver.pid', 'extcron': False, 'runcron': False, 'run_system_tests': False, 'test': None, 'folder': '/var/www/web2py_curso', 'config': '', 'minthreads': None, 'winservice': '', 'shell': None, 'run': '', 'log_filename': 'httpserver.log', 'debuglevel': 30, 'args': [''], 'socket_timeout': 5, 'ssl_ca_certificate': None, 'scheduler': None, 'profiler_filename': None, 'ssl_private_key': '', 'scheduler_groups': None, 'password': '123456', 'request_queue_size': 5, 'ssl_certificate': '', 'cronjob': False, 'numthreads': None, 'quiet': False, 'interfaces': None, 'import_models': False, 'timeout': 10, 'plain': False, 'nobanner': False}>"
p3417
asbasbasbag68
(g84
g70
NtRp3418
(dp3419
g73
(dp3420
sg82
g3328
sg75
(lp3421
g68
(g89
g70
NtRp3422
(dp3423
g73
(dp3424
g93
g94
ssg82
g3418
sg75
(lp3425
g2261
asbag68
(g89
g70
NtRp3426
(dp3427
g73
(dp3428
g100
g101
ssg82
g3418
sg75
(lp3429
S':'
asbag68
(g89
g70
NtRp3430
(dp3431
g73
(dp3432
sg82
g3418
sg75
(lp3433
g68
(g69
g70
NtRp3434
(dp3435
g73
(dp3436
g81
I4
ssg82
g3430
sg75
(lp3437
S'set([])'
p3438
asbasbasbag68
(g84
g70
NtRp3439
(dp3440
g73
(dp3441
sg82
g3328
sg75
(lp3442
g68
(g89
g70
NtRp3443
(dp3444
g73
(dp3445
g93
g94
ssg82
g3439
sg75
(lp3446
g2283
asbag68
(g89
g70
NtRp3447
(dp3448
g73
(dp3449
g100
g101
ssg82
g3439
sg75
(lp3450
S':'
asbag68
(g89
g70
NtRp3451
(dp3452
g73
(dp3453
sg82
g3439
sg75
(lp3454
g68
(g69
g70
NtRp3455
(dp3456
g73
(dp3457
g81
I4
ssg82
g3451
sg75
(lp3458
g111
asbasbasbag68
(g84
g70
NtRp3459
(dp3460
g73
(dp3461
sg82
g3328
sg75
(lp3462
g68
(g89
g70
NtRp3463
(dp3464
g73
(dp3465
g93
g94
ssg82
g3459
sg75
(lp3466
g2304
asbag68
(g89
g70
NtRp3467
(dp3468
g73
(dp3469
g100
g101
ssg82
g3459
sg75
(lp3470
S':'
asbag68
(g89
g70
NtRp3471
(dp3472
g73
(dp3473
sg82
g3459
sg75
(lp3474
g68
(g69
g70
NtRp3475
(dp3476
g73
(dp3477
g81
I4
ssg82
g3471
sg75
(lp3478
g2317
asbasbasbag68
(g84
g70
NtRp3479
(dp3480
g73
(dp3481
sg82
g3328
sg75
(lp3482
g68
(g89
g70
NtRp3483
(dp3484
g73
(dp3485
g93
g94
ssg82
g3479
sg75
(lp3486
g2524
asbag68
(g89
g70
NtRp3487
(dp3488
g73
(dp3489
g100
g101
ssg82
g3479
sg75
(lp3490
S':'
asbag68
(g89
g70
NtRp3491
(dp3492
g73
(dp3493
sg82
g3479
sg75
(lp3494
g68
(g69
g70
NtRp3495
(dp3496
g73
(dp3497
g81
I4
ssg82
g3491
sg75
(lp3498
g111
asbasbasbag68
(g84
g70
NtRp3499
(dp3500
g73
(dp3501
sg82
g3328
sg75
(lp3502
g68
(g89
g70
NtRp3503
(dp3504
g73
(dp3505
g93
g94
ssg82
g3499
sg75
(lp3506
g2545
asbag68
(g89
g70
NtRp3507
(dp3508
g73
(dp3509
g100
g101
ssg82
g3499
sg75
(lp3510
S':'
asbag68
(g89
g70
NtRp3511
(dp3512
g73
(dp3513
sg82
g3499
sg75
(lp3514
g68
(g69
g70
NtRp3515
(dp3516
g73
(dp3517
g81
I4
ssg82
g3511
sg75
(lp3518
g111
asbasbasbag68
(g84
g70
NtRp3519
(dp3520
g73
(dp3521
sg82
g3328
sg75
(lp3522
g68
(g89
g70
NtRp3523
(dp3524
g73
(dp3525
g93
g94
ssg82
g3519
sg75
(lp3526
g2566
asbag68
(g89
g70
NtRp3527
(dp3528
g73
(dp3529
g100
g101
ssg82
g3519
sg75
(lp3530
S':'
asbag68
(g89
g70
NtRp3531
(dp3532
g73
(dp3533
sg82
g3519
sg75
(lp3534
g68
(g69
g70
NtRp3535
(dp3536
g73
(dp3537
g81
I4
ssg82
g3531
sg75
(lp3538
g68
(g77
g70
NtRp3539
(dp3540
g73
(dp3541
g81
I3
ssg82
Nsg75
(lp3542
g68
(g84
g70
NtRp3543
(dp3544
g73
(dp3545
sg82
g3539
sg75
(lp3546
g68
(g89
g70
NtRp3547
(dp3548
g73
(dp3549
sg82
g3543
sg75
(lp3550
g68
(g69
g70
NtRp3551
(dp3552
g73
(dp3553
g81
I3
ssg82
g3547
sg75
(lp3554
g2595
asbasbasbag68
(g84
g70
NtRp3555
(dp3556
g73
(dp3557
sg82
g3539
sg75
(lp3558
g68
(g89
g70
NtRp3559
(dp3560
g73
(dp3561
sg82
g3555
sg75
(lp3562
g68
(g69
g70
NtRp3563
(dp3564
g73
(dp3565
g81
I3
ssg82
g3559
sg75
(lp3566
g2608
asbasbasbag68
(g84
g70
NtRp3567
(dp3568
g73
(dp3569
sg82
g3539
sg75
(lp3570
g68
(g89
g70
NtRp3571
(dp3572
g73
(dp3573
sg82
g3567
sg75
(lp3574
g68
(g69
g70
NtRp3575
(dp3576
g73
(dp3577
g81
I3
ssg82
g3571
sg75
(lp3578
g2621
asbasbasbag68
(g84
g70
NtRp3579
(dp3580
g73
(dp3581
sg82
g3539
sg75
(lp3582
g68
(g89
g70
NtRp3583
(dp3584
g73
(dp3585
sg82
g3579
sg75
(lp3586
g68
(g69
g70
NtRp3587
(dp3588
g73
(dp3589
g81
I3
ssg82
g3583
sg75
(lp3590
g2634
asbasbasbag68
(g84
g70
NtRp3591
(dp3592
g73
(dp3593
sg82
g3539
sg75
(lp3594
g68
(g89
g70
NtRp3595
(dp3596
g73
(dp3597
sg82
g3591
sg75
(lp3598
g68
(g69
g70
NtRp3599
(dp3600
g73
(dp3601
g81
I3
ssg82
g3595
sg75
(lp3602
g2647
asbasbasbasbasbasbasbag68
(g84
g70
NtRp3603
(dp3604
g73
(dp3605
sg82
g3328
sg75
(lp3606
g68
(g89
g70
NtRp3607
(dp3608
g73
(dp3609
g93
g94
ssg82
g3603
sg75
(lp3610
g2936
asbag68
(g89
g70
NtRp3611
(dp3612
g73
(dp3613
g100
g101
ssg82
g3603
sg75
(lp3614
S':'
asbag68
(g89
g70
NtRp3615
(dp3616
g73
(dp3617
sg82
g3603
sg75
(lp3618
g68
(g69
g70
NtRp3619
(dp3620
g73
(dp3621
g81
I4
ssg82
g3615
sg75
(lp3622
g68
(g77
g70
NtRp3623
(dp3624
g73
(dp3625
g81
I3
ssg82
Nsg75
(lp3626
g68
(g84
g70
NtRp3627
(dp3628
g73
(dp3629
sg82
g3623
sg75
(lp3630
g68
(g89
g70
NtRp3631
(dp3632
g73
(dp3633
sg82
g3627
sg75
(lp3634
g68
(g69
g70
NtRp3635
(dp3636
g73
(dp3637
g81
I3
ssg82
g3631
sg75
(lp3638
S'2'
asbasbasbag68
(g84
g70
NtRp3639
(dp3640
g73
(dp3641
sg82
g3623
sg75
(lp3642
g68
(g89
g70
NtRp3643
(dp3644
g73
(dp3645
sg82
g3639
sg75
(lp3646
g68
(g69
g70
NtRp3647
(dp3648
g73
(dp3649
g81
I3
ssg82
g3643
sg75
(lp3650
S'3'
asbasbasbag68
(g84
g70
NtRp3651
(dp3652
g73
(dp3653
sg82
g3623
sg75
(lp3654
g68
(g89
g70
NtRp3655
(dp3656
g73
(dp3657
sg82
g3651
sg75
(lp3658
g68
(g69
g70
NtRp3659
(dp3660
g73
(dp3661
g81
I3
ssg82
g3655
sg75
(lp3662
S'2'
asbasbasbag68
(g84
g70
NtRp3663
(dp3664
g73
(dp3665
sg82
g3623
sg75
(lp3666
g68
(g89
g70
NtRp3667
(dp3668
g73
(dp3669
sg82
g3663
sg75
(lp3670
g68
(g69
g70
NtRp3671
(dp3672
g73
(dp3673
g81
I3
ssg82
g3667
sg75
(lp3674
S'datetime.datetime(2012, 12, 17, 15, 3, 30)'
p3675
asbasbasbag68
(g84
g70
NtRp3676
(dp3677
g73
(dp3678
sg82
g3623
sg75
(lp3679
g68
(g89
g70
NtRp3680
(dp3681
g73
(dp3682
sg82
g3676
sg75
(lp3683
g68
(g69
g70
NtRp3684
(dp3685
g73
(dp3686
g81
I3
ssg82
g3680
sg75
(lp3687
g3014
asbasbasbasbasbasbasbasbasbasbasbag68
(g84
g70
NtRp3688
(dp3689
g73
(dp3690
sg82
g78
sg75
(lp3691
g68
(g89
g70
NtRp3692
(dp3693
g73
(dp3694
g93
g94
ssg82
g3688
sg75
(lp3695
S'is_https'
p3696
asbag68
(g89
g70
NtRp3697
(dp3698
g73
(dp3699
g100
g101
ssg82
g3688
sg75
(lp3700
S':'
asbag68
(g89
g70
NtRp3701
(dp3702
g73
(dp3703
sg82
g3688
sg75
(lp3704
g68
(g69
g70
NtRp3705
(dp3706
g73
(dp3707
g81
I5
ssg82
g3701
sg75
(lp3708
g111
asbasbasbag68
(g84
g70
NtRp3709
(dp3710
g73
(dp3711
sg82
g78
sg75
(lp3712
g68
(g89
g70
NtRp3713
(dp3714
g73
(dp3715
g93
g94
ssg82
g3709
sg75
(lp3716
S'is_local'
p3717
asbag68
(g89
g70
NtRp3718
(dp3719
g73
(dp3720
g100
g101
ssg82
g3709
sg75
(lp3721
S':'
asbag68
(g89
g70
NtRp3722
(dp3723
g73
(dp3724
sg82
g3709
sg75
(lp3725
g68
(g69
g70
NtRp3726
(dp3727
g73
(dp3728
g81
I5
ssg82
g3722
sg75
(lp3729
g3123
asbasbasbag68
(g84
g70
NtRp3730
(dp3731
g73
(dp3732
sg82
g78
sg75
(lp3733
g68
(g89
g70
NtRp3734
(dp3735
g73
(dp3736
g93
g94
ssg82
g3730
sg75
(lp3737
S'is_restful'
p3738
asbag68
(g89
g70
NtRp3739
(dp3740
g73
(dp3741
g100
g101
ssg82
g3730
sg75
(lp3742
S':'
asbag68
(g89
g70
NtRp3743
(dp3744
g73
(dp3745
sg82
g3730
sg75
(lp3746
g68
(g69
g70
NtRp3747
(dp3748
g73
(dp3749
g81
I5
ssg82
g3743
sg75
(lp3750
g111
asbasbasbag68
(g84
g70
NtRp3751
(dp3752
g73
(dp3753
sg82
g78
sg75
(lp3754
g68
(g89
g70
NtRp3755
(dp3756
g73
(dp3757
g93
g94
ssg82
g3751
sg75
(lp3758
S'now'
p3759
asbag68
(g89
g70
NtRp3760
(dp3761
g73
(dp3762
g100
g101
ssg82
g3751
sg75
(lp3763
S':'
asbag68
(g89
g70
NtRp3764
(dp3765
g73
(dp3766
sg82
g3751
sg75
(lp3767
g68
(g69
g70
NtRp3768
(dp3769
g73
(dp3770
g81
I5
ssg82
g3764
sg75
(lp3771
S'datetime.datetime(2013, 2, 1, 11, 26, 6, 502344)'
p3772
asbasbasbag68
(g84
g70
NtRp3773
(dp3774
g73
(dp3775
sg82
g78
sg75
(lp3776
g68
(g89
g70
NtRp3777
(dp3778
g73
(dp3779
g93
g94
ssg82
g3773
sg75
(lp3780
S'post_vars'
p3781
asbag68
(g89
g70
NtRp3782
(dp3783
g73
(dp3784
g100
g101
ssg82
g3773
sg75
(lp3785
S':'
asbag68
(g89
g70
NtRp3786
(dp3787
g73
(dp3788
sg82
g3773
sg75
(lp3789
g68
(g69
g70
NtRp3790
(dp3791
g73
(dp3792
g81
I5
ssg82
g3786
sg75
(lp3793
g68
(g77
g70
NtRp3794
(dp3795
g73
(dp3796
g81
I4
ssg82
Nsg75
(lp3797
sbasbasbasbag68
(g84
g70
NtRp3798
(dp3799
g73
(dp3800
sg82
g78
sg75
(lp3801
g68
(g89
g70
NtRp3802
(dp3803
g73
(dp3804
g93
g94
ssg82
g3798
sg75
(lp3805
S'url'
p3806
asbag68
(g89
g70
NtRp3807
(dp3808
g73
(dp3809
g100
g101
ssg82
g3798
sg75
(lp3810
S':'
asbag68
(g89
g70
NtRp3811
(dp3812
g73
(dp3813
sg82
g3798
sg75
(lp3814
g68
(g69
g70
NtRp3815
(dp3816
g73
(dp3817
g81
I5
ssg82
g3811
sg75
(lp3818
S'/'
asbasbasbag68
(g84
g70
NtRp3819
(dp3820
g73
(dp3821
sg82
g78
sg75
(lp3822
g68
(g89
g70
NtRp3823
(dp3824
g73
(dp3825
g93
g94
ssg82
g3819
sg75
(lp3826
S'utcnow'
p3827
asbag68
(g89
g70
NtRp3828
(dp3829
g73
(dp3830
g100
g101
ssg82
g3819
sg75
(lp3831
S':'
asbag68
(g89
g70
NtRp3832
(dp3833
g73
(dp3834
sg82
g3819
sg75
(lp3835
g68
(g69
g70
NtRp3836
(dp3837
g73
(dp3838
g81
I5
ssg82
g3832
sg75
(lp3839
S'datetime.datetime(2013, 2, 1, 13, 26, 6, 502448)'
p3840
asbasbasbag68
(g84
g70
NtRp3841
(dp3842
g73
(dp3843
sg82
g78
sg75
(lp3844
g68
(g89
g70
NtRp3845
(dp3846
g73
(dp3847
g93
g94
ssg82
g3841
sg75
(lp3848
S'uuid'
p3849
asbag68
(g89
g70
NtRp3850
(dp3851
g73
(dp3852
g100
g101
ssg82
g3841
sg75
(lp3853
S':'
asbag68
(g89
g70
NtRp3854
(dp3855
g73
(dp3856
sg82
g3841
sg75
(lp3857
g68
(g69
g70
NtRp3858
(dp3859
g73
(dp3860
g81
I5
ssg82
g3854
sg75
(lp3861
S'projeto/127.0.0.1.2013-02-01.11-26-06.b6ef3a23-f914-4900-9082-526d02f8d83c'
p3862
asbasbasbag68
(g84
g70
NtRp3863
(dp3864
g73
(dp3865
sg82
g78
sg75
(lp3866
g68
(g89
g70
NtRp3867
(dp3868
g73
(dp3869
g93
g94
ssg82
g3863
sg75
(lp3870
S'vars'
p3871
asbag68
(g89
g70
NtRp3872
(dp3873
g73
(dp3874
g100
g101
ssg82
g3863
sg75
(lp3875
S':'
asbag68
(g89
g70
NtRp3876
(dp3877
g73
(dp3878
sg82
g3863
sg75
(lp3879
g68
(g69
g70
NtRp3880
(dp3881
g73
(dp3882
g81
I5
ssg82
g3876
sg75
(lp3883
g68
(g77
g70
NtRp3884
(dp3885
g73
(dp3886
g81
I4
ssg82
Nsg75
(lp3887
sbasbasbasbag68
(g84
g70
NtRp3888
(dp3889
g73
(dp3890
sg82
g78
sg75
(lp3891
g68
(g89
g70
NtRp3892
(dp3893
g73
(dp3894
g93
g94
ssg82
g3888
sg75
(lp3895
S'wsgi'
p3896
asbag68
(g89
g70
NtRp3897
(dp3898
g73
(dp3899
g100
g101
ssg82
g3888
sg75
(lp3900
S':'
asbag68
(g89
g70
NtRp3901
(dp3902
g73
(dp3903
sg82
g3888
sg75
(lp3904
g68
(g69
g70
NtRp3905
(dp3906
g73
(dp3907
g81
I5
ssg82
g3901
sg75
(lp3908
g68
(g77
g70
NtRp3909
(dp3910
g73
(dp3911
g81
I4
ssg82
Nsg75
(lp3912
g68
(g84
g70
NtRp3913
(dp3914
g73
(dp3915
sg82
g3909
sg75
(lp3916
g68
(g89
g70
NtRp3917
(dp3918
g73
(dp3919
g93
g94
ssg82
g3913
sg75
(lp3920
S'environ'
p3921
asbag68
(g89
g70
NtRp3922
(dp3923
g73
(dp3924
g100
g101
ssg82
g3913
sg75
(lp3925
S':'
asbag68
(g89
g70
NtRp3926
(dp3927
g73
(dp3928
sg82
g3913
sg75
(lp3929
g68
(g69
g70
NtRp3930
(dp3931
g73
(dp3932
g81
I4
ssg82
g3926
sg75
(lp3933
g68
(g77
g70
NtRp3934
(dp3935
g73
(dp3936
g81
I3
ssg82
Nsg75
(lp3937
g68
(g84
g70
NtRp3938
(dp3939
g73
(dp3940
sg82
g3934
sg75
(lp3941
g68
(g89
g70
NtRp3942
(dp3943
g73
(dp3944
g93
g94
ssg82
g3938
sg75
(lp3945
S'HTTP_ACCEPT'
p3946
asbag68
(g89
g70
NtRp3947
(dp3948
g73
(dp3949
g100
g101
ssg82
g3938
sg75
(lp3950
S':'
asbag68
(g89
g70
NtRp3951
(dp3952
g73
(dp3953
sg82
g3938
sg75
(lp3954
g68
(g69
g70
NtRp3955
(dp3956
g73
(dp3957
g81
I3
ssg82
g3951
sg75
(lp3958
g2339
asbasbasbag68
(g84
g70
NtRp3959
(dp3960
g73
(dp3961
sg82
g3934
sg75
(lp3962
g68
(g89
g70
NtRp3963
(dp3964
g73
(dp3965
g93
g94
ssg82
g3959
sg75
(lp3966
S'HTTP_ACCEPT_CHARSET'
p3967
asbag68
(g89
g70
NtRp3968
(dp3969
g73
(dp3970
g100
g101
ssg82
g3959
sg75
(lp3971
S':'
asbag68
(g89
g70
NtRp3972
(dp3973
g73
(dp3974
sg82
g3959
sg75
(lp3975
g68
(g69
g70
NtRp3976
(dp3977
g73
(dp3978
g81
I3
ssg82
g3972
sg75
(lp3979
g2361
asbasbasbag68
(g84
g70
NtRp3980
(dp3981
g73
(dp3982
sg82
g3934
sg75
(lp3983
g68
(g89
g70
NtRp3984
(dp3985
g73
(dp3986
g93
g94
ssg82
g3980
sg75
(lp3987
S'HTTP_ACCEPT_ENCODING'
p3988
asbag68
(g89
g70
NtRp3989
(dp3990
g73
(dp3991
g100
g101
ssg82
g3980
sg75
(lp3992
S':'
asbag68
(g89
g70
NtRp3993
(dp3994
g73
(dp3995
sg82
g3980
sg75
(lp3996
g68
(g69
g70
NtRp3997
(dp3998
g73
(dp3999
g81
I3
ssg82
g3993
sg75
(lp4000
g2383
asbasbasbag68
(g84
g70
NtRp4001
(dp4002
g73
(dp4003
sg82
g3934
sg75
(lp4004
g68
(g89
g70
NtRp4005
(dp4006
g73
(dp4007
g93
g94
ssg82
g4001
sg75
(lp4008
S'HTTP_ACCEPT_LANGUAGE'
p4009
asbag68
(g89
g70
NtRp4010
(dp4011
g73
(dp4012
g100
g101
ssg82
g4001
sg75
(lp4013
S':'
asbag68
(g89
g70
NtRp4014
(dp4015
g73
(dp4016
sg82
g4001
sg75
(lp4017
g68
(g69
g70
NtRp4018
(dp4019
g73
(dp4020
g81
I3
ssg82
g4014
sg75
(lp4021
g2405
asbasbasbag68
(g84
g70
NtRp4022
(dp4023
g73
(dp4024
sg82
g3934
sg75
(lp4025
g68
(g89
g70
NtRp4026
(dp4027
g73
(dp4028
g93
g94
ssg82
g4022
sg75
(lp4029
S'HTTP_CACHE_CONTROL'
p4030
asbag68
(g89
g70
NtRp4031
(dp4032
g73
(dp4033
g100
g101
ssg82
g4022
sg75
(lp4034
S':'
asbag68
(g89
g70
NtRp4035
(dp4036
g73
(dp4037
sg82
g4022
sg75
(lp4038
g68
(g69
g70
NtRp4039
(dp4040
g73
(dp4041
g81
I3
ssg82
g4035
sg75
(lp4042
g2427
asbasbasbag68
(g84
g70
NtRp4043
(dp4044
g73
(dp4045
sg82
g3934
sg75
(lp4046
g68
(g89
g70
NtRp4047
(dp4048
g73
(dp4049
g93
g94
ssg82
g4043
sg75
(lp4050
S'HTTP_CONNECTION'
p4051
asbag68
(g89
g70
NtRp4052
(dp4053
g73
(dp4054
g100
g101
ssg82
g4043
sg75
(lp4055
S':'
asbag68
(g89
g70
NtRp4056
(dp4057
g73
(dp4058
sg82
g4043
sg75
(lp4059
g68
(g69
g70
NtRp4060
(dp4061
g73
(dp4062
g81
I3
ssg82
g4056
sg75
(lp4063
g2449
asbasbasbag68
(g84
g70
NtRp4064
(dp4065
g73
(dp4066
sg82
g3934
sg75
(lp4067
g68
(g89
g70
NtRp4068
(dp4069
g73
(dp4070
g93
g94
ssg82
g4064
sg75
(lp4071
S'HTTP_COOKIE'
p4072
asbag68
(g89
g70
NtRp4073
(dp4074
g73
(dp4075
g100
g101
ssg82
g4064
sg75
(lp4076
S':'
asbag68
(g89
g70
NtRp4077
(dp4078
g73
(dp4079
sg82
g4064
sg75
(lp4080
g68
(g69
g70
NtRp4081
(dp4082
g73
(dp4083
g81
I3
ssg82
g4077
sg75
(lp4084
g2471
asbasbasbag68
(g84
g70
NtRp4085
(dp4086
g73
(dp4087
sg82
g3934
sg75
(lp4088
g68
(g89
g70
NtRp4089
(dp4090
g73
(dp4091
g93
g94
ssg82
g4085
sg75
(lp4092
S'HTTP_HOST'
p4093
asbag68
(g89
g70
NtRp4094
(dp4095
g73
(dp4096
g100
g101
ssg82
g4085
sg75
(lp4097
S':'
asbag68
(g89
g70
NtRp4098
(dp4099
g73
(dp4100
sg82
g4085
sg75
(lp4101
g68
(g69
g70
NtRp4102
(dp4103
g73
(dp4104
g81
I3
ssg82
g4098
sg75
(lp4105
g2493
asbasbasbag68
(g84
g70
NtRp4106
(dp4107
g73
(dp4108
sg82
g3934
sg75
(lp4109
g68
(g89
g70
NtRp4110
(dp4111
g73
(dp4112
g93
g94
ssg82
g4106
sg75
(lp4113
S'HTTP_USER_AGENT'
p4114
asbag68
(g89
g70
NtRp4115
(dp4116
g73
(dp4117
g100
g101
ssg82
g4106
sg75
(lp4118
S':'
asbag68
(g89
g70
NtRp4119
(dp4120
g73
(dp4121
sg82
g4106
sg75
(lp4122
g68
(g69
g70
NtRp4123
(dp4124
g73
(dp4125
g81
I3
ssg82
g4119
sg75
(lp4126
g2515
asbasbasbag68
(g84
g70
NtRp4127
(dp4128
g73
(dp4129
sg82
g3934
sg75
(lp4130
g68
(g89
g70
NtRp4131
(dp4132
g73
(dp4133
g93
g94
ssg82
g4127
sg75
(lp4134
S'PATH_INFO'
p4135
asbag68
(g89
g70
NtRp4136
(dp4137
g73
(dp4138
g100
g101
ssg82
g4127
sg75
(lp4139
S':'
asbag68
(g89
g70
NtRp4140
(dp4141
g73
(dp4142
sg82
g4127
sg75
(lp4143
g68
(g69
g70
NtRp4144
(dp4145
g73
(dp4146
g81
I3
ssg82
g4140
sg75
(lp4147
S'/'
asbasbasbag68
(g84
g70
NtRp4148
(dp4149
g73
(dp4150
sg82
g3934
sg75
(lp4151
g68
(g89
g70
NtRp4152
(dp4153
g73
(dp4154
g93
g94
ssg82
g4148
sg75
(lp4155
S'QUERY_STRING'
p4156
asbag68
(g89
g70
NtRp4157
(dp4158
g73
(dp4159
g100
g101
ssg82
g4148
sg75
(lp4160
S':'
asbag68
(g89
g70
NtRp4161
(dp4162
g73
(dp4163
sg82
g4148
sg75
(lp4164
g68
(g69
g70
NtRp4165
(dp4166
g73
(dp4167
g81
I3
ssg82
g4161
sg75
(lp4168
S''
asbasbasbag68
(g84
g70
NtRp4169
(dp4170
g73
(dp4171
sg82
g3934
sg75
(lp4172
g68
(g89
g70
NtRp4173
(dp4174
g73
(dp4175
g93
g94
ssg82
g4169
sg75
(lp4176
S'REMOTE_ADDR'
p4177
asbag68
(g89
g70
NtRp4178
(dp4179
g73
(dp4180
g100
g101
ssg82
g4169
sg75
(lp4181
S':'
asbag68
(g89
g70
NtRp4182
(dp4183
g73
(dp4184
sg82
g4169
sg75
(lp4185
g68
(g69
g70
NtRp4186
(dp4187
g73
(dp4188
g81
I3
ssg82
g4182
sg75
(lp4189
g223
asbasbasbag68
(g84
g70
NtRp4190
(dp4191
g73
(dp4192
sg82
g3934
sg75
(lp4193
g68
(g89
g70
NtRp4194
(dp4195
g73
(dp4196
g93
g94
ssg82
g4190
sg75
(lp4197
S'REMOTE_PORT'
p4198
asbag68
(g89
g70
NtRp4199
(dp4200
g73
(dp4201
g100
g101
ssg82
g4190
sg75
(lp4202
S':'
asbag68
(g89
g70
NtRp4203
(dp4204
g73
(dp4205
sg82
g4190
sg75
(lp4206
g68
(g69
g70
NtRp4207
(dp4208
g73
(dp4209
g81
I3
ssg82
g4203
sg75
(lp4210
g2732
asbasbasbag68
(g84
g70
NtRp4211
(dp4212
g73
(dp4213
sg82
g3934
sg75
(lp4214
g68
(g89
g70
NtRp4215
(dp4216
g73
(dp4217
g93
g94
ssg82
g4211
sg75
(lp4218
S'REQUEST_METHOD'
p4219
asbag68
(g89
g70
NtRp4220
(dp4221
g73
(dp4222
g100
g101
ssg82
g4211
sg75
(lp4223
S':'
asbag68
(g89
g70
NtRp4224
(dp4225
g73
(dp4226
sg82
g4211
sg75
(lp4227
g68
(g69
g70
NtRp4228
(dp4229
g73
(dp4230
g81
I3
ssg82
g4224
sg75
(lp4231
g2754
asbasbasbag68
(g84
g70
NtRp4232
(dp4233
g73
(dp4234
sg82
g3934
sg75
(lp4235
g68
(g89
g70
NtRp4236
(dp4237
g73
(dp4238
g93
g94
ssg82
g4232
sg75
(lp4239
S'REQUEST_URI'
p4240
asbag68
(g89
g70
NtRp4241
(dp4242
g73
(dp4243
g100
g101
ssg82
g4232
sg75
(lp4244
S':'
asbag68
(g89
g70
NtRp4245
(dp4246
g73
(dp4247
sg82
g4232
sg75
(lp4248
g68
(g69
g70
NtRp4249
(dp4250
g73
(dp4251
g81
I3
ssg82
g4245
sg75
(lp4252
g2776
asbasbasbag68
(g84
g70
NtRp4253
(dp4254
g73
(dp4255
sg82
g3934
sg75
(lp4256
g68
(g89
g70
NtRp4257
(dp4258
g73
(dp4259
g93
g94
ssg82
g4253
sg75
(lp4260
S'SCRIPT_NAME'
p4261
asbag68
(g89
g70
NtRp4262
(dp4263
g73
(dp4264
g100
g101
ssg82
g4253
sg75
(lp4265
S':'
asbag68
(g89
g70
NtRp4266
(dp4267
g73
(dp4268
sg82
g4253
sg75
(lp4269
g68
(g69
g70
NtRp4270
(dp4271
g73
(dp4272
g81
I3
ssg82
g4266
sg75
(lp4273
S''
asbasbasbag68
(g84
g70
NtRp4274
(dp4275
g73
(dp4276
sg82
g3934
sg75
(lp4277
g68
(g89
g70
NtRp4278
(dp4279
g73
(dp4280
g93
g94
ssg82
g4274
sg75
(lp4281
S'SERVER_NAME'
p4282
asbag68
(g89
g70
NtRp4283
(dp4284
g73
(dp4285
g100
g101
ssg82
g4274
sg75
(lp4286
S':'
asbag68
(g89
g70
NtRp4287
(dp4288
g73
(dp4289
sg82
g4274
sg75
(lp4290
g68
(g69
g70
NtRp4291
(dp4292
g73
(dp4293
g81
I3
ssg82
g4287
sg75
(lp4294
g2819
asbasbasbag68
(g84
g70
NtRp4295
(dp4296
g73
(dp4297
sg82
g3934
sg75
(lp4298
g68
(g89
g70
NtRp4299
(dp4300
g73
(dp4301
g93
g94
ssg82
g4295
sg75
(lp4302
S'SERVER_PORT'
p4303
asbag68
(g89
g70
NtRp4304
(dp4305
g73
(dp4306
g100
g101
ssg82
g4295
sg75
(lp4307
S':'
asbag68
(g89
g70
NtRp4308
(dp4309
g73
(dp4310
sg82
g4295
sg75
(lp4311
g68
(g69
g70
NtRp4312
(dp4313
g73
(dp4314
g81
I3
ssg82
g4308
sg75
(lp4315
g2841
asbasbasbag68
(g84
g70
NtRp4316
(dp4317
g73
(dp4318
sg82
g3934
sg75
(lp4319
g68
(g89
g70
NtRp4320
(dp4321
g73
(dp4322
g93
g94
ssg82
g4316
sg75
(lp4323
S'SERVER_PROTOCOL'
p4324
asbag68
(g89
g70
NtRp4325
(dp4326
g73
(dp4327
g100
g101
ssg82
g4316
sg75
(lp4328
S':'
asbag68
(g89
g70
NtRp4329
(dp4330
g73
(dp4331
sg82
g4316
sg75
(lp4332
g68
(g69
g70
NtRp4333
(dp4334
g73
(dp4335
g81
I3
ssg82
g4329
sg75
(lp4336
g2863
asbasbasbag68
(g84
g70
NtRp4337
(dp4338
g73
(dp4339
sg82
g3934
sg75
(lp4340
g68
(g89
g70
NtRp4341
(dp4342
g73
(dp4343
g93
g94
ssg82
g4337
sg75
(lp4344
S'SERVER_SOFTWARE'
p4345
asbag68
(g89
g70
NtRp4346
(dp4347
g73
(dp4348
g100
g101
ssg82
g4337
sg75
(lp4349
S':'
asbag68
(g89
g70
NtRp4350
(dp4351
g73
(dp4352
sg82
g4337
sg75
(lp4353
g68
(g69
g70
NtRp4354
(dp4355
g73
(dp4356
g81
I3
ssg82
g4350
sg75
(lp4357
g2885
asbasbasbag68
(g84
g70
NtRp4358
(dp4359
g73
(dp4360
sg82
g3934
sg75
(lp4361
g68
(g89
g70
NtRp4362
(dp4363
g73
(dp4364
g93
g94
ssg82
g4358
sg75
(lp4365
S'WEB2PY_ORIGINAL_URI'
p4366
asbag68
(g89
g70
NtRp4367
(dp4368
g73
(dp4369
g100
g101
ssg82
g4358
sg75
(lp4370
S':'
asbag68
(g89
g70
NtRp4371
(dp4372
g73
(dp4373
sg82
g4358
sg75
(lp4374
g68
(g69
g70
NtRp4375
(dp4376
g73
(dp4377
g81
I3
ssg82
g4371
sg75
(lp4378
S'/'
asbasbasbag68
(g84
g70
NtRp4379
(dp4380
g73
(dp4381
sg82
g3934
sg75
(lp4382
g68
(g89
g70
NtRp4383
(dp4384
g73
(dp4385
g93
g94
ssg82
g4379
sg75
(lp4386
S'wsgi.errors'
p4387
asbag68
(g89
g70
NtRp4388
(dp4389
g73
(dp4390
g100
g101
ssg82
g4379
sg75
(lp4391
S':'
asbag68
(g89
g70
NtRp4392
(dp4393
g73
(dp4394
sg82
g4379
sg75
(lp4395
g68
(g69
g70
NtRp4396
(dp4397
g73
(dp4398
g81
I3
ssg82
g4392
sg75
(lp4399
S"<open file '<stderr>', mode 'w' at 0x7feebf81f270>"
p4400
asbasbasbag68
(g84
g70
NtRp4401
(dp4402
g73
(dp4403
sg82
g3934
sg75
(lp4404
g68
(g89
g70
NtRp4405
(dp4406
g73
(dp4407
g93
g94
ssg82
g4401
sg75
(lp4408
S'wsgi.file_wrapper'
p4409
asbag68
(g89
g70
NtRp4410
(dp4411
g73
(dp4412
g100
g101
ssg82
g4401
sg75
(lp4413
S':'
asbag68
(g89
g70
NtRp4414
(dp4415
g73
(dp4416
sg82
g4401
sg75
(lp4417
g68
(g69
g70
NtRp4418
(dp4419
g73
(dp4420
g81
I3
ssg82
g4414
sg75
(lp4421
S'<class wsgiref.util.FileWrapper at 0x171aa10>'
p4422
asbasbasbag68
(g84
g70
NtRp4423
(dp4424
g73
(dp4425
sg82
g3934
sg75
(lp4426
g68
(g89
g70
NtRp4427
(dp4428
g73
(dp4429
g93
g94
ssg82
g4423
sg75
(lp4430
S'wsgi.input'
p4431
asbag68
(g89
g70
NtRp4432
(dp4433
g73
(dp4434
g100
g101
ssg82
g4423
sg75
(lp4435
S':'
asbag68
(g89
g70
NtRp4436
(dp4437
g73
(dp4438
sg82
g4423
sg75
(lp4439
g68
(g69
g70
NtRp4440
(dp4441
g73
(dp4442
g81
I3
ssg82
g4436
sg75
(lp4443
S'<cStringIO.StringO object at 0x7feea03c67a0>'
p4444
asbasbasbag68
(g84
g70
NtRp4445
(dp4446
g73
(dp4447
sg82
g3934
sg75
(lp4448
g68
(g89
g70
NtRp4449
(dp4450
g73
(dp4451
g93
g94
ssg82
g4445
sg75
(lp4452
S'wsgi.multiprocess'
p4453
asbag68
(g89
g70
NtRp4454
(dp4455
g73
(dp4456
g100
g101
ssg82
g4445
sg75
(lp4457
S':'
asbag68
(g89
g70
NtRp4458
(dp4459
g73
(dp4460
sg82
g4445
sg75
(lp4461
g68
(g69
g70
NtRp4462
(dp4463
g73
(dp4464
g81
I3
ssg82
g4458
sg75
(lp4465
g111
asbasbasbag68
(g84
g70
NtRp4466
(dp4467
g73
(dp4468
sg82
g3934
sg75
(lp4469
g68
(g89
g70
NtRp4470
(dp4471
g73
(dp4472
g93
g94
ssg82
g4466
sg75
(lp4473
S'wsgi.multithread'
p4474
asbag68
(g89
g70
NtRp4475
(dp4476
g73
(dp4477
g100
g101
ssg82
g4466
sg75
(lp4478
S':'
asbag68
(g89
g70
NtRp4479
(dp4480
g73
(dp4481
sg82
g4466
sg75
(lp4482
g68
(g69
g70
NtRp4483
(dp4484
g73
(dp4485
g81
I3
ssg82
g4479
sg75
(lp4486
g3123
asbasbasbag68
(g84
g70
NtRp4487
(dp4488
g73
(dp4489
sg82
g3934
sg75
(lp4490
g68
(g89
g70
NtRp4491
(dp4492
g73
(dp4493
g93
g94
ssg82
g4487
sg75
(lp4494
S'wsgi.run_once'
p4495
asbag68
(g89
g70
NtRp4496
(dp4497
g73
(dp4498
g100
g101
ssg82
g4487
sg75
(lp4499
S':'
asbag68
(g89
g70
NtRp4500
(dp4501
g73
(dp4502
sg82
g4487
sg75
(lp4503
g68
(g69
g70
NtRp4504
(dp4505
g73
(dp4506
g81
I3
ssg82
g4500
sg75
(lp4507
g111
asbasbasbag68
(g84
g70
NtRp4508
(dp4509
g73
(dp4510
sg82
g3934
sg75
(lp4511
g68
(g89
g70
NtRp4512
(dp4513
g73
(dp4514
g93
g94
ssg82
g4508
sg75
(lp4515
S'wsgi.url_scheme'
p4516
asbag68
(g89
g70
NtRp4517
(dp4518
g73
(dp4519
g100
g101
ssg82
g4508
sg75
(lp4520
S':'
asbag68
(g89
g70
NtRp4521
(dp4522
g73
(dp4523
sg82
g4508
sg75
(lp4524
g68
(g69
g70
NtRp4525
(dp4526
g73
(dp4527
g81
I3
ssg82
g4521
sg75
(lp4528
g3166
asbasbasbag68
(g84
g70
NtRp4529
(dp4530
g73
(dp4531
sg82
g3934
sg75
(lp4532
g68
(g89
g70
NtRp4533
(dp4534
g73
(dp4535
g93
g94
ssg82
g4529
sg75
(lp4536
S'wsgi.version'
p4537
asbag68
(g89
g70
NtRp4538
(dp4539
g73
(dp4540
g100
g101
ssg82
g4529
sg75
(lp4541
S':'
asbag68
(g89
g70
NtRp4542
(dp4543
g73
(dp4544
sg82
g4529
sg75
(lp4545
g68
(g69
g70
NtRp4546
(dp4547
g73
(dp4548
g81
I3
ssg82
g4542
sg75
(lp4549
S'1'
asbasbasbasbasbasbasbasbasbasbasbasbasbsS'frames'
p4550
(lp4551
(dp4552
S'file'
p4553
S'/var/www/web2py_curso/gluon/restricted.py'
p4554
sS'dump'
p4555
(dp4556
S'code'
p4557
S'\'response.write(\\\'<!DOCTYPE HTML>\\\\n<html lang="en"....</p>\\\\n</div>\\\\n\\\\n</body>\\\\n</html>\\\', escape=False)\''
p4558
sS'layer'
p4559
S"'/var/www/web2py_curso/applications/projeto/views/initial/home.html'"
p4560
sS'global compile2'
p4561
S'<function compile2>'
p4562
sS'ccode'
p4563
S'undefined'
p4564
ssS'lnum'
p4565
I211
sS'lines'
p4566
(dp4567
I206
S"    environment['__name__'] = '__restricted__'"
p4568
sI207
S'    try:'
p4569
sI208
S'        if isinstance(code, types.CodeType):'
p4570
sI209
S'            ccode = code'
p4571
sI210
S'        else:'
p4572
sI211
S'            ccode = compile2(code, layer)'
p4573
sI212
S'        exec ccode in environment'
p4574
sI213
S'    except HTTP:'
p4575
sI214
S'        raise'
p4576
sI215
S'    except RestrictedError:'
p4577
ssS'call'
p4578
S'(code=\'response.write(\\\'<!DOCTYPE HTML>\\\\n<html lang="en"....</p>\\\\n</div>\\\\n\\\\n</body>\\\\n</html>\\\', escape=False)\', environment={\'A\': <class \'gluon.html.A\'>, \'Auth\': <class \'gluon.tools.Auth\'>, \'B\': <class \'gluon.html.B\'>, \'BEAUTIFY\': <class \'gluon.html.BEAUTIFY\'>, \'BODY\': <class \'gluon.html.BODY\'>, \'BR\': <class \'gluon.html.BR\'>, \'BUTTON\': <class \'gluon.html.BUTTON\'>, \'Blog\': <Table blog (id,title,description)>, \'CAT\': <class \'gluon.html.CAT\'>, \'CENTER\': <class \'gluon.html.CENTER\'>, ...}, layer=\'/var/www/web2py_curso/applications/projeto/views/initial/home.html\')'
p4579
sS'func'
p4580
S'restricted'
p4581
sa(dp4582
g4553
S'/var/www/web2py_curso/gluon/restricted.py'
p4583
sg4555
(dp4584
S'builtincompile'
p4585
S'<built-in function compile>'
p4586
sS'code'
p4587
S'\'response.write(\\\'<!DOCTYPE HTML>\\\\n<html lang="en"....</p>\\\\n</div>\\\\n\\\\n</body>\\\\n</html>\\\', escape=False)\''
p4588
sS'code.rstrip'
p4589
S'<built-in method rstrip of str object>'
p4590
sS').replace'
p4591
g4564
sS'layer'
p4592
S"'/var/www/web2py_curso/applications/projeto/views/initial/home.html'"
p4593
ssg4565
I194
sg4566
(dp4594
I192
S"    The +'\\n' is necessary else compile fails when code ends in a comment."
p4595
sI193
S'    """'
p4596
sI194
S"    return compile(code.rstrip().replace('\\r\\n', '\\n') + '\\n', layer, 'exec')"
p4597
sI195
S''
sI196
S''
sI197
S"def restricted(code, environment=None, layer='Unknown'):"
p4598
sI198
S'    """'
p4599
sI189
S''
sI190
S'def compile2(code, layer):'
p4600
sI191
S'    """'
p4601
ssg4578
S'(code=\'response.write(\\\'<!DOCTYPE HTML>\\\\n<html lang="en"....</p>\\\\n</div>\\\\n\\\\n</body>\\\\n</html>\\\', escape=False)\', layer=\'/var/www/web2py_curso/applications/projeto/views/initial/home.html\')'
p4602
sg4580
S'compile2'
p4603
sasS'pyver'
p4604
S'Python 2.7.3: /usr/bin/python'
p4605
sS'session'
p4606
g68
(g69
g70
NtRp4607
(dp4608
g73
(dp4609
sg75
(lp4610
g68
(g77
g70
NtRp4611
(dp4612
g73
(dp4613
g81
I5
ssg82
Nsg75
(lp4614
sbasbsS'etype'
p4615
S"<type 'exceptions.SyntaxError'>"
p4616
sS'date'
p4617
S'Fri Feb  1 11:26:06 2013'
p4618
sS'response'
p4619
g68
(g69
g70
NtRp4620
(dp4621
g73
(dp4622
sg75
(lp4623
g68
(g77
g70
NtRp4624
(dp4625
g73
(dp4626
g81
I5
ssg82
Nsg75
(lp4627
g68
(g84
g70
NtRp4628
(dp4629
g73
(dp4630
sg82
g4624
sg75
(lp4631
g68
(g89
g70
NtRp4632
(dp4633
g73
(dp4634
g93
g94
ssg82
g4628
sg75
(lp4635
g166
asbag68
(g89
g70
NtRp4636
(dp4637
g73
(dp4638
g100
g101
ssg82
g4628
sg75
(lp4639
S':'
asbag68
(g89
g70
NtRp4640
(dp4641
g73
(dp4642
sg82
g4628
sg75
(lp4643
g68
(g69
g70
NtRp4644
(dp4645
g73
(dp4646
g81
I5
ssg82
g4640
sg75
(lp4647
S'<cStringIO.StringO object at 0x7feea03c63e8>'
p4648
asbasbasbag68
(g84
g70
NtRp4649
(dp4650
g73
(dp4651
sg82
g4624
sg75
(lp4652
g68
(g89
g70
NtRp4653
(dp4654
g73
(dp4655
g93
g94
ssg82
g4649
sg75
(lp4656
g254
asbag68
(g89
g70
NtRp4657
(dp4658
g73
(dp4659
g100
g101
ssg82
g4649
sg75
(lp4660
S':'
asbag68
(g89
g70
NtRp4661
(dp4662
g73
(dp4663
sg82
g4649
sg75
(lp4664
g68
(g69
g70
NtRp4665
(dp4666
g73
(dp4667
g81
I5
ssg82
g4661
sg75
(lp4668
g68
(g77
g70
NtRp4669
(dp4670
g73
(dp4671
g81
I4
ssg82
Nsg75
(lp4672
g68
(g84
g70
NtRp4673
(dp4674
g73
(dp4675
sg82
g4669
sg75
(lp4676
g68
(g89
g70
NtRp4677
(dp4678
g73
(dp4679
g93
g94
ssg82
g4673
sg75
(lp4680
S'session_id_projeto'
p4681
asbag68
(g89
g70
NtRp4682
(dp4683
g73
(dp4684
g100
g101
ssg82
g4673
sg75
(lp4685
S':'
asbag68
(g89
g70
NtRp4686
(dp4687
g73
(dp4688
sg82
g4673
sg75
(lp4689
g68
(g69
g70
NtRp4690
(dp4691
g73
(dp4692
g81
I4
ssg82
g4686
sg75
(lp4693
g1786
ag68
(g77
g70
NtRp4694
(dp4695
g73
(dp4696
g81
I3
ssg82
Nsg75
(lp4697
g68
(g84
g70
NtRp4698
(dp4699
g73
(dp4700
sg82
g4694
sg75
(lp4701
g68
(g89
g70
NtRp4702
(dp4703
g73
(dp4704
g93
g94
ssg82
g4698
sg75
(lp4705
g305
asbag68
(g89
g70
NtRp4706
(dp4707
g73
(dp4708
g100
g101
ssg82
g4698
sg75
(lp4709
S':'
asbag68
(g89
g70
NtRp4710
(dp4711
g73
(dp4712
sg82
g4698
sg75
(lp4713
g68
(g69
g70
NtRp4714
(dp4715
g73
(dp4716
g81
I3
ssg82
g4710
sg75
(lp4717
S''
asbasbasbag68
(g84
g70
NtRp4718
(dp4719
g73
(dp4720
sg82
g4694
sg75
(lp4721
g68
(g89
g70
NtRp4722
(dp4723
g73
(dp4724
g93
g94
ssg82
g4718
sg75
(lp4725
g326
asbag68
(g89
g70
NtRp4726
(dp4727
g73
(dp4728
g100
g101
ssg82
g4718
sg75
(lp4729
S':'
asbag68
(g89
g70
NtRp4730
(dp4731
g73
(dp4732
sg82
g4718
sg75
(lp4733
g68
(g69
g70
NtRp4734
(dp4735
g73
(dp4736
g81
I3
ssg82
g4730
sg75
(lp4737
S''
asbasbasbag68
(g84
g70
NtRp4738
(dp4739
g73
(dp4740
sg82
g4694
sg75
(lp4741
g68
(g89
g70
NtRp4742
(dp4743
g73
(dp4744
g93
g94
ssg82
g4738
sg75
(lp4745
g347
asbag68
(g89
g70
NtRp4746
(dp4747
g73
(dp4748
g100
g101
ssg82
g4738
sg75
(lp4749
S':'
asbag68
(g89
g70
NtRp4750
(dp4751
g73
(dp4752
sg82
g4738
sg75
(lp4753
g68
(g69
g70
NtRp4754
(dp4755
g73
(dp4756
g81
I3
ssg82
g4750
sg75
(lp4757
S''
asbasbasbag68
(g84
g70
NtRp4758
(dp4759
g73
(dp4760
sg82
g4694
sg75
(lp4761
g68
(g89
g70
NtRp4762
(dp4763
g73
(dp4764
g93
g94
ssg82
g4758
sg75
(lp4765
g368
asbag68
(g89
g70
NtRp4766
(dp4767
g73
(dp4768
g100
g101
ssg82
g4758
sg75
(lp4769
S':'
asbag68
(g89
g70
NtRp4770
(dp4771
g73
(dp4772
sg82
g4758
sg75
(lp4773
g68
(g69
g70
NtRp4774
(dp4775
g73
(dp4776
g81
I3
ssg82
g4770
sg75
(lp4777
S''
asbasbasbag68
(g84
g70
NtRp4778
(dp4779
g73
(dp4780
sg82
g4694
sg75
(lp4781
g68
(g89
g70
NtRp4782
(dp4783
g73
(dp4784
g93
g94
ssg82
g4778
sg75
(lp4785
g389
asbag68
(g89
g70
NtRp4786
(dp4787
g73
(dp4788
g100
g101
ssg82
g4778
sg75
(lp4789
S':'
asbag68
(g89
g70
NtRp4790
(dp4791
g73
(dp4792
sg82
g4778
sg75
(lp4793
g68
(g69
g70
NtRp4794
(dp4795
g73
(dp4796
g81
I3
ssg82
g4790
sg75
(lp4797
S''
asbasbasbag68
(g84
g70
NtRp4798
(dp4799
g73
(dp4800
sg82
g4694
sg75
(lp4801
g68
(g89
g70
NtRp4802
(dp4803
g73
(dp4804
g93
g94
ssg82
g4798
sg75
(lp4805
g410
asbag68
(g89
g70
NtRp4806
(dp4807
g73
(dp4808
g100
g101
ssg82
g4798
sg75
(lp4809
S':'
asbag68
(g89
g70
NtRp4810
(dp4811
g73
(dp4812
sg82
g4798
sg75
(lp4813
g68
(g69
g70
NtRp4814
(dp4815
g73
(dp4816
g81
I3
ssg82
g4810
sg75
(lp4817
S'/'
asbasbasbag68
(g84
g70
NtRp4818
(dp4819
g73
(dp4820
sg82
g4694
sg75
(lp4821
g68
(g89
g70
NtRp4822
(dp4823
g73
(dp4824
g93
g94
ssg82
g4818
sg75
(lp4825
g431
asbag68
(g89
g70
NtRp4826
(dp4827
g73
(dp4828
g100
g101
ssg82
g4818
sg75
(lp4829
S':'
asbag68
(g89
g70
NtRp4830
(dp4831
g73
(dp4832
sg82
g4818
sg75
(lp4833
g68
(g69
g70
NtRp4834
(dp4835
g73
(dp4836
g81
I3
ssg82
g4830
sg75
(lp4837
S''
asbasbasbag68
(g84
g70
NtRp4838
(dp4839
g73
(dp4840
sg82
g4694
sg75
(lp4841
g68
(g89
g70
NtRp4842
(dp4843
g73
(dp4844
g93
g94
ssg82
g4838
sg75
(lp4845
g452
asbag68
(g89
g70
NtRp4846
(dp4847
g73
(dp4848
g100
g101
ssg82
g4838
sg75
(lp4849
S':'
asbag68
(g89
g70
NtRp4850
(dp4851
g73
(dp4852
sg82
g4838
sg75
(lp4853
g68
(g69
g70
NtRp4854
(dp4855
g73
(dp4856
g81
I3
ssg82
g4850
sg75
(lp4857
S''
asbasbasbasbasbasbasbasbasbasbasbag68
(g84
g70
NtRp4858
(dp4859
g73
(dp4860
sg82
g4624
sg75
(lp4861
g68
(g89
g70
NtRp4862
(dp4863
g73
(dp4864
g93
g94
ssg82
g4858
sg75
(lp4865
S'delimiters'
p4866
asbag68
(g89
g70
NtRp4867
(dp4868
g73
(dp4869
g100
g101
ssg82
g4858
sg75
(lp4870
S':'
asbag68
(g89
g70
NtRp4871
(dp4872
g73
(dp4873
sg82
g4858
sg75
(lp4874
g68
(g69
g70
NtRp4875
(dp4876
g73
(dp4877
g81
I5
ssg82
g4871
sg75
(lp4878
g68
(g77
g70
NtRp4879
(dp4880
g73
(dp4881
g81
I4
ssg82
Nsg75
(lp4882
g68
(g84
g70
NtRp4883
(dp4884
g73
(dp4885
sg82
g4879
sg75
(lp4886
g68
(g89
g70
NtRp4887
(dp4888
g73
(dp4889
sg82
g4883
sg75
(lp4890
g68
(g69
g70
NtRp4891
(dp4892
g73
(dp4893
g81
I4
ssg82
g4887
sg75
(lp4894
S'{{'
p4895
asbasbasbag68
(g84
g70
NtRp4896
(dp4897
g73
(dp4898
sg82
g4879
sg75
(lp4899
g68
(g89
g70
NtRp4900
(dp4901
g73
(dp4902
sg82
g4896
sg75
(lp4903
g68
(g69
g70
NtRp4904
(dp4905
g73
(dp4906
g81
I4
ssg82
g4900
sg75
(lp4907
S'}}'
p4908
asbasbasbasbasbasbasbag68
(g84
g70
NtRp4909
(dp4910
g73
(dp4911
sg82
g4624
sg75
(lp4912
g68
(g89
g70
NtRp4913
(dp4914
g73
(dp4915
g93
g94
ssg82
g4909
sg75
(lp4916
S'files'
p4917
asbag68
(g89
g70
NtRp4918
(dp4919
g73
(dp4920
g100
g101
ssg82
g4909
sg75
(lp4921
S':'
asbag68
(g89
g70
NtRp4922
(dp4923
g73
(dp4924
sg82
g4909
sg75
(lp4925
g68
(g69
g70
NtRp4926
(dp4927
g73
(dp4928
g81
I5
ssg82
g4922
sg75
(lp4929
g68
(g77
g70
NtRp4930
(dp4931
g73
(dp4932
g81
I4
ssg82
Nsg75
(lp4933
sbasbasbasbag68
(g84
g70
NtRp4934
(dp4935
g73
(dp4936
sg82
g4624
sg75
(lp4937
g68
(g89
g70
NtRp4938
(dp4939
g73
(dp4940
g93
g94
ssg82
g4934
sg75
(lp4941
S'flash'
p4942
asbag68
(g89
g70
NtRp4943
(dp4944
g73
(dp4945
g100
g101
ssg82
g4934
sg75
(lp4946
S':'
asbag68
(g89
g70
NtRp4947
(dp4948
g73
(dp4949
sg82
g4934
sg75
(lp4950
g68
(g69
g70
NtRp4951
(dp4952
g73
(dp4953
g81
I5
ssg82
g4947
sg75
(lp4954
S''
asbasbasbag68
(g84
g70
NtRp4955
(dp4956
g73
(dp4957
sg82
g4624
sg75
(lp4958
g68
(g89
g70
NtRp4959
(dp4960
g73
(dp4961
g93
g94
ssg82
g4955
sg75
(lp4962
S'generic_patterns'
p4963
asbag68
(g89
g70
NtRp4964
(dp4965
g73
(dp4966
g100
g101
ssg82
g4955
sg75
(lp4967
S':'
asbag68
(g89
g70
NtRp4968
(dp4969
g73
(dp4970
sg82
g4955
sg75
(lp4971
g68
(g69
g70
NtRp4972
(dp4973
g73
(dp4974
g81
I5
ssg82
g4968
sg75
(lp4975
g68
(g77
g70
NtRp4976
(dp4977
g73
(dp4978
g81
I4
ssg82
Nsg75
(lp4979
g68
(g84
g70
NtRp4980
(dp4981
g73
(dp4982
sg82
g4976
sg75
(lp4983
g68
(g89
g70
NtRp4984
(dp4985
g73
(dp4986
sg82
g4980
sg75
(lp4987
g68
(g69
g70
NtRp4988
(dp4989
g73
(dp4990
g81
I4
ssg82
g4984
sg75
(lp4991
S'*'
asbasbasbasbasbasbasbag68
(g84
g70
NtRp4992
(dp4993
g73
(dp4994
sg82
g4624
sg75
(lp4995
g68
(g89
g70
NtRp4996
(dp4997
g73
(dp4998
g93
g94
ssg82
g4992
sg75
(lp4999
S'headers'
p5000
asbag68
(g89
g70
NtRp5001
(dp5002
g73
(dp5003
g100
g101
ssg82
g4992
sg75
(lp5004
S':'
asbag68
(g89
g70
NtRp5005
(dp5006
g73
(dp5007
sg82
g4992
sg75
(lp5008
g68
(g69
g70
NtRp5009
(dp5010
g73
(dp5011
g81
I5
ssg82
g5005
sg75
(lp5012
g68
(g77
g70
NtRp5013
(dp5014
g73
(dp5015
g81
I4
ssg82
Nsg75
(lp5016
g68
(g84
g70
NtRp5017
(dp5018
g73
(dp5019
sg82
g5013
sg75
(lp5020
g68
(g89
g70
NtRp5021
(dp5022
g73
(dp5023
g93
g94
ssg82
g5017
sg75
(lp5024
S'X-Powered-By'
p5025
asbag68
(g89
g70
NtRp5026
(dp5027
g73
(dp5028
g100
g101
ssg82
g5017
sg75
(lp5029
S':'
asbag68
(g89
g70
NtRp5030
(dp5031
g73
(dp5032
sg82
g5017
sg75
(lp5033
g68
(g69
g70
NtRp5034
(dp5035
g73
(dp5036
g81
I4
ssg82
g5030
sg75
(lp5037
S'web2py'
p5038
asbasbasbasbasbasbasbag68
(g84
g70
NtRp5039
(dp5040
g73
(dp5041
sg82
g4624
sg75
(lp5042
g68
(g89
g70
NtRp5043
(dp5044
g73
(dp5045
g93
g94
ssg82
g5039
sg75
(lp5046
S'menu'
p5047
asbag68
(g89
g70
NtRp5048
(dp5049
g73
(dp5050
g100
g101
ssg82
g5039
sg75
(lp5051
S':'
asbag68
(g89
g70
NtRp5052
(dp5053
g73
(dp5054
sg82
g5039
sg75
(lp5055
g68
(g69
g70
NtRp5056
(dp5057
g73
(dp5058
g81
I5
ssg82
g5052
sg75
(lp5059
g68
(g77
g70
NtRp5060
(dp5061
g73
(dp5062
g81
I4
ssg82
Nsg75
(lp5063
sbasbasbasbag68
(g84
g70
NtRp5064
(dp5065
g73
(dp5066
sg82
g4624
sg75
(lp5067
g68
(g89
g70
NtRp5068
(dp5069
g73
(dp5070
g93
g94
ssg82
g5064
sg75
(lp5071
S'meta'
p5072
asbag68
(g89
g70
NtRp5073
(dp5074
g73
(dp5075
g100
g101
ssg82
g5064
sg75
(lp5076
S':'
asbag68
(g89
g70
NtRp5077
(dp5078
g73
(dp5079
sg82
g5064
sg75
(lp5080
g68
(g69
g70
NtRp5081
(dp5082
g73
(dp5083
g81
I5
ssg82
g5077
sg75
(lp5084
g68
(g77
g70
NtRp5085
(dp5086
g73
(dp5087
g81
I4
ssg82
Nsg75
(lp5088
g68
(g84
g70
NtRp5089
(dp5090
g73
(dp5091
sg82
g5085
sg75
(lp5092
g68
(g89
g70
NtRp5093
(dp5094
g73
(dp5095
g93
g94
ssg82
g5089
sg75
(lp5096
S'description'
p5097
asbag68
(g89
g70
NtRp5098
(dp5099
g73
(dp5100
g100
g101
ssg82
g5089
sg75
(lp5101
S':'
asbag68
(g89
g70
NtRp5102
(dp5103
g73
(dp5104
sg82
g5089
sg75
(lp5105
g68
(g69
g70
NtRp5106
(dp5107
g73
(dp5108
g81
I4
ssg82
g5102
sg75
(lp5109
S'blog do shedon'
p5110
asbasbasbag68
(g84
g70
NtRp5111
(dp5112
g73
(dp5113
sg82
g5085
sg75
(lp5114
g68
(g89
g70
NtRp5115
(dp5116
g73
(dp5117
g93
g94
ssg82
g5111
sg75
(lp5118
S'keywords'
p5119
asbag68
(g89
g70
NtRp5120
(dp5121
g73
(dp5122
g100
g101
ssg82
g5111
sg75
(lp5123
S':'
asbag68
(g89
g70
NtRp5124
(dp5125
g73
(dp5126
sg82
g5111
sg75
(lp5127
g68
(g69
g70
NtRp5128
(dp5129
g73
(dp5130
g81
I4
ssg82
g5124
sg75
(lp5131
S'chave, outra, e utra'
p5132
asbasbasbasbasbasbasbag68
(g84
g70
NtRp5133
(dp5134
g73
(dp5135
sg82
g4624
sg75
(lp5136
g68
(g89
g70
NtRp5137
(dp5138
g73
(dp5139
g93
g94
ssg82
g5133
sg75
(lp5140
S'models_to_run'
p5141
asbag68
(g89
g70
NtRp5142
(dp5143
g73
(dp5144
g100
g101
ssg82
g5133
sg75
(lp5145
S':'
asbag68
(g89
g70
NtRp5146
(dp5147
g73
(dp5148
sg82
g5133
sg75
(lp5149
g68
(g69
g70
NtRp5150
(dp5151
g73
(dp5152
g81
I5
ssg82
g5146
sg75
(lp5153
g68
(g77
g70
NtRp5154
(dp5155
g73
(dp5156
g81
I4
ssg82
Nsg75
(lp5157
g68
(g84
g70
NtRp5158
(dp5159
g73
(dp5160
sg82
g5154
sg75
(lp5161
g68
(g89
g70
NtRp5162
(dp5163
g73
(dp5164
sg82
g5158
sg75
(lp5165
g68
(g69
g70
NtRp5166
(dp5167
g73
(dp5168
g81
I4
ssg82
g5162
sg75
(lp5169
S'^\\w+\\.py$'
p5170
asbasbasbag68
(g84
g70
NtRp5171
(dp5172
g73
(dp5173
sg82
g5154
sg75
(lp5174
g68
(g89
g70
NtRp5175
(dp5176
g73
(dp5177
sg82
g5171
sg75
(lp5178
g68
(g69
g70
NtRp5179
(dp5180
g73
(dp5181
g81
I4
ssg82
g5175
sg75
(lp5182
S'^initial/\\w+\\.py$'
p5183
asbasbasbag68
(g84
g70
NtRp5184
(dp5185
g73
(dp5186
sg82
g5154
sg75
(lp5187
g68
(g89
g70
NtRp5188
(dp5189
g73
(dp5190
sg82
g5184
sg75
(lp5191
g68
(g69
g70
NtRp5192
(dp5193
g73
(dp5194
g81
I4
ssg82
g5188
sg75
(lp5195
S'^initial/home/\\w+\\.py$'
p5196
asbasbasbasbasbasbasbag68
(g84
g70
NtRp5197
(dp5198
g73
(dp5199
sg82
g4624
sg75
(lp5200
g68
(g89
g70
NtRp5201
(dp5202
g73
(dp5203
g93
g94
ssg82
g5197
sg75
(lp5204
S'postprocessing'
p5205
asbag68
(g89
g70
NtRp5206
(dp5207
g73
(dp5208
g100
g101
ssg82
g5197
sg75
(lp5209
S':'
asbag68
(g89
g70
NtRp5210
(dp5211
g73
(dp5212
sg82
g5197
sg75
(lp5213
g68
(g69
g70
NtRp5214
(dp5215
g73
(dp5216
g81
I5
ssg82
g5210
sg75
(lp5217
g68
(g77
g70
NtRp5218
(dp5219
g73
(dp5220
g81
I4
ssg82
Nsg75
(lp5221
sbasbasbasbag68
(g84
g70
NtRp5222
(dp5223
g73
(dp5224
sg82
g4624
sg75
(lp5225
g68
(g89
g70
NtRp5226
(dp5227
g73
(dp5228
g93
g94
ssg82
g5222
sg75
(lp5229
S'session_cookie_expires'
p5230
asbag68
(g89
g70
NtRp5231
(dp5232
g73
(dp5233
g100
g101
ssg82
g5222
sg75
(lp5234
S':'
asbag68
(g89
g70
NtRp5235
(dp5236
g73
(dp5237
sg82
g5222
sg75
(lp5238
g68
(g69
g70
NtRp5239
(dp5240
g73
(dp5241
g81
I5
ssg82
g5235
sg75
(lp5242
S'None'
p5243
asbasbasbag68
(g84
g70
NtRp5244
(dp5245
g73
(dp5246
sg82
g4624
sg75
(lp5247
g68
(g89
g70
NtRp5248
(dp5249
g73
(dp5250
g93
g94
ssg82
g5244
sg75
(lp5251
S'session_data_name'
p5252
asbag68
(g89
g70
NtRp5253
(dp5254
g73
(dp5255
g100
g101
ssg82
g5244
sg75
(lp5256
S':'
asbag68
(g89
g70
NtRp5257
(dp5258
g73
(dp5259
sg82
g5244
sg75
(lp5260
g68
(g69
g70
NtRp5261
(dp5262
g73
(dp5263
g81
I5
ssg82
g5257
sg75
(lp5264
S'session_data_projeto'
p5265
asbasbasbag68
(g84
g70
NtRp5266
(dp5267
g73
(dp5268
sg82
g4624
sg75
(lp5269
g68
(g89
g70
NtRp5270
(dp5271
g73
(dp5272
g93
g94
ssg82
g5266
sg75
(lp5273
S'session_file'
p5274
asbag68
(g89
g70
NtRp5275
(dp5276
g73
(dp5277
g100
g101
ssg82
g5266
sg75
(lp5278
S':'
asbag68
(g89
g70
NtRp5279
(dp5280
g73
(dp5281
sg82
g5266
sg75
(lp5282
g68
(g69
g70
NtRp5283
(dp5284
g73
(dp5285
g81
I5
ssg82
g5279
sg75
(lp5286
S'None'
p5287
asbasbasbag68
(g84
g70
NtRp5288
(dp5289
g73
(dp5290
sg82
g4624
sg75
(lp5291
g68
(g89
g70
NtRp5292
(dp5293
g73
(dp5294
g93
g94
ssg82
g5288
sg75
(lp5295
S'session_filename'
p5296
asbag68
(g89
g70
NtRp5297
(dp5298
g73
(dp5299
g100
g101
ssg82
g5288
sg75
(lp5300
S':'
asbag68
(g89
g70
NtRp5301
(dp5302
g73
(dp5303
sg82
g5288
sg75
(lp5304
g68
(g69
g70
NtRp5305
(dp5306
g73
(dp5307
g81
I5
ssg82
g5301
sg75
(lp5308
S'/var/www/web2py_curso/applications/projeto/sessions/127.0.0.1-a92e0168-6f87-49ed-a239-5acc06287f24'
p5309
asbasbasbag68
(g84
g70
NtRp5310
(dp5311
g73
(dp5312
sg82
g4624
sg75
(lp5313
g68
(g89
g70
NtRp5314
(dp5315
g73
(dp5316
g93
g94
ssg82
g5310
sg75
(lp5317
S'session_id'
p5318
asbag68
(g89
g70
NtRp5319
(dp5320
g73
(dp5321
g100
g101
ssg82
g5310
sg75
(lp5322
S':'
asbag68
(g89
g70
NtRp5323
(dp5324
g73
(dp5325
sg82
g5310
sg75
(lp5326
g68
(g69
g70
NtRp5327
(dp5328
g73
(dp5329
g81
I5
ssg82
g5323
sg75
(lp5330
g1786
asbasbasbag68
(g84
g70
NtRp5331
(dp5332
g73
(dp5333
sg82
g4624
sg75
(lp5334
g68
(g89
g70
NtRp5335
(dp5336
g73
(dp5337
g93
g94
ssg82
g5331
sg75
(lp5338
S'session_id_name'
p5339
asbag68
(g89
g70
NtRp5340
(dp5341
g73
(dp5342
g100
g101
ssg82
g5331
sg75
(lp5343
S':'
asbag68
(g89
g70
NtRp5344
(dp5345
g73
(dp5346
sg82
g5331
sg75
(lp5347
g68
(g69
g70
NtRp5348
(dp5349
g73
(dp5350
g81
I5
ssg82
g5344
sg75
(lp5351
g4681
asbasbasbag68
(g84
g70
NtRp5352
(dp5353
g73
(dp5354
sg82
g4624
sg75
(lp5355
g68
(g89
g70
NtRp5356
(dp5357
g73
(dp5358
g93
g94
ssg82
g5352
sg75
(lp5359
S'session_new'
p5360
asbag68
(g89
g70
NtRp5361
(dp5362
g73
(dp5363
g100
g101
ssg82
g5352
sg75
(lp5364
S':'
asbag68
(g89
g70
NtRp5365
(dp5366
g73
(dp5367
sg82
g5352
sg75
(lp5368
g68
(g69
g70
NtRp5369
(dp5370
g73
(dp5371
g81
I5
ssg82
g5365
sg75
(lp5372
g111
asbasbasbag68
(g84
g70
NtRp5373
(dp5374
g73
(dp5375
sg82
g4624
sg75
(lp5376
g68
(g89
g70
NtRp5377
(dp5378
g73
(dp5379
g93
g94
ssg82
g5373
sg75
(lp5380
S'session_storage_type'
p5381
asbag68
(g89
g70
NtRp5382
(dp5383
g73
(dp5384
g100
g101
ssg82
g5373
sg75
(lp5385
S':'
asbag68
(g89
g70
NtRp5386
(dp5387
g73
(dp5388
sg82
g5373
sg75
(lp5389
g68
(g69
g70
NtRp5390
(dp5391
g73
(dp5392
g81
I5
ssg82
g5386
sg75
(lp5393
g4553
asbasbasbag68
(g84
g70
NtRp5394
(dp5395
g73
(dp5396
sg82
g4624
sg75
(lp5397
g68
(g89
g70
NtRp5398
(dp5399
g73
(dp5400
g93
g94
ssg82
g5394
sg75
(lp5401
S'status'
p5402
asbag68
(g89
g70
NtRp5403
(dp5404
g73
(dp5405
g100
g101
ssg82
g5394
sg75
(lp5406
S':'
asbag68
(g89
g70
NtRp5407
(dp5408
g73
(dp5409
sg82
g5394
sg75
(lp5410
g68
(g69
g70
NtRp5411
(dp5412
g73
(dp5413
g81
I5
ssg82
g5407
sg75
(lp5414
S'200'
p5415
asbasbasbag68
(g84
g70
NtRp5416
(dp5417
g73
(dp5418
sg82
g4624
sg75
(lp5419
g68
(g89
g70
NtRp5420
(dp5421
g73
(dp5422
g93
g94
ssg82
g5416
sg75
(lp5423
S'subtitle'
p5424
asbag68
(g89
g70
NtRp5425
(dp5426
g73
(dp5427
g100
g101
ssg82
g5416
sg75
(lp5428
S':'
asbag68
(g89
g70
NtRp5429
(dp5430
g73
(dp5431
sg82
g5416
sg75
(lp5432
g68
(g69
g70
NtRp5433
(dp5434
g73
(dp5435
g81
I5
ssg82
g5429
sg75
(lp5436
S'O blog do sheldon'
p5437
asbasbasbag68
(g84
g70
NtRp5438
(dp5439
g73
(dp5440
sg82
g4624
sg75
(lp5441
g68
(g89
g70
NtRp5442
(dp5443
g73
(dp5444
g93
g94
ssg82
g5438
sg75
(lp5445
S'title'
p5446
asbag68
(g89
g70
NtRp5447
(dp5448
g73
(dp5449
g100
g101
ssg82
g5438
sg75
(lp5450
S':'
asbag68
(g89
g70
NtRp5451
(dp5452
g73
(dp5453
sg82
g5438
sg75
(lp5454
g68
(g69
g70
NtRp5455
(dp5456
g73
(dp5457
g81
I5
ssg82
g5451
sg75
(lp5458
S'Titulo home'
p5459
asbasbasbag68
(g84
g70
NtRp5460
(dp5461
g73
(dp5462
sg82
g4624
sg75
(lp5463
g68
(g89
g70
NtRp5464
(dp5465
g73
(dp5466
g93
g94
ssg82
g5460
sg75
(lp5467
S'view'
p5468
asbag68
(g89
g70
NtRp5469
(dp5470
g73
(dp5471
g100
g101
ssg82
g5460
sg75
(lp5472
S':'
asbag68
(g89
g70
NtRp5473
(dp5474
g73
(dp5475
sg82
g5460
sg75
(lp5476
g68
(g69
g70
NtRp5477
(dp5478
g73
(dp5479
g81
I5
ssg82
g5473
sg75
(lp5480
S'initial/home.html'
p5481
asbasbasbasbasbsS'locals'
p5482
(dp5483
g4
S"'/var/www/web2py_curso/applications/projeto/views/initial/home.html'"
p5484
sg6
S'\'response.write(\\\'<!DOCTYPE HTML>\\\\n<html lang="en"....</p>\\\\n</div>\\\\n\\\\n</body>\\\\n</html>\\\', escape=False)\''
p5485
sssS'traceback'
p5486
S'Traceback (most recent call last):\n  File "/var/www/web2py_curso/gluon/restricted.py", line 211, in restricted\n    ccode = compile2(code, layer)\n  File "/var/www/web2py_curso/gluon/restricted.py", line 194, in compile2\n    return compile(code.rstrip().replace(\'\\r\\n\', \'\\n\') + \'\\n\', layer, \'exec\')\n  File "/var/www/web2py_curso/applications/projeto/views/initial/home.html", line 8\n    response.write(URL(a=\'projeto, c=\'static\', f=\'css\'))\n                                           ^\nSyntaxError: invalid syntax\n'
p5487
s.