(dp1
S'output'
p2
S"<type 'exceptions.SyntaxError'> invalid syntax (post.py, line 13)"
p3
sS'layer'
p4
S'/var/www/web2py_curso/applications/projeto/controllers/post.py'
p5
sS'code'
p6
S'def show():\n\treturn "post"\n\ndef edit():\n\treturn "edit post"\n\ndef delete():\n\treturn "delete"\n\ndef add():\n\tlogger.debug("execute funcao add")\n\tlogger.info(str(request.vars))\n\ttry\n\t\t1/0\n\texcept ZeroDivisionError as erro:\n\tlogger.error(str(erro))\n\treturn "add"\n\nresponse._vars=response._caller(add)\n'
p7
sS'snapshot'
p8
(dp9
S'exception'
p10
(dp11
S'__getslice__'
p12
S"<method-wrapper '__getslice__' of exceptions.SyntaxError object>"
p13
sS'text'
p14
S"'\\ttry\\n'"
p15
sS'__str__'
p16
S"<method-wrapper '__str__' of exceptions.SyntaxError object>"
p17
sS'__reduce__'
p18
S'<built-in method __reduce__ of exceptions.SyntaxError object>'
p19
sS'__dict__'
p20
S'{}'
p21
sS'__sizeof__'
p22
S'<built-in method __sizeof__ of exceptions.SyntaxError object>'
p23
sS'__init__'
p24
S"<method-wrapper '__init__' of exceptions.SyntaxError object>"
p25
sS'__setattr__'
p26
S"<method-wrapper '__setattr__' of exceptions.SyntaxError object>"
p27
sS'__reduce_ex__'
p28
S'<built-in method __reduce_ex__ of exceptions.SyntaxError object>'
p29
sS'__new__'
p30
S'<built-in method __new__ of type object>'
p31
sS'__format__'
p32
S'<built-in method __format__ of exceptions.SyntaxError object>'
p33
sS'__class__'
p34
S"<type 'exceptions.SyntaxError'>"
p35
sS'filename'
p36
S"'/var/www/web2py_curso/applications/projeto/controllers/post.py'"
p37
sS'lineno'
p38
S'13'
p39
sS'msg'
p40
S"'invalid syntax'"
p41
sS'__doc__'
p42
S"'Invalid syntax.'"
p43
sS'__getitem__'
p44
S"<method-wrapper '__getitem__' of exceptions.SyntaxError object>"
p45
sS'__setstate__'
p46
S'<built-in method __setstate__ of exceptions.SyntaxError object>'
p47
sS'__getattribute__'
p48
S"<method-wrapper '__getattribute__' of exceptions.SyntaxError object>"
p49
sS'print_file_and_line'
p50
S'None'
p51
sS'args'
p52
S"('invalid syntax', ('/var/www/web2py_curso/applications/projeto/controllers/post.py', 13, 5, '\\ttry\\n'))"
p53
sS'__subclasshook__'
p54
S'<built-in method __subclasshook__ of type object>'
p55
sS'offset'
p56
S'5'
sS'__unicode__'
p57
S'<built-in method __unicode__ of exceptions.SyntaxError object>'
p58
sS'__delattr__'
p59
S"<method-wrapper '__delattr__' of exceptions.SyntaxError object>"
p60
sS'__repr__'
p61
S"<method-wrapper '__repr__' of exceptions.SyntaxError object>"
p62
sS'__hash__'
p63
S"<method-wrapper '__hash__' of exceptions.SyntaxError object>"
p64
ssS'evalue'
p65
S'invalid syntax (post.py, line 13)'
p66
sS'request'
p67
ccopy_reg
_reconstructor
p68
(cgluon.html
BEAUTIFY
p69
c__builtin__
object
p70
NtRp71
(dp72
S'attributes'
p73
(dp74
sS'components'
p75
(lp76
g68
(cgluon.html
TABLE
p77
g70
NtRp78
(dp79
g73
(dp80
S'level'
p81
I5
ssS'parent'
p82
Nsg75
(lp83
g68
(cgluon.html
TR
p84
g70
NtRp85
(dp86
g73
(dp87
sg82
g78
sg75
(lp88
g68
(cgluon.html
TD
p89
g70
NtRp90
(dp91
g73
(dp92
S'_style'
p93
S'font-weight:bold;vertical-align:top'
p94
ssg82
g85
sg75
(lp95
S'ajax'
p96
asbag68
(g89
g70
NtRp97
(dp98
g73
(dp99
S'_valign'
p100
S'top'
p101
ssg82
g85
sg75
(lp102
S':'
asbag68
(g89
g70
NtRp103
(dp104
g73
(dp105
sg82
g85
sg75
(lp106
g68
(g69
g70
NtRp107
(dp108
g73
(dp109
g81
I5
ssg82
g103
sg75
(lp110
S'False'
p111
asbasbasbag68
(g84
g70
NtRp112
(dp113
g73
(dp114
sg82
g78
sg75
(lp115
g68
(g89
g70
NtRp116
(dp117
g73
(dp118
g93
g94
ssg82
g112
sg75
(lp119
S'application'
p120
asbag68
(g89
g70
NtRp121
(dp122
g73
(dp123
g100
g101
ssg82
g112
sg75
(lp124
S':'
asbag68
(g89
g70
NtRp125
(dp126
g73
(dp127
sg82
g112
sg75
(lp128
g68
(g69
g70
NtRp129
(dp130
g73
(dp131
g81
I5
ssg82
g125
sg75
(lp132
S'projeto'
p133
asbasbasbag68
(g84
g70
NtRp134
(dp135
g73
(dp136
sg82
g78
sg75
(lp137
g68
(g89
g70
NtRp138
(dp139
g73
(dp140
g93
g94
ssg82
g134
sg75
(lp141
g52
asbag68
(g89
g70
NtRp142
(dp143
g73
(dp144
g100
g101
ssg82
g134
sg75
(lp145
S':'
asbag68
(g89
g70
NtRp146
(dp147
g73
(dp148
sg82
g134
sg75
(lp149
g68
(g69
g70
NtRp150
(dp151
g73
(dp152
g81
I5
ssg82
g146
sg75
(lp153
g68
(g77
g70
NtRp154
(dp155
g73
(dp156
g81
I4
ssg82
Nsg75
(lp157
sbasbasbasbag68
(g84
g70
NtRp158
(dp159
g73
(dp160
sg82
g78
sg75
(lp161
g68
(g89
g70
NtRp162
(dp163
g73
(dp164
g93
g94
ssg82
g158
sg75
(lp165
S'body'
p166
asbag68
(g89
g70
NtRp167
(dp168
g73
(dp169
g100
g101
ssg82
g158
sg75
(lp170
S':'
asbag68
(g89
g70
NtRp171
(dp172
g73
(dp173
sg82
g158
sg75
(lp174
g68
(g69
g70
NtRp175
(dp176
g73
(dp177
g81
I5
ssg82
g171
sg75
(lp178
S'<cStringIO.StringO object at 0x7fd3cc1d0c70>'
p179
asbasbasbag68
(g84
g70
NtRp180
(dp181
g73
(dp182
sg82
g78
sg75
(lp183
g68
(g89
g70
NtRp184
(dp185
g73
(dp186
g93
g94
ssg82
g180
sg75
(lp187
S'cid'
p188
asbag68
(g89
g70
NtRp189
(dp190
g73
(dp191
g100
g101
ssg82
g180
sg75
(lp192
S':'
asbag68
(g89
g70
NtRp193
(dp194
g73
(dp195
sg82
g180
sg75
(lp196
g68
(g69
g70
NtRp197
(dp198
g73
(dp199
g81
I5
ssg82
g193
sg75
(lp200
S'None'
p201
asbasbasbag68
(g84
g70
NtRp202
(dp203
g73
(dp204
sg82
g78
sg75
(lp205
g68
(g89
g70
NtRp206
(dp207
g73
(dp208
g93
g94
ssg82
g202
sg75
(lp209
S'client'
p210
asbag68
(g89
g70
NtRp211
(dp212
g73
(dp213
g100
g101
ssg82
g202
sg75
(lp214
S':'
asbag68
(g89
g70
NtRp215
(dp216
g73
(dp217
sg82
g202
sg75
(lp218
g68
(g69
g70
NtRp219
(dp220
g73
(dp221
g81
I5
ssg82
g215
sg75
(lp222
S'127.0.0.1'
p223
asbasbasbag68
(g84
g70
NtRp224
(dp225
g73
(dp226
sg82
g78
sg75
(lp227
g68
(g89
g70
NtRp228
(dp229
g73
(dp230
g93
g94
ssg82
g224
sg75
(lp231
S'controller'
p232
asbag68
(g89
g70
NtRp233
(dp234
g73
(dp235
g100
g101
ssg82
g224
sg75
(lp236
S':'
asbag68
(g89
g70
NtRp237
(dp238
g73
(dp239
sg82
g224
sg75
(lp240
g68
(g69
g70
NtRp241
(dp242
g73
(dp243
g81
I5
ssg82
g237
sg75
(lp244
S'post'
p245
asbasbasbag68
(g84
g70
NtRp246
(dp247
g73
(dp248
sg82
g78
sg75
(lp249
g68
(g89
g70
NtRp250
(dp251
g73
(dp252
g93
g94
ssg82
g246
sg75
(lp253
S'cookies'
p254
asbag68
(g89
g70
NtRp255
(dp256
g73
(dp257
g100
g101
ssg82
g246
sg75
(lp258
S':'
asbag68
(g89
g70
NtRp259
(dp260
g73
(dp261
sg82
g246
sg75
(lp262
g68
(g69
g70
NtRp263
(dp264
g73
(dp265
g81
I5
ssg82
g259
sg75
(lp266
g68
(g77
g70
NtRp267
(dp268
g73
(dp269
g81
I4
ssg82
Nsg75
(lp270
g68
(g84
g70
NtRp271
(dp272
g73
(dp273
sg82
g267
sg75
(lp274
g68
(g89
g70
NtRp275
(dp276
g73
(dp277
g93
g94
ssg82
g271
sg75
(lp278
S'session_id_projeto'
p279
asbag68
(g89
g70
NtRp280
(dp281
g73
(dp282
g100
g101
ssg82
g271
sg75
(lp283
S':'
asbag68
(g89
g70
NtRp284
(dp285
g73
(dp286
sg82
g271
sg75
(lp287
g68
(g69
g70
NtRp288
(dp289
g73
(dp290
g81
I4
ssg82
g284
sg75
(lp291
S'127.0.0.1-e368b264-444a-4dee-8b41-31155ff54a04'
p292
ag68
(g77
g70
NtRp293
(dp294
g73
(dp295
g81
I3
ssg82
Nsg75
(lp296
g68
(g84
g70
NtRp297
(dp298
g73
(dp299
sg82
g293
sg75
(lp300
g68
(g89
g70
NtRp301
(dp302
g73
(dp303
g93
g94
ssg82
g297
sg75
(lp304
S'comment'
p305
asbag68
(g89
g70
NtRp306
(dp307
g73
(dp308
g100
g101
ssg82
g297
sg75
(lp309
S':'
asbag68
(g89
g70
NtRp310
(dp311
g73
(dp312
sg82
g297
sg75
(lp313
g68
(g69
g70
NtRp314
(dp315
g73
(dp316
g81
I3
ssg82
g310
sg75
(lp317
S''
asbasbasbag68
(g84
g70
NtRp318
(dp319
g73
(dp320
sg82
g293
sg75
(lp321
g68
(g89
g70
NtRp322
(dp323
g73
(dp324
g93
g94
ssg82
g318
sg75
(lp325
S'domain'
p326
asbag68
(g89
g70
NtRp327
(dp328
g73
(dp329
g100
g101
ssg82
g318
sg75
(lp330
S':'
asbag68
(g89
g70
NtRp331
(dp332
g73
(dp333
sg82
g318
sg75
(lp334
g68
(g69
g70
NtRp335
(dp336
g73
(dp337
g81
I3
ssg82
g331
sg75
(lp338
S''
asbasbasbag68
(g84
g70
NtRp339
(dp340
g73
(dp341
sg82
g293
sg75
(lp342
g68
(g89
g70
NtRp343
(dp344
g73
(dp345
g93
g94
ssg82
g339
sg75
(lp346
S'expires'
p347
asbag68
(g89
g70
NtRp348
(dp349
g73
(dp350
g100
g101
ssg82
g339
sg75
(lp351
S':'
asbag68
(g89
g70
NtRp352
(dp353
g73
(dp354
sg82
g339
sg75
(lp355
g68
(g69
g70
NtRp356
(dp357
g73
(dp358
g81
I3
ssg82
g352
sg75
(lp359
S''
asbasbasbag68
(g84
g70
NtRp360
(dp361
g73
(dp362
sg82
g293
sg75
(lp363
g68
(g89
g70
NtRp364
(dp365
g73
(dp366
g93
g94
ssg82
g360
sg75
(lp367
S'httponly'
p368
asbag68
(g89
g70
NtRp369
(dp370
g73
(dp371
g100
g101
ssg82
g360
sg75
(lp372
S':'
asbag68
(g89
g70
NtRp373
(dp374
g73
(dp375
sg82
g360
sg75
(lp376
g68
(g69
g70
NtRp377
(dp378
g73
(dp379
g81
I3
ssg82
g373
sg75
(lp380
S''
asbasbasbag68
(g84
g70
NtRp381
(dp382
g73
(dp383
sg82
g293
sg75
(lp384
g68
(g89
g70
NtRp385
(dp386
g73
(dp387
g93
g94
ssg82
g381
sg75
(lp388
S'max-age'
p389
asbag68
(g89
g70
NtRp390
(dp391
g73
(dp392
g100
g101
ssg82
g381
sg75
(lp393
S':'
asbag68
(g89
g70
NtRp394
(dp395
g73
(dp396
sg82
g381
sg75
(lp397
g68
(g69
g70
NtRp398
(dp399
g73
(dp400
g81
I3
ssg82
g394
sg75
(lp401
S''
asbasbasbag68
(g84
g70
NtRp402
(dp403
g73
(dp404
sg82
g293
sg75
(lp405
g68
(g89
g70
NtRp406
(dp407
g73
(dp408
g93
g94
ssg82
g402
sg75
(lp409
S'path'
p410
asbag68
(g89
g70
NtRp411
(dp412
g73
(dp413
g100
g101
ssg82
g402
sg75
(lp414
S':'
asbag68
(g89
g70
NtRp415
(dp416
g73
(dp417
sg82
g402
sg75
(lp418
g68
(g69
g70
NtRp419
(dp420
g73
(dp421
g81
I3
ssg82
g415
sg75
(lp422
S''
asbasbasbag68
(g84
g70
NtRp423
(dp424
g73
(dp425
sg82
g293
sg75
(lp426
g68
(g89
g70
NtRp427
(dp428
g73
(dp429
g93
g94
ssg82
g423
sg75
(lp430
S'secure'
p431
asbag68
(g89
g70
NtRp432
(dp433
g73
(dp434
g100
g101
ssg82
g423
sg75
(lp435
S':'
asbag68
(g89
g70
NtRp436
(dp437
g73
(dp438
sg82
g423
sg75
(lp439
g68
(g69
g70
NtRp440
(dp441
g73
(dp442
g81
I3
ssg82
g436
sg75
(lp443
S''
asbasbasbag68
(g84
g70
NtRp444
(dp445
g73
(dp446
sg82
g293
sg75
(lp447
g68
(g89
g70
NtRp448
(dp449
g73
(dp450
g93
g94
ssg82
g444
sg75
(lp451
S'version'
p452
asbag68
(g89
g70
NtRp453
(dp454
g73
(dp455
g100
g101
ssg82
g444
sg75
(lp456
S':'
asbag68
(g89
g70
NtRp457
(dp458
g73
(dp459
sg82
g444
sg75
(lp460
g68
(g69
g70
NtRp461
(dp462
g73
(dp463
g81
I3
ssg82
g457
sg75
(lp464
S''
asbasbasbasbasbasbasbasbasbasbasbag68
(g84
g70
NtRp465
(dp466
g73
(dp467
sg82
g78
sg75
(lp468
g68
(g89
g70
NtRp469
(dp470
g73
(dp471
g93
g94
ssg82
g465
sg75
(lp472
S'env'
p473
asbag68
(g89
g70
NtRp474
(dp475
g73
(dp476
g100
g101
ssg82
g465
sg75
(lp477
S':'
asbag68
(g89
g70
NtRp478
(dp479
g73
(dp480
sg82
g465
sg75
(lp481
g68
(g69
g70
NtRp482
(dp483
g73
(dp484
g81
I5
ssg82
g478
sg75
(lp485
g68
(g77
g70
NtRp486
(dp487
g73
(dp488
g81
I4
ssg82
Nsg75
(lp489
g68
(g84
g70
NtRp490
(dp491
g73
(dp492
sg82
g486
sg75
(lp493
g68
(g89
g70
NtRp494
(dp495
g73
(dp496
g93
g94
ssg82
g490
sg75
(lp497
S'app_folders'
p498
asbag68
(g89
g70
NtRp499
(dp500
g73
(dp501
g100
g101
ssg82
g490
sg75
(lp502
S':'
asbag68
(g89
g70
NtRp503
(dp504
g73
(dp505
sg82
g490
sg75
(lp506
g68
(g69
g70
NtRp507
(dp508
g73
(dp509
g81
I4
ssg82
g503
sg75
(lp510
S"set(['/var/www/web2py_curso/applications/projeto/'])"
p511
asbasbasbag68
(g84
g70
NtRp512
(dp513
g73
(dp514
sg82
g486
sg75
(lp515
g68
(g89
g70
NtRp516
(dp517
g73
(dp518
g93
g94
ssg82
g512
sg75
(lp519
S'applications_parent'
p520
asbag68
(g89
g70
NtRp521
(dp522
g73
(dp523
g100
g101
ssg82
g512
sg75
(lp524
S':'
asbag68
(g89
g70
NtRp525
(dp526
g73
(dp527
sg82
g512
sg75
(lp528
g68
(g69
g70
NtRp529
(dp530
g73
(dp531
g81
I4
ssg82
g525
sg75
(lp532
S'/var/www/web2py_curso'
p533
asbasbasbag68
(g84
g70
NtRp534
(dp535
g73
(dp536
sg82
g486
sg75
(lp537
g68
(g89
g70
NtRp538
(dp539
g73
(dp540
g93
g94
ssg82
g534
sg75
(lp541
S'cmd_args'
p542
asbag68
(g89
g70
NtRp543
(dp544
g73
(dp545
g100
g101
ssg82
g534
sg75
(lp546
S':'
asbag68
(g89
g70
NtRp547
(dp548
g73
(dp549
sg82
g534
sg75
(lp550
g68
(g69
g70
NtRp551
(dp552
g73
(dp553
g81
I4
ssg82
g547
sg75
(lp554
g68
(g77
g70
NtRp555
(dp556
g73
(dp557
g81
I3
ssg82
Nsg75
(lp558
sbasbasbasbag68
(g84
g70
NtRp559
(dp560
g73
(dp561
sg82
g486
sg75
(lp562
g68
(g89
g70
NtRp563
(dp564
g73
(dp565
g93
g94
ssg82
g559
sg75
(lp566
S'cmd_options'
p567
asbag68
(g89
g70
NtRp568
(dp569
g73
(dp570
g100
g101
ssg82
g559
sg75
(lp571
S':'
asbag68
(g89
g70
NtRp572
(dp573
g73
(dp574
sg82
g559
sg75
(lp575
g68
(g69
g70
NtRp576
(dp577
g73
(dp578
g81
I4
ssg82
g572
sg75
(lp579
S"<Values at 0x33c6488: {'verbose': False, 'ip': '127.0.0.1', 'with_scheduler': False, 'ips': [], 'shutdown_timeout': 5, 'taskbar': False, 'port': 8000, 'maxthreads': None, 'softcron': False, 'server_name': 'fernado-desktop', 'bpython': False, 'nogui': False, 'pid_filename': 'httpserver.pid', 'extcron': False, 'runcron': False, 'run_system_tests': False, 'test': None, 'folder': '/var/www/web2py_curso', 'config': '', 'minthreads': None, 'winservice': '', 'shell': None, 'run': '', 'log_filename': 'httpserver.log', 'debuglevel': 30, 'args': [''], 'socket_timeout': 5, 'ssl_ca_certificate': None, 'scheduler': None, 'profiler_filename': None, 'ssl_private_key': '', 'scheduler_groups': None, 'password': '123456', 'request_queue_size': 5, 'ssl_certificate': '', 'cronjob': False, 'numthreads': None, 'quiet': False, 'interfaces': None, 'import_models': False, 'timeout': 10, 'plain': False, 'nobanner': False}>"
p580
asbasbasbag68
(g84
g70
NtRp581
(dp582
g73
(dp583
sg82
g486
sg75
(lp584
g68
(g89
g70
NtRp585
(dp586
g73
(dp587
g93
g94
ssg82
g581
sg75
(lp588
S'db_sessions'
p589
asbag68
(g89
g70
NtRp590
(dp591
g73
(dp592
g100
g101
ssg82
g581
sg75
(lp593
S':'
asbag68
(g89
g70
NtRp594
(dp595
g73
(dp596
sg82
g581
sg75
(lp597
g68
(g69
g70
NtRp598
(dp599
g73
(dp600
g81
I4
ssg82
g594
sg75
(lp601
S'set([])'
p602
asbasbasbag68
(g84
g70
NtRp603
(dp604
g73
(dp605
sg82
g486
sg75
(lp606
g68
(g89
g70
NtRp607
(dp608
g73
(dp609
g93
g94
ssg82
g603
sg75
(lp610
S'debugging'
p611
asbag68
(g89
g70
NtRp612
(dp613
g73
(dp614
g100
g101
ssg82
g603
sg75
(lp615
S':'
asbag68
(g89
g70
NtRp616
(dp617
g73
(dp618
sg82
g603
sg75
(lp619
g68
(g69
g70
NtRp620
(dp621
g73
(dp622
g81
I4
ssg82
g616
sg75
(lp623
g111
asbasbasbag68
(g84
g70
NtRp624
(dp625
g73
(dp626
sg82
g486
sg75
(lp627
g68
(g89
g70
NtRp628
(dp629
g73
(dp630
g93
g94
ssg82
g624
sg75
(lp631
S'gluon_parent'
p632
asbag68
(g89
g70
NtRp633
(dp634
g73
(dp635
g100
g101
ssg82
g624
sg75
(lp636
S':'
asbag68
(g89
g70
NtRp637
(dp638
g73
(dp639
sg82
g624
sg75
(lp640
g68
(g69
g70
NtRp641
(dp642
g73
(dp643
g81
I4
ssg82
g637
sg75
(lp644
S'/var/www/web2py_curso'
p645
asbasbasbag68
(g84
g70
NtRp646
(dp647
g73
(dp648
sg82
g486
sg75
(lp649
g68
(g89
g70
NtRp650
(dp651
g73
(dp652
g93
g94
ssg82
g646
sg75
(lp653
S'http_accept'
p654
asbag68
(g89
g70
NtRp655
(dp656
g73
(dp657
g100
g101
ssg82
g646
sg75
(lp658
S':'
asbag68
(g89
g70
NtRp659
(dp660
g73
(dp661
sg82
g646
sg75
(lp662
g68
(g69
g70
NtRp663
(dp664
g73
(dp665
g81
I4
ssg82
g659
sg75
(lp666
S'text/html,application/xhtml+xml,application/xml;q=0.9,*/*;q=0.8'
p667
asbasbasbag68
(g84
g70
NtRp668
(dp669
g73
(dp670
sg82
g486
sg75
(lp671
g68
(g89
g70
NtRp672
(dp673
g73
(dp674
g93
g94
ssg82
g668
sg75
(lp675
S'http_accept_charset'
p676
asbag68
(g89
g70
NtRp677
(dp678
g73
(dp679
g100
g101
ssg82
g668
sg75
(lp680
S':'
asbag68
(g89
g70
NtRp681
(dp682
g73
(dp683
sg82
g668
sg75
(lp684
g68
(g69
g70
NtRp685
(dp686
g73
(dp687
g81
I4
ssg82
g681
sg75
(lp688
S'ISO-8859-1,utf-8;q=0.7,*;q=0.3'
p689
asbasbasbag68
(g84
g70
NtRp690
(dp691
g73
(dp692
sg82
g486
sg75
(lp693
g68
(g89
g70
NtRp694
(dp695
g73
(dp696
g93
g94
ssg82
g690
sg75
(lp697
S'http_accept_encoding'
p698
asbag68
(g89
g70
NtRp699
(dp700
g73
(dp701
g100
g101
ssg82
g690
sg75
(lp702
S':'
asbag68
(g89
g70
NtRp703
(dp704
g73
(dp705
sg82
g690
sg75
(lp706
g68
(g69
g70
NtRp707
(dp708
g73
(dp709
g81
I4
ssg82
g703
sg75
(lp710
S'gzip,deflate,sdch'
p711
asbasbasbag68
(g84
g70
NtRp712
(dp713
g73
(dp714
sg82
g486
sg75
(lp715
g68
(g89
g70
NtRp716
(dp717
g73
(dp718
g93
g94
ssg82
g712
sg75
(lp719
S'http_accept_language'
p720
asbag68
(g89
g70
NtRp721
(dp722
g73
(dp723
g100
g101
ssg82
g712
sg75
(lp724
S':'
asbag68
(g89
g70
NtRp725
(dp726
g73
(dp727
sg82
g712
sg75
(lp728
g68
(g69
g70
NtRp729
(dp730
g73
(dp731
g81
I4
ssg82
g725
sg75
(lp732
S'pt-BR,pt;q=0.8,en-US;q=0.6,en;q=0.4'
p733
asbasbasbag68
(g84
g70
NtRp734
(dp735
g73
(dp736
sg82
g486
sg75
(lp737
g68
(g89
g70
NtRp738
(dp739
g73
(dp740
g93
g94
ssg82
g734
sg75
(lp741
S'http_connection'
p742
asbag68
(g89
g70
NtRp743
(dp744
g73
(dp745
g100
g101
ssg82
g734
sg75
(lp746
S':'
asbag68
(g89
g70
NtRp747
(dp748
g73
(dp749
sg82
g734
sg75
(lp750
g68
(g69
g70
NtRp751
(dp752
g73
(dp753
g81
I4
ssg82
g747
sg75
(lp754
S'keep-alive'
p755
asbasbasbag68
(g84
g70
NtRp756
(dp757
g73
(dp758
sg82
g486
sg75
(lp759
g68
(g89
g70
NtRp760
(dp761
g73
(dp762
g93
g94
ssg82
g756
sg75
(lp763
S'http_cookie'
p764
asbag68
(g89
g70
NtRp765
(dp766
g73
(dp767
g100
g101
ssg82
g756
sg75
(lp768
S':'
asbag68
(g89
g70
NtRp769
(dp770
g73
(dp771
sg82
g756
sg75
(lp772
g68
(g69
g70
NtRp773
(dp774
g73
(dp775
g81
I4
ssg82
g769
sg75
(lp776
S'session_id_projeto=127.0.0.1-e368b264-444a-4dee-8b41-31155ff54a04'
p777
asbasbasbag68
(g84
g70
NtRp778
(dp779
g73
(dp780
sg82
g486
sg75
(lp781
g68
(g89
g70
NtRp782
(dp783
g73
(dp784
g93
g94
ssg82
g778
sg75
(lp785
S'http_host'
p786
asbag68
(g89
g70
NtRp787
(dp788
g73
(dp789
g100
g101
ssg82
g778
sg75
(lp790
S':'
asbag68
(g89
g70
NtRp791
(dp792
g73
(dp793
sg82
g778
sg75
(lp794
g68
(g69
g70
NtRp795
(dp796
g73
(dp797
g81
I4
ssg82
g791
sg75
(lp798
S'127.0.0.1:8000'
p799
asbasbasbag68
(g84
g70
NtRp800
(dp801
g73
(dp802
sg82
g486
sg75
(lp803
g68
(g89
g70
NtRp804
(dp805
g73
(dp806
g93
g94
ssg82
g800
sg75
(lp807
S'http_user_agent'
p808
asbag68
(g89
g70
NtRp809
(dp810
g73
(dp811
g100
g101
ssg82
g800
sg75
(lp812
S':'
asbag68
(g89
g70
NtRp813
(dp814
g73
(dp815
sg82
g800
sg75
(lp816
g68
(g69
g70
NtRp817
(dp818
g73
(dp819
g81
I4
ssg82
g813
sg75
(lp820
S'Mozilla/5.0 (X11; Linux x86_64) AppleWebKit/537.4 (KHTML, like Gecko) Ubuntu/12.10 Chromium/22.0.1229.94 Chrome/22.0.1229.94 Safari/537.4'
p821
asbasbasbag68
(g84
g70
NtRp822
(dp823
g73
(dp824
sg82
g486
sg75
(lp825
g68
(g89
g70
NtRp826
(dp827
g73
(dp828
g93
g94
ssg82
g822
sg75
(lp829
S'is_jython'
p830
asbag68
(g89
g70
NtRp831
(dp832
g73
(dp833
g100
g101
ssg82
g822
sg75
(lp834
S':'
asbag68
(g89
g70
NtRp835
(dp836
g73
(dp837
sg82
g822
sg75
(lp838
g68
(g69
g70
NtRp839
(dp840
g73
(dp841
g81
I4
ssg82
g835
sg75
(lp842
g111
asbasbasbag68
(g84
g70
NtRp843
(dp844
g73
(dp845
sg82
g486
sg75
(lp846
g68
(g89
g70
NtRp847
(dp848
g73
(dp849
g93
g94
ssg82
g843
sg75
(lp850
S'is_pypy'
p851
asbag68
(g89
g70
NtRp852
(dp853
g73
(dp854
g100
g101
ssg82
g843
sg75
(lp855
S':'
asbag68
(g89
g70
NtRp856
(dp857
g73
(dp858
sg82
g843
sg75
(lp859
g68
(g69
g70
NtRp860
(dp861
g73
(dp862
g81
I4
ssg82
g856
sg75
(lp863
g111
asbasbasbag68
(g84
g70
NtRp864
(dp865
g73
(dp866
sg82
g486
sg75
(lp867
g68
(g89
g70
NtRp868
(dp869
g73
(dp870
g93
g94
ssg82
g864
sg75
(lp871
S'local_hosts'
p872
asbag68
(g89
g70
NtRp873
(dp874
g73
(dp875
g100
g101
ssg82
g864
sg75
(lp876
S':'
asbag68
(g89
g70
NtRp877
(dp878
g73
(dp879
sg82
g864
sg75
(lp880
g68
(g69
g70
NtRp881
(dp882
g73
(dp883
g81
I4
ssg82
g877
sg75
(lp884
g68
(g77
g70
NtRp885
(dp886
g73
(dp887
g81
I3
ssg82
Nsg75
(lp888
g68
(g84
g70
NtRp889
(dp890
g73
(dp891
sg82
g885
sg75
(lp892
g68
(g89
g70
NtRp893
(dp894
g73
(dp895
sg82
g889
sg75
(lp896
g68
(g69
g70
NtRp897
(dp898
g73
(dp899
g81
I3
ssg82
g893
sg75
(lp900
S'127.0.1.1'
p901
asbasbasbag68
(g84
g70
NtRp902
(dp903
g73
(dp904
sg82
g885
sg75
(lp905
g68
(g89
g70
NtRp906
(dp907
g73
(dp908
sg82
g902
sg75
(lp909
g68
(g69
g70
NtRp910
(dp911
g73
(dp912
g81
I3
ssg82
g906
sg75
(lp913
S'::1'
p914
asbasbasbag68
(g84
g70
NtRp915
(dp916
g73
(dp917
sg82
g885
sg75
(lp918
g68
(g89
g70
NtRp919
(dp920
g73
(dp921
sg82
g915
sg75
(lp922
g68
(g69
g70
NtRp923
(dp924
g73
(dp925
g81
I3
ssg82
g919
sg75
(lp926
S'fernado-desktop'
p927
asbasbasbag68
(g84
g70
NtRp928
(dp929
g73
(dp930
sg82
g885
sg75
(lp931
g68
(g89
g70
NtRp932
(dp933
g73
(dp934
sg82
g928
sg75
(lp935
g68
(g69
g70
NtRp936
(dp937
g73
(dp938
g81
I3
ssg82
g932
sg75
(lp939
S'::ffff:127.0.0.1'
p940
asbasbasbag68
(g84
g70
NtRp941
(dp942
g73
(dp943
sg82
g885
sg75
(lp944
g68
(g89
g70
NtRp945
(dp946
g73
(dp947
sg82
g941
sg75
(lp948
g68
(g69
g70
NtRp949
(dp950
g73
(dp951
g81
I3
ssg82
g945
sg75
(lp952
S'127.0.0.1'
p953
asbasbasbasbasbasbasbag68
(g84
g70
NtRp954
(dp955
g73
(dp956
sg82
g486
sg75
(lp957
g68
(g89
g70
NtRp958
(dp959
g73
(dp960
g93
g94
ssg82
g954
sg75
(lp961
S'path_info'
p962
asbag68
(g89
g70
NtRp963
(dp964
g73
(dp965
g100
g101
ssg82
g954
sg75
(lp966
S':'
asbag68
(g89
g70
NtRp967
(dp968
g73
(dp969
sg82
g954
sg75
(lp970
g68
(g69
g70
NtRp971
(dp972
g73
(dp973
g81
I4
ssg82
g967
sg75
(lp974
S'/post/add'
p975
asbasbasbag68
(g84
g70
NtRp976
(dp977
g73
(dp978
sg82
g486
sg75
(lp979
g68
(g89
g70
NtRp980
(dp981
g73
(dp982
g93
g94
ssg82
g976
sg75
(lp983
S'query_string'
p984
asbag68
(g89
g70
NtRp985
(dp986
g73
(dp987
g100
g101
ssg82
g976
sg75
(lp988
S':'
asbag68
(g89
g70
NtRp989
(dp990
g73
(dp991
sg82
g976
sg75
(lp992
g68
(g69
g70
NtRp993
(dp994
g73
(dp995
g81
I4
ssg82
g989
sg75
(lp996
S''
asbasbasbag68
(g84
g70
NtRp997
(dp998
g73
(dp999
sg82
g486
sg75
(lp1000
g68
(g89
g70
NtRp1001
(dp1002
g73
(dp1003
g93
g94
ssg82
g997
sg75
(lp1004
S'remote_addr'
p1005
asbag68
(g89
g70
NtRp1006
(dp1007
g73
(dp1008
g100
g101
ssg82
g997
sg75
(lp1009
S':'
asbag68
(g89
g70
NtRp1010
(dp1011
g73
(dp1012
sg82
g997
sg75
(lp1013
g68
(g69
g70
NtRp1014
(dp1015
g73
(dp1016
g81
I4
ssg82
g1010
sg75
(lp1017
g223
asbasbasbag68
(g84
g70
NtRp1018
(dp1019
g73
(dp1020
sg82
g486
sg75
(lp1021
g68
(g89
g70
NtRp1022
(dp1023
g73
(dp1024
g93
g94
ssg82
g1018
sg75
(lp1025
S'remote_port'
p1026
asbag68
(g89
g70
NtRp1027
(dp1028
g73
(dp1029
g100
g101
ssg82
g1018
sg75
(lp1030
S':'
asbag68
(g89
g70
NtRp1031
(dp1032
g73
(dp1033
sg82
g1018
sg75
(lp1034
g68
(g69
g70
NtRp1035
(dp1036
g73
(dp1037
g81
I4
ssg82
g1031
sg75
(lp1038
S'57627'
p1039
asbasbasbag68
(g84
g70
NtRp1040
(dp1041
g73
(dp1042
sg82
g486
sg75
(lp1043
g68
(g89
g70
NtRp1044
(dp1045
g73
(dp1046
g93
g94
ssg82
g1040
sg75
(lp1047
S'request_method'
p1048
asbag68
(g89
g70
NtRp1049
(dp1050
g73
(dp1051
g100
g101
ssg82
g1040
sg75
(lp1052
S':'
asbag68
(g89
g70
NtRp1053
(dp1054
g73
(dp1055
sg82
g1040
sg75
(lp1056
g68
(g69
g70
NtRp1057
(dp1058
g73
(dp1059
g81
I4
ssg82
g1053
sg75
(lp1060
S'GET'
p1061
asbasbasbag68
(g84
g70
NtRp1062
(dp1063
g73
(dp1064
sg82
g486
sg75
(lp1065
g68
(g89
g70
NtRp1066
(dp1067
g73
(dp1068
g93
g94
ssg82
g1062
sg75
(lp1069
S'request_uri'
p1070
asbag68
(g89
g70
NtRp1071
(dp1072
g73
(dp1073
g100
g101
ssg82
g1062
sg75
(lp1074
S':'
asbag68
(g89
g70
NtRp1075
(dp1076
g73
(dp1077
sg82
g1062
sg75
(lp1078
g68
(g69
g70
NtRp1079
(dp1080
g73
(dp1081
g81
I4
ssg82
g1075
sg75
(lp1082
S'/projeto/post/add'
p1083
asbasbasbag68
(g84
g70
NtRp1084
(dp1085
g73
(dp1086
sg82
g486
sg75
(lp1087
g68
(g89
g70
NtRp1088
(dp1089
g73
(dp1090
g93
g94
ssg82
g1084
sg75
(lp1091
S'script_name'
p1092
asbag68
(g89
g70
NtRp1093
(dp1094
g73
(dp1095
g100
g101
ssg82
g1084
sg75
(lp1096
S':'
asbag68
(g89
g70
NtRp1097
(dp1098
g73
(dp1099
sg82
g1084
sg75
(lp1100
g68
(g69
g70
NtRp1101
(dp1102
g73
(dp1103
g81
I4
ssg82
g1097
sg75
(lp1104
S''
asbasbasbag68
(g84
g70
NtRp1105
(dp1106
g73
(dp1107
sg82
g486
sg75
(lp1108
g68
(g89
g70
NtRp1109
(dp1110
g73
(dp1111
g93
g94
ssg82
g1105
sg75
(lp1112
S'server_name'
p1113
asbag68
(g89
g70
NtRp1114
(dp1115
g73
(dp1116
g100
g101
ssg82
g1105
sg75
(lp1117
S':'
asbag68
(g89
g70
NtRp1118
(dp1119
g73
(dp1120
sg82
g1105
sg75
(lp1121
g68
(g69
g70
NtRp1122
(dp1123
g73
(dp1124
g81
I4
ssg82
g1118
sg75
(lp1125
S'fernado-desktop'
p1126
asbasbasbag68
(g84
g70
NtRp1127
(dp1128
g73
(dp1129
sg82
g486
sg75
(lp1130
g68
(g89
g70
NtRp1131
(dp1132
g73
(dp1133
g93
g94
ssg82
g1127
sg75
(lp1134
S'server_port'
p1135
asbag68
(g89
g70
NtRp1136
(dp1137
g73
(dp1138
g100
g101
ssg82
g1127
sg75
(lp1139
S':'
asbag68
(g89
g70
NtRp1140
(dp1141
g73
(dp1142
sg82
g1127
sg75
(lp1143
g68
(g69
g70
NtRp1144
(dp1145
g73
(dp1146
g81
I4
ssg82
g1140
sg75
(lp1147
S'8000'
p1148
asbasbasbag68
(g84
g70
NtRp1149
(dp1150
g73
(dp1151
sg82
g486
sg75
(lp1152
g68
(g89
g70
NtRp1153
(dp1154
g73
(dp1155
g93
g94
ssg82
g1149
sg75
(lp1156
S'server_protocol'
p1157
asbag68
(g89
g70
NtRp1158
(dp1159
g73
(dp1160
g100
g101
ssg82
g1149
sg75
(lp1161
S':'
asbag68
(g89
g70
NtRp1162
(dp1163
g73
(dp1164
sg82
g1149
sg75
(lp1165
g68
(g69
g70
NtRp1166
(dp1167
g73
(dp1168
g81
I4
ssg82
g1162
sg75
(lp1169
S'HTTP/1.1'
p1170
asbasbasbag68
(g84
g70
NtRp1171
(dp1172
g73
(dp1173
sg82
g486
sg75
(lp1174
g68
(g89
g70
NtRp1175
(dp1176
g73
(dp1177
g93
g94
ssg82
g1171
sg75
(lp1178
S'server_software'
p1179
asbag68
(g89
g70
NtRp1180
(dp1181
g73
(dp1182
g100
g101
ssg82
g1171
sg75
(lp1183
S':'
asbag68
(g89
g70
NtRp1184
(dp1185
g73
(dp1186
sg82
g1171
sg75
(lp1187
g68
(g69
g70
NtRp1188
(dp1189
g73
(dp1190
g81
I4
ssg82
g1184
sg75
(lp1191
S'Rocket 1.2.6'
p1192
asbasbasbag68
(g84
g70
NtRp1193
(dp1194
g73
(dp1195
sg82
g486
sg75
(lp1196
g68
(g89
g70
NtRp1197
(dp1198
g73
(dp1199
g93
g94
ssg82
g1193
sg75
(lp1200
S'web2py_original_uri'
p1201
asbag68
(g89
g70
NtRp1202
(dp1203
g73
(dp1204
g100
g101
ssg82
g1193
sg75
(lp1205
S':'
asbag68
(g89
g70
NtRp1206
(dp1207
g73
(dp1208
sg82
g1193
sg75
(lp1209
g68
(g69
g70
NtRp1210
(dp1211
g73
(dp1212
g81
I4
ssg82
g1206
sg75
(lp1213
g975
asbasbasbag68
(g84
g70
NtRp1214
(dp1215
g73
(dp1216
sg82
g486
sg75
(lp1217
g68
(g89
g70
NtRp1218
(dp1219
g73
(dp1220
g93
g94
ssg82
g1214
sg75
(lp1221
S'web2py_path'
p1222
asbag68
(g89
g70
NtRp1223
(dp1224
g73
(dp1225
g100
g101
ssg82
g1214
sg75
(lp1226
S':'
asbag68
(g89
g70
NtRp1227
(dp1228
g73
(dp1229
sg82
g1214
sg75
(lp1230
g68
(g69
g70
NtRp1231
(dp1232
g73
(dp1233
g81
I4
ssg82
g1227
sg75
(lp1234
g533
asbasbasbag68
(g84
g70
NtRp1235
(dp1236
g73
(dp1237
sg82
g486
sg75
(lp1238
g68
(g89
g70
NtRp1239
(dp1240
g73
(dp1241
g93
g94
ssg82
g1235
sg75
(lp1242
S'web2py_version'
p1243
asbag68
(g89
g70
NtRp1244
(dp1245
g73
(dp1246
g100
g101
ssg82
g1235
sg75
(lp1247
S':'
asbag68
(g89
g70
NtRp1248
(dp1249
g73
(dp1250
sg82
g1235
sg75
(lp1251
g68
(g69
g70
NtRp1252
(dp1253
g73
(dp1254
g81
I4
ssg82
g1248
sg75
(lp1255
g68
(g77
g70
NtRp1256
(dp1257
g73
(dp1258
g81
I3
ssg82
Nsg75
(lp1259
g68
(g84
g70
NtRp1260
(dp1261
g73
(dp1262
sg82
g1256
sg75
(lp1263
g68
(g89
g70
NtRp1264
(dp1265
g73
(dp1266
sg82
g1260
sg75
(lp1267
g68
(g69
g70
NtRp1268
(dp1269
g73
(dp1270
g81
I3
ssg82
g1264
sg75
(lp1271
S'2'
asbasbasbag68
(g84
g70
NtRp1272
(dp1273
g73
(dp1274
sg82
g1256
sg75
(lp1275
g68
(g89
g70
NtRp1276
(dp1277
g73
(dp1278
sg82
g1272
sg75
(lp1279
g68
(g69
g70
NtRp1280
(dp1281
g73
(dp1282
g81
I3
ssg82
g1276
sg75
(lp1283
S'3'
asbasbasbag68
(g84
g70
NtRp1284
(dp1285
g73
(dp1286
sg82
g1256
sg75
(lp1287
g68
(g89
g70
NtRp1288
(dp1289
g73
(dp1290
sg82
g1284
sg75
(lp1291
g68
(g69
g70
NtRp1292
(dp1293
g73
(dp1294
g81
I3
ssg82
g1288
sg75
(lp1295
S'2'
asbasbasbag68
(g84
g70
NtRp1296
(dp1297
g73
(dp1298
sg82
g1256
sg75
(lp1299
g68
(g89
g70
NtRp1300
(dp1301
g73
(dp1302
sg82
g1296
sg75
(lp1303
g68
(g69
g70
NtRp1304
(dp1305
g73
(dp1306
g81
I3
ssg82
g1300
sg75
(lp1307
S'datetime.datetime(2012, 12, 17, 15, 3, 30)'
p1308
asbasbasbag68
(g84
g70
NtRp1309
(dp1310
g73
(dp1311
sg82
g1256
sg75
(lp1312
g68
(g89
g70
NtRp1313
(dp1314
g73
(dp1315
sg82
g1309
sg75
(lp1316
g68
(g69
g70
NtRp1317
(dp1318
g73
(dp1319
g81
I3
ssg82
g1313
sg75
(lp1320
S'stable'
p1321
asbasbasbasbasbasbasbag68
(g84
g70
NtRp1322
(dp1323
g73
(dp1324
sg82
g486
sg75
(lp1325
g68
(g89
g70
NtRp1326
(dp1327
g73
(dp1328
g93
g94
ssg82
g1322
sg75
(lp1329
S'wsgi_errors'
p1330
asbag68
(g89
g70
NtRp1331
(dp1332
g73
(dp1333
g100
g101
ssg82
g1322
sg75
(lp1334
S':'
asbag68
(g89
g70
NtRp1335
(dp1336
g73
(dp1337
sg82
g1322
sg75
(lp1338
g68
(g69
g70
NtRp1339
(dp1340
g73
(dp1341
g81
I4
ssg82
g1335
sg75
(lp1342
S"<open file '<stderr>', mode 'w' at 0x7fd3f50ee270>"
p1343
asbasbasbag68
(g84
g70
NtRp1344
(dp1345
g73
(dp1346
sg82
g486
sg75
(lp1347
g68
(g89
g70
NtRp1348
(dp1349
g73
(dp1350
g93
g94
ssg82
g1344
sg75
(lp1351
S'wsgi_file_wrapper'
p1352
asbag68
(g89
g70
NtRp1353
(dp1354
g73
(dp1355
g100
g101
ssg82
g1344
sg75
(lp1356
S':'
asbag68
(g89
g70
NtRp1357
(dp1358
g73
(dp1359
sg82
g1344
sg75
(lp1360
g68
(g69
g70
NtRp1361
(dp1362
g73
(dp1363
g81
I4
ssg82
g1357
sg75
(lp1364
S'<class wsgiref.util.FileWrapper at 0x331ba10>'
p1365
asbasbasbag68
(g84
g70
NtRp1366
(dp1367
g73
(dp1368
sg82
g486
sg75
(lp1369
g68
(g89
g70
NtRp1370
(dp1371
g73
(dp1372
g93
g94
ssg82
g1366
sg75
(lp1373
S'wsgi_input'
p1374
asbag68
(g89
g70
NtRp1375
(dp1376
g73
(dp1377
g100
g101
ssg82
g1366
sg75
(lp1378
S':'
asbag68
(g89
g70
NtRp1379
(dp1380
g73
(dp1381
sg82
g1366
sg75
(lp1382
g68
(g69
g70
NtRp1383
(dp1384
g73
(dp1385
g81
I4
ssg82
g1379
sg75
(lp1386
S'<socket._fileobject object at 0x7fd3d41994d0>'
p1387
asbasbasbag68
(g84
g70
NtRp1388
(dp1389
g73
(dp1390
sg82
g486
sg75
(lp1391
g68
(g89
g70
NtRp1392
(dp1393
g73
(dp1394
g93
g94
ssg82
g1388
sg75
(lp1395
S'wsgi_multiprocess'
p1396
asbag68
(g89
g70
NtRp1397
(dp1398
g73
(dp1399
g100
g101
ssg82
g1388
sg75
(lp1400
S':'
asbag68
(g89
g70
NtRp1401
(dp1402
g73
(dp1403
sg82
g1388
sg75
(lp1404
g68
(g69
g70
NtRp1405
(dp1406
g73
(dp1407
g81
I4
ssg82
g1401
sg75
(lp1408
g111
asbasbasbag68
(g84
g70
NtRp1409
(dp1410
g73
(dp1411
sg82
g486
sg75
(lp1412
g68
(g89
g70
NtRp1413
(dp1414
g73
(dp1415
g93
g94
ssg82
g1409
sg75
(lp1416
S'wsgi_multithread'
p1417
asbag68
(g89
g70
NtRp1418
(dp1419
g73
(dp1420
g100
g101
ssg82
g1409
sg75
(lp1421
S':'
asbag68
(g89
g70
NtRp1422
(dp1423
g73
(dp1424
sg82
g1409
sg75
(lp1425
g68
(g69
g70
NtRp1426
(dp1427
g73
(dp1428
g81
I4
ssg82
g1422
sg75
(lp1429
S'True'
p1430
asbasbasbag68
(g84
g70
NtRp1431
(dp1432
g73
(dp1433
sg82
g486
sg75
(lp1434
g68
(g89
g70
NtRp1435
(dp1436
g73
(dp1437
g93
g94
ssg82
g1431
sg75
(lp1438
S'wsgi_run_once'
p1439
asbag68
(g89
g70
NtRp1440
(dp1441
g73
(dp1442
g100
g101
ssg82
g1431
sg75
(lp1443
S':'
asbag68
(g89
g70
NtRp1444
(dp1445
g73
(dp1446
sg82
g1431
sg75
(lp1447
g68
(g69
g70
NtRp1448
(dp1449
g73
(dp1450
g81
I4
ssg82
g1444
sg75
(lp1451
g111
asbasbasbag68
(g84
g70
NtRp1452
(dp1453
g73
(dp1454
sg82
g486
sg75
(lp1455
g68
(g89
g70
NtRp1456
(dp1457
g73
(dp1458
g93
g94
ssg82
g1452
sg75
(lp1459
S'wsgi_url_scheme'
p1460
asbag68
(g89
g70
NtRp1461
(dp1462
g73
(dp1463
g100
g101
ssg82
g1452
sg75
(lp1464
S':'
asbag68
(g89
g70
NtRp1465
(dp1466
g73
(dp1467
sg82
g1452
sg75
(lp1468
g68
(g69
g70
NtRp1469
(dp1470
g73
(dp1471
g81
I4
ssg82
g1465
sg75
(lp1472
S'http'
p1473
asbasbasbag68
(g84
g70
NtRp1474
(dp1475
g73
(dp1476
sg82
g486
sg75
(lp1477
g68
(g89
g70
NtRp1478
(dp1479
g73
(dp1480
g93
g94
ssg82
g1474
sg75
(lp1481
S'wsgi_version'
p1482
asbag68
(g89
g70
NtRp1483
(dp1484
g73
(dp1485
g100
g101
ssg82
g1474
sg75
(lp1486
S':'
asbag68
(g89
g70
NtRp1487
(dp1488
g73
(dp1489
sg82
g1474
sg75
(lp1490
g68
(g69
g70
NtRp1491
(dp1492
g73
(dp1493
g81
I4
ssg82
g1487
sg75
(lp1494
g68
(g77
g70
NtRp1495
(dp1496
g73
(dp1497
g81
I3
ssg82
Nsg75
(lp1498
g68
(g84
g70
NtRp1499
(dp1500
g73
(dp1501
sg82
g1495
sg75
(lp1502
g68
(g89
g70
NtRp1503
(dp1504
g73
(dp1505
sg82
g1499
sg75
(lp1506
g68
(g69
g70
NtRp1507
(dp1508
g73
(dp1509
g81
I3
ssg82
g1503
sg75
(lp1510
S'1'
asbasbasbag68
(g84
g70
NtRp1511
(dp1512
g73
(dp1513
sg82
g1495
sg75
(lp1514
g68
(g89
g70
NtRp1515
(dp1516
g73
(dp1517
sg82
g1511
sg75
(lp1518
g68
(g69
g70
NtRp1519
(dp1520
g73
(dp1521
g81
I3
ssg82
g1515
sg75
(lp1522
S'0'
asbasbasbasbasbasbasbasbasbasbasbag68
(g84
g70
NtRp1523
(dp1524
g73
(dp1525
sg82
g78
sg75
(lp1526
g68
(g89
g70
NtRp1527
(dp1528
g73
(dp1529
g93
g94
ssg82
g1523
sg75
(lp1530
S'extension'
p1531
asbag68
(g89
g70
NtRp1532
(dp1533
g73
(dp1534
g100
g101
ssg82
g1523
sg75
(lp1535
S':'
asbag68
(g89
g70
NtRp1536
(dp1537
g73
(dp1538
sg82
g1523
sg75
(lp1539
g68
(g69
g70
NtRp1540
(dp1541
g73
(dp1542
g81
I5
ssg82
g1536
sg75
(lp1543
S'html'
p1544
asbasbasbag68
(g84
g70
NtRp1545
(dp1546
g73
(dp1547
sg82
g78
sg75
(lp1548
g68
(g89
g70
NtRp1549
(dp1550
g73
(dp1551
g93
g94
ssg82
g1545
sg75
(lp1552
S'folder'
p1553
asbag68
(g89
g70
NtRp1554
(dp1555
g73
(dp1556
g100
g101
ssg82
g1545
sg75
(lp1557
S':'
asbag68
(g89
g70
NtRp1558
(dp1559
g73
(dp1560
sg82
g1545
sg75
(lp1561
g68
(g69
g70
NtRp1562
(dp1563
g73
(dp1564
g81
I5
ssg82
g1558
sg75
(lp1565
S'/var/www/web2py_curso/applications/projeto/'
p1566
asbasbasbag68
(g84
g70
NtRp1567
(dp1568
g73
(dp1569
sg82
g78
sg75
(lp1570
g68
(g89
g70
NtRp1571
(dp1572
g73
(dp1573
g93
g94
ssg82
g1567
sg75
(lp1574
S'function'
p1575
asbag68
(g89
g70
NtRp1576
(dp1577
g73
(dp1578
g100
g101
ssg82
g1567
sg75
(lp1579
S':'
asbag68
(g89
g70
NtRp1580
(dp1581
g73
(dp1582
sg82
g1567
sg75
(lp1583
g68
(g69
g70
NtRp1584
(dp1585
g73
(dp1586
g81
I5
ssg82
g1580
sg75
(lp1587
S'add'
p1588
asbasbasbag68
(g84
g70
NtRp1589
(dp1590
g73
(dp1591
sg82
g78
sg75
(lp1592
g68
(g89
g70
NtRp1593
(dp1594
g73
(dp1595
g93
g94
ssg82
g1589
sg75
(lp1596
S'get_vars'
p1597
asbag68
(g89
g70
NtRp1598
(dp1599
g73
(dp1600
g100
g101
ssg82
g1589
sg75
(lp1601
S':'
asbag68
(g89
g70
NtRp1602
(dp1603
g73
(dp1604
sg82
g1589
sg75
(lp1605
g68
(g69
g70
NtRp1606
(dp1607
g73
(dp1608
g81
I5
ssg82
g1602
sg75
(lp1609
g68
(g77
g70
NtRp1610
(dp1611
g73
(dp1612
g81
I4
ssg82
Nsg75
(lp1613
sbasbasbasbag68
(g84
g70
NtRp1614
(dp1615
g73
(dp1616
sg82
g78
sg75
(lp1617
g68
(g89
g70
NtRp1618
(dp1619
g73
(dp1620
g93
g94
ssg82
g1614
sg75
(lp1621
S'global_settings'
p1622
asbag68
(g89
g70
NtRp1623
(dp1624
g73
(dp1625
g100
g101
ssg82
g1614
sg75
(lp1626
S':'
asbag68
(g89
g70
NtRp1627
(dp1628
g73
(dp1629
sg82
g1614
sg75
(lp1630
g68
(g69
g70
NtRp1631
(dp1632
g73
(dp1633
g81
I5
ssg82
g1627
sg75
(lp1634
g68
(g77
g70
NtRp1635
(dp1636
g73
(dp1637
g81
I4
ssg82
Nsg75
(lp1638
g68
(g84
g70
NtRp1639
(dp1640
g73
(dp1641
sg82
g1635
sg75
(lp1642
g68
(g89
g70
NtRp1643
(dp1644
g73
(dp1645
g93
g94
ssg82
g1639
sg75
(lp1646
g498
asbag68
(g89
g70
NtRp1647
(dp1648
g73
(dp1649
g100
g101
ssg82
g1639
sg75
(lp1650
S':'
asbag68
(g89
g70
NtRp1651
(dp1652
g73
(dp1653
sg82
g1639
sg75
(lp1654
g68
(g69
g70
NtRp1655
(dp1656
g73
(dp1657
g81
I4
ssg82
g1651
sg75
(lp1658
S"set(['/var/www/web2py_curso/applications/projeto/'])"
p1659
asbasbasbag68
(g84
g70
NtRp1660
(dp1661
g73
(dp1662
sg82
g1635
sg75
(lp1663
g68
(g89
g70
NtRp1664
(dp1665
g73
(dp1666
g93
g94
ssg82
g1660
sg75
(lp1667
g520
asbag68
(g89
g70
NtRp1668
(dp1669
g73
(dp1670
g100
g101
ssg82
g1660
sg75
(lp1671
S':'
asbag68
(g89
g70
NtRp1672
(dp1673
g73
(dp1674
sg82
g1660
sg75
(lp1675
g68
(g69
g70
NtRp1676
(dp1677
g73
(dp1678
g81
I4
ssg82
g1672
sg75
(lp1679
g533
asbasbasbag68
(g84
g70
NtRp1680
(dp1681
g73
(dp1682
sg82
g1635
sg75
(lp1683
g68
(g89
g70
NtRp1684
(dp1685
g73
(dp1686
g93
g94
ssg82
g1680
sg75
(lp1687
g542
asbag68
(g89
g70
NtRp1688
(dp1689
g73
(dp1690
g100
g101
ssg82
g1680
sg75
(lp1691
S':'
asbag68
(g89
g70
NtRp1692
(dp1693
g73
(dp1694
sg82
g1680
sg75
(lp1695
g68
(g69
g70
NtRp1696
(dp1697
g73
(dp1698
g81
I4
ssg82
g1692
sg75
(lp1699
g68
(g77
g70
NtRp1700
(dp1701
g73
(dp1702
g81
I3
ssg82
Nsg75
(lp1703
sbasbasbasbag68
(g84
g70
NtRp1704
(dp1705
g73
(dp1706
sg82
g1635
sg75
(lp1707
g68
(g89
g70
NtRp1708
(dp1709
g73
(dp1710
g93
g94
ssg82
g1704
sg75
(lp1711
g567
asbag68
(g89
g70
NtRp1712
(dp1713
g73
(dp1714
g100
g101
ssg82
g1704
sg75
(lp1715
S':'
asbag68
(g89
g70
NtRp1716
(dp1717
g73
(dp1718
sg82
g1704
sg75
(lp1719
g68
(g69
g70
NtRp1720
(dp1721
g73
(dp1722
g81
I4
ssg82
g1716
sg75
(lp1723
S"<Values at 0x33c6488: {'verbose': False, 'ip': '127.0.0.1', 'with_scheduler': False, 'ips': [], 'shutdown_timeout': 5, 'taskbar': False, 'port': 8000, 'maxthreads': None, 'softcron': False, 'server_name': 'fernado-desktop', 'bpython': False, 'nogui': False, 'pid_filename': 'httpserver.pid', 'extcron': False, 'runcron': False, 'run_system_tests': False, 'test': None, 'folder': '/var/www/web2py_curso', 'config': '', 'minthreads': None, 'winservice': '', 'shell': None, 'run': '', 'log_filename': 'httpserver.log', 'debuglevel': 30, 'args': [''], 'socket_timeout': 5, 'ssl_ca_certificate': None, 'scheduler': None, 'profiler_filename': None, 'ssl_private_key': '', 'scheduler_groups': None, 'password': '123456', 'request_queue_size': 5, 'ssl_certificate': '', 'cronjob': False, 'numthreads': None, 'quiet': False, 'interfaces': None, 'import_models': False, 'timeout': 10, 'plain': False, 'nobanner': False}>"
p1724
asbasbasbag68
(g84
g70
NtRp1725
(dp1726
g73
(dp1727
sg82
g1635
sg75
(lp1728
g68
(g89
g70
NtRp1729
(dp1730
g73
(dp1731
g93
g94
ssg82
g1725
sg75
(lp1732
g589
asbag68
(g89
g70
NtRp1733
(dp1734
g73
(dp1735
g100
g101
ssg82
g1725
sg75
(lp1736
S':'
asbag68
(g89
g70
NtRp1737
(dp1738
g73
(dp1739
sg82
g1725
sg75
(lp1740
g68
(g69
g70
NtRp1741
(dp1742
g73
(dp1743
g81
I4
ssg82
g1737
sg75
(lp1744
S'set([])'
p1745
asbasbasbag68
(g84
g70
NtRp1746
(dp1747
g73
(dp1748
sg82
g1635
sg75
(lp1749
g68
(g89
g70
NtRp1750
(dp1751
g73
(dp1752
g93
g94
ssg82
g1746
sg75
(lp1753
g611
asbag68
(g89
g70
NtRp1754
(dp1755
g73
(dp1756
g100
g101
ssg82
g1746
sg75
(lp1757
S':'
asbag68
(g89
g70
NtRp1758
(dp1759
g73
(dp1760
sg82
g1746
sg75
(lp1761
g68
(g69
g70
NtRp1762
(dp1763
g73
(dp1764
g81
I4
ssg82
g1758
sg75
(lp1765
g111
asbasbasbag68
(g84
g70
NtRp1766
(dp1767
g73
(dp1768
sg82
g1635
sg75
(lp1769
g68
(g89
g70
NtRp1770
(dp1771
g73
(dp1772
g93
g94
ssg82
g1766
sg75
(lp1773
g632
asbag68
(g89
g70
NtRp1774
(dp1775
g73
(dp1776
g100
g101
ssg82
g1766
sg75
(lp1777
S':'
asbag68
(g89
g70
NtRp1778
(dp1779
g73
(dp1780
sg82
g1766
sg75
(lp1781
g68
(g69
g70
NtRp1782
(dp1783
g73
(dp1784
g81
I4
ssg82
g1778
sg75
(lp1785
g645
asbasbasbag68
(g84
g70
NtRp1786
(dp1787
g73
(dp1788
sg82
g1635
sg75
(lp1789
g68
(g89
g70
NtRp1790
(dp1791
g73
(dp1792
g93
g94
ssg82
g1786
sg75
(lp1793
g830
asbag68
(g89
g70
NtRp1794
(dp1795
g73
(dp1796
g100
g101
ssg82
g1786
sg75
(lp1797
S':'
asbag68
(g89
g70
NtRp1798
(dp1799
g73
(dp1800
sg82
g1786
sg75
(lp1801
g68
(g69
g70
NtRp1802
(dp1803
g73
(dp1804
g81
I4
ssg82
g1798
sg75
(lp1805
g111
asbasbasbag68
(g84
g70
NtRp1806
(dp1807
g73
(dp1808
sg82
g1635
sg75
(lp1809
g68
(g89
g70
NtRp1810
(dp1811
g73
(dp1812
g93
g94
ssg82
g1806
sg75
(lp1813
g851
asbag68
(g89
g70
NtRp1814
(dp1815
g73
(dp1816
g100
g101
ssg82
g1806
sg75
(lp1817
S':'
asbag68
(g89
g70
NtRp1818
(dp1819
g73
(dp1820
sg82
g1806
sg75
(lp1821
g68
(g69
g70
NtRp1822
(dp1823
g73
(dp1824
g81
I4
ssg82
g1818
sg75
(lp1825
g111
asbasbasbag68
(g84
g70
NtRp1826
(dp1827
g73
(dp1828
sg82
g1635
sg75
(lp1829
g68
(g89
g70
NtRp1830
(dp1831
g73
(dp1832
g93
g94
ssg82
g1826
sg75
(lp1833
g872
asbag68
(g89
g70
NtRp1834
(dp1835
g73
(dp1836
g100
g101
ssg82
g1826
sg75
(lp1837
S':'
asbag68
(g89
g70
NtRp1838
(dp1839
g73
(dp1840
sg82
g1826
sg75
(lp1841
g68
(g69
g70
NtRp1842
(dp1843
g73
(dp1844
g81
I4
ssg82
g1838
sg75
(lp1845
g68
(g77
g70
NtRp1846
(dp1847
g73
(dp1848
g81
I3
ssg82
Nsg75
(lp1849
g68
(g84
g70
NtRp1850
(dp1851
g73
(dp1852
sg82
g1846
sg75
(lp1853
g68
(g89
g70
NtRp1854
(dp1855
g73
(dp1856
sg82
g1850
sg75
(lp1857
g68
(g69
g70
NtRp1858
(dp1859
g73
(dp1860
g81
I3
ssg82
g1854
sg75
(lp1861
g901
asbasbasbag68
(g84
g70
NtRp1862
(dp1863
g73
(dp1864
sg82
g1846
sg75
(lp1865
g68
(g89
g70
NtRp1866
(dp1867
g73
(dp1868
sg82
g1862
sg75
(lp1869
g68
(g69
g70
NtRp1870
(dp1871
g73
(dp1872
g81
I3
ssg82
g1866
sg75
(lp1873
g914
asbasbasbag68
(g84
g70
NtRp1874
(dp1875
g73
(dp1876
sg82
g1846
sg75
(lp1877
g68
(g89
g70
NtRp1878
(dp1879
g73
(dp1880
sg82
g1874
sg75
(lp1881
g68
(g69
g70
NtRp1882
(dp1883
g73
(dp1884
g81
I3
ssg82
g1878
sg75
(lp1885
g927
asbasbasbag68
(g84
g70
NtRp1886
(dp1887
g73
(dp1888
sg82
g1846
sg75
(lp1889
g68
(g89
g70
NtRp1890
(dp1891
g73
(dp1892
sg82
g1886
sg75
(lp1893
g68
(g69
g70
NtRp1894
(dp1895
g73
(dp1896
g81
I3
ssg82
g1890
sg75
(lp1897
g940
asbasbasbag68
(g84
g70
NtRp1898
(dp1899
g73
(dp1900
sg82
g1846
sg75
(lp1901
g68
(g89
g70
NtRp1902
(dp1903
g73
(dp1904
sg82
g1898
sg75
(lp1905
g68
(g69
g70
NtRp1906
(dp1907
g73
(dp1908
g81
I3
ssg82
g1902
sg75
(lp1909
g953
asbasbasbasbasbasbasbag68
(g84
g70
NtRp1910
(dp1911
g73
(dp1912
sg82
g1635
sg75
(lp1913
g68
(g89
g70
NtRp1914
(dp1915
g73
(dp1916
g93
g94
ssg82
g1910
sg75
(lp1917
g1243
asbag68
(g89
g70
NtRp1918
(dp1919
g73
(dp1920
g100
g101
ssg82
g1910
sg75
(lp1921
S':'
asbag68
(g89
g70
NtRp1922
(dp1923
g73
(dp1924
sg82
g1910
sg75
(lp1925
g68
(g69
g70
NtRp1926
(dp1927
g73
(dp1928
g81
I4
ssg82
g1922
sg75
(lp1929
g68
(g77
g70
NtRp1930
(dp1931
g73
(dp1932
g81
I3
ssg82
Nsg75
(lp1933
g68
(g84
g70
NtRp1934
(dp1935
g73
(dp1936
sg82
g1930
sg75
(lp1937
g68
(g89
g70
NtRp1938
(dp1939
g73
(dp1940
sg82
g1934
sg75
(lp1941
g68
(g69
g70
NtRp1942
(dp1943
g73
(dp1944
g81
I3
ssg82
g1938
sg75
(lp1945
S'2'
asbasbasbag68
(g84
g70
NtRp1946
(dp1947
g73
(dp1948
sg82
g1930
sg75
(lp1949
g68
(g89
g70
NtRp1950
(dp1951
g73
(dp1952
sg82
g1946
sg75
(lp1953
g68
(g69
g70
NtRp1954
(dp1955
g73
(dp1956
g81
I3
ssg82
g1950
sg75
(lp1957
S'3'
asbasbasbag68
(g84
g70
NtRp1958
(dp1959
g73
(dp1960
sg82
g1930
sg75
(lp1961
g68
(g89
g70
NtRp1962
(dp1963
g73
(dp1964
sg82
g1958
sg75
(lp1965
g68
(g69
g70
NtRp1966
(dp1967
g73
(dp1968
g81
I3
ssg82
g1962
sg75
(lp1969
S'2'
asbasbasbag68
(g84
g70
NtRp1970
(dp1971
g73
(dp1972
sg82
g1930
sg75
(lp1973
g68
(g89
g70
NtRp1974
(dp1975
g73
(dp1976
sg82
g1970
sg75
(lp1977
g68
(g69
g70
NtRp1978
(dp1979
g73
(dp1980
g81
I3
ssg82
g1974
sg75
(lp1981
S'datetime.datetime(2012, 12, 17, 15, 3, 30)'
p1982
asbasbasbag68
(g84
g70
NtRp1983
(dp1984
g73
(dp1985
sg82
g1930
sg75
(lp1986
g68
(g89
g70
NtRp1987
(dp1988
g73
(dp1989
sg82
g1983
sg75
(lp1990
g68
(g69
g70
NtRp1991
(dp1992
g73
(dp1993
g81
I3
ssg82
g1987
sg75
(lp1994
g1321
asbasbasbasbasbasbasbasbasbasbasbag68
(g84
g70
NtRp1995
(dp1996
g73
(dp1997
sg82
g78
sg75
(lp1998
g68
(g89
g70
NtRp1999
(dp2000
g73
(dp2001
g93
g94
ssg82
g1995
sg75
(lp2002
S'is_https'
p2003
asbag68
(g89
g70
NtRp2004
(dp2005
g73
(dp2006
g100
g101
ssg82
g1995
sg75
(lp2007
S':'
asbag68
(g89
g70
NtRp2008
(dp2009
g73
(dp2010
sg82
g1995
sg75
(lp2011
g68
(g69
g70
NtRp2012
(dp2013
g73
(dp2014
g81
I5
ssg82
g2008
sg75
(lp2015
g111
asbasbasbag68
(g84
g70
NtRp2016
(dp2017
g73
(dp2018
sg82
g78
sg75
(lp2019
g68
(g89
g70
NtRp2020
(dp2021
g73
(dp2022
g93
g94
ssg82
g2016
sg75
(lp2023
S'is_local'
p2024
asbag68
(g89
g70
NtRp2025
(dp2026
g73
(dp2027
g100
g101
ssg82
g2016
sg75
(lp2028
S':'
asbag68
(g89
g70
NtRp2029
(dp2030
g73
(dp2031
sg82
g2016
sg75
(lp2032
g68
(g69
g70
NtRp2033
(dp2034
g73
(dp2035
g81
I5
ssg82
g2029
sg75
(lp2036
g1430
asbasbasbag68
(g84
g70
NtRp2037
(dp2038
g73
(dp2039
sg82
g78
sg75
(lp2040
g68
(g89
g70
NtRp2041
(dp2042
g73
(dp2043
g93
g94
ssg82
g2037
sg75
(lp2044
S'is_restful'
p2045
asbag68
(g89
g70
NtRp2046
(dp2047
g73
(dp2048
g100
g101
ssg82
g2037
sg75
(lp2049
S':'
asbag68
(g89
g70
NtRp2050
(dp2051
g73
(dp2052
sg82
g2037
sg75
(lp2053
g68
(g69
g70
NtRp2054
(dp2055
g73
(dp2056
g81
I5
ssg82
g2050
sg75
(lp2057
g111
asbasbasbag68
(g84
g70
NtRp2058
(dp2059
g73
(dp2060
sg82
g78
sg75
(lp2061
g68
(g89
g70
NtRp2062
(dp2063
g73
(dp2064
g93
g94
ssg82
g2058
sg75
(lp2065
S'now'
p2066
asbag68
(g89
g70
NtRp2067
(dp2068
g73
(dp2069
g100
g101
ssg82
g2058
sg75
(lp2070
S':'
asbag68
(g89
g70
NtRp2071
(dp2072
g73
(dp2073
sg82
g2058
sg75
(lp2074
g68
(g69
g70
NtRp2075
(dp2076
g73
(dp2077
g81
I5
ssg82
g2071
sg75
(lp2078
S'datetime.datetime(2013, 1, 24, 9, 16, 49, 629957)'
p2079
asbasbasbag68
(g84
g70
NtRp2080
(dp2081
g73
(dp2082
sg82
g78
sg75
(lp2083
g68
(g89
g70
NtRp2084
(dp2085
g73
(dp2086
g93
g94
ssg82
g2080
sg75
(lp2087
S'post_vars'
p2088
asbag68
(g89
g70
NtRp2089
(dp2090
g73
(dp2091
g100
g101
ssg82
g2080
sg75
(lp2092
S':'
asbag68
(g89
g70
NtRp2093
(dp2094
g73
(dp2095
sg82
g2080
sg75
(lp2096
g68
(g69
g70
NtRp2097
(dp2098
g73
(dp2099
g81
I5
ssg82
g2093
sg75
(lp2100
g68
(g77
g70
NtRp2101
(dp2102
g73
(dp2103
g81
I4
ssg82
Nsg75
(lp2104
sbasbasbasbag68
(g84
g70
NtRp2105
(dp2106
g73
(dp2107
sg82
g78
sg75
(lp2108
g68
(g89
g70
NtRp2109
(dp2110
g73
(dp2111
g93
g94
ssg82
g2105
sg75
(lp2112
S'url'
p2113
asbag68
(g89
g70
NtRp2114
(dp2115
g73
(dp2116
g100
g101
ssg82
g2105
sg75
(lp2117
S':'
asbag68
(g89
g70
NtRp2118
(dp2119
g73
(dp2120
sg82
g2105
sg75
(lp2121
g68
(g69
g70
NtRp2122
(dp2123
g73
(dp2124
g81
I5
ssg82
g2118
sg75
(lp2125
g975
asbasbasbag68
(g84
g70
NtRp2126
(dp2127
g73
(dp2128
sg82
g78
sg75
(lp2129
g68
(g89
g70
NtRp2130
(dp2131
g73
(dp2132
g93
g94
ssg82
g2126
sg75
(lp2133
S'utcnow'
p2134
asbag68
(g89
g70
NtRp2135
(dp2136
g73
(dp2137
g100
g101
ssg82
g2126
sg75
(lp2138
S':'
asbag68
(g89
g70
NtRp2139
(dp2140
g73
(dp2141
sg82
g2126
sg75
(lp2142
g68
(g69
g70
NtRp2143
(dp2144
g73
(dp2145
g81
I5
ssg82
g2139
sg75
(lp2146
S'datetime.datetime(2013, 1, 24, 11, 16, 49, 630032)'
p2147
asbasbasbag68
(g84
g70
NtRp2148
(dp2149
g73
(dp2150
sg82
g78
sg75
(lp2151
g68
(g89
g70
NtRp2152
(dp2153
g73
(dp2154
g93
g94
ssg82
g2148
sg75
(lp2155
S'uuid'
p2156
asbag68
(g89
g70
NtRp2157
(dp2158
g73
(dp2159
g100
g101
ssg82
g2148
sg75
(lp2160
S':'
asbag68
(g89
g70
NtRp2161
(dp2162
g73
(dp2163
sg82
g2148
sg75
(lp2164
g68
(g69
g70
NtRp2165
(dp2166
g73
(dp2167
g81
I5
ssg82
g2161
sg75
(lp2168
S'projeto/127.0.0.1.2013-01-24.09-16-49.44303143-f9cb-41cb-ba2e-3fb03b5fb8b0'
p2169
asbasbasbag68
(g84
g70
NtRp2170
(dp2171
g73
(dp2172
sg82
g78
sg75
(lp2173
g68
(g89
g70
NtRp2174
(dp2175
g73
(dp2176
g93
g94
ssg82
g2170
sg75
(lp2177
S'vars'
p2178
asbag68
(g89
g70
NtRp2179
(dp2180
g73
(dp2181
g100
g101
ssg82
g2170
sg75
(lp2182
S':'
asbag68
(g89
g70
NtRp2183
(dp2184
g73
(dp2185
sg82
g2170
sg75
(lp2186
g68
(g69
g70
NtRp2187
(dp2188
g73
(dp2189
g81
I5
ssg82
g2183
sg75
(lp2190
g68
(g77
g70
NtRp2191
(dp2192
g73
(dp2193
g81
I4
ssg82
Nsg75
(lp2194
sbasbasbasbag68
(g84
g70
NtRp2195
(dp2196
g73
(dp2197
sg82
g78
sg75
(lp2198
g68
(g89
g70
NtRp2199
(dp2200
g73
(dp2201
g93
g94
ssg82
g2195
sg75
(lp2202
S'wsgi'
p2203
asbag68
(g89
g70
NtRp2204
(dp2205
g73
(dp2206
g100
g101
ssg82
g2195
sg75
(lp2207
S':'
asbag68
(g89
g70
NtRp2208
(dp2209
g73
(dp2210
sg82
g2195
sg75
(lp2211
g68
(g69
g70
NtRp2212
(dp2213
g73
(dp2214
g81
I5
ssg82
g2208
sg75
(lp2215
g68
(g77
g70
NtRp2216
(dp2217
g73
(dp2218
g81
I4
ssg82
Nsg75
(lp2219
g68
(g84
g70
NtRp2220
(dp2221
g73
(dp2222
sg82
g2216
sg75
(lp2223
g68
(g89
g70
NtRp2224
(dp2225
g73
(dp2226
g93
g94
ssg82
g2220
sg75
(lp2227
S'environ'
p2228
asbag68
(g89
g70
NtRp2229
(dp2230
g73
(dp2231
g100
g101
ssg82
g2220
sg75
(lp2232
S':'
asbag68
(g89
g70
NtRp2233
(dp2234
g73
(dp2235
sg82
g2220
sg75
(lp2236
g68
(g69
g70
NtRp2237
(dp2238
g73
(dp2239
g81
I4
ssg82
g2233
sg75
(lp2240
g68
(g77
g70
NtRp2241
(dp2242
g73
(dp2243
g81
I3
ssg82
Nsg75
(lp2244
g68
(g84
g70
NtRp2245
(dp2246
g73
(dp2247
sg82
g2241
sg75
(lp2248
g68
(g89
g70
NtRp2249
(dp2250
g73
(dp2251
g93
g94
ssg82
g2245
sg75
(lp2252
S'HTTP_ACCEPT'
p2253
asbag68
(g89
g70
NtRp2254
(dp2255
g73
(dp2256
g100
g101
ssg82
g2245
sg75
(lp2257
S':'
asbag68
(g89
g70
NtRp2258
(dp2259
g73
(dp2260
sg82
g2245
sg75
(lp2261
g68
(g69
g70
NtRp2262
(dp2263
g73
(dp2264
g81
I3
ssg82
g2258
sg75
(lp2265
g667
asbasbasbag68
(g84
g70
NtRp2266
(dp2267
g73
(dp2268
sg82
g2241
sg75
(lp2269
g68
(g89
g70
NtRp2270
(dp2271
g73
(dp2272
g93
g94
ssg82
g2266
sg75
(lp2273
S'HTTP_ACCEPT_CHARSET'
p2274
asbag68
(g89
g70
NtRp2275
(dp2276
g73
(dp2277
g100
g101
ssg82
g2266
sg75
(lp2278
S':'
asbag68
(g89
g70
NtRp2279
(dp2280
g73
(dp2281
sg82
g2266
sg75
(lp2282
g68
(g69
g70
NtRp2283
(dp2284
g73
(dp2285
g81
I3
ssg82
g2279
sg75
(lp2286
g689
asbasbasbag68
(g84
g70
NtRp2287
(dp2288
g73
(dp2289
sg82
g2241
sg75
(lp2290
g68
(g89
g70
NtRp2291
(dp2292
g73
(dp2293
g93
g94
ssg82
g2287
sg75
(lp2294
S'HTTP_ACCEPT_ENCODING'
p2295
asbag68
(g89
g70
NtRp2296
(dp2297
g73
(dp2298
g100
g101
ssg82
g2287
sg75
(lp2299
S':'
asbag68
(g89
g70
NtRp2300
(dp2301
g73
(dp2302
sg82
g2287
sg75
(lp2303
g68
(g69
g70
NtRp2304
(dp2305
g73
(dp2306
g81
I3
ssg82
g2300
sg75
(lp2307
g711
asbasbasbag68
(g84
g70
NtRp2308
(dp2309
g73
(dp2310
sg82
g2241
sg75
(lp2311
g68
(g89
g70
NtRp2312
(dp2313
g73
(dp2314
g93
g94
ssg82
g2308
sg75
(lp2315
S'HTTP_ACCEPT_LANGUAGE'
p2316
asbag68
(g89
g70
NtRp2317
(dp2318
g73
(dp2319
g100
g101
ssg82
g2308
sg75
(lp2320
S':'
asbag68
(g89
g70
NtRp2321
(dp2322
g73
(dp2323
sg82
g2308
sg75
(lp2324
g68
(g69
g70
NtRp2325
(dp2326
g73
(dp2327
g81
I3
ssg82
g2321
sg75
(lp2328
g733
asbasbasbag68
(g84
g70
NtRp2329
(dp2330
g73
(dp2331
sg82
g2241
sg75
(lp2332
g68
(g89
g70
NtRp2333
(dp2334
g73
(dp2335
g93
g94
ssg82
g2329
sg75
(lp2336
S'HTTP_CONNECTION'
p2337
asbag68
(g89
g70
NtRp2338
(dp2339
g73
(dp2340
g100
g101
ssg82
g2329
sg75
(lp2341
S':'
asbag68
(g89
g70
NtRp2342
(dp2343
g73
(dp2344
sg82
g2329
sg75
(lp2345
g68
(g69
g70
NtRp2346
(dp2347
g73
(dp2348
g81
I3
ssg82
g2342
sg75
(lp2349
g755
asbasbasbag68
(g84
g70
NtRp2350
(dp2351
g73
(dp2352
sg82
g2241
sg75
(lp2353
g68
(g89
g70
NtRp2354
(dp2355
g73
(dp2356
g93
g94
ssg82
g2350
sg75
(lp2357
S'HTTP_COOKIE'
p2358
asbag68
(g89
g70
NtRp2359
(dp2360
g73
(dp2361
g100
g101
ssg82
g2350
sg75
(lp2362
S':'
asbag68
(g89
g70
NtRp2363
(dp2364
g73
(dp2365
sg82
g2350
sg75
(lp2366
g68
(g69
g70
NtRp2367
(dp2368
g73
(dp2369
g81
I3
ssg82
g2363
sg75
(lp2370
g777
asbasbasbag68
(g84
g70
NtRp2371
(dp2372
g73
(dp2373
sg82
g2241
sg75
(lp2374
g68
(g89
g70
NtRp2375
(dp2376
g73
(dp2377
g93
g94
ssg82
g2371
sg75
(lp2378
S'HTTP_HOST'
p2379
asbag68
(g89
g70
NtRp2380
(dp2381
g73
(dp2382
g100
g101
ssg82
g2371
sg75
(lp2383
S':'
asbag68
(g89
g70
NtRp2384
(dp2385
g73
(dp2386
sg82
g2371
sg75
(lp2387
g68
(g69
g70
NtRp2388
(dp2389
g73
(dp2390
g81
I3
ssg82
g2384
sg75
(lp2391
g799
asbasbasbag68
(g84
g70
NtRp2392
(dp2393
g73
(dp2394
sg82
g2241
sg75
(lp2395
g68
(g89
g70
NtRp2396
(dp2397
g73
(dp2398
g93
g94
ssg82
g2392
sg75
(lp2399
S'HTTP_USER_AGENT'
p2400
asbag68
(g89
g70
NtRp2401
(dp2402
g73
(dp2403
g100
g101
ssg82
g2392
sg75
(lp2404
S':'
asbag68
(g89
g70
NtRp2405
(dp2406
g73
(dp2407
sg82
g2392
sg75
(lp2408
g68
(g69
g70
NtRp2409
(dp2410
g73
(dp2411
g81
I3
ssg82
g2405
sg75
(lp2412
g821
asbasbasbag68
(g84
g70
NtRp2413
(dp2414
g73
(dp2415
sg82
g2241
sg75
(lp2416
g68
(g89
g70
NtRp2417
(dp2418
g73
(dp2419
g93
g94
ssg82
g2413
sg75
(lp2420
S'PATH_INFO'
p2421
asbag68
(g89
g70
NtRp2422
(dp2423
g73
(dp2424
g100
g101
ssg82
g2413
sg75
(lp2425
S':'
asbag68
(g89
g70
NtRp2426
(dp2427
g73
(dp2428
sg82
g2413
sg75
(lp2429
g68
(g69
g70
NtRp2430
(dp2431
g73
(dp2432
g81
I3
ssg82
g2426
sg75
(lp2433
g975
asbasbasbag68
(g84
g70
NtRp2434
(dp2435
g73
(dp2436
sg82
g2241
sg75
(lp2437
g68
(g89
g70
NtRp2438
(dp2439
g73
(dp2440
g93
g94
ssg82
g2434
sg75
(lp2441
S'QUERY_STRING'
p2442
asbag68
(g89
g70
NtRp2443
(dp2444
g73
(dp2445
g100
g101
ssg82
g2434
sg75
(lp2446
S':'
asbag68
(g89
g70
NtRp2447
(dp2448
g73
(dp2449
sg82
g2434
sg75
(lp2450
g68
(g69
g70
NtRp2451
(dp2452
g73
(dp2453
g81
I3
ssg82
g2447
sg75
(lp2454
S''
asbasbasbag68
(g84
g70
NtRp2455
(dp2456
g73
(dp2457
sg82
g2241
sg75
(lp2458
g68
(g89
g70
NtRp2459
(dp2460
g73
(dp2461
g93
g94
ssg82
g2455
sg75
(lp2462
S'REMOTE_ADDR'
p2463
asbag68
(g89
g70
NtRp2464
(dp2465
g73
(dp2466
g100
g101
ssg82
g2455
sg75
(lp2467
S':'
asbag68
(g89
g70
NtRp2468
(dp2469
g73
(dp2470
sg82
g2455
sg75
(lp2471
g68
(g69
g70
NtRp2472
(dp2473
g73
(dp2474
g81
I3
ssg82
g2468
sg75
(lp2475
g223
asbasbasbag68
(g84
g70
NtRp2476
(dp2477
g73
(dp2478
sg82
g2241
sg75
(lp2479
g68
(g89
g70
NtRp2480
(dp2481
g73
(dp2482
g93
g94
ssg82
g2476
sg75
(lp2483
S'REMOTE_PORT'
p2484
asbag68
(g89
g70
NtRp2485
(dp2486
g73
(dp2487
g100
g101
ssg82
g2476
sg75
(lp2488
S':'
asbag68
(g89
g70
NtRp2489
(dp2490
g73
(dp2491
sg82
g2476
sg75
(lp2492
g68
(g69
g70
NtRp2493
(dp2494
g73
(dp2495
g81
I3
ssg82
g2489
sg75
(lp2496
g1039
asbasbasbag68
(g84
g70
NtRp2497
(dp2498
g73
(dp2499
sg82
g2241
sg75
(lp2500
g68
(g89
g70
NtRp2501
(dp2502
g73
(dp2503
g93
g94
ssg82
g2497
sg75
(lp2504
S'REQUEST_METHOD'
p2505
asbag68
(g89
g70
NtRp2506
(dp2507
g73
(dp2508
g100
g101
ssg82
g2497
sg75
(lp2509
S':'
asbag68
(g89
g70
NtRp2510
(dp2511
g73
(dp2512
sg82
g2497
sg75
(lp2513
g68
(g69
g70
NtRp2514
(dp2515
g73
(dp2516
g81
I3
ssg82
g2510
sg75
(lp2517
g1061
asbasbasbag68
(g84
g70
NtRp2518
(dp2519
g73
(dp2520
sg82
g2241
sg75
(lp2521
g68
(g89
g70
NtRp2522
(dp2523
g73
(dp2524
g93
g94
ssg82
g2518
sg75
(lp2525
S'REQUEST_URI'
p2526
asbag68
(g89
g70
NtRp2527
(dp2528
g73
(dp2529
g100
g101
ssg82
g2518
sg75
(lp2530
S':'
asbag68
(g89
g70
NtRp2531
(dp2532
g73
(dp2533
sg82
g2518
sg75
(lp2534
g68
(g69
g70
NtRp2535
(dp2536
g73
(dp2537
g81
I3
ssg82
g2531
sg75
(lp2538
g1083
asbasbasbag68
(g84
g70
NtRp2539
(dp2540
g73
(dp2541
sg82
g2241
sg75
(lp2542
g68
(g89
g70
NtRp2543
(dp2544
g73
(dp2545
g93
g94
ssg82
g2539
sg75
(lp2546
S'SCRIPT_NAME'
p2547
asbag68
(g89
g70
NtRp2548
(dp2549
g73
(dp2550
g100
g101
ssg82
g2539
sg75
(lp2551
S':'
asbag68
(g89
g70
NtRp2552
(dp2553
g73
(dp2554
sg82
g2539
sg75
(lp2555
g68
(g69
g70
NtRp2556
(dp2557
g73
(dp2558
g81
I3
ssg82
g2552
sg75
(lp2559
S''
asbasbasbag68
(g84
g70
NtRp2560
(dp2561
g73
(dp2562
sg82
g2241
sg75
(lp2563
g68
(g89
g70
NtRp2564
(dp2565
g73
(dp2566
g93
g94
ssg82
g2560
sg75
(lp2567
S'SERVER_NAME'
p2568
asbag68
(g89
g70
NtRp2569
(dp2570
g73
(dp2571
g100
g101
ssg82
g2560
sg75
(lp2572
S':'
asbag68
(g89
g70
NtRp2573
(dp2574
g73
(dp2575
sg82
g2560
sg75
(lp2576
g68
(g69
g70
NtRp2577
(dp2578
g73
(dp2579
g81
I3
ssg82
g2573
sg75
(lp2580
g1126
asbasbasbag68
(g84
g70
NtRp2581
(dp2582
g73
(dp2583
sg82
g2241
sg75
(lp2584
g68
(g89
g70
NtRp2585
(dp2586
g73
(dp2587
g93
g94
ssg82
g2581
sg75
(lp2588
S'SERVER_PORT'
p2589
asbag68
(g89
g70
NtRp2590
(dp2591
g73
(dp2592
g100
g101
ssg82
g2581
sg75
(lp2593
S':'
asbag68
(g89
g70
NtRp2594
(dp2595
g73
(dp2596
sg82
g2581
sg75
(lp2597
g68
(g69
g70
NtRp2598
(dp2599
g73
(dp2600
g81
I3
ssg82
g2594
sg75
(lp2601
g1148
asbasbasbag68
(g84
g70
NtRp2602
(dp2603
g73
(dp2604
sg82
g2241
sg75
(lp2605
g68
(g89
g70
NtRp2606
(dp2607
g73
(dp2608
g93
g94
ssg82
g2602
sg75
(lp2609
S'SERVER_PROTOCOL'
p2610
asbag68
(g89
g70
NtRp2611
(dp2612
g73
(dp2613
g100
g101
ssg82
g2602
sg75
(lp2614
S':'
asbag68
(g89
g70
NtRp2615
(dp2616
g73
(dp2617
sg82
g2602
sg75
(lp2618
g68
(g69
g70
NtRp2619
(dp2620
g73
(dp2621
g81
I3
ssg82
g2615
sg75
(lp2622
g1170
asbasbasbag68
(g84
g70
NtRp2623
(dp2624
g73
(dp2625
sg82
g2241
sg75
(lp2626
g68
(g89
g70
NtRp2627
(dp2628
g73
(dp2629
g93
g94
ssg82
g2623
sg75
(lp2630
S'SERVER_SOFTWARE'
p2631
asbag68
(g89
g70
NtRp2632
(dp2633
g73
(dp2634
g100
g101
ssg82
g2623
sg75
(lp2635
S':'
asbag68
(g89
g70
NtRp2636
(dp2637
g73
(dp2638
sg82
g2623
sg75
(lp2639
g68
(g69
g70
NtRp2640
(dp2641
g73
(dp2642
g81
I3
ssg82
g2636
sg75
(lp2643
g1192
asbasbasbag68
(g84
g70
NtRp2644
(dp2645
g73
(dp2646
sg82
g2241
sg75
(lp2647
g68
(g89
g70
NtRp2648
(dp2649
g73
(dp2650
g93
g94
ssg82
g2644
sg75
(lp2651
S'WEB2PY_ORIGINAL_URI'
p2652
asbag68
(g89
g70
NtRp2653
(dp2654
g73
(dp2655
g100
g101
ssg82
g2644
sg75
(lp2656
S':'
asbag68
(g89
g70
NtRp2657
(dp2658
g73
(dp2659
sg82
g2644
sg75
(lp2660
g68
(g69
g70
NtRp2661
(dp2662
g73
(dp2663
g81
I3
ssg82
g2657
sg75
(lp2664
g975
asbasbasbag68
(g84
g70
NtRp2665
(dp2666
g73
(dp2667
sg82
g2241
sg75
(lp2668
g68
(g89
g70
NtRp2669
(dp2670
g73
(dp2671
g93
g94
ssg82
g2665
sg75
(lp2672
S'wsgi.errors'
p2673
asbag68
(g89
g70
NtRp2674
(dp2675
g73
(dp2676
g100
g101
ssg82
g2665
sg75
(lp2677
S':'
asbag68
(g89
g70
NtRp2678
(dp2679
g73
(dp2680
sg82
g2665
sg75
(lp2681
g68
(g69
g70
NtRp2682
(dp2683
g73
(dp2684
g81
I3
ssg82
g2678
sg75
(lp2685
S"<open file '<stderr>', mode 'w' at 0x7fd3f50ee270>"
p2686
asbasbasbag68
(g84
g70
NtRp2687
(dp2688
g73
(dp2689
sg82
g2241
sg75
(lp2690
g68
(g89
g70
NtRp2691
(dp2692
g73
(dp2693
g93
g94
ssg82
g2687
sg75
(lp2694
S'wsgi.file_wrapper'
p2695
asbag68
(g89
g70
NtRp2696
(dp2697
g73
(dp2698
g100
g101
ssg82
g2687
sg75
(lp2699
S':'
asbag68
(g89
g70
NtRp2700
(dp2701
g73
(dp2702
sg82
g2687
sg75
(lp2703
g68
(g69
g70
NtRp2704
(dp2705
g73
(dp2706
g81
I3
ssg82
g2700
sg75
(lp2707
S'<class wsgiref.util.FileWrapper at 0x331ba10>'
p2708
asbasbasbag68
(g84
g70
NtRp2709
(dp2710
g73
(dp2711
sg82
g2241
sg75
(lp2712
g68
(g89
g70
NtRp2713
(dp2714
g73
(dp2715
g93
g94
ssg82
g2709
sg75
(lp2716
S'wsgi.input'
p2717
asbag68
(g89
g70
NtRp2718
(dp2719
g73
(dp2720
g100
g101
ssg82
g2709
sg75
(lp2721
S':'
asbag68
(g89
g70
NtRp2722
(dp2723
g73
(dp2724
sg82
g2709
sg75
(lp2725
g68
(g69
g70
NtRp2726
(dp2727
g73
(dp2728
g81
I3
ssg82
g2722
sg75
(lp2729
S'<cStringIO.StringO object at 0x7fd3cc1d0c70>'
p2730
asbasbasbag68
(g84
g70
NtRp2731
(dp2732
g73
(dp2733
sg82
g2241
sg75
(lp2734
g68
(g89
g70
NtRp2735
(dp2736
g73
(dp2737
g93
g94
ssg82
g2731
sg75
(lp2738
S'wsgi.multiprocess'
p2739
asbag68
(g89
g70
NtRp2740
(dp2741
g73
(dp2742
g100
g101
ssg82
g2731
sg75
(lp2743
S':'
asbag68
(g89
g70
NtRp2744
(dp2745
g73
(dp2746
sg82
g2731
sg75
(lp2747
g68
(g69
g70
NtRp2748
(dp2749
g73
(dp2750
g81
I3
ssg82
g2744
sg75
(lp2751
g111
asbasbasbag68
(g84
g70
NtRp2752
(dp2753
g73
(dp2754
sg82
g2241
sg75
(lp2755
g68
(g89
g70
NtRp2756
(dp2757
g73
(dp2758
g93
g94
ssg82
g2752
sg75
(lp2759
S'wsgi.multithread'
p2760
asbag68
(g89
g70
NtRp2761
(dp2762
g73
(dp2763
g100
g101
ssg82
g2752
sg75
(lp2764
S':'
asbag68
(g89
g70
NtRp2765
(dp2766
g73
(dp2767
sg82
g2752
sg75
(lp2768
g68
(g69
g70
NtRp2769
(dp2770
g73
(dp2771
g81
I3
ssg82
g2765
sg75
(lp2772
g1430
asbasbasbag68
(g84
g70
NtRp2773
(dp2774
g73
(dp2775
sg82
g2241
sg75
(lp2776
g68
(g89
g70
NtRp2777
(dp2778
g73
(dp2779
g93
g94
ssg82
g2773
sg75
(lp2780
S'wsgi.run_once'
p2781
asbag68
(g89
g70
NtRp2782
(dp2783
g73
(dp2784
g100
g101
ssg82
g2773
sg75
(lp2785
S':'
asbag68
(g89
g70
NtRp2786
(dp2787
g73
(dp2788
sg82
g2773
sg75
(lp2789
g68
(g69
g70
NtRp2790
(dp2791
g73
(dp2792
g81
I3
ssg82
g2786
sg75
(lp2793
g111
asbasbasbag68
(g84
g70
NtRp2794
(dp2795
g73
(dp2796
sg82
g2241
sg75
(lp2797
g68
(g89
g70
NtRp2798
(dp2799
g73
(dp2800
g93
g94
ssg82
g2794
sg75
(lp2801
S'wsgi.url_scheme'
p2802
asbag68
(g89
g70
NtRp2803
(dp2804
g73
(dp2805
g100
g101
ssg82
g2794
sg75
(lp2806
S':'
asbag68
(g89
g70
NtRp2807
(dp2808
g73
(dp2809
sg82
g2794
sg75
(lp2810
g68
(g69
g70
NtRp2811
(dp2812
g73
(dp2813
g81
I3
ssg82
g2807
sg75
(lp2814
g1473
asbasbasbag68
(g84
g70
NtRp2815
(dp2816
g73
(dp2817
sg82
g2241
sg75
(lp2818
g68
(g89
g70
NtRp2819
(dp2820
g73
(dp2821
g93
g94
ssg82
g2815
sg75
(lp2822
S'wsgi.version'
p2823
asbag68
(g89
g70
NtRp2824
(dp2825
g73
(dp2826
g100
g101
ssg82
g2815
sg75
(lp2827
S':'
asbag68
(g89
g70
NtRp2828
(dp2829
g73
(dp2830
sg82
g2815
sg75
(lp2831
g68
(g69
g70
NtRp2832
(dp2833
g73
(dp2834
g81
I3
ssg82
g2828
sg75
(lp2835
S'1'
asbasbasbasbasbasbasbasbasbasbasbasbasbsS'frames'
p2836
(lp2837
(dp2838
S'file'
p2839
S'/var/www/web2py_curso/gluon/restricted.py'
p2840
sS'dump'
p2841
(dp2842
S'code'
p2843
S'\'def show():\\n\\treturn "post"\\n\\ndef edit():\\n\\treturn ...turn "add"\\n\\nresponse._vars=response._caller(add)\\n\''
p2844
sS'layer'
p2845
S"'/var/www/web2py_curso/applications/projeto/controllers/post.py'"
p2846
sS'global compile2'
p2847
S'<function compile2>'
p2848
sS'ccode'
p2849
S'undefined'
p2850
ssS'lnum'
p2851
I211
sS'lines'
p2852
(dp2853
I206
S"    environment['__name__'] = '__restricted__'"
p2854
sI207
S'    try:'
p2855
sI208
S'        if isinstance(code, types.CodeType):'
p2856
sI209
S'            ccode = code'
p2857
sI210
S'        else:'
p2858
sI211
S'            ccode = compile2(code, layer)'
p2859
sI212
S'        exec ccode in environment'
p2860
sI213
S'    except HTTP:'
p2861
sI214
S'        raise'
p2862
sI215
S'    except RestrictedError:'
p2863
ssS'call'
p2864
S'(code=\'def show():\\n\\treturn "post"\\n\\ndef edit():\\n\\treturn ...turn "add"\\n\\nresponse._vars=response._caller(add)\\n\', environment={\'A\': <class \'gluon.html.A\'>, \'B\': <class \'gluon.html.B\'>, \'BEAUTIFY\': <class \'gluon.html.BEAUTIFY\'>, \'BODY\': <class \'gluon.html.BODY\'>, \'BR\': <class \'gluon.html.BR\'>, \'BUTTON\': <class \'gluon.html.BUTTON\'>, \'Blog\': <Table blog (id,title,description)>, \'CAT\': <class \'gluon.html.CAT\'>, \'CENTER\': <class \'gluon.html.CENTER\'>, \'CLEANUP\': <class \'gluon.validators.CLEANUP\'>, ...}, layer=\'/var/www/web2py_curso/applications/projeto/controllers/post.py\')'
p2865
sS'func'
p2866
S'restricted'
p2867
sa(dp2868
g2839
S'/var/www/web2py_curso/gluon/restricted.py'
p2869
sg2841
(dp2870
S'builtincompile'
p2871
S'<built-in function compile>'
p2872
sS'code'
p2873
S'\'def show():\\n\\treturn "post"\\n\\ndef edit():\\n\\treturn ...turn "add"\\n\\nresponse._vars=response._caller(add)\\n\''
p2874
sS'code.rstrip'
p2875
S'<built-in method rstrip of str object>'
p2876
sS').replace'
p2877
g2850
sS'layer'
p2878
S"'/var/www/web2py_curso/applications/projeto/controllers/post.py'"
p2879
ssg2851
I194
sg2852
(dp2880
I192
S"    The +'\\n' is necessary else compile fails when code ends in a comment."
p2881
sI193
S'    """'
p2882
sI194
S"    return compile(code.rstrip().replace('\\r\\n', '\\n') + '\\n', layer, 'exec')"
p2883
sI195
S''
sI196
S''
sI197
S"def restricted(code, environment=None, layer='Unknown'):"
p2884
sI198
S'    """'
p2885
sI189
S''
sI190
S'def compile2(code, layer):'
p2886
sI191
S'    """'
p2887
ssg2864
S'(code=\'def show():\\n\\treturn "post"\\n\\ndef edit():\\n\\treturn ...turn "add"\\n\\nresponse._vars=response._caller(add)\\n\', layer=\'/var/www/web2py_curso/applications/projeto/controllers/post.py\')'
p2888
sg2866
S'compile2'
p2889
sasS'pyver'
p2890
S'Python 2.7.3: /usr/bin/python'
p2891
sS'session'
p2892
g68
(g69
g70
NtRp2893
(dp2894
g73
(dp2895
sg75
(lp2896
g68
(g77
g70
NtRp2897
(dp2898
g73
(dp2899
g81
I5
ssg82
Nsg75
(lp2900
sbasbsS'etype'
p2901
S"<type 'exceptions.SyntaxError'>"
p2902
sS'date'
p2903
S'Thu Jan 24 09:16:49 2013'
p2904
sS'response'
p2905
g68
(g69
g70
NtRp2906
(dp2907
g73
(dp2908
sg75
(lp2909
g68
(g77
g70
NtRp2910
(dp2911
g73
(dp2912
g81
I5
ssg82
Nsg75
(lp2913
g68
(g84
g70
NtRp2914
(dp2915
g73
(dp2916
sg82
g2910
sg75
(lp2917
g68
(g89
g70
NtRp2918
(dp2919
g73
(dp2920
g93
g94
ssg82
g2914
sg75
(lp2921
g166
asbag68
(g89
g70
NtRp2922
(dp2923
g73
(dp2924
g100
g101
ssg82
g2914
sg75
(lp2925
S':'
asbag68
(g89
g70
NtRp2926
(dp2927
g73
(dp2928
sg82
g2914
sg75
(lp2929
g68
(g69
g70
NtRp2930
(dp2931
g73
(dp2932
g81
I5
ssg82
g2926
sg75
(lp2933
S'<cStringIO.StringO object at 0x7fd3cc1d0998>'
p2934
asbasbasbag68
(g84
g70
NtRp2935
(dp2936
g73
(dp2937
sg82
g2910
sg75
(lp2938
g68
(g89
g70
NtRp2939
(dp2940
g73
(dp2941
g93
g94
ssg82
g2935
sg75
(lp2942
g254
asbag68
(g89
g70
NtRp2943
(dp2944
g73
(dp2945
g100
g101
ssg82
g2935
sg75
(lp2946
S':'
asbag68
(g89
g70
NtRp2947
(dp2948
g73
(dp2949
sg82
g2935
sg75
(lp2950
g68
(g69
g70
NtRp2951
(dp2952
g73
(dp2953
g81
I5
ssg82
g2947
sg75
(lp2954
g68
(g77
g70
NtRp2955
(dp2956
g73
(dp2957
g81
I4
ssg82
Nsg75
(lp2958
g68
(g84
g70
NtRp2959
(dp2960
g73
(dp2961
sg82
g2955
sg75
(lp2962
g68
(g89
g70
NtRp2963
(dp2964
g73
(dp2965
g93
g94
ssg82
g2959
sg75
(lp2966
S'session_id_projeto'
p2967
asbag68
(g89
g70
NtRp2968
(dp2969
g73
(dp2970
g100
g101
ssg82
g2959
sg75
(lp2971
S':'
asbag68
(g89
g70
NtRp2972
(dp2973
g73
(dp2974
sg82
g2959
sg75
(lp2975
g68
(g69
g70
NtRp2976
(dp2977
g73
(dp2978
g81
I4
ssg82
g2972
sg75
(lp2979
g292
ag68
(g77
g70
NtRp2980
(dp2981
g73
(dp2982
g81
I3
ssg82
Nsg75
(lp2983
g68
(g84
g70
NtRp2984
(dp2985
g73
(dp2986
sg82
g2980
sg75
(lp2987
g68
(g89
g70
NtRp2988
(dp2989
g73
(dp2990
g93
g94
ssg82
g2984
sg75
(lp2991
g305
asbag68
(g89
g70
NtRp2992
(dp2993
g73
(dp2994
g100
g101
ssg82
g2984
sg75
(lp2995
S':'
asbag68
(g89
g70
NtRp2996
(dp2997
g73
(dp2998
sg82
g2984
sg75
(lp2999
g68
(g69
g70
NtRp3000
(dp3001
g73
(dp3002
g81
I3
ssg82
g2996
sg75
(lp3003
S''
asbasbasbag68
(g84
g70
NtRp3004
(dp3005
g73
(dp3006
sg82
g2980
sg75
(lp3007
g68
(g89
g70
NtRp3008
(dp3009
g73
(dp3010
g93
g94
ssg82
g3004
sg75
(lp3011
g326
asbag68
(g89
g70
NtRp3012
(dp3013
g73
(dp3014
g100
g101
ssg82
g3004
sg75
(lp3015
S':'
asbag68
(g89
g70
NtRp3016
(dp3017
g73
(dp3018
sg82
g3004
sg75
(lp3019
g68
(g69
g70
NtRp3020
(dp3021
g73
(dp3022
g81
I3
ssg82
g3016
sg75
(lp3023
S''
asbasbasbag68
(g84
g70
NtRp3024
(dp3025
g73
(dp3026
sg82
g2980
sg75
(lp3027
g68
(g89
g70
NtRp3028
(dp3029
g73
(dp3030
g93
g94
ssg82
g3024
sg75
(lp3031
g347
asbag68
(g89
g70
NtRp3032
(dp3033
g73
(dp3034
g100
g101
ssg82
g3024
sg75
(lp3035
S':'
asbag68
(g89
g70
NtRp3036
(dp3037
g73
(dp3038
sg82
g3024
sg75
(lp3039
g68
(g69
g70
NtRp3040
(dp3041
g73
(dp3042
g81
I3
ssg82
g3036
sg75
(lp3043
S''
asbasbasbag68
(g84
g70
NtRp3044
(dp3045
g73
(dp3046
sg82
g2980
sg75
(lp3047
g68
(g89
g70
NtRp3048
(dp3049
g73
(dp3050
g93
g94
ssg82
g3044
sg75
(lp3051
g368
asbag68
(g89
g70
NtRp3052
(dp3053
g73
(dp3054
g100
g101
ssg82
g3044
sg75
(lp3055
S':'
asbag68
(g89
g70
NtRp3056
(dp3057
g73
(dp3058
sg82
g3044
sg75
(lp3059
g68
(g69
g70
NtRp3060
(dp3061
g73
(dp3062
g81
I3
ssg82
g3056
sg75
(lp3063
S''
asbasbasbag68
(g84
g70
NtRp3064
(dp3065
g73
(dp3066
sg82
g2980
sg75
(lp3067
g68
(g89
g70
NtRp3068
(dp3069
g73
(dp3070
g93
g94
ssg82
g3064
sg75
(lp3071
g389
asbag68
(g89
g70
NtRp3072
(dp3073
g73
(dp3074
g100
g101
ssg82
g3064
sg75
(lp3075
S':'
asbag68
(g89
g70
NtRp3076
(dp3077
g73
(dp3078
sg82
g3064
sg75
(lp3079
g68
(g69
g70
NtRp3080
(dp3081
g73
(dp3082
g81
I3
ssg82
g3076
sg75
(lp3083
S''
asbasbasbag68
(g84
g70
NtRp3084
(dp3085
g73
(dp3086
sg82
g2980
sg75
(lp3087
g68
(g89
g70
NtRp3088
(dp3089
g73
(dp3090
g93
g94
ssg82
g3084
sg75
(lp3091
g410
asbag68
(g89
g70
NtRp3092
(dp3093
g73
(dp3094
g100
g101
ssg82
g3084
sg75
(lp3095
S':'
asbag68
(g89
g70
NtRp3096
(dp3097
g73
(dp3098
sg82
g3084
sg75
(lp3099
g68
(g69
g70
NtRp3100
(dp3101
g73
(dp3102
g81
I3
ssg82
g3096
sg75
(lp3103
S'/'
asbasbasbag68
(g84
g70
NtRp3104
(dp3105
g73
(dp3106
sg82
g2980
sg75
(lp3107
g68
(g89
g70
NtRp3108
(dp3109
g73
(dp3110
g93
g94
ssg82
g3104
sg75
(lp3111
g431
asbag68
(g89
g70
NtRp3112
(dp3113
g73
(dp3114
g100
g101
ssg82
g3104
sg75
(lp3115
S':'
asbag68
(g89
g70
NtRp3116
(dp3117
g73
(dp3118
sg82
g3104
sg75
(lp3119
g68
(g69
g70
NtRp3120
(dp3121
g73
(dp3122
g81
I3
ssg82
g3116
sg75
(lp3123
S''
asbasbasbag68
(g84
g70
NtRp3124
(dp3125
g73
(dp3126
sg82
g2980
sg75
(lp3127
g68
(g89
g70
NtRp3128
(dp3129
g73
(dp3130
g93
g94
ssg82
g3124
sg75
(lp3131
g452
asbag68
(g89
g70
NtRp3132
(dp3133
g73
(dp3134
g100
g101
ssg82
g3124
sg75
(lp3135
S':'
asbag68
(g89
g70
NtRp3136
(dp3137
g73
(dp3138
sg82
g3124
sg75
(lp3139
g68
(g69
g70
NtRp3140
(dp3141
g73
(dp3142
g81
I3
ssg82
g3136
sg75
(lp3143
S''
asbasbasbasbasbasbasbasbasbasbasbag68
(g84
g70
NtRp3144
(dp3145
g73
(dp3146
sg82
g2910
sg75
(lp3147
g68
(g89
g70
NtRp3148
(dp3149
g73
(dp3150
g93
g94
ssg82
g3144
sg75
(lp3151
S'delimiters'
p3152
asbag68
(g89
g70
NtRp3153
(dp3154
g73
(dp3155
g100
g101
ssg82
g3144
sg75
(lp3156
S':'
asbag68
(g89
g70
NtRp3157
(dp3158
g73
(dp3159
sg82
g3144
sg75
(lp3160
g68
(g69
g70
NtRp3161
(dp3162
g73
(dp3163
g81
I5
ssg82
g3157
sg75
(lp3164
g68
(g77
g70
NtRp3165
(dp3166
g73
(dp3167
g81
I4
ssg82
Nsg75
(lp3168
g68
(g84
g70
NtRp3169
(dp3170
g73
(dp3171
sg82
g3165
sg75
(lp3172
g68
(g89
g70
NtRp3173
(dp3174
g73
(dp3175
sg82
g3169
sg75
(lp3176
g68
(g69
g70
NtRp3177
(dp3178
g73
(dp3179
g81
I4
ssg82
g3173
sg75
(lp3180
S'{{'
p3181
asbasbasbag68
(g84
g70
NtRp3182
(dp3183
g73
(dp3184
sg82
g3165
sg75
(lp3185
g68
(g89
g70
NtRp3186
(dp3187
g73
(dp3188
sg82
g3182
sg75
(lp3189
g68
(g69
g70
NtRp3190
(dp3191
g73
(dp3192
g81
I4
ssg82
g3186
sg75
(lp3193
S'}}'
p3194
asbasbasbasbasbasbasbag68
(g84
g70
NtRp3195
(dp3196
g73
(dp3197
sg82
g2910
sg75
(lp3198
g68
(g89
g70
NtRp3199
(dp3200
g73
(dp3201
g93
g94
ssg82
g3195
sg75
(lp3202
S'files'
p3203
asbag68
(g89
g70
NtRp3204
(dp3205
g73
(dp3206
g100
g101
ssg82
g3195
sg75
(lp3207
S':'
asbag68
(g89
g70
NtRp3208
(dp3209
g73
(dp3210
sg82
g3195
sg75
(lp3211
g68
(g69
g70
NtRp3212
(dp3213
g73
(dp3214
g81
I5
ssg82
g3208
sg75
(lp3215
g68
(g77
g70
NtRp3216
(dp3217
g73
(dp3218
g81
I4
ssg82
Nsg75
(lp3219
sbasbasbasbag68
(g84
g70
NtRp3220
(dp3221
g73
(dp3222
sg82
g2910
sg75
(lp3223
g68
(g89
g70
NtRp3224
(dp3225
g73
(dp3226
g93
g94
ssg82
g3220
sg75
(lp3227
S'flash'
p3228
asbag68
(g89
g70
NtRp3229
(dp3230
g73
(dp3231
g100
g101
ssg82
g3220
sg75
(lp3232
S':'
asbag68
(g89
g70
NtRp3233
(dp3234
g73
(dp3235
sg82
g3220
sg75
(lp3236
g68
(g69
g70
NtRp3237
(dp3238
g73
(dp3239
g81
I5
ssg82
g3233
sg75
(lp3240
S''
asbasbasbag68
(g84
g70
NtRp3241
(dp3242
g73
(dp3243
sg82
g2910
sg75
(lp3244
g68
(g89
g70
NtRp3245
(dp3246
g73
(dp3247
g93
g94
ssg82
g3241
sg75
(lp3248
S'generic_patterns'
p3249
asbag68
(g89
g70
NtRp3250
(dp3251
g73
(dp3252
g100
g101
ssg82
g3241
sg75
(lp3253
S':'
asbag68
(g89
g70
NtRp3254
(dp3255
g73
(dp3256
sg82
g3241
sg75
(lp3257
g68
(g69
g70
NtRp3258
(dp3259
g73
(dp3260
g81
I5
ssg82
g3254
sg75
(lp3261
g68
(g77
g70
NtRp3262
(dp3263
g73
(dp3264
g81
I4
ssg82
Nsg75
(lp3265
sbasbasbasbag68
(g84
g70
NtRp3266
(dp3267
g73
(dp3268
sg82
g2910
sg75
(lp3269
g68
(g89
g70
NtRp3270
(dp3271
g73
(dp3272
g93
g94
ssg82
g3266
sg75
(lp3273
S'headers'
p3274
asbag68
(g89
g70
NtRp3275
(dp3276
g73
(dp3277
g100
g101
ssg82
g3266
sg75
(lp3278
S':'
asbag68
(g89
g70
NtRp3279
(dp3280
g73
(dp3281
sg82
g3266
sg75
(lp3282
g68
(g69
g70
NtRp3283
(dp3284
g73
(dp3285
g81
I5
ssg82
g3279
sg75
(lp3286
g68
(g77
g70
NtRp3287
(dp3288
g73
(dp3289
g81
I4
ssg82
Nsg75
(lp3290
g68
(g84
g70
NtRp3291
(dp3292
g73
(dp3293
sg82
g3287
sg75
(lp3294
g68
(g89
g70
NtRp3295
(dp3296
g73
(dp3297
g93
g94
ssg82
g3291
sg75
(lp3298
S'X-Powered-By'
p3299
asbag68
(g89
g70
NtRp3300
(dp3301
g73
(dp3302
g100
g101
ssg82
g3291
sg75
(lp3303
S':'
asbag68
(g89
g70
NtRp3304
(dp3305
g73
(dp3306
sg82
g3291
sg75
(lp3307
g68
(g69
g70
NtRp3308
(dp3309
g73
(dp3310
g81
I4
ssg82
g3304
sg75
(lp3311
S'web2py'
p3312
asbasbasbasbasbasbasbag68
(g84
g70
NtRp3313
(dp3314
g73
(dp3315
sg82
g2910
sg75
(lp3316
g68
(g89
g70
NtRp3317
(dp3318
g73
(dp3319
g93
g94
ssg82
g3313
sg75
(lp3320
S'menu'
p3321
asbag68
(g89
g70
NtRp3322
(dp3323
g73
(dp3324
g100
g101
ssg82
g3313
sg75
(lp3325
S':'
asbag68
(g89
g70
NtRp3326
(dp3327
g73
(dp3328
sg82
g3313
sg75
(lp3329
g68
(g69
g70
NtRp3330
(dp3331
g73
(dp3332
g81
I5
ssg82
g3326
sg75
(lp3333
g68
(g77
g70
NtRp3334
(dp3335
g73
(dp3336
g81
I4
ssg82
Nsg75
(lp3337
sbasbasbasbag68
(g84
g70
NtRp3338
(dp3339
g73
(dp3340
sg82
g2910
sg75
(lp3341
g68
(g89
g70
NtRp3342
(dp3343
g73
(dp3344
g93
g94
ssg82
g3338
sg75
(lp3345
S'meta'
p3346
asbag68
(g89
g70
NtRp3347
(dp3348
g73
(dp3349
g100
g101
ssg82
g3338
sg75
(lp3350
S':'
asbag68
(g89
g70
NtRp3351
(dp3352
g73
(dp3353
sg82
g3338
sg75
(lp3354
g68
(g69
g70
NtRp3355
(dp3356
g73
(dp3357
g81
I5
ssg82
g3351
sg75
(lp3358
g68
(g77
g70
NtRp3359
(dp3360
g73
(dp3361
g81
I4
ssg82
Nsg75
(lp3362
sbasbasbasbag68
(g84
g70
NtRp3363
(dp3364
g73
(dp3365
sg82
g2910
sg75
(lp3366
g68
(g89
g70
NtRp3367
(dp3368
g73
(dp3369
g93
g94
ssg82
g3363
sg75
(lp3370
S'models_to_run'
p3371
asbag68
(g89
g70
NtRp3372
(dp3373
g73
(dp3374
g100
g101
ssg82
g3363
sg75
(lp3375
S':'
asbag68
(g89
g70
NtRp3376
(dp3377
g73
(dp3378
sg82
g3363
sg75
(lp3379
g68
(g69
g70
NtRp3380
(dp3381
g73
(dp3382
g81
I5
ssg82
g3376
sg75
(lp3383
g68
(g77
g70
NtRp3384
(dp3385
g73
(dp3386
g81
I4
ssg82
Nsg75
(lp3387
g68
(g84
g70
NtRp3388
(dp3389
g73
(dp3390
sg82
g3384
sg75
(lp3391
g68
(g89
g70
NtRp3392
(dp3393
g73
(dp3394
sg82
g3388
sg75
(lp3395
g68
(g69
g70
NtRp3396
(dp3397
g73
(dp3398
g81
I4
ssg82
g3392
sg75
(lp3399
S'^\\w+\\.py$'
p3400
asbasbasbag68
(g84
g70
NtRp3401
(dp3402
g73
(dp3403
sg82
g3384
sg75
(lp3404
g68
(g89
g70
NtRp3405
(dp3406
g73
(dp3407
sg82
g3401
sg75
(lp3408
g68
(g69
g70
NtRp3409
(dp3410
g73
(dp3411
g81
I4
ssg82
g3405
sg75
(lp3412
S'^post/\\w+\\.py$'
p3413
asbasbasbag68
(g84
g70
NtRp3414
(dp3415
g73
(dp3416
sg82
g3384
sg75
(lp3417
g68
(g89
g70
NtRp3418
(dp3419
g73
(dp3420
sg82
g3414
sg75
(lp3421
g68
(g69
g70
NtRp3422
(dp3423
g73
(dp3424
g81
I4
ssg82
g3418
sg75
(lp3425
S'^post/add/\\w+\\.py$'
p3426
asbasbasbasbasbasbasbag68
(g84
g70
NtRp3427
(dp3428
g73
(dp3429
sg82
g2910
sg75
(lp3430
g68
(g89
g70
NtRp3431
(dp3432
g73
(dp3433
g93
g94
ssg82
g3427
sg75
(lp3434
S'postprocessing'
p3435
asbag68
(g89
g70
NtRp3436
(dp3437
g73
(dp3438
g100
g101
ssg82
g3427
sg75
(lp3439
S':'
asbag68
(g89
g70
NtRp3440
(dp3441
g73
(dp3442
sg82
g3427
sg75
(lp3443
g68
(g69
g70
NtRp3444
(dp3445
g73
(dp3446
g81
I5
ssg82
g3440
sg75
(lp3447
g68
(g77
g70
NtRp3448
(dp3449
g73
(dp3450
g81
I4
ssg82
Nsg75
(lp3451
sbasbasbasbag68
(g84
g70
NtRp3452
(dp3453
g73
(dp3454
sg82
g2910
sg75
(lp3455
g68
(g89
g70
NtRp3456
(dp3457
g73
(dp3458
g93
g94
ssg82
g3452
sg75
(lp3459
S'session_cookie_expires'
p3460
asbag68
(g89
g70
NtRp3461
(dp3462
g73
(dp3463
g100
g101
ssg82
g3452
sg75
(lp3464
S':'
asbag68
(g89
g70
NtRp3465
(dp3466
g73
(dp3467
sg82
g3452
sg75
(lp3468
g68
(g69
g70
NtRp3469
(dp3470
g73
(dp3471
g81
I5
ssg82
g3465
sg75
(lp3472
S'None'
p3473
asbasbasbag68
(g84
g70
NtRp3474
(dp3475
g73
(dp3476
sg82
g2910
sg75
(lp3477
g68
(g89
g70
NtRp3478
(dp3479
g73
(dp3480
g93
g94
ssg82
g3474
sg75
(lp3481
S'session_data_name'
p3482
asbag68
(g89
g70
NtRp3483
(dp3484
g73
(dp3485
g100
g101
ssg82
g3474
sg75
(lp3486
S':'
asbag68
(g89
g70
NtRp3487
(dp3488
g73
(dp3489
sg82
g3474
sg75
(lp3490
g68
(g69
g70
NtRp3491
(dp3492
g73
(dp3493
g81
I5
ssg82
g3487
sg75
(lp3494
S'session_data_projeto'
p3495
asbasbasbag68
(g84
g70
NtRp3496
(dp3497
g73
(dp3498
sg82
g2910
sg75
(lp3499
g68
(g89
g70
NtRp3500
(dp3501
g73
(dp3502
g93
g94
ssg82
g3496
sg75
(lp3503
S'session_file'
p3504
asbag68
(g89
g70
NtRp3505
(dp3506
g73
(dp3507
g100
g101
ssg82
g3496
sg75
(lp3508
S':'
asbag68
(g89
g70
NtRp3509
(dp3510
g73
(dp3511
sg82
g3496
sg75
(lp3512
g68
(g69
g70
NtRp3513
(dp3514
g73
(dp3515
g81
I5
ssg82
g3509
sg75
(lp3516
S'None'
p3517
asbasbasbag68
(g84
g70
NtRp3518
(dp3519
g73
(dp3520
sg82
g2910
sg75
(lp3521
g68
(g89
g70
NtRp3522
(dp3523
g73
(dp3524
g93
g94
ssg82
g3518
sg75
(lp3525
S'session_filename'
p3526
asbag68
(g89
g70
NtRp3527
(dp3528
g73
(dp3529
g100
g101
ssg82
g3518
sg75
(lp3530
S':'
asbag68
(g89
g70
NtRp3531
(dp3532
g73
(dp3533
sg82
g3518
sg75
(lp3534
g68
(g69
g70
NtRp3535
(dp3536
g73
(dp3537
g81
I5
ssg82
g3531
sg75
(lp3538
S'/var/www/web2py_curso/applications/projeto/sessions/127.0.0.1-e368b264-444a-4dee-8b41-31155ff54a04'
p3539
asbasbasbag68
(g84
g70
NtRp3540
(dp3541
g73
(dp3542
sg82
g2910
sg75
(lp3543
g68
(g89
g70
NtRp3544
(dp3545
g73
(dp3546
g93
g94
ssg82
g3540
sg75
(lp3547
S'session_id'
p3548
asbag68
(g89
g70
NtRp3549
(dp3550
g73
(dp3551
g100
g101
ssg82
g3540
sg75
(lp3552
S':'
asbag68
(g89
g70
NtRp3553
(dp3554
g73
(dp3555
sg82
g3540
sg75
(lp3556
g68
(g69
g70
NtRp3557
(dp3558
g73
(dp3559
g81
I5
ssg82
g3553
sg75
(lp3560
g292
asbasbasbag68
(g84
g70
NtRp3561
(dp3562
g73
(dp3563
sg82
g2910
sg75
(lp3564
g68
(g89
g70
NtRp3565
(dp3566
g73
(dp3567
g93
g94
ssg82
g3561
sg75
(lp3568
S'session_id_name'
p3569
asbag68
(g89
g70
NtRp3570
(dp3571
g73
(dp3572
g100
g101
ssg82
g3561
sg75
(lp3573
S':'
asbag68
(g89
g70
NtRp3574
(dp3575
g73
(dp3576
sg82
g3561
sg75
(lp3577
g68
(g69
g70
NtRp3578
(dp3579
g73
(dp3580
g81
I5
ssg82
g3574
sg75
(lp3581
g2967
asbasbasbag68
(g84
g70
NtRp3582
(dp3583
g73
(dp3584
sg82
g2910
sg75
(lp3585
g68
(g89
g70
NtRp3586
(dp3587
g73
(dp3588
g93
g94
ssg82
g3582
sg75
(lp3589
S'session_new'
p3590
asbag68
(g89
g70
NtRp3591
(dp3592
g73
(dp3593
g100
g101
ssg82
g3582
sg75
(lp3594
S':'
asbag68
(g89
g70
NtRp3595
(dp3596
g73
(dp3597
sg82
g3582
sg75
(lp3598
g68
(g69
g70
NtRp3599
(dp3600
g73
(dp3601
g81
I5
ssg82
g3595
sg75
(lp3602
g111
asbasbasbag68
(g84
g70
NtRp3603
(dp3604
g73
(dp3605
sg82
g2910
sg75
(lp3606
g68
(g89
g70
NtRp3607
(dp3608
g73
(dp3609
g93
g94
ssg82
g3603
sg75
(lp3610
S'session_storage_type'
p3611
asbag68
(g89
g70
NtRp3612
(dp3613
g73
(dp3614
g100
g101
ssg82
g3603
sg75
(lp3615
S':'
asbag68
(g89
g70
NtRp3616
(dp3617
g73
(dp3618
sg82
g3603
sg75
(lp3619
g68
(g69
g70
NtRp3620
(dp3621
g73
(dp3622
g81
I5
ssg82
g3616
sg75
(lp3623
g2839
asbasbasbag68
(g84
g70
NtRp3624
(dp3625
g73
(dp3626
sg82
g2910
sg75
(lp3627
g68
(g89
g70
NtRp3628
(dp3629
g73
(dp3630
g93
g94
ssg82
g3624
sg75
(lp3631
S'status'
p3632
asbag68
(g89
g70
NtRp3633
(dp3634
g73
(dp3635
g100
g101
ssg82
g3624
sg75
(lp3636
S':'
asbag68
(g89
g70
NtRp3637
(dp3638
g73
(dp3639
sg82
g3624
sg75
(lp3640
g68
(g69
g70
NtRp3641
(dp3642
g73
(dp3643
g81
I5
ssg82
g3637
sg75
(lp3644
S'200'
p3645
asbasbasbag68
(g84
g70
NtRp3646
(dp3647
g73
(dp3648
sg82
g2910
sg75
(lp3649
g68
(g89
g70
NtRp3650
(dp3651
g73
(dp3652
g93
g94
ssg82
g3646
sg75
(lp3653
S'view'
p3654
asbag68
(g89
g70
NtRp3655
(dp3656
g73
(dp3657
g100
g101
ssg82
g3646
sg75
(lp3658
S':'
asbag68
(g89
g70
NtRp3659
(dp3660
g73
(dp3661
sg82
g3646
sg75
(lp3662
g68
(g69
g70
NtRp3663
(dp3664
g73
(dp3665
g81
I5
ssg82
g3659
sg75
(lp3666
S'post/add.html'
p3667
asbasbasbasbasbsS'locals'
p3668
(dp3669
g4
S"'/var/www/web2py_curso/applications/projeto/controllers/post.py'"
p3670
sg6
S'\'def show():\\n\\treturn "post"\\n\\ndef edit():\\n\\treturn ...turn "add"\\n\\nresponse._vars=response._caller(add)\\n\''
p3671
sssS'traceback'
p3672
S'Traceback (most recent call last):\n  File "/var/www/web2py_curso/gluon/restricted.py", line 211, in restricted\n    ccode = compile2(code, layer)\n  File "/var/www/web2py_curso/gluon/restricted.py", line 194, in compile2\n    return compile(code.rstrip().replace(\'\\r\\n\', \'\\n\') + \'\\n\', layer, \'exec\')\n  File "/var/www/web2py_curso/applications/projeto/controllers/post.py", line 13\n    try\n      ^\nSyntaxError: invalid syntax\n'
p3673
s.