(dp1
S'output'
p2
S"<type 'exceptions.SyntaxError'> invalid syntax (default.py, line 7)"
p3
sS'layer'
p4
S'/var/www/web2py_curso/applications/projeto/controllers/default.py'
p5
sS'code'
p6
S'# coding: utf-8\n\ndef index():\n\tprint "Action index"\n\tprint request.args\n\tprint request.vars\n        if nome in request.args\n        mensagem = "Bem Vindo %s" % request.vars\n\treturn mensagem\n\ndef contato():\n\treturn "<form><label>Nome</label><input /></form><br><a href=\'http://www.w3schools.com\'>Visit W3Schools</a>"\n\t#return dict(nome="fernando")\n\t#return response.render("teste.html", dict(nome="fernando"))\n\ndef soma(x, y):\n\treturn x + y\n\n \n\nresponse._vars=response._caller(index)\n'
p7
sS'snapshot'
p8
(dp9
S'exception'
p10
(dp11
S'__getslice__'
p12
S"<method-wrapper '__getslice__' of exceptions.SyntaxError object>"
p13
sS'text'
p14
S"'        if nome in request.args\\n'"
p15
sS'__str__'
p16
S"<method-wrapper '__str__' of exceptions.SyntaxError object>"
p17
sS'__reduce__'
p18
S'<built-in method __reduce__ of exceptions.SyntaxError object>'
p19
sS'__dict__'
p20
S'{}'
p21
sS'__sizeof__'
p22
S'<built-in method __sizeof__ of exceptions.SyntaxError object>'
p23
sS'__init__'
p24
S"<method-wrapper '__init__' of exceptions.SyntaxError object>"
p25
sS'__setattr__'
p26
S"<method-wrapper '__setattr__' of exceptions.SyntaxError object>"
p27
sS'__reduce_ex__'
p28
S'<built-in method __reduce_ex__ of exceptions.SyntaxError object>'
p29
sS'__new__'
p30
S'<built-in method __new__ of type object>'
p31
sS'__format__'
p32
S'<built-in method __format__ of exceptions.SyntaxError object>'
p33
sS'__class__'
p34
S"<type 'exceptions.SyntaxError'>"
p35
sS'filename'
p36
S"'/var/www/web2py_curso/applications/projeto/controllers/default.py'"
p37
sS'lineno'
p38
S'7'
sS'msg'
p39
S"'invalid syntax'"
p40
sS'__doc__'
p41
S"'Invalid syntax.'"
p42
sS'__getitem__'
p43
S"<method-wrapper '__getitem__' of exceptions.SyntaxError object>"
p44
sS'__setstate__'
p45
S'<built-in method __setstate__ of exceptions.SyntaxError object>'
p46
sS'__getattribute__'
p47
S"<method-wrapper '__getattribute__' of exceptions.SyntaxError object>"
p48
sS'print_file_and_line'
p49
S'None'
p50
sS'args'
p51
S"('invalid syntax', ('/var/www/web2py_curso/applications/projeto/controllers/default.py', 7, 32, '        if nome in request.args\\n'))"
p52
sS'__subclasshook__'
p53
S'<built-in method __subclasshook__ of type object>'
p54
sS'offset'
p55
S'32'
p56
sS'__unicode__'
p57
S'<built-in method __unicode__ of exceptions.SyntaxError object>'
p58
sS'__delattr__'
p59
S"<method-wrapper '__delattr__' of exceptions.SyntaxError object>"
p60
sS'__repr__'
p61
S"<method-wrapper '__repr__' of exceptions.SyntaxError object>"
p62
sS'__hash__'
p63
S"<method-wrapper '__hash__' of exceptions.SyntaxError object>"
p64
ssS'evalue'
p65
S'invalid syntax (default.py, line 7)'
p66
sS'request'
p67
ccopy_reg
_reconstructor
p68
(cgluon.html
BEAUTIFY
p69
c__builtin__
object
p70
NtRp71
(dp72
S'attributes'
p73
(dp74
sS'components'
p75
(lp76
g68
(cgluon.html
TABLE
p77
g70
NtRp78
(dp79
g73
(dp80
S'level'
p81
I5
ssS'parent'
p82
Nsg75
(lp83
g68
(cgluon.html
TR
p84
g70
NtRp85
(dp86
g73
(dp87
sg82
g78
sg75
(lp88
g68
(cgluon.html
TD
p89
g70
NtRp90
(dp91
g73
(dp92
S'_style'
p93
S'font-weight:bold;vertical-align:top'
p94
ssg82
g85
sg75
(lp95
S'ajax'
p96
asbag68
(g89
g70
NtRp97
(dp98
g73
(dp99
S'_valign'
p100
S'top'
p101
ssg82
g85
sg75
(lp102
S':'
asbag68
(g89
g70
NtRp103
(dp104
g73
(dp105
sg82
g85
sg75
(lp106
g68
(g69
g70
NtRp107
(dp108
g73
(dp109
g81
I5
ssg82
g103
sg75
(lp110
S'False'
p111
asbasbasbag68
(g84
g70
NtRp112
(dp113
g73
(dp114
sg82
g78
sg75
(lp115
g68
(g89
g70
NtRp116
(dp117
g73
(dp118
g93
g94
ssg82
g112
sg75
(lp119
S'application'
p120
asbag68
(g89
g70
NtRp121
(dp122
g73
(dp123
g100
g101
ssg82
g112
sg75
(lp124
S':'
asbag68
(g89
g70
NtRp125
(dp126
g73
(dp127
sg82
g112
sg75
(lp128
g68
(g69
g70
NtRp129
(dp130
g73
(dp131
g81
I5
ssg82
g125
sg75
(lp132
S'projeto'
p133
asbasbasbag68
(g84
g70
NtRp134
(dp135
g73
(dp136
sg82
g78
sg75
(lp137
g68
(g89
g70
NtRp138
(dp139
g73
(dp140
g93
g94
ssg82
g134
sg75
(lp141
g51
asbag68
(g89
g70
NtRp142
(dp143
g73
(dp144
g100
g101
ssg82
g134
sg75
(lp145
S':'
asbag68
(g89
g70
NtRp146
(dp147
g73
(dp148
sg82
g134
sg75
(lp149
g68
(g69
g70
NtRp150
(dp151
g73
(dp152
g81
I5
ssg82
g146
sg75
(lp153
g68
(g77
g70
NtRp154
(dp155
g73
(dp156
g81
I4
ssg82
Nsg75
(lp157
sbasbasbasbag68
(g84
g70
NtRp158
(dp159
g73
(dp160
sg82
g78
sg75
(lp161
g68
(g89
g70
NtRp162
(dp163
g73
(dp164
g93
g94
ssg82
g158
sg75
(lp165
S'body'
p166
asbag68
(g89
g70
NtRp167
(dp168
g73
(dp169
g100
g101
ssg82
g158
sg75
(lp170
S':'
asbag68
(g89
g70
NtRp171
(dp172
g73
(dp173
sg82
g158
sg75
(lp174
g68
(g69
g70
NtRp175
(dp176
g73
(dp177
g81
I5
ssg82
g171
sg75
(lp178
S'<cStringIO.StringO object at 0x7fde304546f8>'
p179
asbasbasbag68
(g84
g70
NtRp180
(dp181
g73
(dp182
sg82
g78
sg75
(lp183
g68
(g89
g70
NtRp184
(dp185
g73
(dp186
g93
g94
ssg82
g180
sg75
(lp187
S'cid'
p188
asbag68
(g89
g70
NtRp189
(dp190
g73
(dp191
g100
g101
ssg82
g180
sg75
(lp192
S':'
asbag68
(g89
g70
NtRp193
(dp194
g73
(dp195
sg82
g180
sg75
(lp196
g68
(g69
g70
NtRp197
(dp198
g73
(dp199
g81
I5
ssg82
g193
sg75
(lp200
S'None'
p201
asbasbasbag68
(g84
g70
NtRp202
(dp203
g73
(dp204
sg82
g78
sg75
(lp205
g68
(g89
g70
NtRp206
(dp207
g73
(dp208
g93
g94
ssg82
g202
sg75
(lp209
S'client'
p210
asbag68
(g89
g70
NtRp211
(dp212
g73
(dp213
g100
g101
ssg82
g202
sg75
(lp214
S':'
asbag68
(g89
g70
NtRp215
(dp216
g73
(dp217
sg82
g202
sg75
(lp218
g68
(g69
g70
NtRp219
(dp220
g73
(dp221
g81
I5
ssg82
g215
sg75
(lp222
S'127.0.0.1'
p223
asbasbasbag68
(g84
g70
NtRp224
(dp225
g73
(dp226
sg82
g78
sg75
(lp227
g68
(g89
g70
NtRp228
(dp229
g73
(dp230
g93
g94
ssg82
g224
sg75
(lp231
S'controller'
p232
asbag68
(g89
g70
NtRp233
(dp234
g73
(dp235
g100
g101
ssg82
g224
sg75
(lp236
S':'
asbag68
(g89
g70
NtRp237
(dp238
g73
(dp239
sg82
g224
sg75
(lp240
g68
(g69
g70
NtRp241
(dp242
g73
(dp243
g81
I5
ssg82
g237
sg75
(lp244
S'default'
p245
asbasbasbag68
(g84
g70
NtRp246
(dp247
g73
(dp248
sg82
g78
sg75
(lp249
g68
(g89
g70
NtRp250
(dp251
g73
(dp252
g93
g94
ssg82
g246
sg75
(lp253
S'cookies'
p254
asbag68
(g89
g70
NtRp255
(dp256
g73
(dp257
g100
g101
ssg82
g246
sg75
(lp258
S':'
asbag68
(g89
g70
NtRp259
(dp260
g73
(dp261
sg82
g246
sg75
(lp262
g68
(g69
g70
NtRp263
(dp264
g73
(dp265
g81
I5
ssg82
g259
sg75
(lp266
g68
(g77
g70
NtRp267
(dp268
g73
(dp269
g81
I4
ssg82
Nsg75
(lp270
g68
(g84
g70
NtRp271
(dp272
g73
(dp273
sg82
g267
sg75
(lp274
g68
(g89
g70
NtRp275
(dp276
g73
(dp277
g93
g94
ssg82
g271
sg75
(lp278
S'session_id_admin'
p279
asbag68
(g89
g70
NtRp280
(dp281
g73
(dp282
g100
g101
ssg82
g271
sg75
(lp283
S':'
asbag68
(g89
g70
NtRp284
(dp285
g73
(dp286
sg82
g271
sg75
(lp287
g68
(g69
g70
NtRp288
(dp289
g73
(dp290
g81
I4
ssg82
g284
sg75
(lp291
S'127.0.0.1-6b19d69e-1405-460b-b17e-ad0b8deb3490'
p292
ag68
(g77
g70
NtRp293
(dp294
g73
(dp295
g81
I3
ssg82
Nsg75
(lp296
g68
(g84
g70
NtRp297
(dp298
g73
(dp299
sg82
g293
sg75
(lp300
g68
(g89
g70
NtRp301
(dp302
g73
(dp303
g93
g94
ssg82
g297
sg75
(lp304
S'comment'
p305
asbag68
(g89
g70
NtRp306
(dp307
g73
(dp308
g100
g101
ssg82
g297
sg75
(lp309
S':'
asbag68
(g89
g70
NtRp310
(dp311
g73
(dp312
sg82
g297
sg75
(lp313
g68
(g69
g70
NtRp314
(dp315
g73
(dp316
g81
I3
ssg82
g310
sg75
(lp317
S''
asbasbasbag68
(g84
g70
NtRp318
(dp319
g73
(dp320
sg82
g293
sg75
(lp321
g68
(g89
g70
NtRp322
(dp323
g73
(dp324
g93
g94
ssg82
g318
sg75
(lp325
S'domain'
p326
asbag68
(g89
g70
NtRp327
(dp328
g73
(dp329
g100
g101
ssg82
g318
sg75
(lp330
S':'
asbag68
(g89
g70
NtRp331
(dp332
g73
(dp333
sg82
g318
sg75
(lp334
g68
(g69
g70
NtRp335
(dp336
g73
(dp337
g81
I3
ssg82
g331
sg75
(lp338
S''
asbasbasbag68
(g84
g70
NtRp339
(dp340
g73
(dp341
sg82
g293
sg75
(lp342
g68
(g89
g70
NtRp343
(dp344
g73
(dp345
g93
g94
ssg82
g339
sg75
(lp346
S'expires'
p347
asbag68
(g89
g70
NtRp348
(dp349
g73
(dp350
g100
g101
ssg82
g339
sg75
(lp351
S':'
asbag68
(g89
g70
NtRp352
(dp353
g73
(dp354
sg82
g339
sg75
(lp355
g68
(g69
g70
NtRp356
(dp357
g73
(dp358
g81
I3
ssg82
g352
sg75
(lp359
S''
asbasbasbag68
(g84
g70
NtRp360
(dp361
g73
(dp362
sg82
g293
sg75
(lp363
g68
(g89
g70
NtRp364
(dp365
g73
(dp366
g93
g94
ssg82
g360
sg75
(lp367
S'httponly'
p368
asbag68
(g89
g70
NtRp369
(dp370
g73
(dp371
g100
g101
ssg82
g360
sg75
(lp372
S':'
asbag68
(g89
g70
NtRp373
(dp374
g73
(dp375
sg82
g360
sg75
(lp376
g68
(g69
g70
NtRp377
(dp378
g73
(dp379
g81
I3
ssg82
g373
sg75
(lp380
S''
asbasbasbag68
(g84
g70
NtRp381
(dp382
g73
(dp383
sg82
g293
sg75
(lp384
g68
(g89
g70
NtRp385
(dp386
g73
(dp387
g93
g94
ssg82
g381
sg75
(lp388
S'max-age'
p389
asbag68
(g89
g70
NtRp390
(dp391
g73
(dp392
g100
g101
ssg82
g381
sg75
(lp393
S':'
asbag68
(g89
g70
NtRp394
(dp395
g73
(dp396
sg82
g381
sg75
(lp397
g68
(g69
g70
NtRp398
(dp399
g73
(dp400
g81
I3
ssg82
g394
sg75
(lp401
S''
asbasbasbag68
(g84
g70
NtRp402
(dp403
g73
(dp404
sg82
g293
sg75
(lp405
g68
(g89
g70
NtRp406
(dp407
g73
(dp408
g93
g94
ssg82
g402
sg75
(lp409
S'path'
p410
asbag68
(g89
g70
NtRp411
(dp412
g73
(dp413
g100
g101
ssg82
g402
sg75
(lp414
S':'
asbag68
(g89
g70
NtRp415
(dp416
g73
(dp417
sg82
g402
sg75
(lp418
g68
(g69
g70
NtRp419
(dp420
g73
(dp421
g81
I3
ssg82
g415
sg75
(lp422
S''
asbasbasbag68
(g84
g70
NtRp423
(dp424
g73
(dp425
sg82
g293
sg75
(lp426
g68
(g89
g70
NtRp427
(dp428
g73
(dp429
g93
g94
ssg82
g423
sg75
(lp430
S'secure'
p431
asbag68
(g89
g70
NtRp432
(dp433
g73
(dp434
g100
g101
ssg82
g423
sg75
(lp435
S':'
asbag68
(g89
g70
NtRp436
(dp437
g73
(dp438
sg82
g423
sg75
(lp439
g68
(g69
g70
NtRp440
(dp441
g73
(dp442
g81
I3
ssg82
g436
sg75
(lp443
S''
asbasbasbag68
(g84
g70
NtRp444
(dp445
g73
(dp446
sg82
g293
sg75
(lp447
g68
(g89
g70
NtRp448
(dp449
g73
(dp450
g93
g94
ssg82
g444
sg75
(lp451
S'version'
p452
asbag68
(g89
g70
NtRp453
(dp454
g73
(dp455
g100
g101
ssg82
g444
sg75
(lp456
S':'
asbag68
(g89
g70
NtRp457
(dp458
g73
(dp459
sg82
g444
sg75
(lp460
g68
(g69
g70
NtRp461
(dp462
g73
(dp463
g81
I3
ssg82
g457
sg75
(lp464
S''
asbasbasbasbasbasbasbag68
(g84
g70
NtRp465
(dp466
g73
(dp467
sg82
g267
sg75
(lp468
g68
(g89
g70
NtRp469
(dp470
g73
(dp471
g93
g94
ssg82
g465
sg75
(lp472
S'session_id_home'
p473
asbag68
(g89
g70
NtRp474
(dp475
g73
(dp476
g100
g101
ssg82
g465
sg75
(lp477
S':'
asbag68
(g89
g70
NtRp478
(dp479
g73
(dp480
sg82
g465
sg75
(lp481
g68
(g69
g70
NtRp482
(dp483
g73
(dp484
g81
I4
ssg82
g478
sg75
(lp485
S'127.0.0.1-61c26c04-034b-4717-a3a3-84ec434f1b9b'
p486
ag68
(g77
g70
NtRp487
(dp488
g73
(dp489
g81
I3
ssg82
Nsg75
(lp490
g68
(g84
g70
NtRp491
(dp492
g73
(dp493
sg82
g487
sg75
(lp494
g68
(g89
g70
NtRp495
(dp496
g73
(dp497
g93
g94
ssg82
g491
sg75
(lp498
g305
asbag68
(g89
g70
NtRp499
(dp500
g73
(dp501
g100
g101
ssg82
g491
sg75
(lp502
S':'
asbag68
(g89
g70
NtRp503
(dp504
g73
(dp505
sg82
g491
sg75
(lp506
g68
(g69
g70
NtRp507
(dp508
g73
(dp509
g81
I3
ssg82
g503
sg75
(lp510
S''
asbasbasbag68
(g84
g70
NtRp511
(dp512
g73
(dp513
sg82
g487
sg75
(lp514
g68
(g89
g70
NtRp515
(dp516
g73
(dp517
g93
g94
ssg82
g511
sg75
(lp518
g326
asbag68
(g89
g70
NtRp519
(dp520
g73
(dp521
g100
g101
ssg82
g511
sg75
(lp522
S':'
asbag68
(g89
g70
NtRp523
(dp524
g73
(dp525
sg82
g511
sg75
(lp526
g68
(g69
g70
NtRp527
(dp528
g73
(dp529
g81
I3
ssg82
g523
sg75
(lp530
S''
asbasbasbag68
(g84
g70
NtRp531
(dp532
g73
(dp533
sg82
g487
sg75
(lp534
g68
(g89
g70
NtRp535
(dp536
g73
(dp537
g93
g94
ssg82
g531
sg75
(lp538
g347
asbag68
(g89
g70
NtRp539
(dp540
g73
(dp541
g100
g101
ssg82
g531
sg75
(lp542
S':'
asbag68
(g89
g70
NtRp543
(dp544
g73
(dp545
sg82
g531
sg75
(lp546
g68
(g69
g70
NtRp547
(dp548
g73
(dp549
g81
I3
ssg82
g543
sg75
(lp550
S''
asbasbasbag68
(g84
g70
NtRp551
(dp552
g73
(dp553
sg82
g487
sg75
(lp554
g68
(g89
g70
NtRp555
(dp556
g73
(dp557
g93
g94
ssg82
g551
sg75
(lp558
g368
asbag68
(g89
g70
NtRp559
(dp560
g73
(dp561
g100
g101
ssg82
g551
sg75
(lp562
S':'
asbag68
(g89
g70
NtRp563
(dp564
g73
(dp565
sg82
g551
sg75
(lp566
g68
(g69
g70
NtRp567
(dp568
g73
(dp569
g81
I3
ssg82
g563
sg75
(lp570
S''
asbasbasbag68
(g84
g70
NtRp571
(dp572
g73
(dp573
sg82
g487
sg75
(lp574
g68
(g89
g70
NtRp575
(dp576
g73
(dp577
g93
g94
ssg82
g571
sg75
(lp578
g389
asbag68
(g89
g70
NtRp579
(dp580
g73
(dp581
g100
g101
ssg82
g571
sg75
(lp582
S':'
asbag68
(g89
g70
NtRp583
(dp584
g73
(dp585
sg82
g571
sg75
(lp586
g68
(g69
g70
NtRp587
(dp588
g73
(dp589
g81
I3
ssg82
g583
sg75
(lp590
S''
asbasbasbag68
(g84
g70
NtRp591
(dp592
g73
(dp593
sg82
g487
sg75
(lp594
g68
(g89
g70
NtRp595
(dp596
g73
(dp597
g93
g94
ssg82
g591
sg75
(lp598
g410
asbag68
(g89
g70
NtRp599
(dp600
g73
(dp601
g100
g101
ssg82
g591
sg75
(lp602
S':'
asbag68
(g89
g70
NtRp603
(dp604
g73
(dp605
sg82
g591
sg75
(lp606
g68
(g69
g70
NtRp607
(dp608
g73
(dp609
g81
I3
ssg82
g603
sg75
(lp610
S''
asbasbasbag68
(g84
g70
NtRp611
(dp612
g73
(dp613
sg82
g487
sg75
(lp614
g68
(g89
g70
NtRp615
(dp616
g73
(dp617
g93
g94
ssg82
g611
sg75
(lp618
g431
asbag68
(g89
g70
NtRp619
(dp620
g73
(dp621
g100
g101
ssg82
g611
sg75
(lp622
S':'
asbag68
(g89
g70
NtRp623
(dp624
g73
(dp625
sg82
g611
sg75
(lp626
g68
(g69
g70
NtRp627
(dp628
g73
(dp629
g81
I3
ssg82
g623
sg75
(lp630
S''
asbasbasbag68
(g84
g70
NtRp631
(dp632
g73
(dp633
sg82
g487
sg75
(lp634
g68
(g89
g70
NtRp635
(dp636
g73
(dp637
g93
g94
ssg82
g631
sg75
(lp638
g452
asbag68
(g89
g70
NtRp639
(dp640
g73
(dp641
g100
g101
ssg82
g631
sg75
(lp642
S':'
asbag68
(g89
g70
NtRp643
(dp644
g73
(dp645
sg82
g631
sg75
(lp646
g68
(g69
g70
NtRp647
(dp648
g73
(dp649
g81
I3
ssg82
g643
sg75
(lp650
S''
asbasbasbasbasbasbasbag68
(g84
g70
NtRp651
(dp652
g73
(dp653
sg82
g267
sg75
(lp654
g68
(g89
g70
NtRp655
(dp656
g73
(dp657
g93
g94
ssg82
g651
sg75
(lp658
S'session_id_projeto'
p659
asbag68
(g89
g70
NtRp660
(dp661
g73
(dp662
g100
g101
ssg82
g651
sg75
(lp663
S':'
asbag68
(g89
g70
NtRp664
(dp665
g73
(dp666
sg82
g651
sg75
(lp667
g68
(g69
g70
NtRp668
(dp669
g73
(dp670
g81
I4
ssg82
g664
sg75
(lp671
S'127.0.0.1-ac2fedfb-a46a-42e9-8bef-23a136eddeb8'
p672
ag68
(g77
g70
NtRp673
(dp674
g73
(dp675
g81
I3
ssg82
Nsg75
(lp676
g68
(g84
g70
NtRp677
(dp678
g73
(dp679
sg82
g673
sg75
(lp680
g68
(g89
g70
NtRp681
(dp682
g73
(dp683
g93
g94
ssg82
g677
sg75
(lp684
g305
asbag68
(g89
g70
NtRp685
(dp686
g73
(dp687
g100
g101
ssg82
g677
sg75
(lp688
S':'
asbag68
(g89
g70
NtRp689
(dp690
g73
(dp691
sg82
g677
sg75
(lp692
g68
(g69
g70
NtRp693
(dp694
g73
(dp695
g81
I3
ssg82
g689
sg75
(lp696
S''
asbasbasbag68
(g84
g70
NtRp697
(dp698
g73
(dp699
sg82
g673
sg75
(lp700
g68
(g89
g70
NtRp701
(dp702
g73
(dp703
g93
g94
ssg82
g697
sg75
(lp704
g326
asbag68
(g89
g70
NtRp705
(dp706
g73
(dp707
g100
g101
ssg82
g697
sg75
(lp708
S':'
asbag68
(g89
g70
NtRp709
(dp710
g73
(dp711
sg82
g697
sg75
(lp712
g68
(g69
g70
NtRp713
(dp714
g73
(dp715
g81
I3
ssg82
g709
sg75
(lp716
S''
asbasbasbag68
(g84
g70
NtRp717
(dp718
g73
(dp719
sg82
g673
sg75
(lp720
g68
(g89
g70
NtRp721
(dp722
g73
(dp723
g93
g94
ssg82
g717
sg75
(lp724
g347
asbag68
(g89
g70
NtRp725
(dp726
g73
(dp727
g100
g101
ssg82
g717
sg75
(lp728
S':'
asbag68
(g89
g70
NtRp729
(dp730
g73
(dp731
sg82
g717
sg75
(lp732
g68
(g69
g70
NtRp733
(dp734
g73
(dp735
g81
I3
ssg82
g729
sg75
(lp736
S''
asbasbasbag68
(g84
g70
NtRp737
(dp738
g73
(dp739
sg82
g673
sg75
(lp740
g68
(g89
g70
NtRp741
(dp742
g73
(dp743
g93
g94
ssg82
g737
sg75
(lp744
g368
asbag68
(g89
g70
NtRp745
(dp746
g73
(dp747
g100
g101
ssg82
g737
sg75
(lp748
S':'
asbag68
(g89
g70
NtRp749
(dp750
g73
(dp751
sg82
g737
sg75
(lp752
g68
(g69
g70
NtRp753
(dp754
g73
(dp755
g81
I3
ssg82
g749
sg75
(lp756
S''
asbasbasbag68
(g84
g70
NtRp757
(dp758
g73
(dp759
sg82
g673
sg75
(lp760
g68
(g89
g70
NtRp761
(dp762
g73
(dp763
g93
g94
ssg82
g757
sg75
(lp764
g389
asbag68
(g89
g70
NtRp765
(dp766
g73
(dp767
g100
g101
ssg82
g757
sg75
(lp768
S':'
asbag68
(g89
g70
NtRp769
(dp770
g73
(dp771
sg82
g757
sg75
(lp772
g68
(g69
g70
NtRp773
(dp774
g73
(dp775
g81
I3
ssg82
g769
sg75
(lp776
S''
asbasbasbag68
(g84
g70
NtRp777
(dp778
g73
(dp779
sg82
g673
sg75
(lp780
g68
(g89
g70
NtRp781
(dp782
g73
(dp783
g93
g94
ssg82
g777
sg75
(lp784
g410
asbag68
(g89
g70
NtRp785
(dp786
g73
(dp787
g100
g101
ssg82
g777
sg75
(lp788
S':'
asbag68
(g89
g70
NtRp789
(dp790
g73
(dp791
sg82
g777
sg75
(lp792
g68
(g69
g70
NtRp793
(dp794
g73
(dp795
g81
I3
ssg82
g789
sg75
(lp796
S''
asbasbasbag68
(g84
g70
NtRp797
(dp798
g73
(dp799
sg82
g673
sg75
(lp800
g68
(g89
g70
NtRp801
(dp802
g73
(dp803
g93
g94
ssg82
g797
sg75
(lp804
g431
asbag68
(g89
g70
NtRp805
(dp806
g73
(dp807
g100
g101
ssg82
g797
sg75
(lp808
S':'
asbag68
(g89
g70
NtRp809
(dp810
g73
(dp811
sg82
g797
sg75
(lp812
g68
(g69
g70
NtRp813
(dp814
g73
(dp815
g81
I3
ssg82
g809
sg75
(lp816
S''
asbasbasbag68
(g84
g70
NtRp817
(dp818
g73
(dp819
sg82
g673
sg75
(lp820
g68
(g89
g70
NtRp821
(dp822
g73
(dp823
g93
g94
ssg82
g817
sg75
(lp824
g452
asbag68
(g89
g70
NtRp825
(dp826
g73
(dp827
g100
g101
ssg82
g817
sg75
(lp828
S':'
asbag68
(g89
g70
NtRp829
(dp830
g73
(dp831
sg82
g817
sg75
(lp832
g68
(g69
g70
NtRp833
(dp834
g73
(dp835
g81
I3
ssg82
g829
sg75
(lp836
S''
asbasbasbasbasbasbasbag68
(g84
g70
NtRp837
(dp838
g73
(dp839
sg82
g267
sg75
(lp840
g68
(g89
g70
NtRp841
(dp842
g73
(dp843
g93
g94
ssg82
g837
sg75
(lp844
S'session_id_welcome'
p845
asbag68
(g89
g70
NtRp846
(dp847
g73
(dp848
g100
g101
ssg82
g837
sg75
(lp849
S':'
asbag68
(g89
g70
NtRp850
(dp851
g73
(dp852
sg82
g837
sg75
(lp853
g68
(g69
g70
NtRp854
(dp855
g73
(dp856
g81
I4
ssg82
g850
sg75
(lp857
S'127.0.0.1-112b4c82-b064-485e-80d3-cb116c714609'
p858
ag68
(g77
g70
NtRp859
(dp860
g73
(dp861
g81
I3
ssg82
Nsg75
(lp862
g68
(g84
g70
NtRp863
(dp864
g73
(dp865
sg82
g859
sg75
(lp866
g68
(g89
g70
NtRp867
(dp868
g73
(dp869
g93
g94
ssg82
g863
sg75
(lp870
g305
asbag68
(g89
g70
NtRp871
(dp872
g73
(dp873
g100
g101
ssg82
g863
sg75
(lp874
S':'
asbag68
(g89
g70
NtRp875
(dp876
g73
(dp877
sg82
g863
sg75
(lp878
g68
(g69
g70
NtRp879
(dp880
g73
(dp881
g81
I3
ssg82
g875
sg75
(lp882
S''
asbasbasbag68
(g84
g70
NtRp883
(dp884
g73
(dp885
sg82
g859
sg75
(lp886
g68
(g89
g70
NtRp887
(dp888
g73
(dp889
g93
g94
ssg82
g883
sg75
(lp890
g326
asbag68
(g89
g70
NtRp891
(dp892
g73
(dp893
g100
g101
ssg82
g883
sg75
(lp894
S':'
asbag68
(g89
g70
NtRp895
(dp896
g73
(dp897
sg82
g883
sg75
(lp898
g68
(g69
g70
NtRp899
(dp900
g73
(dp901
g81
I3
ssg82
g895
sg75
(lp902
S''
asbasbasbag68
(g84
g70
NtRp903
(dp904
g73
(dp905
sg82
g859
sg75
(lp906
g68
(g89
g70
NtRp907
(dp908
g73
(dp909
g93
g94
ssg82
g903
sg75
(lp910
g347
asbag68
(g89
g70
NtRp911
(dp912
g73
(dp913
g100
g101
ssg82
g903
sg75
(lp914
S':'
asbag68
(g89
g70
NtRp915
(dp916
g73
(dp917
sg82
g903
sg75
(lp918
g68
(g69
g70
NtRp919
(dp920
g73
(dp921
g81
I3
ssg82
g915
sg75
(lp922
S''
asbasbasbag68
(g84
g70
NtRp923
(dp924
g73
(dp925
sg82
g859
sg75
(lp926
g68
(g89
g70
NtRp927
(dp928
g73
(dp929
g93
g94
ssg82
g923
sg75
(lp930
g368
asbag68
(g89
g70
NtRp931
(dp932
g73
(dp933
g100
g101
ssg82
g923
sg75
(lp934
S':'
asbag68
(g89
g70
NtRp935
(dp936
g73
(dp937
sg82
g923
sg75
(lp938
g68
(g69
g70
NtRp939
(dp940
g73
(dp941
g81
I3
ssg82
g935
sg75
(lp942
S''
asbasbasbag68
(g84
g70
NtRp943
(dp944
g73
(dp945
sg82
g859
sg75
(lp946
g68
(g89
g70
NtRp947
(dp948
g73
(dp949
g93
g94
ssg82
g943
sg75
(lp950
g389
asbag68
(g89
g70
NtRp951
(dp952
g73
(dp953
g100
g101
ssg82
g943
sg75
(lp954
S':'
asbag68
(g89
g70
NtRp955
(dp956
g73
(dp957
sg82
g943
sg75
(lp958
g68
(g69
g70
NtRp959
(dp960
g73
(dp961
g81
I3
ssg82
g955
sg75
(lp962
S''
asbasbasbag68
(g84
g70
NtRp963
(dp964
g73
(dp965
sg82
g859
sg75
(lp966
g68
(g89
g70
NtRp967
(dp968
g73
(dp969
g93
g94
ssg82
g963
sg75
(lp970
g410
asbag68
(g89
g70
NtRp971
(dp972
g73
(dp973
g100
g101
ssg82
g963
sg75
(lp974
S':'
asbag68
(g89
g70
NtRp975
(dp976
g73
(dp977
sg82
g963
sg75
(lp978
g68
(g69
g70
NtRp979
(dp980
g73
(dp981
g81
I3
ssg82
g975
sg75
(lp982
S''
asbasbasbag68
(g84
g70
NtRp983
(dp984
g73
(dp985
sg82
g859
sg75
(lp986
g68
(g89
g70
NtRp987
(dp988
g73
(dp989
g93
g94
ssg82
g983
sg75
(lp990
g431
asbag68
(g89
g70
NtRp991
(dp992
g73
(dp993
g100
g101
ssg82
g983
sg75
(lp994
S':'
asbag68
(g89
g70
NtRp995
(dp996
g73
(dp997
sg82
g983
sg75
(lp998
g68
(g69
g70
NtRp999
(dp1000
g73
(dp1001
g81
I3
ssg82
g995
sg75
(lp1002
S''
asbasbasbag68
(g84
g70
NtRp1003
(dp1004
g73
(dp1005
sg82
g859
sg75
(lp1006
g68
(g89
g70
NtRp1007
(dp1008
g73
(dp1009
g93
g94
ssg82
g1003
sg75
(lp1010
g452
asbag68
(g89
g70
NtRp1011
(dp1012
g73
(dp1013
g100
g101
ssg82
g1003
sg75
(lp1014
S':'
asbag68
(g89
g70
NtRp1015
(dp1016
g73
(dp1017
sg82
g1003
sg75
(lp1018
g68
(g69
g70
NtRp1019
(dp1020
g73
(dp1021
g81
I3
ssg82
g1015
sg75
(lp1022
S''
asbasbasbasbasbasbasbasbasbasbasbag68
(g84
g70
NtRp1023
(dp1024
g73
(dp1025
sg82
g78
sg75
(lp1026
g68
(g89
g70
NtRp1027
(dp1028
g73
(dp1029
g93
g94
ssg82
g1023
sg75
(lp1030
S'env'
p1031
asbag68
(g89
g70
NtRp1032
(dp1033
g73
(dp1034
g100
g101
ssg82
g1023
sg75
(lp1035
S':'
asbag68
(g89
g70
NtRp1036
(dp1037
g73
(dp1038
sg82
g1023
sg75
(lp1039
g68
(g69
g70
NtRp1040
(dp1041
g73
(dp1042
g81
I5
ssg82
g1036
sg75
(lp1043
g68
(g77
g70
NtRp1044
(dp1045
g73
(dp1046
g81
I4
ssg82
Nsg75
(lp1047
g68
(g84
g70
NtRp1048
(dp1049
g73
(dp1050
sg82
g1044
sg75
(lp1051
g68
(g89
g70
NtRp1052
(dp1053
g73
(dp1054
g93
g94
ssg82
g1048
sg75
(lp1055
S'app_folders'
p1056
asbag68
(g89
g70
NtRp1057
(dp1058
g73
(dp1059
g100
g101
ssg82
g1048
sg75
(lp1060
S':'
asbag68
(g89
g70
NtRp1061
(dp1062
g73
(dp1063
sg82
g1048
sg75
(lp1064
g68
(g69
g70
NtRp1065
(dp1066
g73
(dp1067
g81
I4
ssg82
g1061
sg75
(lp1068
S"set(['/var/www/web2py_curso/applications/welcome/', '/var/www/web2py_curso/applications/admin/', '/var/www/web2py_curso/applications/projeto/'])"
p1069
asbasbasbag68
(g84
g70
NtRp1070
(dp1071
g73
(dp1072
sg82
g1044
sg75
(lp1073
g68
(g89
g70
NtRp1074
(dp1075
g73
(dp1076
g93
g94
ssg82
g1070
sg75
(lp1077
S'applications_parent'
p1078
asbag68
(g89
g70
NtRp1079
(dp1080
g73
(dp1081
g100
g101
ssg82
g1070
sg75
(lp1082
S':'
asbag68
(g89
g70
NtRp1083
(dp1084
g73
(dp1085
sg82
g1070
sg75
(lp1086
g68
(g69
g70
NtRp1087
(dp1088
g73
(dp1089
g81
I4
ssg82
g1083
sg75
(lp1090
S'/var/www/web2py_curso'
p1091
asbasbasbag68
(g84
g70
NtRp1092
(dp1093
g73
(dp1094
sg82
g1044
sg75
(lp1095
g68
(g89
g70
NtRp1096
(dp1097
g73
(dp1098
g93
g94
ssg82
g1092
sg75
(lp1099
S'cmd_args'
p1100
asbag68
(g89
g70
NtRp1101
(dp1102
g73
(dp1103
g100
g101
ssg82
g1092
sg75
(lp1104
S':'
asbag68
(g89
g70
NtRp1105
(dp1106
g73
(dp1107
sg82
g1092
sg75
(lp1108
g68
(g69
g70
NtRp1109
(dp1110
g73
(dp1111
g81
I4
ssg82
g1105
sg75
(lp1112
g68
(g77
g70
NtRp1113
(dp1114
g73
(dp1115
g81
I3
ssg82
Nsg75
(lp1116
sbasbasbasbag68
(g84
g70
NtRp1117
(dp1118
g73
(dp1119
sg82
g1044
sg75
(lp1120
g68
(g89
g70
NtRp1121
(dp1122
g73
(dp1123
g93
g94
ssg82
g1117
sg75
(lp1124
S'cmd_options'
p1125
asbag68
(g89
g70
NtRp1126
(dp1127
g73
(dp1128
g100
g101
ssg82
g1117
sg75
(lp1129
S':'
asbag68
(g89
g70
NtRp1130
(dp1131
g73
(dp1132
sg82
g1117
sg75
(lp1133
g68
(g69
g70
NtRp1134
(dp1135
g73
(dp1136
g81
I4
ssg82
g1130
sg75
(lp1137
S"<Values at 0x20c31b8: {'verbose': False, 'ip': '127.0.0.1', 'with_scheduler': False, 'ips': [], 'shutdown_timeout': 5, 'taskbar': False, 'port': 8000, 'maxthreads': None, 'softcron': False, 'server_name': 'fernado-desktop', 'bpython': False, 'nogui': False, 'pid_filename': 'httpserver.pid', 'extcron': False, 'runcron': False, 'run_system_tests': False, 'test': None, 'folder': '/var/www/web2py_curso', 'config': '', 'minthreads': None, 'winservice': '', 'shell': None, 'run': '', 'log_filename': 'httpserver.log', 'debuglevel': 30, 'args': [''], 'socket_timeout': 5, 'ssl_ca_certificate': None, 'scheduler': None, 'profiler_filename': None, 'ssl_private_key': '', 'scheduler_groups': None, 'password': '123456', 'request_queue_size': 5, 'ssl_certificate': '', 'cronjob': False, 'numthreads': None, 'quiet': False, 'interfaces': None, 'import_models': False, 'timeout': 10, 'plain': False, 'nobanner': False}>"
p1138
asbasbasbag68
(g84
g70
NtRp1139
(dp1140
g73
(dp1141
sg82
g1044
sg75
(lp1142
g68
(g89
g70
NtRp1143
(dp1144
g73
(dp1145
g93
g94
ssg82
g1139
sg75
(lp1146
S'db_sessions'
p1147
asbag68
(g89
g70
NtRp1148
(dp1149
g73
(dp1150
g100
g101
ssg82
g1139
sg75
(lp1151
S':'
asbag68
(g89
g70
NtRp1152
(dp1153
g73
(dp1154
sg82
g1139
sg75
(lp1155
g68
(g69
g70
NtRp1156
(dp1157
g73
(dp1158
g81
I4
ssg82
g1152
sg75
(lp1159
S'set([])'
p1160
asbasbasbag68
(g84
g70
NtRp1161
(dp1162
g73
(dp1163
sg82
g1044
sg75
(lp1164
g68
(g89
g70
NtRp1165
(dp1166
g73
(dp1167
g93
g94
ssg82
g1161
sg75
(lp1168
S'debugging'
p1169
asbag68
(g89
g70
NtRp1170
(dp1171
g73
(dp1172
g100
g101
ssg82
g1161
sg75
(lp1173
S':'
asbag68
(g89
g70
NtRp1174
(dp1175
g73
(dp1176
sg82
g1161
sg75
(lp1177
g68
(g69
g70
NtRp1178
(dp1179
g73
(dp1180
g81
I4
ssg82
g1174
sg75
(lp1181
g111
asbasbasbag68
(g84
g70
NtRp1182
(dp1183
g73
(dp1184
sg82
g1044
sg75
(lp1185
g68
(g89
g70
NtRp1186
(dp1187
g73
(dp1188
g93
g94
ssg82
g1182
sg75
(lp1189
S'gluon_parent'
p1190
asbag68
(g89
g70
NtRp1191
(dp1192
g73
(dp1193
g100
g101
ssg82
g1182
sg75
(lp1194
S':'
asbag68
(g89
g70
NtRp1195
(dp1196
g73
(dp1197
sg82
g1182
sg75
(lp1198
g68
(g69
g70
NtRp1199
(dp1200
g73
(dp1201
g81
I4
ssg82
g1195
sg75
(lp1202
S'/var/www/web2py_curso'
p1203
asbasbasbag68
(g84
g70
NtRp1204
(dp1205
g73
(dp1206
sg82
g1044
sg75
(lp1207
g68
(g89
g70
NtRp1208
(dp1209
g73
(dp1210
g93
g94
ssg82
g1204
sg75
(lp1211
S'http_accept'
p1212
asbag68
(g89
g70
NtRp1213
(dp1214
g73
(dp1215
g100
g101
ssg82
g1204
sg75
(lp1216
S':'
asbag68
(g89
g70
NtRp1217
(dp1218
g73
(dp1219
sg82
g1204
sg75
(lp1220
g68
(g69
g70
NtRp1221
(dp1222
g73
(dp1223
g81
I4
ssg82
g1217
sg75
(lp1224
S'text/html,application/xhtml+xml,application/xml;q=0.9,*/*;q=0.8'
p1225
asbasbasbag68
(g84
g70
NtRp1226
(dp1227
g73
(dp1228
sg82
g1044
sg75
(lp1229
g68
(g89
g70
NtRp1230
(dp1231
g73
(dp1232
g93
g94
ssg82
g1226
sg75
(lp1233
S'http_accept_charset'
p1234
asbag68
(g89
g70
NtRp1235
(dp1236
g73
(dp1237
g100
g101
ssg82
g1226
sg75
(lp1238
S':'
asbag68
(g89
g70
NtRp1239
(dp1240
g73
(dp1241
sg82
g1226
sg75
(lp1242
g68
(g69
g70
NtRp1243
(dp1244
g73
(dp1245
g81
I4
ssg82
g1239
sg75
(lp1246
S'ISO-8859-1,utf-8;q=0.7,*;q=0.3'
p1247
asbasbasbag68
(g84
g70
NtRp1248
(dp1249
g73
(dp1250
sg82
g1044
sg75
(lp1251
g68
(g89
g70
NtRp1252
(dp1253
g73
(dp1254
g93
g94
ssg82
g1248
sg75
(lp1255
S'http_accept_encoding'
p1256
asbag68
(g89
g70
NtRp1257
(dp1258
g73
(dp1259
g100
g101
ssg82
g1248
sg75
(lp1260
S':'
asbag68
(g89
g70
NtRp1261
(dp1262
g73
(dp1263
sg82
g1248
sg75
(lp1264
g68
(g69
g70
NtRp1265
(dp1266
g73
(dp1267
g81
I4
ssg82
g1261
sg75
(lp1268
S'gzip,deflate,sdch'
p1269
asbasbasbag68
(g84
g70
NtRp1270
(dp1271
g73
(dp1272
sg82
g1044
sg75
(lp1273
g68
(g89
g70
NtRp1274
(dp1275
g73
(dp1276
g93
g94
ssg82
g1270
sg75
(lp1277
S'http_accept_language'
p1278
asbag68
(g89
g70
NtRp1279
(dp1280
g73
(dp1281
g100
g101
ssg82
g1270
sg75
(lp1282
S':'
asbag68
(g89
g70
NtRp1283
(dp1284
g73
(dp1285
sg82
g1270
sg75
(lp1286
g68
(g69
g70
NtRp1287
(dp1288
g73
(dp1289
g81
I4
ssg82
g1283
sg75
(lp1290
S'pt-BR,pt;q=0.8,en-US;q=0.6,en;q=0.4'
p1291
asbasbasbag68
(g84
g70
NtRp1292
(dp1293
g73
(dp1294
sg82
g1044
sg75
(lp1295
g68
(g89
g70
NtRp1296
(dp1297
g73
(dp1298
g93
g94
ssg82
g1292
sg75
(lp1299
S'http_connection'
p1300
asbag68
(g89
g70
NtRp1301
(dp1302
g73
(dp1303
g100
g101
ssg82
g1292
sg75
(lp1304
S':'
asbag68
(g89
g70
NtRp1305
(dp1306
g73
(dp1307
sg82
g1292
sg75
(lp1308
g68
(g69
g70
NtRp1309
(dp1310
g73
(dp1311
g81
I4
ssg82
g1305
sg75
(lp1312
S'keep-alive'
p1313
asbasbasbag68
(g84
g70
NtRp1314
(dp1315
g73
(dp1316
sg82
g1044
sg75
(lp1317
g68
(g89
g70
NtRp1318
(dp1319
g73
(dp1320
g93
g94
ssg82
g1314
sg75
(lp1321
S'http_cookie'
p1322
asbag68
(g89
g70
NtRp1323
(dp1324
g73
(dp1325
g100
g101
ssg82
g1314
sg75
(lp1326
S':'
asbag68
(g89
g70
NtRp1327
(dp1328
g73
(dp1329
sg82
g1314
sg75
(lp1330
g68
(g69
g70
NtRp1331
(dp1332
g73
(dp1333
g81
I4
ssg82
g1327
sg75
(lp1334
S'session_id_home=127.0.0.1-61c26c04-034b-4717-a3a3-84ec434f1b9b; session_id_welcome=127.0.0.1-112b4c82-b064-485e-80d3-cb116c714609; session_id_admin=127.0.0.1-6b19d69e-1405-460b-b17e-ad0b8deb3490; session_id_projeto=127.0.0.1-ac2fedfb-a46a-42e9-8bef-23a136eddeb8'
p1335
asbasbasbag68
(g84
g70
NtRp1336
(dp1337
g73
(dp1338
sg82
g1044
sg75
(lp1339
g68
(g89
g70
NtRp1340
(dp1341
g73
(dp1342
g93
g94
ssg82
g1336
sg75
(lp1343
S'http_host'
p1344
asbag68
(g89
g70
NtRp1345
(dp1346
g73
(dp1347
g100
g101
ssg82
g1336
sg75
(lp1348
S':'
asbag68
(g89
g70
NtRp1349
(dp1350
g73
(dp1351
sg82
g1336
sg75
(lp1352
g68
(g69
g70
NtRp1353
(dp1354
g73
(dp1355
g81
I4
ssg82
g1349
sg75
(lp1356
S'127.0.0.1:8000'
p1357
asbasbasbag68
(g84
g70
NtRp1358
(dp1359
g73
(dp1360
sg82
g1044
sg75
(lp1361
g68
(g89
g70
NtRp1362
(dp1363
g73
(dp1364
g93
g94
ssg82
g1358
sg75
(lp1365
S'http_user_agent'
p1366
asbag68
(g89
g70
NtRp1367
(dp1368
g73
(dp1369
g100
g101
ssg82
g1358
sg75
(lp1370
S':'
asbag68
(g89
g70
NtRp1371
(dp1372
g73
(dp1373
sg82
g1358
sg75
(lp1374
g68
(g69
g70
NtRp1375
(dp1376
g73
(dp1377
g81
I4
ssg82
g1371
sg75
(lp1378
S'Mozilla/5.0 (X11; Linux x86_64) AppleWebKit/537.4 (KHTML, like Gecko) Ubuntu/12.10 Chromium/22.0.1229.94 Chrome/22.0.1229.94 Safari/537.4'
p1379
asbasbasbag68
(g84
g70
NtRp1380
(dp1381
g73
(dp1382
sg82
g1044
sg75
(lp1383
g68
(g89
g70
NtRp1384
(dp1385
g73
(dp1386
g93
g94
ssg82
g1380
sg75
(lp1387
S'is_jython'
p1388
asbag68
(g89
g70
NtRp1389
(dp1390
g73
(dp1391
g100
g101
ssg82
g1380
sg75
(lp1392
S':'
asbag68
(g89
g70
NtRp1393
(dp1394
g73
(dp1395
sg82
g1380
sg75
(lp1396
g68
(g69
g70
NtRp1397
(dp1398
g73
(dp1399
g81
I4
ssg82
g1393
sg75
(lp1400
g111
asbasbasbag68
(g84
g70
NtRp1401
(dp1402
g73
(dp1403
sg82
g1044
sg75
(lp1404
g68
(g89
g70
NtRp1405
(dp1406
g73
(dp1407
g93
g94
ssg82
g1401
sg75
(lp1408
S'is_pypy'
p1409
asbag68
(g89
g70
NtRp1410
(dp1411
g73
(dp1412
g100
g101
ssg82
g1401
sg75
(lp1413
S':'
asbag68
(g89
g70
NtRp1414
(dp1415
g73
(dp1416
sg82
g1401
sg75
(lp1417
g68
(g69
g70
NtRp1418
(dp1419
g73
(dp1420
g81
I4
ssg82
g1414
sg75
(lp1421
g111
asbasbasbag68
(g84
g70
NtRp1422
(dp1423
g73
(dp1424
sg82
g1044
sg75
(lp1425
g68
(g89
g70
NtRp1426
(dp1427
g73
(dp1428
g93
g94
ssg82
g1422
sg75
(lp1429
S'local_hosts'
p1430
asbag68
(g89
g70
NtRp1431
(dp1432
g73
(dp1433
g100
g101
ssg82
g1422
sg75
(lp1434
S':'
asbag68
(g89
g70
NtRp1435
(dp1436
g73
(dp1437
sg82
g1422
sg75
(lp1438
g68
(g69
g70
NtRp1439
(dp1440
g73
(dp1441
g81
I4
ssg82
g1435
sg75
(lp1442
g68
(g77
g70
NtRp1443
(dp1444
g73
(dp1445
g81
I3
ssg82
Nsg75
(lp1446
g68
(g84
g70
NtRp1447
(dp1448
g73
(dp1449
sg82
g1443
sg75
(lp1450
g68
(g89
g70
NtRp1451
(dp1452
g73
(dp1453
sg82
g1447
sg75
(lp1454
g68
(g69
g70
NtRp1455
(dp1456
g73
(dp1457
g81
I3
ssg82
g1451
sg75
(lp1458
S'127.0.1.1'
p1459
asbasbasbag68
(g84
g70
NtRp1460
(dp1461
g73
(dp1462
sg82
g1443
sg75
(lp1463
g68
(g89
g70
NtRp1464
(dp1465
g73
(dp1466
sg82
g1460
sg75
(lp1467
g68
(g69
g70
NtRp1468
(dp1469
g73
(dp1470
g81
I3
ssg82
g1464
sg75
(lp1471
S'::1'
p1472
asbasbasbag68
(g84
g70
NtRp1473
(dp1474
g73
(dp1475
sg82
g1443
sg75
(lp1476
g68
(g89
g70
NtRp1477
(dp1478
g73
(dp1479
sg82
g1473
sg75
(lp1480
g68
(g69
g70
NtRp1481
(dp1482
g73
(dp1483
g81
I3
ssg82
g1477
sg75
(lp1484
S'fernado-desktop'
p1485
asbasbasbag68
(g84
g70
NtRp1486
(dp1487
g73
(dp1488
sg82
g1443
sg75
(lp1489
g68
(g89
g70
NtRp1490
(dp1491
g73
(dp1492
sg82
g1486
sg75
(lp1493
g68
(g69
g70
NtRp1494
(dp1495
g73
(dp1496
g81
I3
ssg82
g1490
sg75
(lp1497
S'::ffff:127.0.0.1'
p1498
asbasbasbag68
(g84
g70
NtRp1499
(dp1500
g73
(dp1501
sg82
g1443
sg75
(lp1502
g68
(g89
g70
NtRp1503
(dp1504
g73
(dp1505
sg82
g1499
sg75
(lp1506
g68
(g69
g70
NtRp1507
(dp1508
g73
(dp1509
g81
I3
ssg82
g1503
sg75
(lp1510
S'127.0.0.1'
p1511
asbasbasbasbasbasbasbag68
(g84
g70
NtRp1512
(dp1513
g73
(dp1514
sg82
g1044
sg75
(lp1515
g68
(g89
g70
NtRp1516
(dp1517
g73
(dp1518
g93
g94
ssg82
g1512
sg75
(lp1519
S'path_info'
p1520
asbag68
(g89
g70
NtRp1521
(dp1522
g73
(dp1523
g100
g101
ssg82
g1512
sg75
(lp1524
S':'
asbag68
(g89
g70
NtRp1525
(dp1526
g73
(dp1527
sg82
g1512
sg75
(lp1528
g68
(g69
g70
NtRp1529
(dp1530
g73
(dp1531
g81
I4
ssg82
g1525
sg75
(lp1532
S'/projeto/default/index'
p1533
asbasbasbag68
(g84
g70
NtRp1534
(dp1535
g73
(dp1536
sg82
g1044
sg75
(lp1537
g68
(g89
g70
NtRp1538
(dp1539
g73
(dp1540
g93
g94
ssg82
g1534
sg75
(lp1541
S'query_string'
p1542
asbag68
(g89
g70
NtRp1543
(dp1544
g73
(dp1545
g100
g101
ssg82
g1534
sg75
(lp1546
S':'
asbag68
(g89
g70
NtRp1547
(dp1548
g73
(dp1549
sg82
g1534
sg75
(lp1550
g68
(g69
g70
NtRp1551
(dp1552
g73
(dp1553
g81
I4
ssg82
g1547
sg75
(lp1554
S'nome=fer'
p1555
asbasbasbag68
(g84
g70
NtRp1556
(dp1557
g73
(dp1558
sg82
g1044
sg75
(lp1559
g68
(g89
g70
NtRp1560
(dp1561
g73
(dp1562
g93
g94
ssg82
g1556
sg75
(lp1563
S'remote_addr'
p1564
asbag68
(g89
g70
NtRp1565
(dp1566
g73
(dp1567
g100
g101
ssg82
g1556
sg75
(lp1568
S':'
asbag68
(g89
g70
NtRp1569
(dp1570
g73
(dp1571
sg82
g1556
sg75
(lp1572
g68
(g69
g70
NtRp1573
(dp1574
g73
(dp1575
g81
I4
ssg82
g1569
sg75
(lp1576
g223
asbasbasbag68
(g84
g70
NtRp1577
(dp1578
g73
(dp1579
sg82
g1044
sg75
(lp1580
g68
(g89
g70
NtRp1581
(dp1582
g73
(dp1583
g93
g94
ssg82
g1577
sg75
(lp1584
S'remote_port'
p1585
asbag68
(g89
g70
NtRp1586
(dp1587
g73
(dp1588
g100
g101
ssg82
g1577
sg75
(lp1589
S':'
asbag68
(g89
g70
NtRp1590
(dp1591
g73
(dp1592
sg82
g1577
sg75
(lp1593
g68
(g69
g70
NtRp1594
(dp1595
g73
(dp1596
g81
I4
ssg82
g1590
sg75
(lp1597
S'46597'
p1598
asbasbasbag68
(g84
g70
NtRp1599
(dp1600
g73
(dp1601
sg82
g1044
sg75
(lp1602
g68
(g89
g70
NtRp1603
(dp1604
g73
(dp1605
g93
g94
ssg82
g1599
sg75
(lp1606
S'request_method'
p1607
asbag68
(g89
g70
NtRp1608
(dp1609
g73
(dp1610
g100
g101
ssg82
g1599
sg75
(lp1611
S':'
asbag68
(g89
g70
NtRp1612
(dp1613
g73
(dp1614
sg82
g1599
sg75
(lp1615
g68
(g69
g70
NtRp1616
(dp1617
g73
(dp1618
g81
I4
ssg82
g1612
sg75
(lp1619
S'GET'
p1620
asbasbasbag68
(g84
g70
NtRp1621
(dp1622
g73
(dp1623
sg82
g1044
sg75
(lp1624
g68
(g89
g70
NtRp1625
(dp1626
g73
(dp1627
g93
g94
ssg82
g1621
sg75
(lp1628
S'request_uri'
p1629
asbag68
(g89
g70
NtRp1630
(dp1631
g73
(dp1632
g100
g101
ssg82
g1621
sg75
(lp1633
S':'
asbag68
(g89
g70
NtRp1634
(dp1635
g73
(dp1636
sg82
g1621
sg75
(lp1637
g68
(g69
g70
NtRp1638
(dp1639
g73
(dp1640
g81
I4
ssg82
g1634
sg75
(lp1641
S'/projeto/default/index?nome=fer'
p1642
asbasbasbag68
(g84
g70
NtRp1643
(dp1644
g73
(dp1645
sg82
g1044
sg75
(lp1646
g68
(g89
g70
NtRp1647
(dp1648
g73
(dp1649
g93
g94
ssg82
g1643
sg75
(lp1650
S'script_name'
p1651
asbag68
(g89
g70
NtRp1652
(dp1653
g73
(dp1654
g100
g101
ssg82
g1643
sg75
(lp1655
S':'
asbag68
(g89
g70
NtRp1656
(dp1657
g73
(dp1658
sg82
g1643
sg75
(lp1659
g68
(g69
g70
NtRp1660
(dp1661
g73
(dp1662
g81
I4
ssg82
g1656
sg75
(lp1663
S''
asbasbasbag68
(g84
g70
NtRp1664
(dp1665
g73
(dp1666
sg82
g1044
sg75
(lp1667
g68
(g89
g70
NtRp1668
(dp1669
g73
(dp1670
g93
g94
ssg82
g1664
sg75
(lp1671
S'server_name'
p1672
asbag68
(g89
g70
NtRp1673
(dp1674
g73
(dp1675
g100
g101
ssg82
g1664
sg75
(lp1676
S':'
asbag68
(g89
g70
NtRp1677
(dp1678
g73
(dp1679
sg82
g1664
sg75
(lp1680
g68
(g69
g70
NtRp1681
(dp1682
g73
(dp1683
g81
I4
ssg82
g1677
sg75
(lp1684
S'fernado-desktop'
p1685
asbasbasbag68
(g84
g70
NtRp1686
(dp1687
g73
(dp1688
sg82
g1044
sg75
(lp1689
g68
(g89
g70
NtRp1690
(dp1691
g73
(dp1692
g93
g94
ssg82
g1686
sg75
(lp1693
S'server_port'
p1694
asbag68
(g89
g70
NtRp1695
(dp1696
g73
(dp1697
g100
g101
ssg82
g1686
sg75
(lp1698
S':'
asbag68
(g89
g70
NtRp1699
(dp1700
g73
(dp1701
sg82
g1686
sg75
(lp1702
g68
(g69
g70
NtRp1703
(dp1704
g73
(dp1705
g81
I4
ssg82
g1699
sg75
(lp1706
S'8000'
p1707
asbasbasbag68
(g84
g70
NtRp1708
(dp1709
g73
(dp1710
sg82
g1044
sg75
(lp1711
g68
(g89
g70
NtRp1712
(dp1713
g73
(dp1714
g93
g94
ssg82
g1708
sg75
(lp1715
S'server_protocol'
p1716
asbag68
(g89
g70
NtRp1717
(dp1718
g73
(dp1719
g100
g101
ssg82
g1708
sg75
(lp1720
S':'
asbag68
(g89
g70
NtRp1721
(dp1722
g73
(dp1723
sg82
g1708
sg75
(lp1724
g68
(g69
g70
NtRp1725
(dp1726
g73
(dp1727
g81
I4
ssg82
g1721
sg75
(lp1728
S'HTTP/1.1'
p1729
asbasbasbag68
(g84
g70
NtRp1730
(dp1731
g73
(dp1732
sg82
g1044
sg75
(lp1733
g68
(g89
g70
NtRp1734
(dp1735
g73
(dp1736
g93
g94
ssg82
g1730
sg75
(lp1737
S'server_software'
p1738
asbag68
(g89
g70
NtRp1739
(dp1740
g73
(dp1741
g100
g101
ssg82
g1730
sg75
(lp1742
S':'
asbag68
(g89
g70
NtRp1743
(dp1744
g73
(dp1745
sg82
g1730
sg75
(lp1746
g68
(g69
g70
NtRp1747
(dp1748
g73
(dp1749
g81
I4
ssg82
g1743
sg75
(lp1750
S'Rocket 1.2.6'
p1751
asbasbasbag68
(g84
g70
NtRp1752
(dp1753
g73
(dp1754
sg82
g1044
sg75
(lp1755
g68
(g89
g70
NtRp1756
(dp1757
g73
(dp1758
g93
g94
ssg82
g1752
sg75
(lp1759
S'web2py_path'
p1760
asbag68
(g89
g70
NtRp1761
(dp1762
g73
(dp1763
g100
g101
ssg82
g1752
sg75
(lp1764
S':'
asbag68
(g89
g70
NtRp1765
(dp1766
g73
(dp1767
sg82
g1752
sg75
(lp1768
g68
(g69
g70
NtRp1769
(dp1770
g73
(dp1771
g81
I4
ssg82
g1765
sg75
(lp1772
g1091
asbasbasbag68
(g84
g70
NtRp1773
(dp1774
g73
(dp1775
sg82
g1044
sg75
(lp1776
g68
(g89
g70
NtRp1777
(dp1778
g73
(dp1779
g93
g94
ssg82
g1773
sg75
(lp1780
S'web2py_version'
p1781
asbag68
(g89
g70
NtRp1782
(dp1783
g73
(dp1784
g100
g101
ssg82
g1773
sg75
(lp1785
S':'
asbag68
(g89
g70
NtRp1786
(dp1787
g73
(dp1788
sg82
g1773
sg75
(lp1789
g68
(g69
g70
NtRp1790
(dp1791
g73
(dp1792
g81
I4
ssg82
g1786
sg75
(lp1793
g68
(g77
g70
NtRp1794
(dp1795
g73
(dp1796
g81
I3
ssg82
Nsg75
(lp1797
g68
(g84
g70
NtRp1798
(dp1799
g73
(dp1800
sg82
g1794
sg75
(lp1801
g68
(g89
g70
NtRp1802
(dp1803
g73
(dp1804
sg82
g1798
sg75
(lp1805
g68
(g69
g70
NtRp1806
(dp1807
g73
(dp1808
g81
I3
ssg82
g1802
sg75
(lp1809
S'2'
asbasbasbag68
(g84
g70
NtRp1810
(dp1811
g73
(dp1812
sg82
g1794
sg75
(lp1813
g68
(g89
g70
NtRp1814
(dp1815
g73
(dp1816
sg82
g1810
sg75
(lp1817
g68
(g69
g70
NtRp1818
(dp1819
g73
(dp1820
g81
I3
ssg82
g1814
sg75
(lp1821
S'3'
asbasbasbag68
(g84
g70
NtRp1822
(dp1823
g73
(dp1824
sg82
g1794
sg75
(lp1825
g68
(g89
g70
NtRp1826
(dp1827
g73
(dp1828
sg82
g1822
sg75
(lp1829
g68
(g69
g70
NtRp1830
(dp1831
g73
(dp1832
g81
I3
ssg82
g1826
sg75
(lp1833
S'2'
asbasbasbag68
(g84
g70
NtRp1834
(dp1835
g73
(dp1836
sg82
g1794
sg75
(lp1837
g68
(g89
g70
NtRp1838
(dp1839
g73
(dp1840
sg82
g1834
sg75
(lp1841
g68
(g69
g70
NtRp1842
(dp1843
g73
(dp1844
g81
I3
ssg82
g1838
sg75
(lp1845
S'datetime.datetime(2012, 12, 17, 15, 3, 30)'
p1846
asbasbasbag68
(g84
g70
NtRp1847
(dp1848
g73
(dp1849
sg82
g1794
sg75
(lp1850
g68
(g89
g70
NtRp1851
(dp1852
g73
(dp1853
sg82
g1847
sg75
(lp1854
g68
(g69
g70
NtRp1855
(dp1856
g73
(dp1857
g81
I3
ssg82
g1851
sg75
(lp1858
S'stable'
p1859
asbasbasbasbasbasbasbag68
(g84
g70
NtRp1860
(dp1861
g73
(dp1862
sg82
g1044
sg75
(lp1863
g68
(g89
g70
NtRp1864
(dp1865
g73
(dp1866
g93
g94
ssg82
g1860
sg75
(lp1867
S'wsgi_errors'
p1868
asbag68
(g89
g70
NtRp1869
(dp1870
g73
(dp1871
g100
g101
ssg82
g1860
sg75
(lp1872
S':'
asbag68
(g89
g70
NtRp1873
(dp1874
g73
(dp1875
sg82
g1860
sg75
(lp1876
g68
(g69
g70
NtRp1877
(dp1878
g73
(dp1879
g81
I4
ssg82
g1873
sg75
(lp1880
S"<open file '<stderr>', mode 'w' at 0x7fde3c532270>"
p1881
asbasbasbag68
(g84
g70
NtRp1882
(dp1883
g73
(dp1884
sg82
g1044
sg75
(lp1885
g68
(g89
g70
NtRp1886
(dp1887
g73
(dp1888
g93
g94
ssg82
g1882
sg75
(lp1889
S'wsgi_file_wrapper'
p1890
asbag68
(g89
g70
NtRp1891
(dp1892
g73
(dp1893
g100
g101
ssg82
g1882
sg75
(lp1894
S':'
asbag68
(g89
g70
NtRp1895
(dp1896
g73
(dp1897
sg82
g1882
sg75
(lp1898
g68
(g69
g70
NtRp1899
(dp1900
g73
(dp1901
g81
I4
ssg82
g1895
sg75
(lp1902
S'<class wsgiref.util.FileWrapper at 0x2cd6c18>'
p1903
asbasbasbag68
(g84
g70
NtRp1904
(dp1905
g73
(dp1906
sg82
g1044
sg75
(lp1907
g68
(g89
g70
NtRp1908
(dp1909
g73
(dp1910
g93
g94
ssg82
g1904
sg75
(lp1911
S'wsgi_input'
p1912
asbag68
(g89
g70
NtRp1913
(dp1914
g73
(dp1915
g100
g101
ssg82
g1904
sg75
(lp1916
S':'
asbag68
(g89
g70
NtRp1917
(dp1918
g73
(dp1919
sg82
g1904
sg75
(lp1920
g68
(g69
g70
NtRp1921
(dp1922
g73
(dp1923
g81
I4
ssg82
g1917
sg75
(lp1924
S'<socket._fileobject object at 0x7fde303a31d0>'
p1925
asbasbasbag68
(g84
g70
NtRp1926
(dp1927
g73
(dp1928
sg82
g1044
sg75
(lp1929
g68
(g89
g70
NtRp1930
(dp1931
g73
(dp1932
g93
g94
ssg82
g1926
sg75
(lp1933
S'wsgi_multiprocess'
p1934
asbag68
(g89
g70
NtRp1935
(dp1936
g73
(dp1937
g100
g101
ssg82
g1926
sg75
(lp1938
S':'
asbag68
(g89
g70
NtRp1939
(dp1940
g73
(dp1941
sg82
g1926
sg75
(lp1942
g68
(g69
g70
NtRp1943
(dp1944
g73
(dp1945
g81
I4
ssg82
g1939
sg75
(lp1946
g111
asbasbasbag68
(g84
g70
NtRp1947
(dp1948
g73
(dp1949
sg82
g1044
sg75
(lp1950
g68
(g89
g70
NtRp1951
(dp1952
g73
(dp1953
g93
g94
ssg82
g1947
sg75
(lp1954
S'wsgi_multithread'
p1955
asbag68
(g89
g70
NtRp1956
(dp1957
g73
(dp1958
g100
g101
ssg82
g1947
sg75
(lp1959
S':'
asbag68
(g89
g70
NtRp1960
(dp1961
g73
(dp1962
sg82
g1947
sg75
(lp1963
g68
(g69
g70
NtRp1964
(dp1965
g73
(dp1966
g81
I4
ssg82
g1960
sg75
(lp1967
S'True'
p1968
asbasbasbag68
(g84
g70
NtRp1969
(dp1970
g73
(dp1971
sg82
g1044
sg75
(lp1972
g68
(g89
g70
NtRp1973
(dp1974
g73
(dp1975
g93
g94
ssg82
g1969
sg75
(lp1976
S'wsgi_run_once'
p1977
asbag68
(g89
g70
NtRp1978
(dp1979
g73
(dp1980
g100
g101
ssg82
g1969
sg75
(lp1981
S':'
asbag68
(g89
g70
NtRp1982
(dp1983
g73
(dp1984
sg82
g1969
sg75
(lp1985
g68
(g69
g70
NtRp1986
(dp1987
g73
(dp1988
g81
I4
ssg82
g1982
sg75
(lp1989
g111
asbasbasbag68
(g84
g70
NtRp1990
(dp1991
g73
(dp1992
sg82
g1044
sg75
(lp1993
g68
(g89
g70
NtRp1994
(dp1995
g73
(dp1996
g93
g94
ssg82
g1990
sg75
(lp1997
S'wsgi_url_scheme'
p1998
asbag68
(g89
g70
NtRp1999
(dp2000
g73
(dp2001
g100
g101
ssg82
g1990
sg75
(lp2002
S':'
asbag68
(g89
g70
NtRp2003
(dp2004
g73
(dp2005
sg82
g1990
sg75
(lp2006
g68
(g69
g70
NtRp2007
(dp2008
g73
(dp2009
g81
I4
ssg82
g2003
sg75
(lp2010
S'http'
p2011
asbasbasbag68
(g84
g70
NtRp2012
(dp2013
g73
(dp2014
sg82
g1044
sg75
(lp2015
g68
(g89
g70
NtRp2016
(dp2017
g73
(dp2018
g93
g94
ssg82
g2012
sg75
(lp2019
S'wsgi_version'
p2020
asbag68
(g89
g70
NtRp2021
(dp2022
g73
(dp2023
g100
g101
ssg82
g2012
sg75
(lp2024
S':'
asbag68
(g89
g70
NtRp2025
(dp2026
g73
(dp2027
sg82
g2012
sg75
(lp2028
g68
(g69
g70
NtRp2029
(dp2030
g73
(dp2031
g81
I4
ssg82
g2025
sg75
(lp2032
g68
(g77
g70
NtRp2033
(dp2034
g73
(dp2035
g81
I3
ssg82
Nsg75
(lp2036
g68
(g84
g70
NtRp2037
(dp2038
g73
(dp2039
sg82
g2033
sg75
(lp2040
g68
(g89
g70
NtRp2041
(dp2042
g73
(dp2043
sg82
g2037
sg75
(lp2044
g68
(g69
g70
NtRp2045
(dp2046
g73
(dp2047
g81
I3
ssg82
g2041
sg75
(lp2048
S'1'
asbasbasbag68
(g84
g70
NtRp2049
(dp2050
g73
(dp2051
sg82
g2033
sg75
(lp2052
g68
(g89
g70
NtRp2053
(dp2054
g73
(dp2055
sg82
g2049
sg75
(lp2056
g68
(g69
g70
NtRp2057
(dp2058
g73
(dp2059
g81
I3
ssg82
g2053
sg75
(lp2060
S'0'
asbasbasbasbasbasbasbasbasbasbasbag68
(g84
g70
NtRp2061
(dp2062
g73
(dp2063
sg82
g78
sg75
(lp2064
g68
(g89
g70
NtRp2065
(dp2066
g73
(dp2067
g93
g94
ssg82
g2061
sg75
(lp2068
S'extension'
p2069
asbag68
(g89
g70
NtRp2070
(dp2071
g73
(dp2072
g100
g101
ssg82
g2061
sg75
(lp2073
S':'
asbag68
(g89
g70
NtRp2074
(dp2075
g73
(dp2076
sg82
g2061
sg75
(lp2077
g68
(g69
g70
NtRp2078
(dp2079
g73
(dp2080
g81
I5
ssg82
g2074
sg75
(lp2081
S'html'
p2082
asbasbasbag68
(g84
g70
NtRp2083
(dp2084
g73
(dp2085
sg82
g78
sg75
(lp2086
g68
(g89
g70
NtRp2087
(dp2088
g73
(dp2089
g93
g94
ssg82
g2083
sg75
(lp2090
S'folder'
p2091
asbag68
(g89
g70
NtRp2092
(dp2093
g73
(dp2094
g100
g101
ssg82
g2083
sg75
(lp2095
S':'
asbag68
(g89
g70
NtRp2096
(dp2097
g73
(dp2098
sg82
g2083
sg75
(lp2099
g68
(g69
g70
NtRp2100
(dp2101
g73
(dp2102
g81
I5
ssg82
g2096
sg75
(lp2103
S'/var/www/web2py_curso/applications/projeto/'
p2104
asbasbasbag68
(g84
g70
NtRp2105
(dp2106
g73
(dp2107
sg82
g78
sg75
(lp2108
g68
(g89
g70
NtRp2109
(dp2110
g73
(dp2111
g93
g94
ssg82
g2105
sg75
(lp2112
S'function'
p2113
asbag68
(g89
g70
NtRp2114
(dp2115
g73
(dp2116
g100
g101
ssg82
g2105
sg75
(lp2117
S':'
asbag68
(g89
g70
NtRp2118
(dp2119
g73
(dp2120
sg82
g2105
sg75
(lp2121
g68
(g69
g70
NtRp2122
(dp2123
g73
(dp2124
g81
I5
ssg82
g2118
sg75
(lp2125
S'index'
p2126
asbasbasbag68
(g84
g70
NtRp2127
(dp2128
g73
(dp2129
sg82
g78
sg75
(lp2130
g68
(g89
g70
NtRp2131
(dp2132
g73
(dp2133
g93
g94
ssg82
g2127
sg75
(lp2134
S'get_vars'
p2135
asbag68
(g89
g70
NtRp2136
(dp2137
g73
(dp2138
g100
g101
ssg82
g2127
sg75
(lp2139
S':'
asbag68
(g89
g70
NtRp2140
(dp2141
g73
(dp2142
sg82
g2127
sg75
(lp2143
g68
(g69
g70
NtRp2144
(dp2145
g73
(dp2146
g81
I5
ssg82
g2140
sg75
(lp2147
g68
(g77
g70
NtRp2148
(dp2149
g73
(dp2150
g81
I4
ssg82
Nsg75
(lp2151
g68
(g84
g70
NtRp2152
(dp2153
g73
(dp2154
sg82
g2148
sg75
(lp2155
g68
(g89
g70
NtRp2156
(dp2157
g73
(dp2158
g93
g94
ssg82
g2152
sg75
(lp2159
S'nome'
p2160
asbag68
(g89
g70
NtRp2161
(dp2162
g73
(dp2163
g100
g101
ssg82
g2152
sg75
(lp2164
S':'
asbag68
(g89
g70
NtRp2165
(dp2166
g73
(dp2167
sg82
g2152
sg75
(lp2168
g68
(g69
g70
NtRp2169
(dp2170
g73
(dp2171
g81
I4
ssg82
g2165
sg75
(lp2172
S'fer'
p2173
asbasbasbasbasbasbasbag68
(g84
g70
NtRp2174
(dp2175
g73
(dp2176
sg82
g78
sg75
(lp2177
g68
(g89
g70
NtRp2178
(dp2179
g73
(dp2180
g93
g94
ssg82
g2174
sg75
(lp2181
S'global_settings'
p2182
asbag68
(g89
g70
NtRp2183
(dp2184
g73
(dp2185
g100
g101
ssg82
g2174
sg75
(lp2186
S':'
asbag68
(g89
g70
NtRp2187
(dp2188
g73
(dp2189
sg82
g2174
sg75
(lp2190
g68
(g69
g70
NtRp2191
(dp2192
g73
(dp2193
g81
I5
ssg82
g2187
sg75
(lp2194
g68
(g77
g70
NtRp2195
(dp2196
g73
(dp2197
g81
I4
ssg82
Nsg75
(lp2198
g68
(g84
g70
NtRp2199
(dp2200
g73
(dp2201
sg82
g2195
sg75
(lp2202
g68
(g89
g70
NtRp2203
(dp2204
g73
(dp2205
g93
g94
ssg82
g2199
sg75
(lp2206
g1056
asbag68
(g89
g70
NtRp2207
(dp2208
g73
(dp2209
g100
g101
ssg82
g2199
sg75
(lp2210
S':'
asbag68
(g89
g70
NtRp2211
(dp2212
g73
(dp2213
sg82
g2199
sg75
(lp2214
g68
(g69
g70
NtRp2215
(dp2216
g73
(dp2217
g81
I4
ssg82
g2211
sg75
(lp2218
S"set(['/var/www/web2py_curso/applications/welcome/', '/var/www/web2py_curso/applications/admin/', '/var/www/web2py_curso/applications/projeto/'])"
p2219
asbasbasbag68
(g84
g70
NtRp2220
(dp2221
g73
(dp2222
sg82
g2195
sg75
(lp2223
g68
(g89
g70
NtRp2224
(dp2225
g73
(dp2226
g93
g94
ssg82
g2220
sg75
(lp2227
g1078
asbag68
(g89
g70
NtRp2228
(dp2229
g73
(dp2230
g100
g101
ssg82
g2220
sg75
(lp2231
S':'
asbag68
(g89
g70
NtRp2232
(dp2233
g73
(dp2234
sg82
g2220
sg75
(lp2235
g68
(g69
g70
NtRp2236
(dp2237
g73
(dp2238
g81
I4
ssg82
g2232
sg75
(lp2239
g1091
asbasbasbag68
(g84
g70
NtRp2240
(dp2241
g73
(dp2242
sg82
g2195
sg75
(lp2243
g68
(g89
g70
NtRp2244
(dp2245
g73
(dp2246
g93
g94
ssg82
g2240
sg75
(lp2247
g1100
asbag68
(g89
g70
NtRp2248
(dp2249
g73
(dp2250
g100
g101
ssg82
g2240
sg75
(lp2251
S':'
asbag68
(g89
g70
NtRp2252
(dp2253
g73
(dp2254
sg82
g2240
sg75
(lp2255
g68
(g69
g70
NtRp2256
(dp2257
g73
(dp2258
g81
I4
ssg82
g2252
sg75
(lp2259
g68
(g77
g70
NtRp2260
(dp2261
g73
(dp2262
g81
I3
ssg82
Nsg75
(lp2263
sbasbasbasbag68
(g84
g70
NtRp2264
(dp2265
g73
(dp2266
sg82
g2195
sg75
(lp2267
g68
(g89
g70
NtRp2268
(dp2269
g73
(dp2270
g93
g94
ssg82
g2264
sg75
(lp2271
g1125
asbag68
(g89
g70
NtRp2272
(dp2273
g73
(dp2274
g100
g101
ssg82
g2264
sg75
(lp2275
S':'
asbag68
(g89
g70
NtRp2276
(dp2277
g73
(dp2278
sg82
g2264
sg75
(lp2279
g68
(g69
g70
NtRp2280
(dp2281
g73
(dp2282
g81
I4
ssg82
g2276
sg75
(lp2283
S"<Values at 0x20c31b8: {'verbose': False, 'ip': '127.0.0.1', 'with_scheduler': False, 'ips': [], 'shutdown_timeout': 5, 'taskbar': False, 'port': 8000, 'maxthreads': None, 'softcron': False, 'server_name': 'fernado-desktop', 'bpython': False, 'nogui': False, 'pid_filename': 'httpserver.pid', 'extcron': False, 'runcron': False, 'run_system_tests': False, 'test': None, 'folder': '/var/www/web2py_curso', 'config': '', 'minthreads': None, 'winservice': '', 'shell': None, 'run': '', 'log_filename': 'httpserver.log', 'debuglevel': 30, 'args': [''], 'socket_timeout': 5, 'ssl_ca_certificate': None, 'scheduler': None, 'profiler_filename': None, 'ssl_private_key': '', 'scheduler_groups': None, 'password': '123456', 'request_queue_size': 5, 'ssl_certificate': '', 'cronjob': False, 'numthreads': None, 'quiet': False, 'interfaces': None, 'import_models': False, 'timeout': 10, 'plain': False, 'nobanner': False}>"
p2284
asbasbasbag68
(g84
g70
NtRp2285
(dp2286
g73
(dp2287
sg82
g2195
sg75
(lp2288
g68
(g89
g70
NtRp2289
(dp2290
g73
(dp2291
g93
g94
ssg82
g2285
sg75
(lp2292
g1147
asbag68
(g89
g70
NtRp2293
(dp2294
g73
(dp2295
g100
g101
ssg82
g2285
sg75
(lp2296
S':'
asbag68
(g89
g70
NtRp2297
(dp2298
g73
(dp2299
sg82
g2285
sg75
(lp2300
g68
(g69
g70
NtRp2301
(dp2302
g73
(dp2303
g81
I4
ssg82
g2297
sg75
(lp2304
S'set([])'
p2305
asbasbasbag68
(g84
g70
NtRp2306
(dp2307
g73
(dp2308
sg82
g2195
sg75
(lp2309
g68
(g89
g70
NtRp2310
(dp2311
g73
(dp2312
g93
g94
ssg82
g2306
sg75
(lp2313
g1169
asbag68
(g89
g70
NtRp2314
(dp2315
g73
(dp2316
g100
g101
ssg82
g2306
sg75
(lp2317
S':'
asbag68
(g89
g70
NtRp2318
(dp2319
g73
(dp2320
sg82
g2306
sg75
(lp2321
g68
(g69
g70
NtRp2322
(dp2323
g73
(dp2324
g81
I4
ssg82
g2318
sg75
(lp2325
g111
asbasbasbag68
(g84
g70
NtRp2326
(dp2327
g73
(dp2328
sg82
g2195
sg75
(lp2329
g68
(g89
g70
NtRp2330
(dp2331
g73
(dp2332
g93
g94
ssg82
g2326
sg75
(lp2333
g1190
asbag68
(g89
g70
NtRp2334
(dp2335
g73
(dp2336
g100
g101
ssg82
g2326
sg75
(lp2337
S':'
asbag68
(g89
g70
NtRp2338
(dp2339
g73
(dp2340
sg82
g2326
sg75
(lp2341
g68
(g69
g70
NtRp2342
(dp2343
g73
(dp2344
g81
I4
ssg82
g2338
sg75
(lp2345
g1203
asbasbasbag68
(g84
g70
NtRp2346
(dp2347
g73
(dp2348
sg82
g2195
sg75
(lp2349
g68
(g89
g70
NtRp2350
(dp2351
g73
(dp2352
g93
g94
ssg82
g2346
sg75
(lp2353
g1388
asbag68
(g89
g70
NtRp2354
(dp2355
g73
(dp2356
g100
g101
ssg82
g2346
sg75
(lp2357
S':'
asbag68
(g89
g70
NtRp2358
(dp2359
g73
(dp2360
sg82
g2346
sg75
(lp2361
g68
(g69
g70
NtRp2362
(dp2363
g73
(dp2364
g81
I4
ssg82
g2358
sg75
(lp2365
g111
asbasbasbag68
(g84
g70
NtRp2366
(dp2367
g73
(dp2368
sg82
g2195
sg75
(lp2369
g68
(g89
g70
NtRp2370
(dp2371
g73
(dp2372
g93
g94
ssg82
g2366
sg75
(lp2373
g1409
asbag68
(g89
g70
NtRp2374
(dp2375
g73
(dp2376
g100
g101
ssg82
g2366
sg75
(lp2377
S':'
asbag68
(g89
g70
NtRp2378
(dp2379
g73
(dp2380
sg82
g2366
sg75
(lp2381
g68
(g69
g70
NtRp2382
(dp2383
g73
(dp2384
g81
I4
ssg82
g2378
sg75
(lp2385
g111
asbasbasbag68
(g84
g70
NtRp2386
(dp2387
g73
(dp2388
sg82
g2195
sg75
(lp2389
g68
(g89
g70
NtRp2390
(dp2391
g73
(dp2392
g93
g94
ssg82
g2386
sg75
(lp2393
g1430
asbag68
(g89
g70
NtRp2394
(dp2395
g73
(dp2396
g100
g101
ssg82
g2386
sg75
(lp2397
S':'
asbag68
(g89
g70
NtRp2398
(dp2399
g73
(dp2400
sg82
g2386
sg75
(lp2401
g68
(g69
g70
NtRp2402
(dp2403
g73
(dp2404
g81
I4
ssg82
g2398
sg75
(lp2405
g68
(g77
g70
NtRp2406
(dp2407
g73
(dp2408
g81
I3
ssg82
Nsg75
(lp2409
g68
(g84
g70
NtRp2410
(dp2411
g73
(dp2412
sg82
g2406
sg75
(lp2413
g68
(g89
g70
NtRp2414
(dp2415
g73
(dp2416
sg82
g2410
sg75
(lp2417
g68
(g69
g70
NtRp2418
(dp2419
g73
(dp2420
g81
I3
ssg82
g2414
sg75
(lp2421
g1459
asbasbasbag68
(g84
g70
NtRp2422
(dp2423
g73
(dp2424
sg82
g2406
sg75
(lp2425
g68
(g89
g70
NtRp2426
(dp2427
g73
(dp2428
sg82
g2422
sg75
(lp2429
g68
(g69
g70
NtRp2430
(dp2431
g73
(dp2432
g81
I3
ssg82
g2426
sg75
(lp2433
g1472
asbasbasbag68
(g84
g70
NtRp2434
(dp2435
g73
(dp2436
sg82
g2406
sg75
(lp2437
g68
(g89
g70
NtRp2438
(dp2439
g73
(dp2440
sg82
g2434
sg75
(lp2441
g68
(g69
g70
NtRp2442
(dp2443
g73
(dp2444
g81
I3
ssg82
g2438
sg75
(lp2445
g1485
asbasbasbag68
(g84
g70
NtRp2446
(dp2447
g73
(dp2448
sg82
g2406
sg75
(lp2449
g68
(g89
g70
NtRp2450
(dp2451
g73
(dp2452
sg82
g2446
sg75
(lp2453
g68
(g69
g70
NtRp2454
(dp2455
g73
(dp2456
g81
I3
ssg82
g2450
sg75
(lp2457
g1498
asbasbasbag68
(g84
g70
NtRp2458
(dp2459
g73
(dp2460
sg82
g2406
sg75
(lp2461
g68
(g89
g70
NtRp2462
(dp2463
g73
(dp2464
sg82
g2458
sg75
(lp2465
g68
(g69
g70
NtRp2466
(dp2467
g73
(dp2468
g81
I3
ssg82
g2462
sg75
(lp2469
g1511
asbasbasbasbasbasbasbag68
(g84
g70
NtRp2470
(dp2471
g73
(dp2472
sg82
g2195
sg75
(lp2473
g68
(g89
g70
NtRp2474
(dp2475
g73
(dp2476
g93
g94
ssg82
g2470
sg75
(lp2477
g1781
asbag68
(g89
g70
NtRp2478
(dp2479
g73
(dp2480
g100
g101
ssg82
g2470
sg75
(lp2481
S':'
asbag68
(g89
g70
NtRp2482
(dp2483
g73
(dp2484
sg82
g2470
sg75
(lp2485
g68
(g69
g70
NtRp2486
(dp2487
g73
(dp2488
g81
I4
ssg82
g2482
sg75
(lp2489
g68
(g77
g70
NtRp2490
(dp2491
g73
(dp2492
g81
I3
ssg82
Nsg75
(lp2493
g68
(g84
g70
NtRp2494
(dp2495
g73
(dp2496
sg82
g2490
sg75
(lp2497
g68
(g89
g70
NtRp2498
(dp2499
g73
(dp2500
sg82
g2494
sg75
(lp2501
g68
(g69
g70
NtRp2502
(dp2503
g73
(dp2504
g81
I3
ssg82
g2498
sg75
(lp2505
S'2'
asbasbasbag68
(g84
g70
NtRp2506
(dp2507
g73
(dp2508
sg82
g2490
sg75
(lp2509
g68
(g89
g70
NtRp2510
(dp2511
g73
(dp2512
sg82
g2506
sg75
(lp2513
g68
(g69
g70
NtRp2514
(dp2515
g73
(dp2516
g81
I3
ssg82
g2510
sg75
(lp2517
S'3'
asbasbasbag68
(g84
g70
NtRp2518
(dp2519
g73
(dp2520
sg82
g2490
sg75
(lp2521
g68
(g89
g70
NtRp2522
(dp2523
g73
(dp2524
sg82
g2518
sg75
(lp2525
g68
(g69
g70
NtRp2526
(dp2527
g73
(dp2528
g81
I3
ssg82
g2522
sg75
(lp2529
S'2'
asbasbasbag68
(g84
g70
NtRp2530
(dp2531
g73
(dp2532
sg82
g2490
sg75
(lp2533
g68
(g89
g70
NtRp2534
(dp2535
g73
(dp2536
sg82
g2530
sg75
(lp2537
g68
(g69
g70
NtRp2538
(dp2539
g73
(dp2540
g81
I3
ssg82
g2534
sg75
(lp2541
S'datetime.datetime(2012, 12, 17, 15, 3, 30)'
p2542
asbasbasbag68
(g84
g70
NtRp2543
(dp2544
g73
(dp2545
sg82
g2490
sg75
(lp2546
g68
(g89
g70
NtRp2547
(dp2548
g73
(dp2549
sg82
g2543
sg75
(lp2550
g68
(g69
g70
NtRp2551
(dp2552
g73
(dp2553
g81
I3
ssg82
g2547
sg75
(lp2554
g1859
asbasbasbasbasbasbasbasbasbasbasbag68
(g84
g70
NtRp2555
(dp2556
g73
(dp2557
sg82
g78
sg75
(lp2558
g68
(g89
g70
NtRp2559
(dp2560
g73
(dp2561
g93
g94
ssg82
g2555
sg75
(lp2562
S'is_https'
p2563
asbag68
(g89
g70
NtRp2564
(dp2565
g73
(dp2566
g100
g101
ssg82
g2555
sg75
(lp2567
S':'
asbag68
(g89
g70
NtRp2568
(dp2569
g73
(dp2570
sg82
g2555
sg75
(lp2571
g68
(g69
g70
NtRp2572
(dp2573
g73
(dp2574
g81
I5
ssg82
g2568
sg75
(lp2575
g111
asbasbasbag68
(g84
g70
NtRp2576
(dp2577
g73
(dp2578
sg82
g78
sg75
(lp2579
g68
(g89
g70
NtRp2580
(dp2581
g73
(dp2582
g93
g94
ssg82
g2576
sg75
(lp2583
S'is_local'
p2584
asbag68
(g89
g70
NtRp2585
(dp2586
g73
(dp2587
g100
g101
ssg82
g2576
sg75
(lp2588
S':'
asbag68
(g89
g70
NtRp2589
(dp2590
g73
(dp2591
sg82
g2576
sg75
(lp2592
g68
(g69
g70
NtRp2593
(dp2594
g73
(dp2595
g81
I5
ssg82
g2589
sg75
(lp2596
g1968
asbasbasbag68
(g84
g70
NtRp2597
(dp2598
g73
(dp2599
sg82
g78
sg75
(lp2600
g68
(g89
g70
NtRp2601
(dp2602
g73
(dp2603
g93
g94
ssg82
g2597
sg75
(lp2604
S'is_restful'
p2605
asbag68
(g89
g70
NtRp2606
(dp2607
g73
(dp2608
g100
g101
ssg82
g2597
sg75
(lp2609
S':'
asbag68
(g89
g70
NtRp2610
(dp2611
g73
(dp2612
sg82
g2597
sg75
(lp2613
g68
(g69
g70
NtRp2614
(dp2615
g73
(dp2616
g81
I5
ssg82
g2610
sg75
(lp2617
g111
asbasbasbag68
(g84
g70
NtRp2618
(dp2619
g73
(dp2620
sg82
g78
sg75
(lp2621
g68
(g89
g70
NtRp2622
(dp2623
g73
(dp2624
g93
g94
ssg82
g2618
sg75
(lp2625
S'now'
p2626
asbag68
(g89
g70
NtRp2627
(dp2628
g73
(dp2629
g100
g101
ssg82
g2618
sg75
(lp2630
S':'
asbag68
(g89
g70
NtRp2631
(dp2632
g73
(dp2633
sg82
g2618
sg75
(lp2634
g68
(g69
g70
NtRp2635
(dp2636
g73
(dp2637
g81
I5
ssg82
g2631
sg75
(lp2638
S'datetime.datetime(2013, 1, 23, 8, 56, 20, 489271)'
p2639
asbasbasbag68
(g84
g70
NtRp2640
(dp2641
g73
(dp2642
sg82
g78
sg75
(lp2643
g68
(g89
g70
NtRp2644
(dp2645
g73
(dp2646
g93
g94
ssg82
g2640
sg75
(lp2647
S'post_vars'
p2648
asbag68
(g89
g70
NtRp2649
(dp2650
g73
(dp2651
g100
g101
ssg82
g2640
sg75
(lp2652
S':'
asbag68
(g89
g70
NtRp2653
(dp2654
g73
(dp2655
sg82
g2640
sg75
(lp2656
g68
(g69
g70
NtRp2657
(dp2658
g73
(dp2659
g81
I5
ssg82
g2653
sg75
(lp2660
g68
(g77
g70
NtRp2661
(dp2662
g73
(dp2663
g81
I4
ssg82
Nsg75
(lp2664
sbasbasbasbag68
(g84
g70
NtRp2665
(dp2666
g73
(dp2667
sg82
g78
sg75
(lp2668
g68
(g89
g70
NtRp2669
(dp2670
g73
(dp2671
g93
g94
ssg82
g2665
sg75
(lp2672
S'raw_args'
p2673
asbag68
(g89
g70
NtRp2674
(dp2675
g73
(dp2676
g100
g101
ssg82
g2665
sg75
(lp2677
S':'
asbag68
(g89
g70
NtRp2678
(dp2679
g73
(dp2680
sg82
g2665
sg75
(lp2681
g68
(g69
g70
NtRp2682
(dp2683
g73
(dp2684
g81
I5
ssg82
g2678
sg75
(lp2685
S''
asbasbasbag68
(g84
g70
NtRp2686
(dp2687
g73
(dp2688
sg82
g78
sg75
(lp2689
g68
(g89
g70
NtRp2690
(dp2691
g73
(dp2692
g93
g94
ssg82
g2686
sg75
(lp2693
S'raw_extension'
p2694
asbag68
(g89
g70
NtRp2695
(dp2696
g73
(dp2697
g100
g101
ssg82
g2686
sg75
(lp2698
S':'
asbag68
(g89
g70
NtRp2699
(dp2700
g73
(dp2701
sg82
g2686
sg75
(lp2702
g68
(g69
g70
NtRp2703
(dp2704
g73
(dp2705
g81
I5
ssg82
g2699
sg75
(lp2706
S'None'
p2707
asbasbasbag68
(g84
g70
NtRp2708
(dp2709
g73
(dp2710
sg82
g78
sg75
(lp2711
g68
(g89
g70
NtRp2712
(dp2713
g73
(dp2714
g93
g94
ssg82
g2708
sg75
(lp2715
S'url'
p2716
asbag68
(g89
g70
NtRp2717
(dp2718
g73
(dp2719
g100
g101
ssg82
g2708
sg75
(lp2720
S':'
asbag68
(g89
g70
NtRp2721
(dp2722
g73
(dp2723
sg82
g2708
sg75
(lp2724
g68
(g69
g70
NtRp2725
(dp2726
g73
(dp2727
g81
I5
ssg82
g2721
sg75
(lp2728
g1533
asbasbasbag68
(g84
g70
NtRp2729
(dp2730
g73
(dp2731
sg82
g78
sg75
(lp2732
g68
(g89
g70
NtRp2733
(dp2734
g73
(dp2735
g93
g94
ssg82
g2729
sg75
(lp2736
S'utcnow'
p2737
asbag68
(g89
g70
NtRp2738
(dp2739
g73
(dp2740
g100
g101
ssg82
g2729
sg75
(lp2741
S':'
asbag68
(g89
g70
NtRp2742
(dp2743
g73
(dp2744
sg82
g2729
sg75
(lp2745
g68
(g69
g70
NtRp2746
(dp2747
g73
(dp2748
g81
I5
ssg82
g2742
sg75
(lp2749
S'datetime.datetime(2013, 1, 23, 10, 56, 20, 489318)'
p2750
asbasbasbag68
(g84
g70
NtRp2751
(dp2752
g73
(dp2753
sg82
g78
sg75
(lp2754
g68
(g89
g70
NtRp2755
(dp2756
g73
(dp2757
g93
g94
ssg82
g2751
sg75
(lp2758
S'uuid'
p2759
asbag68
(g89
g70
NtRp2760
(dp2761
g73
(dp2762
g100
g101
ssg82
g2751
sg75
(lp2763
S':'
asbag68
(g89
g70
NtRp2764
(dp2765
g73
(dp2766
sg82
g2751
sg75
(lp2767
g68
(g69
g70
NtRp2768
(dp2769
g73
(dp2770
g81
I5
ssg82
g2764
sg75
(lp2771
S'projeto/127.0.0.1.2013-01-23.08-56-20.a4bcff24-4c6f-49f2-9bc1-7826246a89ba'
p2772
asbasbasbag68
(g84
g70
NtRp2773
(dp2774
g73
(dp2775
sg82
g78
sg75
(lp2776
g68
(g89
g70
NtRp2777
(dp2778
g73
(dp2779
g93
g94
ssg82
g2773
sg75
(lp2780
S'vars'
p2781
asbag68
(g89
g70
NtRp2782
(dp2783
g73
(dp2784
g100
g101
ssg82
g2773
sg75
(lp2785
S':'
asbag68
(g89
g70
NtRp2786
(dp2787
g73
(dp2788
sg82
g2773
sg75
(lp2789
g68
(g69
g70
NtRp2790
(dp2791
g73
(dp2792
g81
I5
ssg82
g2786
sg75
(lp2793
g68
(g77
g70
NtRp2794
(dp2795
g73
(dp2796
g81
I4
ssg82
Nsg75
(lp2797
g68
(g84
g70
NtRp2798
(dp2799
g73
(dp2800
sg82
g2794
sg75
(lp2801
g68
(g89
g70
NtRp2802
(dp2803
g73
(dp2804
g93
g94
ssg82
g2798
sg75
(lp2805
g2160
asbag68
(g89
g70
NtRp2806
(dp2807
g73
(dp2808
g100
g101
ssg82
g2798
sg75
(lp2809
S':'
asbag68
(g89
g70
NtRp2810
(dp2811
g73
(dp2812
sg82
g2798
sg75
(lp2813
g68
(g69
g70
NtRp2814
(dp2815
g73
(dp2816
g81
I4
ssg82
g2810
sg75
(lp2817
g2173
asbasbasbasbasbasbasbag68
(g84
g70
NtRp2818
(dp2819
g73
(dp2820
sg82
g78
sg75
(lp2821
g68
(g89
g70
NtRp2822
(dp2823
g73
(dp2824
g93
g94
ssg82
g2818
sg75
(lp2825
S'wsgi'
p2826
asbag68
(g89
g70
NtRp2827
(dp2828
g73
(dp2829
g100
g101
ssg82
g2818
sg75
(lp2830
S':'
asbag68
(g89
g70
NtRp2831
(dp2832
g73
(dp2833
sg82
g2818
sg75
(lp2834
g68
(g69
g70
NtRp2835
(dp2836
g73
(dp2837
g81
I5
ssg82
g2831
sg75
(lp2838
g68
(g77
g70
NtRp2839
(dp2840
g73
(dp2841
g81
I4
ssg82
Nsg75
(lp2842
g68
(g84
g70
NtRp2843
(dp2844
g73
(dp2845
sg82
g2839
sg75
(lp2846
g68
(g89
g70
NtRp2847
(dp2848
g73
(dp2849
g93
g94
ssg82
g2843
sg75
(lp2850
S'environ'
p2851
asbag68
(g89
g70
NtRp2852
(dp2853
g73
(dp2854
g100
g101
ssg82
g2843
sg75
(lp2855
S':'
asbag68
(g89
g70
NtRp2856
(dp2857
g73
(dp2858
sg82
g2843
sg75
(lp2859
g68
(g69
g70
NtRp2860
(dp2861
g73
(dp2862
g81
I4
ssg82
g2856
sg75
(lp2863
g68
(g77
g70
NtRp2864
(dp2865
g73
(dp2866
g81
I3
ssg82
Nsg75
(lp2867
g68
(g84
g70
NtRp2868
(dp2869
g73
(dp2870
sg82
g2864
sg75
(lp2871
g68
(g89
g70
NtRp2872
(dp2873
g73
(dp2874
g93
g94
ssg82
g2868
sg75
(lp2875
S'HTTP_ACCEPT'
p2876
asbag68
(g89
g70
NtRp2877
(dp2878
g73
(dp2879
g100
g101
ssg82
g2868
sg75
(lp2880
S':'
asbag68
(g89
g70
NtRp2881
(dp2882
g73
(dp2883
sg82
g2868
sg75
(lp2884
g68
(g69
g70
NtRp2885
(dp2886
g73
(dp2887
g81
I3
ssg82
g2881
sg75
(lp2888
g1225
asbasbasbag68
(g84
g70
NtRp2889
(dp2890
g73
(dp2891
sg82
g2864
sg75
(lp2892
g68
(g89
g70
NtRp2893
(dp2894
g73
(dp2895
g93
g94
ssg82
g2889
sg75
(lp2896
S'HTTP_ACCEPT_CHARSET'
p2897
asbag68
(g89
g70
NtRp2898
(dp2899
g73
(dp2900
g100
g101
ssg82
g2889
sg75
(lp2901
S':'
asbag68
(g89
g70
NtRp2902
(dp2903
g73
(dp2904
sg82
g2889
sg75
(lp2905
g68
(g69
g70
NtRp2906
(dp2907
g73
(dp2908
g81
I3
ssg82
g2902
sg75
(lp2909
g1247
asbasbasbag68
(g84
g70
NtRp2910
(dp2911
g73
(dp2912
sg82
g2864
sg75
(lp2913
g68
(g89
g70
NtRp2914
(dp2915
g73
(dp2916
g93
g94
ssg82
g2910
sg75
(lp2917
S'HTTP_ACCEPT_ENCODING'
p2918
asbag68
(g89
g70
NtRp2919
(dp2920
g73
(dp2921
g100
g101
ssg82
g2910
sg75
(lp2922
S':'
asbag68
(g89
g70
NtRp2923
(dp2924
g73
(dp2925
sg82
g2910
sg75
(lp2926
g68
(g69
g70
NtRp2927
(dp2928
g73
(dp2929
g81
I3
ssg82
g2923
sg75
(lp2930
g1269
asbasbasbag68
(g84
g70
NtRp2931
(dp2932
g73
(dp2933
sg82
g2864
sg75
(lp2934
g68
(g89
g70
NtRp2935
(dp2936
g73
(dp2937
g93
g94
ssg82
g2931
sg75
(lp2938
S'HTTP_ACCEPT_LANGUAGE'
p2939
asbag68
(g89
g70
NtRp2940
(dp2941
g73
(dp2942
g100
g101
ssg82
g2931
sg75
(lp2943
S':'
asbag68
(g89
g70
NtRp2944
(dp2945
g73
(dp2946
sg82
g2931
sg75
(lp2947
g68
(g69
g70
NtRp2948
(dp2949
g73
(dp2950
g81
I3
ssg82
g2944
sg75
(lp2951
g1291
asbasbasbag68
(g84
g70
NtRp2952
(dp2953
g73
(dp2954
sg82
g2864
sg75
(lp2955
g68
(g89
g70
NtRp2956
(dp2957
g73
(dp2958
g93
g94
ssg82
g2952
sg75
(lp2959
S'HTTP_CONNECTION'
p2960
asbag68
(g89
g70
NtRp2961
(dp2962
g73
(dp2963
g100
g101
ssg82
g2952
sg75
(lp2964
S':'
asbag68
(g89
g70
NtRp2965
(dp2966
g73
(dp2967
sg82
g2952
sg75
(lp2968
g68
(g69
g70
NtRp2969
(dp2970
g73
(dp2971
g81
I3
ssg82
g2965
sg75
(lp2972
g1313
asbasbasbag68
(g84
g70
NtRp2973
(dp2974
g73
(dp2975
sg82
g2864
sg75
(lp2976
g68
(g89
g70
NtRp2977
(dp2978
g73
(dp2979
g93
g94
ssg82
g2973
sg75
(lp2980
S'HTTP_COOKIE'
p2981
asbag68
(g89
g70
NtRp2982
(dp2983
g73
(dp2984
g100
g101
ssg82
g2973
sg75
(lp2985
S':'
asbag68
(g89
g70
NtRp2986
(dp2987
g73
(dp2988
sg82
g2973
sg75
(lp2989
g68
(g69
g70
NtRp2990
(dp2991
g73
(dp2992
g81
I3
ssg82
g2986
sg75
(lp2993
g1335
asbasbasbag68
(g84
g70
NtRp2994
(dp2995
g73
(dp2996
sg82
g2864
sg75
(lp2997
g68
(g89
g70
NtRp2998
(dp2999
g73
(dp3000
g93
g94
ssg82
g2994
sg75
(lp3001
S'HTTP_HOST'
p3002
asbag68
(g89
g70
NtRp3003
(dp3004
g73
(dp3005
g100
g101
ssg82
g2994
sg75
(lp3006
S':'
asbag68
(g89
g70
NtRp3007
(dp3008
g73
(dp3009
sg82
g2994
sg75
(lp3010
g68
(g69
g70
NtRp3011
(dp3012
g73
(dp3013
g81
I3
ssg82
g3007
sg75
(lp3014
g1357
asbasbasbag68
(g84
g70
NtRp3015
(dp3016
g73
(dp3017
sg82
g2864
sg75
(lp3018
g68
(g89
g70
NtRp3019
(dp3020
g73
(dp3021
g93
g94
ssg82
g3015
sg75
(lp3022
S'HTTP_USER_AGENT'
p3023
asbag68
(g89
g70
NtRp3024
(dp3025
g73
(dp3026
g100
g101
ssg82
g3015
sg75
(lp3027
S':'
asbag68
(g89
g70
NtRp3028
(dp3029
g73
(dp3030
sg82
g3015
sg75
(lp3031
g68
(g69
g70
NtRp3032
(dp3033
g73
(dp3034
g81
I3
ssg82
g3028
sg75
(lp3035
g1379
asbasbasbag68
(g84
g70
NtRp3036
(dp3037
g73
(dp3038
sg82
g2864
sg75
(lp3039
g68
(g89
g70
NtRp3040
(dp3041
g73
(dp3042
g93
g94
ssg82
g3036
sg75
(lp3043
S'PATH_INFO'
p3044
asbag68
(g89
g70
NtRp3045
(dp3046
g73
(dp3047
g100
g101
ssg82
g3036
sg75
(lp3048
S':'
asbag68
(g89
g70
NtRp3049
(dp3050
g73
(dp3051
sg82
g3036
sg75
(lp3052
g68
(g69
g70
NtRp3053
(dp3054
g73
(dp3055
g81
I3
ssg82
g3049
sg75
(lp3056
g1533
asbasbasbag68
(g84
g70
NtRp3057
(dp3058
g73
(dp3059
sg82
g2864
sg75
(lp3060
g68
(g89
g70
NtRp3061
(dp3062
g73
(dp3063
g93
g94
ssg82
g3057
sg75
(lp3064
S'QUERY_STRING'
p3065
asbag68
(g89
g70
NtRp3066
(dp3067
g73
(dp3068
g100
g101
ssg82
g3057
sg75
(lp3069
S':'
asbag68
(g89
g70
NtRp3070
(dp3071
g73
(dp3072
sg82
g3057
sg75
(lp3073
g68
(g69
g70
NtRp3074
(dp3075
g73
(dp3076
g81
I3
ssg82
g3070
sg75
(lp3077
g1555
asbasbasbag68
(g84
g70
NtRp3078
(dp3079
g73
(dp3080
sg82
g2864
sg75
(lp3081
g68
(g89
g70
NtRp3082
(dp3083
g73
(dp3084
g93
g94
ssg82
g3078
sg75
(lp3085
S'REMOTE_ADDR'
p3086
asbag68
(g89
g70
NtRp3087
(dp3088
g73
(dp3089
g100
g101
ssg82
g3078
sg75
(lp3090
S':'
asbag68
(g89
g70
NtRp3091
(dp3092
g73
(dp3093
sg82
g3078
sg75
(lp3094
g68
(g69
g70
NtRp3095
(dp3096
g73
(dp3097
g81
I3
ssg82
g3091
sg75
(lp3098
g223
asbasbasbag68
(g84
g70
NtRp3099
(dp3100
g73
(dp3101
sg82
g2864
sg75
(lp3102
g68
(g89
g70
NtRp3103
(dp3104
g73
(dp3105
g93
g94
ssg82
g3099
sg75
(lp3106
S'REMOTE_PORT'
p3107
asbag68
(g89
g70
NtRp3108
(dp3109
g73
(dp3110
g100
g101
ssg82
g3099
sg75
(lp3111
S':'
asbag68
(g89
g70
NtRp3112
(dp3113
g73
(dp3114
sg82
g3099
sg75
(lp3115
g68
(g69
g70
NtRp3116
(dp3117
g73
(dp3118
g81
I3
ssg82
g3112
sg75
(lp3119
g1598
asbasbasbag68
(g84
g70
NtRp3120
(dp3121
g73
(dp3122
sg82
g2864
sg75
(lp3123
g68
(g89
g70
NtRp3124
(dp3125
g73
(dp3126
g93
g94
ssg82
g3120
sg75
(lp3127
S'REQUEST_METHOD'
p3128
asbag68
(g89
g70
NtRp3129
(dp3130
g73
(dp3131
g100
g101
ssg82
g3120
sg75
(lp3132
S':'
asbag68
(g89
g70
NtRp3133
(dp3134
g73
(dp3135
sg82
g3120
sg75
(lp3136
g68
(g69
g70
NtRp3137
(dp3138
g73
(dp3139
g81
I3
ssg82
g3133
sg75
(lp3140
g1620
asbasbasbag68
(g84
g70
NtRp3141
(dp3142
g73
(dp3143
sg82
g2864
sg75
(lp3144
g68
(g89
g70
NtRp3145
(dp3146
g73
(dp3147
g93
g94
ssg82
g3141
sg75
(lp3148
S'REQUEST_URI'
p3149
asbag68
(g89
g70
NtRp3150
(dp3151
g73
(dp3152
g100
g101
ssg82
g3141
sg75
(lp3153
S':'
asbag68
(g89
g70
NtRp3154
(dp3155
g73
(dp3156
sg82
g3141
sg75
(lp3157
g68
(g69
g70
NtRp3158
(dp3159
g73
(dp3160
g81
I3
ssg82
g3154
sg75
(lp3161
g1642
asbasbasbag68
(g84
g70
NtRp3162
(dp3163
g73
(dp3164
sg82
g2864
sg75
(lp3165
g68
(g89
g70
NtRp3166
(dp3167
g73
(dp3168
g93
g94
ssg82
g3162
sg75
(lp3169
S'SCRIPT_NAME'
p3170
asbag68
(g89
g70
NtRp3171
(dp3172
g73
(dp3173
g100
g101
ssg82
g3162
sg75
(lp3174
S':'
asbag68
(g89
g70
NtRp3175
(dp3176
g73
(dp3177
sg82
g3162
sg75
(lp3178
g68
(g69
g70
NtRp3179
(dp3180
g73
(dp3181
g81
I3
ssg82
g3175
sg75
(lp3182
S''
asbasbasbag68
(g84
g70
NtRp3183
(dp3184
g73
(dp3185
sg82
g2864
sg75
(lp3186
g68
(g89
g70
NtRp3187
(dp3188
g73
(dp3189
g93
g94
ssg82
g3183
sg75
(lp3190
S'SERVER_NAME'
p3191
asbag68
(g89
g70
NtRp3192
(dp3193
g73
(dp3194
g100
g101
ssg82
g3183
sg75
(lp3195
S':'
asbag68
(g89
g70
NtRp3196
(dp3197
g73
(dp3198
sg82
g3183
sg75
(lp3199
g68
(g69
g70
NtRp3200
(dp3201
g73
(dp3202
g81
I3
ssg82
g3196
sg75
(lp3203
g1685
asbasbasbag68
(g84
g70
NtRp3204
(dp3205
g73
(dp3206
sg82
g2864
sg75
(lp3207
g68
(g89
g70
NtRp3208
(dp3209
g73
(dp3210
g93
g94
ssg82
g3204
sg75
(lp3211
S'SERVER_PORT'
p3212
asbag68
(g89
g70
NtRp3213
(dp3214
g73
(dp3215
g100
g101
ssg82
g3204
sg75
(lp3216
S':'
asbag68
(g89
g70
NtRp3217
(dp3218
g73
(dp3219
sg82
g3204
sg75
(lp3220
g68
(g69
g70
NtRp3221
(dp3222
g73
(dp3223
g81
I3
ssg82
g3217
sg75
(lp3224
g1707
asbasbasbag68
(g84
g70
NtRp3225
(dp3226
g73
(dp3227
sg82
g2864
sg75
(lp3228
g68
(g89
g70
NtRp3229
(dp3230
g73
(dp3231
g93
g94
ssg82
g3225
sg75
(lp3232
S'SERVER_PROTOCOL'
p3233
asbag68
(g89
g70
NtRp3234
(dp3235
g73
(dp3236
g100
g101
ssg82
g3225
sg75
(lp3237
S':'
asbag68
(g89
g70
NtRp3238
(dp3239
g73
(dp3240
sg82
g3225
sg75
(lp3241
g68
(g69
g70
NtRp3242
(dp3243
g73
(dp3244
g81
I3
ssg82
g3238
sg75
(lp3245
g1729
asbasbasbag68
(g84
g70
NtRp3246
(dp3247
g73
(dp3248
sg82
g2864
sg75
(lp3249
g68
(g89
g70
NtRp3250
(dp3251
g73
(dp3252
g93
g94
ssg82
g3246
sg75
(lp3253
S'SERVER_SOFTWARE'
p3254
asbag68
(g89
g70
NtRp3255
(dp3256
g73
(dp3257
g100
g101
ssg82
g3246
sg75
(lp3258
S':'
asbag68
(g89
g70
NtRp3259
(dp3260
g73
(dp3261
sg82
g3246
sg75
(lp3262
g68
(g69
g70
NtRp3263
(dp3264
g73
(dp3265
g81
I3
ssg82
g3259
sg75
(lp3266
g1751
asbasbasbag68
(g84
g70
NtRp3267
(dp3268
g73
(dp3269
sg82
g2864
sg75
(lp3270
g68
(g89
g70
NtRp3271
(dp3272
g73
(dp3273
g93
g94
ssg82
g3267
sg75
(lp3274
S'wsgi.errors'
p3275
asbag68
(g89
g70
NtRp3276
(dp3277
g73
(dp3278
g100
g101
ssg82
g3267
sg75
(lp3279
S':'
asbag68
(g89
g70
NtRp3280
(dp3281
g73
(dp3282
sg82
g3267
sg75
(lp3283
g68
(g69
g70
NtRp3284
(dp3285
g73
(dp3286
g81
I3
ssg82
g3280
sg75
(lp3287
S"<open file '<stderr>', mode 'w' at 0x7fde3c532270>"
p3288
asbasbasbag68
(g84
g70
NtRp3289
(dp3290
g73
(dp3291
sg82
g2864
sg75
(lp3292
g68
(g89
g70
NtRp3293
(dp3294
g73
(dp3295
g93
g94
ssg82
g3289
sg75
(lp3296
S'wsgi.file_wrapper'
p3297
asbag68
(g89
g70
NtRp3298
(dp3299
g73
(dp3300
g100
g101
ssg82
g3289
sg75
(lp3301
S':'
asbag68
(g89
g70
NtRp3302
(dp3303
g73
(dp3304
sg82
g3289
sg75
(lp3305
g68
(g69
g70
NtRp3306
(dp3307
g73
(dp3308
g81
I3
ssg82
g3302
sg75
(lp3309
S'<class wsgiref.util.FileWrapper at 0x2cd6c18>'
p3310
asbasbasbag68
(g84
g70
NtRp3311
(dp3312
g73
(dp3313
sg82
g2864
sg75
(lp3314
g68
(g89
g70
NtRp3315
(dp3316
g73
(dp3317
g93
g94
ssg82
g3311
sg75
(lp3318
S'wsgi.input'
p3319
asbag68
(g89
g70
NtRp3320
(dp3321
g73
(dp3322
g100
g101
ssg82
g3311
sg75
(lp3323
S':'
asbag68
(g89
g70
NtRp3324
(dp3325
g73
(dp3326
sg82
g3311
sg75
(lp3327
g68
(g69
g70
NtRp3328
(dp3329
g73
(dp3330
g81
I3
ssg82
g3324
sg75
(lp3331
S'<cStringIO.StringO object at 0x7fde304546f8>'
p3332
asbasbasbag68
(g84
g70
NtRp3333
(dp3334
g73
(dp3335
sg82
g2864
sg75
(lp3336
g68
(g89
g70
NtRp3337
(dp3338
g73
(dp3339
g93
g94
ssg82
g3333
sg75
(lp3340
S'wsgi.multiprocess'
p3341
asbag68
(g89
g70
NtRp3342
(dp3343
g73
(dp3344
g100
g101
ssg82
g3333
sg75
(lp3345
S':'
asbag68
(g89
g70
NtRp3346
(dp3347
g73
(dp3348
sg82
g3333
sg75
(lp3349
g68
(g69
g70
NtRp3350
(dp3351
g73
(dp3352
g81
I3
ssg82
g3346
sg75
(lp3353
g111
asbasbasbag68
(g84
g70
NtRp3354
(dp3355
g73
(dp3356
sg82
g2864
sg75
(lp3357
g68
(g89
g70
NtRp3358
(dp3359
g73
(dp3360
g93
g94
ssg82
g3354
sg75
(lp3361
S'wsgi.multithread'
p3362
asbag68
(g89
g70
NtRp3363
(dp3364
g73
(dp3365
g100
g101
ssg82
g3354
sg75
(lp3366
S':'
asbag68
(g89
g70
NtRp3367
(dp3368
g73
(dp3369
sg82
g3354
sg75
(lp3370
g68
(g69
g70
NtRp3371
(dp3372
g73
(dp3373
g81
I3
ssg82
g3367
sg75
(lp3374
g1968
asbasbasbag68
(g84
g70
NtRp3375
(dp3376
g73
(dp3377
sg82
g2864
sg75
(lp3378
g68
(g89
g70
NtRp3379
(dp3380
g73
(dp3381
g93
g94
ssg82
g3375
sg75
(lp3382
S'wsgi.run_once'
p3383
asbag68
(g89
g70
NtRp3384
(dp3385
g73
(dp3386
g100
g101
ssg82
g3375
sg75
(lp3387
S':'
asbag68
(g89
g70
NtRp3388
(dp3389
g73
(dp3390
sg82
g3375
sg75
(lp3391
g68
(g69
g70
NtRp3392
(dp3393
g73
(dp3394
g81
I3
ssg82
g3388
sg75
(lp3395
g111
asbasbasbag68
(g84
g70
NtRp3396
(dp3397
g73
(dp3398
sg82
g2864
sg75
(lp3399
g68
(g89
g70
NtRp3400
(dp3401
g73
(dp3402
g93
g94
ssg82
g3396
sg75
(lp3403
S'wsgi.url_scheme'
p3404
asbag68
(g89
g70
NtRp3405
(dp3406
g73
(dp3407
g100
g101
ssg82
g3396
sg75
(lp3408
S':'
asbag68
(g89
g70
NtRp3409
(dp3410
g73
(dp3411
sg82
g3396
sg75
(lp3412
g68
(g69
g70
NtRp3413
(dp3414
g73
(dp3415
g81
I3
ssg82
g3409
sg75
(lp3416
g2011
asbasbasbag68
(g84
g70
NtRp3417
(dp3418
g73
(dp3419
sg82
g2864
sg75
(lp3420
g68
(g89
g70
NtRp3421
(dp3422
g73
(dp3423
g93
g94
ssg82
g3417
sg75
(lp3424
S'wsgi.version'
p3425
asbag68
(g89
g70
NtRp3426
(dp3427
g73
(dp3428
g100
g101
ssg82
g3417
sg75
(lp3429
S':'
asbag68
(g89
g70
NtRp3430
(dp3431
g73
(dp3432
sg82
g3417
sg75
(lp3433
g68
(g69
g70
NtRp3434
(dp3435
g73
(dp3436
g81
I3
ssg82
g3430
sg75
(lp3437
S'1'
asbasbasbasbasbasbasbasbasbasbasbasbasbsS'frames'
p3438
(lp3439
(dp3440
S'file'
p3441
S'/var/www/web2py_curso/gluon/restricted.py'
p3442
sS'dump'
p3443
(dp3444
S'code'
p3445
S'\'# coding: utf-8\\n\\ndef index():\\n\\tprint "Action ind...x + y\\n\\n \\n\\nresponse._vars=response._caller(index)\\n\''
p3446
sS'layer'
p3447
S"'/var/www/web2py_curso/applications/projeto/controllers/default.py'"
p3448
sS'global compile2'
p3449
S'<function compile2>'
p3450
sS'ccode'
p3451
S'undefined'
p3452
ssS'lnum'
p3453
I211
sS'lines'
p3454
(dp3455
I206
S"    environment['__name__'] = '__restricted__'"
p3456
sI207
S'    try:'
p3457
sI208
S'        if isinstance(code, types.CodeType):'
p3458
sI209
S'            ccode = code'
p3459
sI210
S'        else:'
p3460
sI211
S'            ccode = compile2(code, layer)'
p3461
sI212
S'        exec ccode in environment'
p3462
sI213
S'    except HTTP:'
p3463
sI214
S'        raise'
p3464
sI215
S'    except RestrictedError:'
p3465
ssS'call'
p3466
S'(code=\'# coding: utf-8\\n\\ndef index():\\n\\tprint "Action ind...x + y\\n\\n \\n\\nresponse._vars=response._caller(index)\\n\', environment={\'A\': <class \'gluon.html.A\'>, \'B\': <class \'gluon.html.B\'>, \'BEAUTIFY\': <class \'gluon.html.BEAUTIFY\'>, \'BODY\': <class \'gluon.html.BODY\'>, \'BR\': <class \'gluon.html.BR\'>, \'BUTTON\': <class \'gluon.html.BUTTON\'>, \'CAT\': <class \'gluon.html.CAT\'>, \'CENTER\': <class \'gluon.html.CENTER\'>, \'CLEANUP\': <class \'gluon.validators.CLEANUP\'>, \'CODE\': <class \'gluon.html.CODE\'>, ...}, layer=\'/var/www/web2py_curso/applications/projeto/controllers/default.py\')'
p3467
sS'func'
p3468
S'restricted'
p3469
sa(dp3470
g3441
S'/var/www/web2py_curso/gluon/restricted.py'
p3471
sg3443
(dp3472
S'builtincompile'
p3473
S'<built-in function compile>'
p3474
sS'code'
p3475
S'\'# coding: utf-8\\n\\ndef index():\\n\\tprint "Action ind...x + y\\n\\n \\n\\nresponse._vars=response._caller(index)\\n\''
p3476
sS'code.rstrip'
p3477
S'<built-in method rstrip of str object>'
p3478
sS').replace'
p3479
g3452
sS'layer'
p3480
S"'/var/www/web2py_curso/applications/projeto/controllers/default.py'"
p3481
ssg3453
I194
sg3454
(dp3482
I192
S"    The +'\\n' is necessary else compile fails when code ends in a comment."
p3483
sI193
S'    """'
p3484
sI194
S"    return compile(code.rstrip().replace('\\r\\n', '\\n') + '\\n', layer, 'exec')"
p3485
sI195
S''
sI196
S''
sI197
S"def restricted(code, environment=None, layer='Unknown'):"
p3486
sI198
S'    """'
p3487
sI189
S''
sI190
S'def compile2(code, layer):'
p3488
sI191
S'    """'
p3489
ssg3466
S'(code=\'# coding: utf-8\\n\\ndef index():\\n\\tprint "Action ind...x + y\\n\\n \\n\\nresponse._vars=response._caller(index)\\n\', layer=\'/var/www/web2py_curso/applications/projeto/controllers/default.py\')'
p3490
sg3468
S'compile2'
p3491
sasS'pyver'
p3492
S'Python 2.7.3: /usr/bin/python'
p3493
sS'session'
p3494
g68
(g69
g70
NtRp3495
(dp3496
g73
(dp3497
sg75
(lp3498
g68
(g77
g70
NtRp3499
(dp3500
g73
(dp3501
g81
I5
ssg82
Nsg75
(lp3502
sbasbsS'etype'
p3503
S"<type 'exceptions.SyntaxError'>"
p3504
sS'date'
p3505
S'Wed Jan 23 08:56:20 2013'
p3506
sS'response'
p3507
g68
(g69
g70
NtRp3508
(dp3509
g73
(dp3510
sg75
(lp3511
g68
(g77
g70
NtRp3512
(dp3513
g73
(dp3514
g81
I5
ssg82
Nsg75
(lp3515
g68
(g84
g70
NtRp3516
(dp3517
g73
(dp3518
sg82
g3512
sg75
(lp3519
g68
(g89
g70
NtRp3520
(dp3521
g73
(dp3522
g93
g94
ssg82
g3516
sg75
(lp3523
g166
asbag68
(g89
g70
NtRp3524
(dp3525
g73
(dp3526
g100
g101
ssg82
g3516
sg75
(lp3527
S':'
asbag68
(g89
g70
NtRp3528
(dp3529
g73
(dp3530
sg82
g3516
sg75
(lp3531
g68
(g69
g70
NtRp3532
(dp3533
g73
(dp3534
g81
I5
ssg82
g3528
sg75
(lp3535
S'<cStringIO.StringO object at 0x7fde304543e8>'
p3536
asbasbasbag68
(g84
g70
NtRp3537
(dp3538
g73
(dp3539
sg82
g3512
sg75
(lp3540
g68
(g89
g70
NtRp3541
(dp3542
g73
(dp3543
g93
g94
ssg82
g3537
sg75
(lp3544
g254
asbag68
(g89
g70
NtRp3545
(dp3546
g73
(dp3547
g100
g101
ssg82
g3537
sg75
(lp3548
S':'
asbag68
(g89
g70
NtRp3549
(dp3550
g73
(dp3551
sg82
g3537
sg75
(lp3552
g68
(g69
g70
NtRp3553
(dp3554
g73
(dp3555
g81
I5
ssg82
g3549
sg75
(lp3556
g68
(g77
g70
NtRp3557
(dp3558
g73
(dp3559
g81
I4
ssg82
Nsg75
(lp3560
g68
(g84
g70
NtRp3561
(dp3562
g73
(dp3563
sg82
g3557
sg75
(lp3564
g68
(g89
g70
NtRp3565
(dp3566
g73
(dp3567
g93
g94
ssg82
g3561
sg75
(lp3568
S'session_id_projeto'
p3569
asbag68
(g89
g70
NtRp3570
(dp3571
g73
(dp3572
g100
g101
ssg82
g3561
sg75
(lp3573
S':'
asbag68
(g89
g70
NtRp3574
(dp3575
g73
(dp3576
sg82
g3561
sg75
(lp3577
g68
(g69
g70
NtRp3578
(dp3579
g73
(dp3580
g81
I4
ssg82
g3574
sg75
(lp3581
g672
ag68
(g77
g70
NtRp3582
(dp3583
g73
(dp3584
g81
I3
ssg82
Nsg75
(lp3585
g68
(g84
g70
NtRp3586
(dp3587
g73
(dp3588
sg82
g3582
sg75
(lp3589
g68
(g89
g70
NtRp3590
(dp3591
g73
(dp3592
g93
g94
ssg82
g3586
sg75
(lp3593
g305
asbag68
(g89
g70
NtRp3594
(dp3595
g73
(dp3596
g100
g101
ssg82
g3586
sg75
(lp3597
S':'
asbag68
(g89
g70
NtRp3598
(dp3599
g73
(dp3600
sg82
g3586
sg75
(lp3601
g68
(g69
g70
NtRp3602
(dp3603
g73
(dp3604
g81
I3
ssg82
g3598
sg75
(lp3605
S''
asbasbasbag68
(g84
g70
NtRp3606
(dp3607
g73
(dp3608
sg82
g3582
sg75
(lp3609
g68
(g89
g70
NtRp3610
(dp3611
g73
(dp3612
g93
g94
ssg82
g3606
sg75
(lp3613
g326
asbag68
(g89
g70
NtRp3614
(dp3615
g73
(dp3616
g100
g101
ssg82
g3606
sg75
(lp3617
S':'
asbag68
(g89
g70
NtRp3618
(dp3619
g73
(dp3620
sg82
g3606
sg75
(lp3621
g68
(g69
g70
NtRp3622
(dp3623
g73
(dp3624
g81
I3
ssg82
g3618
sg75
(lp3625
S''
asbasbasbag68
(g84
g70
NtRp3626
(dp3627
g73
(dp3628
sg82
g3582
sg75
(lp3629
g68
(g89
g70
NtRp3630
(dp3631
g73
(dp3632
g93
g94
ssg82
g3626
sg75
(lp3633
g347
asbag68
(g89
g70
NtRp3634
(dp3635
g73
(dp3636
g100
g101
ssg82
g3626
sg75
(lp3637
S':'
asbag68
(g89
g70
NtRp3638
(dp3639
g73
(dp3640
sg82
g3626
sg75
(lp3641
g68
(g69
g70
NtRp3642
(dp3643
g73
(dp3644
g81
I3
ssg82
g3638
sg75
(lp3645
S''
asbasbasbag68
(g84
g70
NtRp3646
(dp3647
g73
(dp3648
sg82
g3582
sg75
(lp3649
g68
(g89
g70
NtRp3650
(dp3651
g73
(dp3652
g93
g94
ssg82
g3646
sg75
(lp3653
g368
asbag68
(g89
g70
NtRp3654
(dp3655
g73
(dp3656
g100
g101
ssg82
g3646
sg75
(lp3657
S':'
asbag68
(g89
g70
NtRp3658
(dp3659
g73
(dp3660
sg82
g3646
sg75
(lp3661
g68
(g69
g70
NtRp3662
(dp3663
g73
(dp3664
g81
I3
ssg82
g3658
sg75
(lp3665
S''
asbasbasbag68
(g84
g70
NtRp3666
(dp3667
g73
(dp3668
sg82
g3582
sg75
(lp3669
g68
(g89
g70
NtRp3670
(dp3671
g73
(dp3672
g93
g94
ssg82
g3666
sg75
(lp3673
g389
asbag68
(g89
g70
NtRp3674
(dp3675
g73
(dp3676
g100
g101
ssg82
g3666
sg75
(lp3677
S':'
asbag68
(g89
g70
NtRp3678
(dp3679
g73
(dp3680
sg82
g3666
sg75
(lp3681
g68
(g69
g70
NtRp3682
(dp3683
g73
(dp3684
g81
I3
ssg82
g3678
sg75
(lp3685
S''
asbasbasbag68
(g84
g70
NtRp3686
(dp3687
g73
(dp3688
sg82
g3582
sg75
(lp3689
g68
(g89
g70
NtRp3690
(dp3691
g73
(dp3692
g93
g94
ssg82
g3686
sg75
(lp3693
g410
asbag68
(g89
g70
NtRp3694
(dp3695
g73
(dp3696
g100
g101
ssg82
g3686
sg75
(lp3697
S':'
asbag68
(g89
g70
NtRp3698
(dp3699
g73
(dp3700
sg82
g3686
sg75
(lp3701
g68
(g69
g70
NtRp3702
(dp3703
g73
(dp3704
g81
I3
ssg82
g3698
sg75
(lp3705
S'/'
asbasbasbag68
(g84
g70
NtRp3706
(dp3707
g73
(dp3708
sg82
g3582
sg75
(lp3709
g68
(g89
g70
NtRp3710
(dp3711
g73
(dp3712
g93
g94
ssg82
g3706
sg75
(lp3713
g431
asbag68
(g89
g70
NtRp3714
(dp3715
g73
(dp3716
g100
g101
ssg82
g3706
sg75
(lp3717
S':'
asbag68
(g89
g70
NtRp3718
(dp3719
g73
(dp3720
sg82
g3706
sg75
(lp3721
g68
(g69
g70
NtRp3722
(dp3723
g73
(dp3724
g81
I3
ssg82
g3718
sg75
(lp3725
S''
asbasbasbag68
(g84
g70
NtRp3726
(dp3727
g73
(dp3728
sg82
g3582
sg75
(lp3729
g68
(g89
g70
NtRp3730
(dp3731
g73
(dp3732
g93
g94
ssg82
g3726
sg75
(lp3733
g452
asbag68
(g89
g70
NtRp3734
(dp3735
g73
(dp3736
g100
g101
ssg82
g3726
sg75
(lp3737
S':'
asbag68
(g89
g70
NtRp3738
(dp3739
g73
(dp3740
sg82
g3726
sg75
(lp3741
g68
(g69
g70
NtRp3742
(dp3743
g73
(dp3744
g81
I3
ssg82
g3738
sg75
(lp3745
S''
asbasbasbasbasbasbasbasbasbasbasbag68
(g84
g70
NtRp3746
(dp3747
g73
(dp3748
sg82
g3512
sg75
(lp3749
g68
(g89
g70
NtRp3750
(dp3751
g73
(dp3752
g93
g94
ssg82
g3746
sg75
(lp3753
S'delimiters'
p3754
asbag68
(g89
g70
NtRp3755
(dp3756
g73
(dp3757
g100
g101
ssg82
g3746
sg75
(lp3758
S':'
asbag68
(g89
g70
NtRp3759
(dp3760
g73
(dp3761
sg82
g3746
sg75
(lp3762
g68
(g69
g70
NtRp3763
(dp3764
g73
(dp3765
g81
I5
ssg82
g3759
sg75
(lp3766
g68
(g77
g70
NtRp3767
(dp3768
g73
(dp3769
g81
I4
ssg82
Nsg75
(lp3770
g68
(g84
g70
NtRp3771
(dp3772
g73
(dp3773
sg82
g3767
sg75
(lp3774
g68
(g89
g70
NtRp3775
(dp3776
g73
(dp3777
sg82
g3771
sg75
(lp3778
g68
(g69
g70
NtRp3779
(dp3780
g73
(dp3781
g81
I4
ssg82
g3775
sg75
(lp3782
S'{{'
p3783
asbasbasbag68
(g84
g70
NtRp3784
(dp3785
g73
(dp3786
sg82
g3767
sg75
(lp3787
g68
(g89
g70
NtRp3788
(dp3789
g73
(dp3790
sg82
g3784
sg75
(lp3791
g68
(g69
g70
NtRp3792
(dp3793
g73
(dp3794
g81
I4
ssg82
g3788
sg75
(lp3795
S'}}'
p3796
asbasbasbasbasbasbasbag68
(g84
g70
NtRp3797
(dp3798
g73
(dp3799
sg82
g3512
sg75
(lp3800
g68
(g89
g70
NtRp3801
(dp3802
g73
(dp3803
g93
g94
ssg82
g3797
sg75
(lp3804
S'files'
p3805
asbag68
(g89
g70
NtRp3806
(dp3807
g73
(dp3808
g100
g101
ssg82
g3797
sg75
(lp3809
S':'
asbag68
(g89
g70
NtRp3810
(dp3811
g73
(dp3812
sg82
g3797
sg75
(lp3813
g68
(g69
g70
NtRp3814
(dp3815
g73
(dp3816
g81
I5
ssg82
g3810
sg75
(lp3817
g68
(g77
g70
NtRp3818
(dp3819
g73
(dp3820
g81
I4
ssg82
Nsg75
(lp3821
sbasbasbasbag68
(g84
g70
NtRp3822
(dp3823
g73
(dp3824
sg82
g3512
sg75
(lp3825
g68
(g89
g70
NtRp3826
(dp3827
g73
(dp3828
g93
g94
ssg82
g3822
sg75
(lp3829
S'flash'
p3830
asbag68
(g89
g70
NtRp3831
(dp3832
g73
(dp3833
g100
g101
ssg82
g3822
sg75
(lp3834
S':'
asbag68
(g89
g70
NtRp3835
(dp3836
g73
(dp3837
sg82
g3822
sg75
(lp3838
g68
(g69
g70
NtRp3839
(dp3840
g73
(dp3841
g81
I5
ssg82
g3835
sg75
(lp3842
S''
asbasbasbag68
(g84
g70
NtRp3843
(dp3844
g73
(dp3845
sg82
g3512
sg75
(lp3846
g68
(g89
g70
NtRp3847
(dp3848
g73
(dp3849
g93
g94
ssg82
g3843
sg75
(lp3850
S'generic_patterns'
p3851
asbag68
(g89
g70
NtRp3852
(dp3853
g73
(dp3854
g100
g101
ssg82
g3843
sg75
(lp3855
S':'
asbag68
(g89
g70
NtRp3856
(dp3857
g73
(dp3858
sg82
g3843
sg75
(lp3859
g68
(g69
g70
NtRp3860
(dp3861
g73
(dp3862
g81
I5
ssg82
g3856
sg75
(lp3863
g68
(g77
g70
NtRp3864
(dp3865
g73
(dp3866
g81
I4
ssg82
Nsg75
(lp3867
sbasbasbasbag68
(g84
g70
NtRp3868
(dp3869
g73
(dp3870
sg82
g3512
sg75
(lp3871
g68
(g89
g70
NtRp3872
(dp3873
g73
(dp3874
g93
g94
ssg82
g3868
sg75
(lp3875
S'headers'
p3876
asbag68
(g89
g70
NtRp3877
(dp3878
g73
(dp3879
g100
g101
ssg82
g3868
sg75
(lp3880
S':'
asbag68
(g89
g70
NtRp3881
(dp3882
g73
(dp3883
sg82
g3868
sg75
(lp3884
g68
(g69
g70
NtRp3885
(dp3886
g73
(dp3887
g81
I5
ssg82
g3881
sg75
(lp3888
g68
(g77
g70
NtRp3889
(dp3890
g73
(dp3891
g81
I4
ssg82
Nsg75
(lp3892
g68
(g84
g70
NtRp3893
(dp3894
g73
(dp3895
sg82
g3889
sg75
(lp3896
g68
(g89
g70
NtRp3897
(dp3898
g73
(dp3899
g93
g94
ssg82
g3893
sg75
(lp3900
S'X-Powered-By'
p3901
asbag68
(g89
g70
NtRp3902
(dp3903
g73
(dp3904
g100
g101
ssg82
g3893
sg75
(lp3905
S':'
asbag68
(g89
g70
NtRp3906
(dp3907
g73
(dp3908
sg82
g3893
sg75
(lp3909
g68
(g69
g70
NtRp3910
(dp3911
g73
(dp3912
g81
I4
ssg82
g3906
sg75
(lp3913
S'web2py'
p3914
asbasbasbasbasbasbasbag68
(g84
g70
NtRp3915
(dp3916
g73
(dp3917
sg82
g3512
sg75
(lp3918
g68
(g89
g70
NtRp3919
(dp3920
g73
(dp3921
g93
g94
ssg82
g3915
sg75
(lp3922
S'menu'
p3923
asbag68
(g89
g70
NtRp3924
(dp3925
g73
(dp3926
g100
g101
ssg82
g3915
sg75
(lp3927
S':'
asbag68
(g89
g70
NtRp3928
(dp3929
g73
(dp3930
sg82
g3915
sg75
(lp3931
g68
(g69
g70
NtRp3932
(dp3933
g73
(dp3934
g81
I5
ssg82
g3928
sg75
(lp3935
g68
(g77
g70
NtRp3936
(dp3937
g73
(dp3938
g81
I4
ssg82
Nsg75
(lp3939
sbasbasbasbag68
(g84
g70
NtRp3940
(dp3941
g73
(dp3942
sg82
g3512
sg75
(lp3943
g68
(g89
g70
NtRp3944
(dp3945
g73
(dp3946
g93
g94
ssg82
g3940
sg75
(lp3947
S'meta'
p3948
asbag68
(g89
g70
NtRp3949
(dp3950
g73
(dp3951
g100
g101
ssg82
g3940
sg75
(lp3952
S':'
asbag68
(g89
g70
NtRp3953
(dp3954
g73
(dp3955
sg82
g3940
sg75
(lp3956
g68
(g69
g70
NtRp3957
(dp3958
g73
(dp3959
g81
I5
ssg82
g3953
sg75
(lp3960
g68
(g77
g70
NtRp3961
(dp3962
g73
(dp3963
g81
I4
ssg82
Nsg75
(lp3964
sbasbasbasbag68
(g84
g70
NtRp3965
(dp3966
g73
(dp3967
sg82
g3512
sg75
(lp3968
g68
(g89
g70
NtRp3969
(dp3970
g73
(dp3971
g93
g94
ssg82
g3965
sg75
(lp3972
S'models_to_run'
p3973
asbag68
(g89
g70
NtRp3974
(dp3975
g73
(dp3976
g100
g101
ssg82
g3965
sg75
(lp3977
S':'
asbag68
(g89
g70
NtRp3978
(dp3979
g73
(dp3980
sg82
g3965
sg75
(lp3981
g68
(g69
g70
NtRp3982
(dp3983
g73
(dp3984
g81
I5
ssg82
g3978
sg75
(lp3985
g68
(g77
g70
NtRp3986
(dp3987
g73
(dp3988
g81
I4
ssg82
Nsg75
(lp3989
g68
(g84
g70
NtRp3990
(dp3991
g73
(dp3992
sg82
g3986
sg75
(lp3993
g68
(g89
g70
NtRp3994
(dp3995
g73
(dp3996
sg82
g3990
sg75
(lp3997
g68
(g69
g70
NtRp3998
(dp3999
g73
(dp4000
g81
I4
ssg82
g3994
sg75
(lp4001
S'^\\w+\\.py$'
p4002
asbasbasbag68
(g84
g70
NtRp4003
(dp4004
g73
(dp4005
sg82
g3986
sg75
(lp4006
g68
(g89
g70
NtRp4007
(dp4008
g73
(dp4009
sg82
g4003
sg75
(lp4010
g68
(g69
g70
NtRp4011
(dp4012
g73
(dp4013
g81
I4
ssg82
g4007
sg75
(lp4014
S'^default/\\w+\\.py$'
p4015
asbasbasbag68
(g84
g70
NtRp4016
(dp4017
g73
(dp4018
sg82
g3986
sg75
(lp4019
g68
(g89
g70
NtRp4020
(dp4021
g73
(dp4022
sg82
g4016
sg75
(lp4023
g68
(g69
g70
NtRp4024
(dp4025
g73
(dp4026
g81
I4
ssg82
g4020
sg75
(lp4027
S'^default/index/\\w+\\.py$'
p4028
asbasbasbasbasbasbasbag68
(g84
g70
NtRp4029
(dp4030
g73
(dp4031
sg82
g3512
sg75
(lp4032
g68
(g89
g70
NtRp4033
(dp4034
g73
(dp4035
g93
g94
ssg82
g4029
sg75
(lp4036
S'postprocessing'
p4037
asbag68
(g89
g70
NtRp4038
(dp4039
g73
(dp4040
g100
g101
ssg82
g4029
sg75
(lp4041
S':'
asbag68
(g89
g70
NtRp4042
(dp4043
g73
(dp4044
sg82
g4029
sg75
(lp4045
g68
(g69
g70
NtRp4046
(dp4047
g73
(dp4048
g81
I5
ssg82
g4042
sg75
(lp4049
g68
(g77
g70
NtRp4050
(dp4051
g73
(dp4052
g81
I4
ssg82
Nsg75
(lp4053
sbasbasbasbag68
(g84
g70
NtRp4054
(dp4055
g73
(dp4056
sg82
g3512
sg75
(lp4057
g68
(g89
g70
NtRp4058
(dp4059
g73
(dp4060
g93
g94
ssg82
g4054
sg75
(lp4061
S'session_cookie_expires'
p4062
asbag68
(g89
g70
NtRp4063
(dp4064
g73
(dp4065
g100
g101
ssg82
g4054
sg75
(lp4066
S':'
asbag68
(g89
g70
NtRp4067
(dp4068
g73
(dp4069
sg82
g4054
sg75
(lp4070
g68
(g69
g70
NtRp4071
(dp4072
g73
(dp4073
g81
I5
ssg82
g4067
sg75
(lp4074
S'None'
p4075
asbasbasbag68
(g84
g70
NtRp4076
(dp4077
g73
(dp4078
sg82
g3512
sg75
(lp4079
g68
(g89
g70
NtRp4080
(dp4081
g73
(dp4082
g93
g94
ssg82
g4076
sg75
(lp4083
S'session_data_name'
p4084
asbag68
(g89
g70
NtRp4085
(dp4086
g73
(dp4087
g100
g101
ssg82
g4076
sg75
(lp4088
S':'
asbag68
(g89
g70
NtRp4089
(dp4090
g73
(dp4091
sg82
g4076
sg75
(lp4092
g68
(g69
g70
NtRp4093
(dp4094
g73
(dp4095
g81
I5
ssg82
g4089
sg75
(lp4096
S'session_data_projeto'
p4097
asbasbasbag68
(g84
g70
NtRp4098
(dp4099
g73
(dp4100
sg82
g3512
sg75
(lp4101
g68
(g89
g70
NtRp4102
(dp4103
g73
(dp4104
g93
g94
ssg82
g4098
sg75
(lp4105
S'session_file'
p4106
asbag68
(g89
g70
NtRp4107
(dp4108
g73
(dp4109
g100
g101
ssg82
g4098
sg75
(lp4110
S':'
asbag68
(g89
g70
NtRp4111
(dp4112
g73
(dp4113
sg82
g4098
sg75
(lp4114
g68
(g69
g70
NtRp4115
(dp4116
g73
(dp4117
g81
I5
ssg82
g4111
sg75
(lp4118
S'None'
p4119
asbasbasbag68
(g84
g70
NtRp4120
(dp4121
g73
(dp4122
sg82
g3512
sg75
(lp4123
g68
(g89
g70
NtRp4124
(dp4125
g73
(dp4126
g93
g94
ssg82
g4120
sg75
(lp4127
S'session_filename'
p4128
asbag68
(g89
g70
NtRp4129
(dp4130
g73
(dp4131
g100
g101
ssg82
g4120
sg75
(lp4132
S':'
asbag68
(g89
g70
NtRp4133
(dp4134
g73
(dp4135
sg82
g4120
sg75
(lp4136
g68
(g69
g70
NtRp4137
(dp4138
g73
(dp4139
g81
I5
ssg82
g4133
sg75
(lp4140
S'/var/www/web2py_curso/applications/projeto/sessions/127.0.0.1-ac2fedfb-a46a-42e9-8bef-23a136eddeb8'
p4141
asbasbasbag68
(g84
g70
NtRp4142
(dp4143
g73
(dp4144
sg82
g3512
sg75
(lp4145
g68
(g89
g70
NtRp4146
(dp4147
g73
(dp4148
g93
g94
ssg82
g4142
sg75
(lp4149
S'session_id'
p4150
asbag68
(g89
g70
NtRp4151
(dp4152
g73
(dp4153
g100
g101
ssg82
g4142
sg75
(lp4154
S':'
asbag68
(g89
g70
NtRp4155
(dp4156
g73
(dp4157
sg82
g4142
sg75
(lp4158
g68
(g69
g70
NtRp4159
(dp4160
g73
(dp4161
g81
I5
ssg82
g4155
sg75
(lp4162
g672
asbasbasbag68
(g84
g70
NtRp4163
(dp4164
g73
(dp4165
sg82
g3512
sg75
(lp4166
g68
(g89
g70
NtRp4167
(dp4168
g73
(dp4169
g93
g94
ssg82
g4163
sg75
(lp4170
S'session_id_name'
p4171
asbag68
(g89
g70
NtRp4172
(dp4173
g73
(dp4174
g100
g101
ssg82
g4163
sg75
(lp4175
S':'
asbag68
(g89
g70
NtRp4176
(dp4177
g73
(dp4178
sg82
g4163
sg75
(lp4179
g68
(g69
g70
NtRp4180
(dp4181
g73
(dp4182
g81
I5
ssg82
g4176
sg75
(lp4183
g3569
asbasbasbag68
(g84
g70
NtRp4184
(dp4185
g73
(dp4186
sg82
g3512
sg75
(lp4187
g68
(g89
g70
NtRp4188
(dp4189
g73
(dp4190
g93
g94
ssg82
g4184
sg75
(lp4191
S'session_new'
p4192
asbag68
(g89
g70
NtRp4193
(dp4194
g73
(dp4195
g100
g101
ssg82
g4184
sg75
(lp4196
S':'
asbag68
(g89
g70
NtRp4197
(dp4198
g73
(dp4199
sg82
g4184
sg75
(lp4200
g68
(g69
g70
NtRp4201
(dp4202
g73
(dp4203
g81
I5
ssg82
g4197
sg75
(lp4204
g111
asbasbasbag68
(g84
g70
NtRp4205
(dp4206
g73
(dp4207
sg82
g3512
sg75
(lp4208
g68
(g89
g70
NtRp4209
(dp4210
g73
(dp4211
g93
g94
ssg82
g4205
sg75
(lp4212
S'session_storage_type'
p4213
asbag68
(g89
g70
NtRp4214
(dp4215
g73
(dp4216
g100
g101
ssg82
g4205
sg75
(lp4217
S':'
asbag68
(g89
g70
NtRp4218
(dp4219
g73
(dp4220
sg82
g4205
sg75
(lp4221
g68
(g69
g70
NtRp4222
(dp4223
g73
(dp4224
g81
I5
ssg82
g4218
sg75
(lp4225
g3441
asbasbasbag68
(g84
g70
NtRp4226
(dp4227
g73
(dp4228
sg82
g3512
sg75
(lp4229
g68
(g89
g70
NtRp4230
(dp4231
g73
(dp4232
g93
g94
ssg82
g4226
sg75
(lp4233
S'status'
p4234
asbag68
(g89
g70
NtRp4235
(dp4236
g73
(dp4237
g100
g101
ssg82
g4226
sg75
(lp4238
S':'
asbag68
(g89
g70
NtRp4239
(dp4240
g73
(dp4241
sg82
g4226
sg75
(lp4242
g68
(g69
g70
NtRp4243
(dp4244
g73
(dp4245
g81
I5
ssg82
g4239
sg75
(lp4246
S'200'
p4247
asbasbasbag68
(g84
g70
NtRp4248
(dp4249
g73
(dp4250
sg82
g3512
sg75
(lp4251
g68
(g89
g70
NtRp4252
(dp4253
g73
(dp4254
g93
g94
ssg82
g4248
sg75
(lp4255
S'view'
p4256
asbag68
(g89
g70
NtRp4257
(dp4258
g73
(dp4259
g100
g101
ssg82
g4248
sg75
(lp4260
S':'
asbag68
(g89
g70
NtRp4261
(dp4262
g73
(dp4263
sg82
g4248
sg75
(lp4264
g68
(g69
g70
NtRp4265
(dp4266
g73
(dp4267
g81
I5
ssg82
g4261
sg75
(lp4268
S'default/index.html'
p4269
asbasbasbasbasbsS'locals'
p4270
(dp4271
g4
S"'/var/www/web2py_curso/applications/projeto/controllers/default.py'"
p4272
sg6
S'\'# coding: utf-8\\n\\ndef index():\\n\\tprint "Action ind...x + y\\n\\n \\n\\nresponse._vars=response._caller(index)\\n\''
p4273
sssS'traceback'
p4274
S'Traceback (most recent call last):\n  File "/var/www/web2py_curso/gluon/restricted.py", line 211, in restricted\n    ccode = compile2(code, layer)\n  File "/var/www/web2py_curso/gluon/restricted.py", line 194, in compile2\n    return compile(code.rstrip().replace(\'\\r\\n\', \'\\n\') + \'\\n\', layer, \'exec\')\n  File "/var/www/web2py_curso/applications/projeto/controllers/default.py", line 7\n    if nome in request.args\n                          ^\nSyntaxError: invalid syntax\n'
p4275
s.