(dp1
S'output'
p2
S"<type 'exceptions.AttributeError'> 'Table' object has no attribute 'first'"
p3
sS'layer'
p4
S'/var/www/web2py_curso/applications/projeto/views/initial/home.html'
p5
sS'code'
p6
S'response.write(\'<!DOCTYPE HTML>\\n<html lang="en">\\n<head>\\n  <meta charset="UTF-8">\\n  <title> \', escape=False)\nresponse.write(response.title)\nresponse.write(\'</title>\\n  <meta name="description" content="\', escape=False)\nresponse.write(response.meta.description)\nresponse.write(\'">\\n  <meta name="keywords" content="\', escape=False)\nresponse.write(response.meta.keyworks)\nresponse.write(\'">\\n  <meta name="date" content="2012-01-06">\\n\\n\', escape=False)\ncss = URL(a=\'projeto\',c=\'static\', f=\'css\')\nresponse.write(\'\\n\', escape=False)\njs = URL(a=\'projeto\',c=\'static\', f=\'js\')\nresponse.write(\'\\n\', escape=False)\nimg = URL(a=\'projeto\',c=\'static\', f=\'img\')\nresponse.write(\'\\n\', escape=False)\nimages = URL(a=\'projeto\',c=\'static\', f=\'images\')\nresponse.write(\'\\n\', escape=False)\nvideo = URL(a=\'projeto\',c=\'static\', f=\'video\')\nresponse.write(\'\\n\\n\', escape=False)\nresponse.write(\'<script type="text/javascript"><!--\\n    // These variables are used by the web2py_ajax_init function in web2py_ajax.js (which is loaded below).\\n    var w2p_ajax_confirm_message = "\', escape=False)\nresponse.write(T(\'Are you sure you want to delete this object?\'))\nresponse.write(\'";\\n    var w2p_ajax_date_format = "\', escape=False)\nresponse.write(T(\'%Y-%m-%d\'))\nresponse.write(\'";\\n    var w2p_ajax_datetime_format = "\', escape=False)\nresponse.write(T(\'%Y-%m-%d %H:%M:%S\'))\nresponse.write(\'";\\n    //--></script>\\n\', escape=False)\nresponse.files.insert(0,URL(\'static\',\'js/jquery.js\'))\nresponse.files.insert(1,URL(\'static\',\'css/calendar.css\'))\nresponse.files.insert(2,URL(\'static\',\'js/calendar.js\'))\nresponse.files.insert(3,URL(\'static\',\'js/web2py.js\'))\nresponse.include_meta()\nresponse.include_files()\nresponse.write(\'\\n\', escape=False)\nresponse.write(\'\\n\\n  <link rel="stylesheet" href="\', escape=False)\nresponse.write(css)\nresponse.write(\'/master.css" type="text/css" media="screen" charset="utf-8">\\n\\n  <link rel="stylesheet" href="http://code.jquery.com/ui/1.10.0/themes/base/jquery-ui.css">\\n <link rel="stylesheet" href="\', escape=False)\ncss\nresponse.write(\'/bootstrap.min.css">\\n\\n  <script src="\', escape=False)\njs\nresponse.write(\'/jquery.js" type="text/javascript" charset="utf-8"></script>\\n  <script src="http://code.jquery.com/ui/1.10.0/jquery-ui.js"></script>\\n\\n  <script src="\', escape=False)\njs\nresponse.write(\'/bootstrap.min.js"></script>\\n\\n\', escape=False)\nresponse.write(\'\\n\', escape=False)\nresponse.write(\'\\n\\n</head>\\n<body>\\n\\n\\n  <header id="top">\\n\', escape=False)\nresponse.write(\'    \\n      <div id="logo">\\n        <a href="/">\\n           <img src="\', escape=False)\nresponse.write(img)\nresponse.write(\'/logo.png" alt="logo" />\\n        </a>\\n      </div>\\n      <hgroup>\\n          <h1>\', escape=False)\nresponse.write(response.title)\nresponse.write(\'</h1>\\n          <h2>\', escape=False)\nresponse.write(response.subtitle)\nresponse.write(\'</h2>\\n      </hgroup>\\n      <nav>\\n          <ul>\\n            <li><a href="/">Home</a></li>\\n            <li><a href="#">item menu</a></li>\\n            <li><a href="#">item menu</a></li>\\n            <li><a href="#">item menu</a></li>\\n          </ul>\\n      </nav>\\n  \', escape=False)\nresponse.write(\'      \\n  </header>\\n\\n\\n  <!--<section id="banner">\\n    \\n      <img src="\', escape=False)\nresponse.write(img)\nresponse.write(\'/banner.png" alt="banner"/>-->\\n      <!-- <img src="img/banner2.png" alt="banner" /> -->\\n    \\n  <!--</section>-->\\n \\n\\n <section id="banner" class="carousel slide">\\n\', escape=False)\nresponse.write(\'  \\n  <div class="carousel-inner">\\n    <div class="active item"><img src="\', escape=False)\nresponse.write(img)\nresponse.write(\'/banner.png" alt="banner"/></div>\\n    <div class="item"><img src="\', escape=False)\nresponse.write(img)\nresponse.write(\'/banner2.png" alt="banner" /></div>\\n  </div>\\n \\n  <a class="carousel-control left" href="#banner" data-slide="prev">&lsaquo;</a>\\n  <a class="carousel-control right" href="#banner" data-slide="next">&rsaquo;</a>\\n\', escape=False)\nresponse.write(\'\\n</section>\\n\\n\\n  <aside id="sidebar">\\n\', escape=False)\nresponse.write(\'    \\n      <div id="info">\\n           <h3>About me</h3>\\n           <figure id="photo">\\n             <img src="\', escape=False)\nresponse.write(img)\nresponse.write(\'/photo.jpg" alt="photo" />\\n             <img src="\', escape=False)\nresponse.write(img)\nresponse.write(\'/photo2.jpg" alt="photo" />\\n             <figcaption>Dr Sheldon Cooper</figcaption>\\n           </figure>\\n           <p><blockquote>Este blog \\xc3\\xa9 o melhor blog do universo</blockquote></p>\\n      </div>\\n      <nav>\\n          <ul>\\n            <li><a href="#contact">contato</a></li>\\n            <li><a href="fotos.html">fotos</a></li>\\n            <li><a href="admin.html">admin</a></li>\\n          </ul>\\n      </nav>\\n      <section id="tweets" class="side">\\n          <header><h3>Twitter feed @TheRealSheldonC</h3></header>\\n      </section>\\n\', escape=False)\nresponse.write(\'    \\n  </aside>\\n\\n  <div class="flash">\', escape=False)\nresponse.write(response.flash or \'\')\nresponse.write(\'</div>\\n\\n  <script>\\n\\n  $.getJSON("http://search.twitter.com/search.json?callback=?&q=campusparty&include_entities=true&rpp=5",\\n  loadtweets);\\n\\n  // $.ajax({url: "twitter.json"}).done(loadtweets);\\n\\n  function loadtweets(data){\\n    results = data.results;\\n    for (var i in results){\\n      tweet = results[i]\\n      html = "<article class=\\\'well\\\'>"\\n      html += "<header><small><a href=\\\'\\\'>Postado em <time datetime=\\\'"\\n      html += tweet.created_at +"\\\'>"+tweet.created_at;\\n      html += "</time></a></small></header>"\\n      html += "<p>" + tweet.text + "</p>";\\n      html += "</article>"\\n      $(\\\'#tweets\\\').append(html);\\n    }\\n  }\\n\\n  \\n  $(function(){\\n      \\n      var imagens = [];\\n      $(\\\'#photo img\\\').each(function(){\\n        imagens.push($(this).attr(\\\'src\\\'));\\n      });\\n      console.log(imagens);\\n\\n      var counter = imagens.length;\\n      \\n      newimg = $("<img id=\\\'slider\\\' class=\\\'img-polaroid\\\'>").attr({\\\'src\\\': imagens[1]});\\n\\n      $(\\\'#photo img\\\').remove();\\n      $(\\\'#photo\\\').prepend(newimg);\\n\\n      var slider = $(\\\'#slider\\\');\\n\\n      setInterval(function(){\\n          $(\\\'#slider\\\').fadeOut("slow", function(){\\n             $(this).attr(\\\'src\\\', imagens[(imagens.length++) % counter]).fadeIn(\\\'slow\\\');\\n          });\\n\\n      }, 3000);\\n  \\n  });\\n  </script>\\n\\n\\n\\n  <div class="postcontainer">\\n  \', escape=False)\nresponse.write(\'\\n<section id="ciencia" class="post">\\n        <header>\\n           <h1> Artigos cientificos e experimentos</h1>\\n        </header>\\n        <!--#\', escape=False)\nresponse.write(posts[0].title)\nresponse.write(\'-->\\n        \', escape=False)\nfor post in posts:\n    response.write(\'\\n            \', escape=False)\n    response.write(\' <article>\\n   <header>\\n      <h2>\', escape=False)\n    response.write(post.title)\n    response.write(\'</h2>\\n   </header>\\n   <p> \', escape=False)\n    response.write(XML(post.post_body))\n    response.write(\'</p><br>\\n   <footer>\\n      <span>Postado por <b> \', escape=False)\n    response.write(post.created_by(db.auth_user.first.name))\n    response.write(\'</b> em \', escape=False)\n    response.write(prettydate(post.created_on))\n    response.write(\'\\n      \\t\', escape=False)\n    #=post.created_on.strftime("%d/%m/%Y %H:%M")\n    response.write(\'\\n\\n   </footer>\\n</article>\', escape=False)\n    response.write(\'\\n        \', escape=False)\n    pass\nresponse.write(\'\\n    </section>\\n\\n   \', escape=False)\nresponse.write(\'\\n    \\n   <!-- <section id="games" class="post">\\n        <header>\\n           <h1> Games e trens!</h1>\\n        </header>\\n        <article>\\n           <header>\\n              <h2>Sheldon Cooper inventa Xadrez para 3 pessoas</h2>\\n           </header>\\n           <p> Lorem ipsum dolor sit amet, consectetuer adipiscing elit, sed diam inonummy nibh euismod tincidunt ut laoreet dolore magna aliquam erat volutpat.\\n             \\n            <video onclick="this.play()"  height="310" width="550" poster="\', escape=False)\nresponse.write(img)\nresponse.write(\'/video.png" controls>\\n              <source src="\', escape=False)\nresponse.write(video)\nresponse.write(\'/video13.mp4" type="" media="" />\\n              <source src="\', escape=False)\nresponse.write(video)\nresponse.write(\'/video2.mp4" type="" media="" />\\n            </video>\\n            \\n           </p>\\n           <footer>\\n              <span>Postado por <b> Sheldon</b> em <time pubdate date="2012-12-22"> 22/12/2012</time>\\n           </footer>\\n        </article>\\n    </section>-->\\n  \\n  </div>\\n\\n  <footer>\\n  \', escape=False)\nresponse.write(\'\\n     <form id="contact" method="POST" action="\', escape=False)\nresponse.write(URL(a=\'projeto\', c=\'initial\', f=\'contact\'))\nresponse.write(\'">\\n        <h3>Entre em contato</h3>\\n        <label>Nome</label>\\n        <input type="text" name="nome" id="nome" value="" placeholder="Seu nome" required>\\n        <label>Email</label>\\n        <input type="text" name="email" id="email" value="" placeholder="Seu e-mail" required>\\n        <label>Mensagem</label>\\n        <textarea name="mensagem" id="mensagem" required></textarea>\\n        <input type="submit" value="Enviar" />\\n     </form>\\n\\n     <div>\\n       Copyright &copy; 2013\\n     </div>\\n  \', escape=False)\nresponse.write(\'\\n  </footer>\\n\\n<div id="dialog" class="hidden" title="Basic dialog">\\n  <p>This is the default dialog which is useful for displaying information. The dialog window can be moved, resized and closed with the \\\'xxx\\\' icon.</p>\\n</div>\\n\\n</body>\\n</html>\', escape=False)'
p7
sS'snapshot'
p8
(dp9
S'exception'
p10
(dp11
S'__hash__'
p12
S"<method-wrapper '__hash__' of exceptions.AttributeError object>"
p13
sS'__setattr__'
p14
S"<method-wrapper '__setattr__' of exceptions.AttributeError object>"
p15
sS'__reduce_ex__'
p16
S'<built-in method __reduce_ex__ of exceptions.AttributeError object>'
p17
sS'__getslice__'
p18
S"<method-wrapper '__getslice__' of exceptions.AttributeError object>"
p19
sS'__getitem__'
p20
S"<method-wrapper '__getitem__' of exceptions.AttributeError object>"
p21
sS'__setstate__'
p22
S'<built-in method __setstate__ of exceptions.AttributeError object>'
p23
sS'args'
p24
S'("\'Table\' object has no attribute \'first\'",)'
p25
sS'__reduce__'
p26
S'<built-in method __reduce__ of exceptions.AttributeError object>'
p27
sS'__str__'
p28
S"<method-wrapper '__str__' of exceptions.AttributeError object>"
p29
sS'__format__'
p30
S'<built-in method __format__ of exceptions.AttributeError object>'
p31
sS'__getattribute__'
p32
S"<method-wrapper '__getattribute__' of exceptions.AttributeError object>"
p33
sS'__class__'
p34
S"<type 'exceptions.AttributeError'>"
p35
sS'__unicode__'
p36
S'<built-in method __unicode__ of exceptions.AttributeError object>'
p37
sS'__delattr__'
p38
S"<method-wrapper '__delattr__' of exceptions.AttributeError object>"
p39
sS'__subclasshook__'
p40
S'<built-in method __subclasshook__ of type object>'
p41
sS'__repr__'
p42
S"<method-wrapper '__repr__' of exceptions.AttributeError object>"
p43
sS'__dict__'
p44
S'{}'
p45
sS'__sizeof__'
p46
S'<built-in method __sizeof__ of exceptions.AttributeError object>'
p47
sS'__doc__'
p48
S"'Attribute not found.'"
p49
sS'__init__'
p50
S"<method-wrapper '__init__' of exceptions.AttributeError object>"
p51
sS'__new__'
p52
S'<built-in method __new__ of type object>'
p53
ssS'evalue'
p54
S"'Table' object has no attribute 'first'"
p55
sS'request'
p56
ccopy_reg
_reconstructor
p57
(cgluon.html
BEAUTIFY
p58
c__builtin__
object
p59
NtRp60
(dp61
S'attributes'
p62
(dp63
sS'components'
p64
(lp65
g57
(cgluon.html
TABLE
p66
g59
NtRp67
(dp68
g62
(dp69
S'level'
p70
I5
ssS'parent'
p71
Nsg64
(lp72
g57
(cgluon.html
TR
p73
g59
NtRp74
(dp75
g62
(dp76
sg71
g67
sg64
(lp77
g57
(cgluon.html
TD
p78
g59
NtRp79
(dp80
g62
(dp81
S'_style'
p82
S'font-weight:bold;vertical-align:top'
p83
ssg71
g74
sg64
(lp84
S'ajax'
p85
asbag57
(g78
g59
NtRp86
(dp87
g62
(dp88
S'_valign'
p89
S'top'
p90
ssg71
g74
sg64
(lp91
S':'
asbag57
(g78
g59
NtRp92
(dp93
g62
(dp94
sg71
g74
sg64
(lp95
g57
(g58
g59
NtRp96
(dp97
g62
(dp98
g70
I5
ssg71
g92
sg64
(lp99
S'False'
p100
asbasbasbag57
(g73
g59
NtRp101
(dp102
g62
(dp103
sg71
g67
sg64
(lp104
g57
(g78
g59
NtRp105
(dp106
g62
(dp107
g82
g83
ssg71
g101
sg64
(lp108
S'application'
p109
asbag57
(g78
g59
NtRp110
(dp111
g62
(dp112
g89
g90
ssg71
g101
sg64
(lp113
S':'
asbag57
(g78
g59
NtRp114
(dp115
g62
(dp116
sg71
g101
sg64
(lp117
g57
(g58
g59
NtRp118
(dp119
g62
(dp120
g70
I5
ssg71
g114
sg64
(lp121
S'projeto'
p122
asbasbasbag57
(g73
g59
NtRp123
(dp124
g62
(dp125
sg71
g67
sg64
(lp126
g57
(g78
g59
NtRp127
(dp128
g62
(dp129
g82
g83
ssg71
g123
sg64
(lp130
g24
asbag57
(g78
g59
NtRp131
(dp132
g62
(dp133
g89
g90
ssg71
g123
sg64
(lp134
S':'
asbag57
(g78
g59
NtRp135
(dp136
g62
(dp137
sg71
g123
sg64
(lp138
g57
(g58
g59
NtRp139
(dp140
g62
(dp141
g70
I5
ssg71
g135
sg64
(lp142
g57
(g66
g59
NtRp143
(dp144
g62
(dp145
g70
I4
ssg71
Nsg64
(lp146
sbasbasbasbag57
(g73
g59
NtRp147
(dp148
g62
(dp149
sg71
g67
sg64
(lp150
g57
(g78
g59
NtRp151
(dp152
g62
(dp153
g82
g83
ssg71
g147
sg64
(lp154
S'body'
p155
asbag57
(g78
g59
NtRp156
(dp157
g62
(dp158
g89
g90
ssg71
g147
sg64
(lp159
S':'
asbag57
(g78
g59
NtRp160
(dp161
g62
(dp162
sg71
g147
sg64
(lp163
g57
(g58
g59
NtRp164
(dp165
g62
(dp166
g70
I5
ssg71
g160
sg64
(lp167
S'<cStringIO.StringO object at 0x7fb4b0363ea0>'
p168
asbasbasbag57
(g73
g59
NtRp169
(dp170
g62
(dp171
sg71
g67
sg64
(lp172
g57
(g78
g59
NtRp173
(dp174
g62
(dp175
g82
g83
ssg71
g169
sg64
(lp176
S'cid'
p177
asbag57
(g78
g59
NtRp178
(dp179
g62
(dp180
g89
g90
ssg71
g169
sg64
(lp181
S':'
asbag57
(g78
g59
NtRp182
(dp183
g62
(dp184
sg71
g169
sg64
(lp185
g57
(g58
g59
NtRp186
(dp187
g62
(dp188
g70
I5
ssg71
g182
sg64
(lp189
S'None'
p190
asbasbasbag57
(g73
g59
NtRp191
(dp192
g62
(dp193
sg71
g67
sg64
(lp194
g57
(g78
g59
NtRp195
(dp196
g62
(dp197
g82
g83
ssg71
g191
sg64
(lp198
S'client'
p199
asbag57
(g78
g59
NtRp200
(dp201
g62
(dp202
g89
g90
ssg71
g191
sg64
(lp203
S':'
asbag57
(g78
g59
NtRp204
(dp205
g62
(dp206
sg71
g191
sg64
(lp207
g57
(g58
g59
NtRp208
(dp209
g62
(dp210
g70
I5
ssg71
g204
sg64
(lp211
S'127.0.0.1'
p212
asbasbasbag57
(g73
g59
NtRp213
(dp214
g62
(dp215
sg71
g67
sg64
(lp216
g57
(g78
g59
NtRp217
(dp218
g62
(dp219
g82
g83
ssg71
g213
sg64
(lp220
S'controller'
p221
asbag57
(g78
g59
NtRp222
(dp223
g62
(dp224
g89
g90
ssg71
g213
sg64
(lp225
S':'
asbag57
(g78
g59
NtRp226
(dp227
g62
(dp228
sg71
g213
sg64
(lp229
g57
(g58
g59
NtRp230
(dp231
g62
(dp232
g70
I5
ssg71
g226
sg64
(lp233
S'initial'
p234
asbasbasbag57
(g73
g59
NtRp235
(dp236
g62
(dp237
sg71
g67
sg64
(lp238
g57
(g78
g59
NtRp239
(dp240
g62
(dp241
g82
g83
ssg71
g235
sg64
(lp242
S'cookies'
p243
asbag57
(g78
g59
NtRp244
(dp245
g62
(dp246
g89
g90
ssg71
g235
sg64
(lp247
S':'
asbag57
(g78
g59
NtRp248
(dp249
g62
(dp250
sg71
g235
sg64
(lp251
g57
(g58
g59
NtRp252
(dp253
g62
(dp254
g70
I5
ssg71
g248
sg64
(lp255
g57
(g66
g59
NtRp256
(dp257
g62
(dp258
g70
I4
ssg71
Nsg64
(lp259
g57
(g73
g59
NtRp260
(dp261
g62
(dp262
sg71
g256
sg64
(lp263
g57
(g78
g59
NtRp264
(dp265
g62
(dp266
g82
g83
ssg71
g260
sg64
(lp267
S'admin'
p268
asbag57
(g78
g59
NtRp269
(dp270
g62
(dp271
g89
g90
ssg71
g260
sg64
(lp272
S':'
asbag57
(g78
g59
NtRp273
(dp274
g62
(dp275
sg71
g260
sg64
(lp276
g57
(g58
g59
NtRp277
(dp278
g62
(dp279
g70
I4
ssg71
g273
sg64
(lp280
S'admin'
p281
ag57
(g66
g59
NtRp282
(dp283
g62
(dp284
g70
I3
ssg71
Nsg64
(lp285
g57
(g73
g59
NtRp286
(dp287
g62
(dp288
sg71
g282
sg64
(lp289
g57
(g78
g59
NtRp290
(dp291
g62
(dp292
g82
g83
ssg71
g286
sg64
(lp293
S'comment'
p294
asbag57
(g78
g59
NtRp295
(dp296
g62
(dp297
g89
g90
ssg71
g286
sg64
(lp298
S':'
asbag57
(g78
g59
NtRp299
(dp300
g62
(dp301
sg71
g286
sg64
(lp302
g57
(g58
g59
NtRp303
(dp304
g62
(dp305
g70
I3
ssg71
g299
sg64
(lp306
S''
asbasbasbag57
(g73
g59
NtRp307
(dp308
g62
(dp309
sg71
g282
sg64
(lp310
g57
(g78
g59
NtRp311
(dp312
g62
(dp313
g82
g83
ssg71
g307
sg64
(lp314
S'domain'
p315
asbag57
(g78
g59
NtRp316
(dp317
g62
(dp318
g89
g90
ssg71
g307
sg64
(lp319
S':'
asbag57
(g78
g59
NtRp320
(dp321
g62
(dp322
sg71
g307
sg64
(lp323
g57
(g58
g59
NtRp324
(dp325
g62
(dp326
g70
I3
ssg71
g320
sg64
(lp327
S''
asbasbasbag57
(g73
g59
NtRp328
(dp329
g62
(dp330
sg71
g282
sg64
(lp331
g57
(g78
g59
NtRp332
(dp333
g62
(dp334
g82
g83
ssg71
g328
sg64
(lp335
S'expires'
p336
asbag57
(g78
g59
NtRp337
(dp338
g62
(dp339
g89
g90
ssg71
g328
sg64
(lp340
S':'
asbag57
(g78
g59
NtRp341
(dp342
g62
(dp343
sg71
g328
sg64
(lp344
g57
(g58
g59
NtRp345
(dp346
g62
(dp347
g70
I3
ssg71
g341
sg64
(lp348
S''
asbasbasbag57
(g73
g59
NtRp349
(dp350
g62
(dp351
sg71
g282
sg64
(lp352
g57
(g78
g59
NtRp353
(dp354
g62
(dp355
g82
g83
ssg71
g349
sg64
(lp356
S'httponly'
p357
asbag57
(g78
g59
NtRp358
(dp359
g62
(dp360
g89
g90
ssg71
g349
sg64
(lp361
S':'
asbag57
(g78
g59
NtRp362
(dp363
g62
(dp364
sg71
g349
sg64
(lp365
g57
(g58
g59
NtRp366
(dp367
g62
(dp368
g70
I3
ssg71
g362
sg64
(lp369
S''
asbasbasbag57
(g73
g59
NtRp370
(dp371
g62
(dp372
sg71
g282
sg64
(lp373
g57
(g78
g59
NtRp374
(dp375
g62
(dp376
g82
g83
ssg71
g370
sg64
(lp377
S'max-age'
p378
asbag57
(g78
g59
NtRp379
(dp380
g62
(dp381
g89
g90
ssg71
g370
sg64
(lp382
S':'
asbag57
(g78
g59
NtRp383
(dp384
g62
(dp385
sg71
g370
sg64
(lp386
g57
(g58
g59
NtRp387
(dp388
g62
(dp389
g70
I3
ssg71
g383
sg64
(lp390
S''
asbasbasbag57
(g73
g59
NtRp391
(dp392
g62
(dp393
sg71
g282
sg64
(lp394
g57
(g78
g59
NtRp395
(dp396
g62
(dp397
g82
g83
ssg71
g391
sg64
(lp398
S'path'
p399
asbag57
(g78
g59
NtRp400
(dp401
g62
(dp402
g89
g90
ssg71
g391
sg64
(lp403
S':'
asbag57
(g78
g59
NtRp404
(dp405
g62
(dp406
sg71
g391
sg64
(lp407
g57
(g58
g59
NtRp408
(dp409
g62
(dp410
g70
I3
ssg71
g404
sg64
(lp411
S''
asbasbasbag57
(g73
g59
NtRp412
(dp413
g62
(dp414
sg71
g282
sg64
(lp415
g57
(g78
g59
NtRp416
(dp417
g62
(dp418
g82
g83
ssg71
g412
sg64
(lp419
S'secure'
p420
asbag57
(g78
g59
NtRp421
(dp422
g62
(dp423
g89
g90
ssg71
g412
sg64
(lp424
S':'
asbag57
(g78
g59
NtRp425
(dp426
g62
(dp427
sg71
g412
sg64
(lp428
g57
(g58
g59
NtRp429
(dp430
g62
(dp431
g70
I3
ssg71
g425
sg64
(lp432
S''
asbasbasbag57
(g73
g59
NtRp433
(dp434
g62
(dp435
sg71
g282
sg64
(lp436
g57
(g78
g59
NtRp437
(dp438
g62
(dp439
g82
g83
ssg71
g433
sg64
(lp440
S'version'
p441
asbag57
(g78
g59
NtRp442
(dp443
g62
(dp444
g89
g90
ssg71
g433
sg64
(lp445
S':'
asbag57
(g78
g59
NtRp446
(dp447
g62
(dp448
sg71
g433
sg64
(lp449
g57
(g58
g59
NtRp450
(dp451
g62
(dp452
g70
I3
ssg71
g446
sg64
(lp453
S''
asbasbasbasbasbasbasbag57
(g73
g59
NtRp454
(dp455
g62
(dp456
sg71
g256
sg64
(lp457
g57
(g78
g59
NtRp458
(dp459
g62
(dp460
g82
g83
ssg71
g454
sg64
(lp461
S'cookie'
p462
asbag57
(g78
g59
NtRp463
(dp464
g62
(dp465
g89
g90
ssg71
g454
sg64
(lp466
S':'
asbag57
(g78
g59
NtRp467
(dp468
g62
(dp469
sg71
g454
sg64
(lp470
g57
(g58
g59
NtRp471
(dp472
g62
(dp473
g70
I4
ssg71
g467
sg64
(lp474
S'1649423593'
p475
ag57
(g66
g59
NtRp476
(dp477
g62
(dp478
g70
I3
ssg71
Nsg64
(lp479
g57
(g73
g59
NtRp480
(dp481
g62
(dp482
sg71
g476
sg64
(lp483
g57
(g78
g59
NtRp484
(dp485
g62
(dp486
g82
g83
ssg71
g480
sg64
(lp487
g294
asbag57
(g78
g59
NtRp488
(dp489
g62
(dp490
g89
g90
ssg71
g480
sg64
(lp491
S':'
asbag57
(g78
g59
NtRp492
(dp493
g62
(dp494
sg71
g480
sg64
(lp495
g57
(g58
g59
NtRp496
(dp497
g62
(dp498
g70
I3
ssg71
g492
sg64
(lp499
S''
asbasbasbag57
(g73
g59
NtRp500
(dp501
g62
(dp502
sg71
g476
sg64
(lp503
g57
(g78
g59
NtRp504
(dp505
g62
(dp506
g82
g83
ssg71
g500
sg64
(lp507
g315
asbag57
(g78
g59
NtRp508
(dp509
g62
(dp510
g89
g90
ssg71
g500
sg64
(lp511
S':'
asbag57
(g78
g59
NtRp512
(dp513
g62
(dp514
sg71
g500
sg64
(lp515
g57
(g58
g59
NtRp516
(dp517
g62
(dp518
g70
I3
ssg71
g512
sg64
(lp519
S''
asbasbasbag57
(g73
g59
NtRp520
(dp521
g62
(dp522
sg71
g476
sg64
(lp523
g57
(g78
g59
NtRp524
(dp525
g62
(dp526
g82
g83
ssg71
g520
sg64
(lp527
g336
asbag57
(g78
g59
NtRp528
(dp529
g62
(dp530
g89
g90
ssg71
g520
sg64
(lp531
S':'
asbag57
(g78
g59
NtRp532
(dp533
g62
(dp534
sg71
g520
sg64
(lp535
g57
(g58
g59
NtRp536
(dp537
g62
(dp538
g70
I3
ssg71
g532
sg64
(lp539
S''
asbasbasbag57
(g73
g59
NtRp540
(dp541
g62
(dp542
sg71
g476
sg64
(lp543
g57
(g78
g59
NtRp544
(dp545
g62
(dp546
g82
g83
ssg71
g540
sg64
(lp547
g357
asbag57
(g78
g59
NtRp548
(dp549
g62
(dp550
g89
g90
ssg71
g540
sg64
(lp551
S':'
asbag57
(g78
g59
NtRp552
(dp553
g62
(dp554
sg71
g540
sg64
(lp555
g57
(g58
g59
NtRp556
(dp557
g62
(dp558
g70
I3
ssg71
g552
sg64
(lp559
S''
asbasbasbag57
(g73
g59
NtRp560
(dp561
g62
(dp562
sg71
g476
sg64
(lp563
g57
(g78
g59
NtRp564
(dp565
g62
(dp566
g82
g83
ssg71
g560
sg64
(lp567
g378
asbag57
(g78
g59
NtRp568
(dp569
g62
(dp570
g89
g90
ssg71
g560
sg64
(lp571
S':'
asbag57
(g78
g59
NtRp572
(dp573
g62
(dp574
sg71
g560
sg64
(lp575
g57
(g58
g59
NtRp576
(dp577
g62
(dp578
g70
I3
ssg71
g572
sg64
(lp579
S''
asbasbasbag57
(g73
g59
NtRp580
(dp581
g62
(dp582
sg71
g476
sg64
(lp583
g57
(g78
g59
NtRp584
(dp585
g62
(dp586
g82
g83
ssg71
g580
sg64
(lp587
g399
asbag57
(g78
g59
NtRp588
(dp589
g62
(dp590
g89
g90
ssg71
g580
sg64
(lp591
S':'
asbag57
(g78
g59
NtRp592
(dp593
g62
(dp594
sg71
g580
sg64
(lp595
g57
(g58
g59
NtRp596
(dp597
g62
(dp598
g70
I3
ssg71
g592
sg64
(lp599
S''
asbasbasbag57
(g73
g59
NtRp600
(dp601
g62
(dp602
sg71
g476
sg64
(lp603
g57
(g78
g59
NtRp604
(dp605
g62
(dp606
g82
g83
ssg71
g600
sg64
(lp607
g420
asbag57
(g78
g59
NtRp608
(dp609
g62
(dp610
g89
g90
ssg71
g600
sg64
(lp611
S':'
asbag57
(g78
g59
NtRp612
(dp613
g62
(dp614
sg71
g600
sg64
(lp615
g57
(g58
g59
NtRp616
(dp617
g62
(dp618
g70
I3
ssg71
g612
sg64
(lp619
S''
asbasbasbag57
(g73
g59
NtRp620
(dp621
g62
(dp622
sg71
g476
sg64
(lp623
g57
(g78
g59
NtRp624
(dp625
g62
(dp626
g82
g83
ssg71
g620
sg64
(lp627
g441
asbag57
(g78
g59
NtRp628
(dp629
g62
(dp630
g89
g90
ssg71
g620
sg64
(lp631
S':'
asbag57
(g78
g59
NtRp632
(dp633
g62
(dp634
sg71
g620
sg64
(lp635
g57
(g58
g59
NtRp636
(dp637
g62
(dp638
g70
I3
ssg71
g632
sg64
(lp639
S''
asbasbasbasbasbasbasbag57
(g73
g59
NtRp640
(dp641
g62
(dp642
sg71
g256
sg64
(lp643
g57
(g78
g59
NtRp644
(dp645
g62
(dp646
g82
g83
ssg71
g640
sg64
(lp647
S'hw_type'
p648
asbag57
(g78
g59
NtRp649
(dp650
g62
(dp651
g89
g90
ssg71
g640
sg64
(lp652
S':'
asbag57
(g78
g59
NtRp653
(dp654
g62
(dp655
sg71
g640
sg64
(lp656
g57
(g58
g59
NtRp657
(dp658
g62
(dp659
g70
I4
ssg71
g653
sg64
(lp660
S'MX60'
p661
ag57
(g66
g59
NtRp662
(dp663
g62
(dp664
g70
I3
ssg71
Nsg64
(lp665
g57
(g73
g59
NtRp666
(dp667
g62
(dp668
sg71
g662
sg64
(lp669
g57
(g78
g59
NtRp670
(dp671
g62
(dp672
g82
g83
ssg71
g666
sg64
(lp673
g294
asbag57
(g78
g59
NtRp674
(dp675
g62
(dp676
g89
g90
ssg71
g666
sg64
(lp677
S':'
asbag57
(g78
g59
NtRp678
(dp679
g62
(dp680
sg71
g666
sg64
(lp681
g57
(g58
g59
NtRp682
(dp683
g62
(dp684
g70
I3
ssg71
g678
sg64
(lp685
S''
asbasbasbag57
(g73
g59
NtRp686
(dp687
g62
(dp688
sg71
g662
sg64
(lp689
g57
(g78
g59
NtRp690
(dp691
g62
(dp692
g82
g83
ssg71
g686
sg64
(lp693
g315
asbag57
(g78
g59
NtRp694
(dp695
g62
(dp696
g89
g90
ssg71
g686
sg64
(lp697
S':'
asbag57
(g78
g59
NtRp698
(dp699
g62
(dp700
sg71
g686
sg64
(lp701
g57
(g58
g59
NtRp702
(dp703
g62
(dp704
g70
I3
ssg71
g698
sg64
(lp705
S''
asbasbasbag57
(g73
g59
NtRp706
(dp707
g62
(dp708
sg71
g662
sg64
(lp709
g57
(g78
g59
NtRp710
(dp711
g62
(dp712
g82
g83
ssg71
g706
sg64
(lp713
g336
asbag57
(g78
g59
NtRp714
(dp715
g62
(dp716
g89
g90
ssg71
g706
sg64
(lp717
S':'
asbag57
(g78
g59
NtRp718
(dp719
g62
(dp720
sg71
g706
sg64
(lp721
g57
(g58
g59
NtRp722
(dp723
g62
(dp724
g70
I3
ssg71
g718
sg64
(lp725
S''
asbasbasbag57
(g73
g59
NtRp726
(dp727
g62
(dp728
sg71
g662
sg64
(lp729
g57
(g78
g59
NtRp730
(dp731
g62
(dp732
g82
g83
ssg71
g726
sg64
(lp733
g357
asbag57
(g78
g59
NtRp734
(dp735
g62
(dp736
g89
g90
ssg71
g726
sg64
(lp737
S':'
asbag57
(g78
g59
NtRp738
(dp739
g62
(dp740
sg71
g726
sg64
(lp741
g57
(g58
g59
NtRp742
(dp743
g62
(dp744
g70
I3
ssg71
g738
sg64
(lp745
S''
asbasbasbag57
(g73
g59
NtRp746
(dp747
g62
(dp748
sg71
g662
sg64
(lp749
g57
(g78
g59
NtRp750
(dp751
g62
(dp752
g82
g83
ssg71
g746
sg64
(lp753
g378
asbag57
(g78
g59
NtRp754
(dp755
g62
(dp756
g89
g90
ssg71
g746
sg64
(lp757
S':'
asbag57
(g78
g59
NtRp758
(dp759
g62
(dp760
sg71
g746
sg64
(lp761
g57
(g58
g59
NtRp762
(dp763
g62
(dp764
g70
I3
ssg71
g758
sg64
(lp765
S''
asbasbasbag57
(g73
g59
NtRp766
(dp767
g62
(dp768
sg71
g662
sg64
(lp769
g57
(g78
g59
NtRp770
(dp771
g62
(dp772
g82
g83
ssg71
g766
sg64
(lp773
g399
asbag57
(g78
g59
NtRp774
(dp775
g62
(dp776
g89
g90
ssg71
g766
sg64
(lp777
S':'
asbag57
(g78
g59
NtRp778
(dp779
g62
(dp780
sg71
g766
sg64
(lp781
g57
(g58
g59
NtRp782
(dp783
g62
(dp784
g70
I3
ssg71
g778
sg64
(lp785
S''
asbasbasbag57
(g73
g59
NtRp786
(dp787
g62
(dp788
sg71
g662
sg64
(lp789
g57
(g78
g59
NtRp790
(dp791
g62
(dp792
g82
g83
ssg71
g786
sg64
(lp793
g420
asbag57
(g78
g59
NtRp794
(dp795
g62
(dp796
g89
g90
ssg71
g786
sg64
(lp797
S':'
asbag57
(g78
g59
NtRp798
(dp799
g62
(dp800
sg71
g786
sg64
(lp801
g57
(g58
g59
NtRp802
(dp803
g62
(dp804
g70
I3
ssg71
g798
sg64
(lp805
S''
asbasbasbag57
(g73
g59
NtRp806
(dp807
g62
(dp808
sg71
g662
sg64
(lp809
g57
(g78
g59
NtRp810
(dp811
g62
(dp812
g82
g83
ssg71
g806
sg64
(lp813
g441
asbag57
(g78
g59
NtRp814
(dp815
g62
(dp816
g89
g90
ssg71
g806
sg64
(lp817
S':'
asbag57
(g78
g59
NtRp818
(dp819
g62
(dp820
sg71
g806
sg64
(lp821
g57
(g58
g59
NtRp822
(dp823
g62
(dp824
g70
I3
ssg71
g818
sg64
(lp825
S''
asbasbasbasbasbasbasbag57
(g73
g59
NtRp826
(dp827
g62
(dp828
sg71
g256
sg64
(lp829
g57
(g78
g59
NtRp830
(dp831
g62
(dp832
g82
g83
ssg71
g826
sg64
(lp833
S'hw_version'
p834
asbag57
(g78
g59
NtRp835
(dp836
g62
(dp837
g89
g90
ssg71
g826
sg64
(lp838
S':'
asbag57
(g78
g59
NtRp839
(dp840
g62
(dp841
sg71
g826
sg64
(lp842
g57
(g58
g59
NtRp843
(dp844
g62
(dp845
g70
I4
ssg71
g839
sg64
(lp846
S'Rev%201.9.82.316'
p847
ag57
(g66
g59
NtRp848
(dp849
g62
(dp850
g70
I3
ssg71
Nsg64
(lp851
g57
(g73
g59
NtRp852
(dp853
g62
(dp854
sg71
g848
sg64
(lp855
g57
(g78
g59
NtRp856
(dp857
g62
(dp858
g82
g83
ssg71
g852
sg64
(lp859
g294
asbag57
(g78
g59
NtRp860
(dp861
g62
(dp862
g89
g90
ssg71
g852
sg64
(lp863
S':'
asbag57
(g78
g59
NtRp864
(dp865
g62
(dp866
sg71
g852
sg64
(lp867
g57
(g58
g59
NtRp868
(dp869
g62
(dp870
g70
I3
ssg71
g864
sg64
(lp871
S''
asbasbasbag57
(g73
g59
NtRp872
(dp873
g62
(dp874
sg71
g848
sg64
(lp875
g57
(g78
g59
NtRp876
(dp877
g62
(dp878
g82
g83
ssg71
g872
sg64
(lp879
g315
asbag57
(g78
g59
NtRp880
(dp881
g62
(dp882
g89
g90
ssg71
g872
sg64
(lp883
S':'
asbag57
(g78
g59
NtRp884
(dp885
g62
(dp886
sg71
g872
sg64
(lp887
g57
(g58
g59
NtRp888
(dp889
g62
(dp890
g70
I3
ssg71
g884
sg64
(lp891
S''
asbasbasbag57
(g73
g59
NtRp892
(dp893
g62
(dp894
sg71
g848
sg64
(lp895
g57
(g78
g59
NtRp896
(dp897
g62
(dp898
g82
g83
ssg71
g892
sg64
(lp899
g336
asbag57
(g78
g59
NtRp900
(dp901
g62
(dp902
g89
g90
ssg71
g892
sg64
(lp903
S':'
asbag57
(g78
g59
NtRp904
(dp905
g62
(dp906
sg71
g892
sg64
(lp907
g57
(g58
g59
NtRp908
(dp909
g62
(dp910
g70
I3
ssg71
g904
sg64
(lp911
S''
asbasbasbag57
(g73
g59
NtRp912
(dp913
g62
(dp914
sg71
g848
sg64
(lp915
g57
(g78
g59
NtRp916
(dp917
g62
(dp918
g82
g83
ssg71
g912
sg64
(lp919
g357
asbag57
(g78
g59
NtRp920
(dp921
g62
(dp922
g89
g90
ssg71
g912
sg64
(lp923
S':'
asbag57
(g78
g59
NtRp924
(dp925
g62
(dp926
sg71
g912
sg64
(lp927
g57
(g58
g59
NtRp928
(dp929
g62
(dp930
g70
I3
ssg71
g924
sg64
(lp931
S''
asbasbasbag57
(g73
g59
NtRp932
(dp933
g62
(dp934
sg71
g848
sg64
(lp935
g57
(g78
g59
NtRp936
(dp937
g62
(dp938
g82
g83
ssg71
g932
sg64
(lp939
g378
asbag57
(g78
g59
NtRp940
(dp941
g62
(dp942
g89
g90
ssg71
g932
sg64
(lp943
S':'
asbag57
(g78
g59
NtRp944
(dp945
g62
(dp946
sg71
g932
sg64
(lp947
g57
(g58
g59
NtRp948
(dp949
g62
(dp950
g70
I3
ssg71
g944
sg64
(lp951
S''
asbasbasbag57
(g73
g59
NtRp952
(dp953
g62
(dp954
sg71
g848
sg64
(lp955
g57
(g78
g59
NtRp956
(dp957
g62
(dp958
g82
g83
ssg71
g952
sg64
(lp959
g399
asbag57
(g78
g59
NtRp960
(dp961
g62
(dp962
g89
g90
ssg71
g952
sg64
(lp963
S':'
asbag57
(g78
g59
NtRp964
(dp965
g62
(dp966
sg71
g952
sg64
(lp967
g57
(g58
g59
NtRp968
(dp969
g62
(dp970
g70
I3
ssg71
g964
sg64
(lp971
S''
asbasbasbag57
(g73
g59
NtRp972
(dp973
g62
(dp974
sg71
g848
sg64
(lp975
g57
(g78
g59
NtRp976
(dp977
g62
(dp978
g82
g83
ssg71
g972
sg64
(lp979
g420
asbag57
(g78
g59
NtRp980
(dp981
g62
(dp982
g89
g90
ssg71
g972
sg64
(lp983
S':'
asbag57
(g78
g59
NtRp984
(dp985
g62
(dp986
sg71
g972
sg64
(lp987
g57
(g58
g59
NtRp988
(dp989
g62
(dp990
g70
I3
ssg71
g984
sg64
(lp991
S''
asbasbasbag57
(g73
g59
NtRp992
(dp993
g62
(dp994
sg71
g848
sg64
(lp995
g57
(g78
g59
NtRp996
(dp997
g62
(dp998
g82
g83
ssg71
g992
sg64
(lp999
g441
asbag57
(g78
g59
NtRp1000
(dp1001
g62
(dp1002
g89
g90
ssg71
g992
sg64
(lp1003
S':'
asbag57
(g78
g59
NtRp1004
(dp1005
g62
(dp1006
sg71
g992
sg64
(lp1007
g57
(g58
g59
NtRp1008
(dp1009
g62
(dp1010
g70
I3
ssg71
g1004
sg64
(lp1011
S''
asbasbasbasbasbasbasbag57
(g73
g59
NtRp1012
(dp1013
g62
(dp1014
sg71
g256
sg64
(lp1015
g57
(g78
g59
NtRp1016
(dp1017
g62
(dp1018
g82
g83
ssg71
g1012
sg64
(lp1019
S'language'
p1020
asbag57
(g78
g59
NtRp1021
(dp1022
g62
(dp1023
g89
g90
ssg71
g1012
sg64
(lp1024
S':'
asbag57
(g78
g59
NtRp1025
(dp1026
g62
(dp1027
sg71
g1012
sg64
(lp1028
g57
(g58
g59
NtRp1029
(dp1030
g62
(dp1031
g70
I4
ssg71
g1025
sg64
(lp1032
S'1'
ag57
(g66
g59
NtRp1033
(dp1034
g62
(dp1035
g70
I3
ssg71
Nsg64
(lp1036
g57
(g73
g59
NtRp1037
(dp1038
g62
(dp1039
sg71
g1033
sg64
(lp1040
g57
(g78
g59
NtRp1041
(dp1042
g62
(dp1043
g82
g83
ssg71
g1037
sg64
(lp1044
g294
asbag57
(g78
g59
NtRp1045
(dp1046
g62
(dp1047
g89
g90
ssg71
g1037
sg64
(lp1048
S':'
asbag57
(g78
g59
NtRp1049
(dp1050
g62
(dp1051
sg71
g1037
sg64
(lp1052
g57
(g58
g59
NtRp1053
(dp1054
g62
(dp1055
g70
I3
ssg71
g1049
sg64
(lp1056
S''
asbasbasbag57
(g73
g59
NtRp1057
(dp1058
g62
(dp1059
sg71
g1033
sg64
(lp1060
g57
(g78
g59
NtRp1061
(dp1062
g62
(dp1063
g82
g83
ssg71
g1057
sg64
(lp1064
g315
asbag57
(g78
g59
NtRp1065
(dp1066
g62
(dp1067
g89
g90
ssg71
g1057
sg64
(lp1068
S':'
asbag57
(g78
g59
NtRp1069
(dp1070
g62
(dp1071
sg71
g1057
sg64
(lp1072
g57
(g58
g59
NtRp1073
(dp1074
g62
(dp1075
g70
I3
ssg71
g1069
sg64
(lp1076
S''
asbasbasbag57
(g73
g59
NtRp1077
(dp1078
g62
(dp1079
sg71
g1033
sg64
(lp1080
g57
(g78
g59
NtRp1081
(dp1082
g62
(dp1083
g82
g83
ssg71
g1077
sg64
(lp1084
g336
asbag57
(g78
g59
NtRp1085
(dp1086
g62
(dp1087
g89
g90
ssg71
g1077
sg64
(lp1088
S':'
asbag57
(g78
g59
NtRp1089
(dp1090
g62
(dp1091
sg71
g1077
sg64
(lp1092
g57
(g58
g59
NtRp1093
(dp1094
g62
(dp1095
g70
I3
ssg71
g1089
sg64
(lp1096
S''
asbasbasbag57
(g73
g59
NtRp1097
(dp1098
g62
(dp1099
sg71
g1033
sg64
(lp1100
g57
(g78
g59
NtRp1101
(dp1102
g62
(dp1103
g82
g83
ssg71
g1097
sg64
(lp1104
g357
asbag57
(g78
g59
NtRp1105
(dp1106
g62
(dp1107
g89
g90
ssg71
g1097
sg64
(lp1108
S':'
asbag57
(g78
g59
NtRp1109
(dp1110
g62
(dp1111
sg71
g1097
sg64
(lp1112
g57
(g58
g59
NtRp1113
(dp1114
g62
(dp1115
g70
I3
ssg71
g1109
sg64
(lp1116
S''
asbasbasbag57
(g73
g59
NtRp1117
(dp1118
g62
(dp1119
sg71
g1033
sg64
(lp1120
g57
(g78
g59
NtRp1121
(dp1122
g62
(dp1123
g82
g83
ssg71
g1117
sg64
(lp1124
g378
asbag57
(g78
g59
NtRp1125
(dp1126
g62
(dp1127
g89
g90
ssg71
g1117
sg64
(lp1128
S':'
asbag57
(g78
g59
NtRp1129
(dp1130
g62
(dp1131
sg71
g1117
sg64
(lp1132
g57
(g58
g59
NtRp1133
(dp1134
g62
(dp1135
g70
I3
ssg71
g1129
sg64
(lp1136
S''
asbasbasbag57
(g73
g59
NtRp1137
(dp1138
g62
(dp1139
sg71
g1033
sg64
(lp1140
g57
(g78
g59
NtRp1141
(dp1142
g62
(dp1143
g82
g83
ssg71
g1137
sg64
(lp1144
g399
asbag57
(g78
g59
NtRp1145
(dp1146
g62
(dp1147
g89
g90
ssg71
g1137
sg64
(lp1148
S':'
asbag57
(g78
g59
NtRp1149
(dp1150
g62
(dp1151
sg71
g1137
sg64
(lp1152
g57
(g58
g59
NtRp1153
(dp1154
g62
(dp1155
g70
I3
ssg71
g1149
sg64
(lp1156
S''
asbasbasbag57
(g73
g59
NtRp1157
(dp1158
g62
(dp1159
sg71
g1033
sg64
(lp1160
g57
(g78
g59
NtRp1161
(dp1162
g62
(dp1163
g82
g83
ssg71
g1157
sg64
(lp1164
g420
asbag57
(g78
g59
NtRp1165
(dp1166
g62
(dp1167
g89
g90
ssg71
g1157
sg64
(lp1168
S':'
asbag57
(g78
g59
NtRp1169
(dp1170
g62
(dp1171
sg71
g1157
sg64
(lp1172
g57
(g58
g59
NtRp1173
(dp1174
g62
(dp1175
g70
I3
ssg71
g1169
sg64
(lp1176
S''
asbasbasbag57
(g73
g59
NtRp1177
(dp1178
g62
(dp1179
sg71
g1033
sg64
(lp1180
g57
(g78
g59
NtRp1181
(dp1182
g62
(dp1183
g82
g83
ssg71
g1177
sg64
(lp1184
g441
asbag57
(g78
g59
NtRp1185
(dp1186
g62
(dp1187
g89
g90
ssg71
g1177
sg64
(lp1188
S':'
asbag57
(g78
g59
NtRp1189
(dp1190
g62
(dp1191
sg71
g1177
sg64
(lp1192
g57
(g58
g59
NtRp1193
(dp1194
g62
(dp1195
g70
I3
ssg71
g1189
sg64
(lp1196
S''
asbasbasbasbasbasbasbag57
(g73
g59
NtRp1197
(dp1198
g62
(dp1199
sg71
g256
sg64
(lp1200
g57
(g78
g59
NtRp1201
(dp1202
g62
(dp1203
g82
g83
ssg71
g1197
sg64
(lp1204
S'model'
p1205
asbag57
(g78
g59
NtRp1206
(dp1207
g62
(dp1208
g89
g90
ssg71
g1197
sg64
(lp1209
S':'
asbag57
(g78
g59
NtRp1210
(dp1211
g62
(dp1212
sg71
g1197
sg64
(lp1213
g57
(g58
g59
NtRp1214
(dp1215
g62
(dp1216
g70
I4
ssg71
g1210
sg64
(lp1217
S'MX'
p1218
ag57
(g66
g59
NtRp1219
(dp1220
g62
(dp1221
g70
I3
ssg71
Nsg64
(lp1222
g57
(g73
g59
NtRp1223
(dp1224
g62
(dp1225
sg71
g1219
sg64
(lp1226
g57
(g78
g59
NtRp1227
(dp1228
g62
(dp1229
g82
g83
ssg71
g1223
sg64
(lp1230
g294
asbag57
(g78
g59
NtRp1231
(dp1232
g62
(dp1233
g89
g90
ssg71
g1223
sg64
(lp1234
S':'
asbag57
(g78
g59
NtRp1235
(dp1236
g62
(dp1237
sg71
g1223
sg64
(lp1238
g57
(g58
g59
NtRp1239
(dp1240
g62
(dp1241
g70
I3
ssg71
g1235
sg64
(lp1242
S''
asbasbasbag57
(g73
g59
NtRp1243
(dp1244
g62
(dp1245
sg71
g1219
sg64
(lp1246
g57
(g78
g59
NtRp1247
(dp1248
g62
(dp1249
g82
g83
ssg71
g1243
sg64
(lp1250
g315
asbag57
(g78
g59
NtRp1251
(dp1252
g62
(dp1253
g89
g90
ssg71
g1243
sg64
(lp1254
S':'
asbag57
(g78
g59
NtRp1255
(dp1256
g62
(dp1257
sg71
g1243
sg64
(lp1258
g57
(g58
g59
NtRp1259
(dp1260
g62
(dp1261
g70
I3
ssg71
g1255
sg64
(lp1262
S''
asbasbasbag57
(g73
g59
NtRp1263
(dp1264
g62
(dp1265
sg71
g1219
sg64
(lp1266
g57
(g78
g59
NtRp1267
(dp1268
g62
(dp1269
g82
g83
ssg71
g1263
sg64
(lp1270
g336
asbag57
(g78
g59
NtRp1271
(dp1272
g62
(dp1273
g89
g90
ssg71
g1263
sg64
(lp1274
S':'
asbag57
(g78
g59
NtRp1275
(dp1276
g62
(dp1277
sg71
g1263
sg64
(lp1278
g57
(g58
g59
NtRp1279
(dp1280
g62
(dp1281
g70
I3
ssg71
g1275
sg64
(lp1282
S''
asbasbasbag57
(g73
g59
NtRp1283
(dp1284
g62
(dp1285
sg71
g1219
sg64
(lp1286
g57
(g78
g59
NtRp1287
(dp1288
g62
(dp1289
g82
g83
ssg71
g1283
sg64
(lp1290
g357
asbag57
(g78
g59
NtRp1291
(dp1292
g62
(dp1293
g89
g90
ssg71
g1283
sg64
(lp1294
S':'
asbag57
(g78
g59
NtRp1295
(dp1296
g62
(dp1297
sg71
g1283
sg64
(lp1298
g57
(g58
g59
NtRp1299
(dp1300
g62
(dp1301
g70
I3
ssg71
g1295
sg64
(lp1302
S''
asbasbasbag57
(g73
g59
NtRp1303
(dp1304
g62
(dp1305
sg71
g1219
sg64
(lp1306
g57
(g78
g59
NtRp1307
(dp1308
g62
(dp1309
g82
g83
ssg71
g1303
sg64
(lp1310
g378
asbag57
(g78
g59
NtRp1311
(dp1312
g62
(dp1313
g89
g90
ssg71
g1303
sg64
(lp1314
S':'
asbag57
(g78
g59
NtRp1315
(dp1316
g62
(dp1317
sg71
g1303
sg64
(lp1318
g57
(g58
g59
NtRp1319
(dp1320
g62
(dp1321
g70
I3
ssg71
g1315
sg64
(lp1322
S''
asbasbasbag57
(g73
g59
NtRp1323
(dp1324
g62
(dp1325
sg71
g1219
sg64
(lp1326
g57
(g78
g59
NtRp1327
(dp1328
g62
(dp1329
g82
g83
ssg71
g1323
sg64
(lp1330
g399
asbag57
(g78
g59
NtRp1331
(dp1332
g62
(dp1333
g89
g90
ssg71
g1323
sg64
(lp1334
S':'
asbag57
(g78
g59
NtRp1335
(dp1336
g62
(dp1337
sg71
g1323
sg64
(lp1338
g57
(g58
g59
NtRp1339
(dp1340
g62
(dp1341
g70
I3
ssg71
g1335
sg64
(lp1342
S''
asbasbasbag57
(g73
g59
NtRp1343
(dp1344
g62
(dp1345
sg71
g1219
sg64
(lp1346
g57
(g78
g59
NtRp1347
(dp1348
g62
(dp1349
g82
g83
ssg71
g1343
sg64
(lp1350
g420
asbag57
(g78
g59
NtRp1351
(dp1352
g62
(dp1353
g89
g90
ssg71
g1343
sg64
(lp1354
S':'
asbag57
(g78
g59
NtRp1355
(dp1356
g62
(dp1357
sg71
g1343
sg64
(lp1358
g57
(g58
g59
NtRp1359
(dp1360
g62
(dp1361
g70
I3
ssg71
g1355
sg64
(lp1362
S''
asbasbasbag57
(g73
g59
NtRp1363
(dp1364
g62
(dp1365
sg71
g1219
sg64
(lp1366
g57
(g78
g59
NtRp1367
(dp1368
g62
(dp1369
g82
g83
ssg71
g1363
sg64
(lp1370
g441
asbag57
(g78
g59
NtRp1371
(dp1372
g62
(dp1373
g89
g90
ssg71
g1363
sg64
(lp1374
S':'
asbag57
(g78
g59
NtRp1375
(dp1376
g62
(dp1377
sg71
g1363
sg64
(lp1378
g57
(g58
g59
NtRp1379
(dp1380
g62
(dp1381
g70
I3
ssg71
g1375
sg64
(lp1382
S''
asbasbasbasbasbasbasbag57
(g73
g59
NtRp1383
(dp1384
g62
(dp1385
sg71
g256
sg64
(lp1386
g57
(g78
g59
NtRp1387
(dp1388
g62
(dp1389
g82
g83
ssg71
g1383
sg64
(lp1390
S'nr'
p1391
asbag57
(g78
g59
NtRp1392
(dp1393
g62
(dp1394
g89
g90
ssg71
g1383
sg64
(lp1395
S':'
asbag57
(g78
g59
NtRp1396
(dp1397
g62
(dp1398
sg71
g1383
sg64
(lp1399
g57
(g58
g59
NtRp1400
(dp1401
g62
(dp1402
g70
I4
ssg71
g1396
sg64
(lp1403
S'1'
ag57
(g66
g59
NtRp1404
(dp1405
g62
(dp1406
g70
I3
ssg71
Nsg64
(lp1407
g57
(g73
g59
NtRp1408
(dp1409
g62
(dp1410
sg71
g1404
sg64
(lp1411
g57
(g78
g59
NtRp1412
(dp1413
g62
(dp1414
g82
g83
ssg71
g1408
sg64
(lp1415
g294
asbag57
(g78
g59
NtRp1416
(dp1417
g62
(dp1418
g89
g90
ssg71
g1408
sg64
(lp1419
S':'
asbag57
(g78
g59
NtRp1420
(dp1421
g62
(dp1422
sg71
g1408
sg64
(lp1423
g57
(g58
g59
NtRp1424
(dp1425
g62
(dp1426
g70
I3
ssg71
g1420
sg64
(lp1427
S''
asbasbasbag57
(g73
g59
NtRp1428
(dp1429
g62
(dp1430
sg71
g1404
sg64
(lp1431
g57
(g78
g59
NtRp1432
(dp1433
g62
(dp1434
g82
g83
ssg71
g1428
sg64
(lp1435
g315
asbag57
(g78
g59
NtRp1436
(dp1437
g62
(dp1438
g89
g90
ssg71
g1428
sg64
(lp1439
S':'
asbag57
(g78
g59
NtRp1440
(dp1441
g62
(dp1442
sg71
g1428
sg64
(lp1443
g57
(g58
g59
NtRp1444
(dp1445
g62
(dp1446
g70
I3
ssg71
g1440
sg64
(lp1447
S''
asbasbasbag57
(g73
g59
NtRp1448
(dp1449
g62
(dp1450
sg71
g1404
sg64
(lp1451
g57
(g78
g59
NtRp1452
(dp1453
g62
(dp1454
g82
g83
ssg71
g1448
sg64
(lp1455
g336
asbag57
(g78
g59
NtRp1456
(dp1457
g62
(dp1458
g89
g90
ssg71
g1448
sg64
(lp1459
S':'
asbag57
(g78
g59
NtRp1460
(dp1461
g62
(dp1462
sg71
g1448
sg64
(lp1463
g57
(g58
g59
NtRp1464
(dp1465
g62
(dp1466
g70
I3
ssg71
g1460
sg64
(lp1467
S''
asbasbasbag57
(g73
g59
NtRp1468
(dp1469
g62
(dp1470
sg71
g1404
sg64
(lp1471
g57
(g78
g59
NtRp1472
(dp1473
g62
(dp1474
g82
g83
ssg71
g1468
sg64
(lp1475
g357
asbag57
(g78
g59
NtRp1476
(dp1477
g62
(dp1478
g89
g90
ssg71
g1468
sg64
(lp1479
S':'
asbag57
(g78
g59
NtRp1480
(dp1481
g62
(dp1482
sg71
g1468
sg64
(lp1483
g57
(g58
g59
NtRp1484
(dp1485
g62
(dp1486
g70
I3
ssg71
g1480
sg64
(lp1487
S''
asbasbasbag57
(g73
g59
NtRp1488
(dp1489
g62
(dp1490
sg71
g1404
sg64
(lp1491
g57
(g78
g59
NtRp1492
(dp1493
g62
(dp1494
g82
g83
ssg71
g1488
sg64
(lp1495
g378
asbag57
(g78
g59
NtRp1496
(dp1497
g62
(dp1498
g89
g90
ssg71
g1488
sg64
(lp1499
S':'
asbag57
(g78
g59
NtRp1500
(dp1501
g62
(dp1502
sg71
g1488
sg64
(lp1503
g57
(g58
g59
NtRp1504
(dp1505
g62
(dp1506
g70
I3
ssg71
g1500
sg64
(lp1507
S''
asbasbasbag57
(g73
g59
NtRp1508
(dp1509
g62
(dp1510
sg71
g1404
sg64
(lp1511
g57
(g78
g59
NtRp1512
(dp1513
g62
(dp1514
g82
g83
ssg71
g1508
sg64
(lp1515
g399
asbag57
(g78
g59
NtRp1516
(dp1517
g62
(dp1518
g89
g90
ssg71
g1508
sg64
(lp1519
S':'
asbag57
(g78
g59
NtRp1520
(dp1521
g62
(dp1522
sg71
g1508
sg64
(lp1523
g57
(g58
g59
NtRp1524
(dp1525
g62
(dp1526
g70
I3
ssg71
g1520
sg64
(lp1527
S''
asbasbasbag57
(g73
g59
NtRp1528
(dp1529
g62
(dp1530
sg71
g1404
sg64
(lp1531
g57
(g78
g59
NtRp1532
(dp1533
g62
(dp1534
g82
g83
ssg71
g1528
sg64
(lp1535
g420
asbag57
(g78
g59
NtRp1536
(dp1537
g62
(dp1538
g89
g90
ssg71
g1528
sg64
(lp1539
S':'
asbag57
(g78
g59
NtRp1540
(dp1541
g62
(dp1542
sg71
g1528
sg64
(lp1543
g57
(g58
g59
NtRp1544
(dp1545
g62
(dp1546
g70
I3
ssg71
g1540
sg64
(lp1547
S''
asbasbasbag57
(g73
g59
NtRp1548
(dp1549
g62
(dp1550
sg71
g1404
sg64
(lp1551
g57
(g78
g59
NtRp1552
(dp1553
g62
(dp1554
g82
g83
ssg71
g1548
sg64
(lp1555
g441
asbag57
(g78
g59
NtRp1556
(dp1557
g62
(dp1558
g89
g90
ssg71
g1548
sg64
(lp1559
S':'
asbag57
(g78
g59
NtRp1560
(dp1561
g62
(dp1562
sg71
g1548
sg64
(lp1563
g57
(g58
g59
NtRp1564
(dp1565
g62
(dp1566
g70
I3
ssg71
g1560
sg64
(lp1567
S''
asbasbasbasbasbasbasbag57
(g73
g59
NtRp1568
(dp1569
g62
(dp1570
sg71
g256
sg64
(lp1571
g57
(g78
g59
NtRp1572
(dp1573
g62
(dp1574
g82
g83
ssg71
g1568
sg64
(lp1575
S'session_id_admin'
p1576
asbag57
(g78
g59
NtRp1577
(dp1578
g62
(dp1579
g89
g90
ssg71
g1568
sg64
(lp1580
S':'
asbag57
(g78
g59
NtRp1581
(dp1582
g62
(dp1583
sg71
g1568
sg64
(lp1584
g57
(g58
g59
NtRp1585
(dp1586
g62
(dp1587
g70
I4
ssg71
g1581
sg64
(lp1588
S'127.0.0.1-2137e5fc-73b0-4fcd-be7b-d2f46e1918b1'
p1589
ag57
(g66
g59
NtRp1590
(dp1591
g62
(dp1592
g70
I3
ssg71
Nsg64
(lp1593
g57
(g73
g59
NtRp1594
(dp1595
g62
(dp1596
sg71
g1590
sg64
(lp1597
g57
(g78
g59
NtRp1598
(dp1599
g62
(dp1600
g82
g83
ssg71
g1594
sg64
(lp1601
g294
asbag57
(g78
g59
NtRp1602
(dp1603
g62
(dp1604
g89
g90
ssg71
g1594
sg64
(lp1605
S':'
asbag57
(g78
g59
NtRp1606
(dp1607
g62
(dp1608
sg71
g1594
sg64
(lp1609
g57
(g58
g59
NtRp1610
(dp1611
g62
(dp1612
g70
I3
ssg71
g1606
sg64
(lp1613
S''
asbasbasbag57
(g73
g59
NtRp1614
(dp1615
g62
(dp1616
sg71
g1590
sg64
(lp1617
g57
(g78
g59
NtRp1618
(dp1619
g62
(dp1620
g82
g83
ssg71
g1614
sg64
(lp1621
g315
asbag57
(g78
g59
NtRp1622
(dp1623
g62
(dp1624
g89
g90
ssg71
g1614
sg64
(lp1625
S':'
asbag57
(g78
g59
NtRp1626
(dp1627
g62
(dp1628
sg71
g1614
sg64
(lp1629
g57
(g58
g59
NtRp1630
(dp1631
g62
(dp1632
g70
I3
ssg71
g1626
sg64
(lp1633
S''
asbasbasbag57
(g73
g59
NtRp1634
(dp1635
g62
(dp1636
sg71
g1590
sg64
(lp1637
g57
(g78
g59
NtRp1638
(dp1639
g62
(dp1640
g82
g83
ssg71
g1634
sg64
(lp1641
g336
asbag57
(g78
g59
NtRp1642
(dp1643
g62
(dp1644
g89
g90
ssg71
g1634
sg64
(lp1645
S':'
asbag57
(g78
g59
NtRp1646
(dp1647
g62
(dp1648
sg71
g1634
sg64
(lp1649
g57
(g58
g59
NtRp1650
(dp1651
g62
(dp1652
g70
I3
ssg71
g1646
sg64
(lp1653
S''
asbasbasbag57
(g73
g59
NtRp1654
(dp1655
g62
(dp1656
sg71
g1590
sg64
(lp1657
g57
(g78
g59
NtRp1658
(dp1659
g62
(dp1660
g82
g83
ssg71
g1654
sg64
(lp1661
g357
asbag57
(g78
g59
NtRp1662
(dp1663
g62
(dp1664
g89
g90
ssg71
g1654
sg64
(lp1665
S':'
asbag57
(g78
g59
NtRp1666
(dp1667
g62
(dp1668
sg71
g1654
sg64
(lp1669
g57
(g58
g59
NtRp1670
(dp1671
g62
(dp1672
g70
I3
ssg71
g1666
sg64
(lp1673
S''
asbasbasbag57
(g73
g59
NtRp1674
(dp1675
g62
(dp1676
sg71
g1590
sg64
(lp1677
g57
(g78
g59
NtRp1678
(dp1679
g62
(dp1680
g82
g83
ssg71
g1674
sg64
(lp1681
g378
asbag57
(g78
g59
NtRp1682
(dp1683
g62
(dp1684
g89
g90
ssg71
g1674
sg64
(lp1685
S':'
asbag57
(g78
g59
NtRp1686
(dp1687
g62
(dp1688
sg71
g1674
sg64
(lp1689
g57
(g58
g59
NtRp1690
(dp1691
g62
(dp1692
g70
I3
ssg71
g1686
sg64
(lp1693
S''
asbasbasbag57
(g73
g59
NtRp1694
(dp1695
g62
(dp1696
sg71
g1590
sg64
(lp1697
g57
(g78
g59
NtRp1698
(dp1699
g62
(dp1700
g82
g83
ssg71
g1694
sg64
(lp1701
g399
asbag57
(g78
g59
NtRp1702
(dp1703
g62
(dp1704
g89
g90
ssg71
g1694
sg64
(lp1705
S':'
asbag57
(g78
g59
NtRp1706
(dp1707
g62
(dp1708
sg71
g1694
sg64
(lp1709
g57
(g58
g59
NtRp1710
(dp1711
g62
(dp1712
g70
I3
ssg71
g1706
sg64
(lp1713
S''
asbasbasbag57
(g73
g59
NtRp1714
(dp1715
g62
(dp1716
sg71
g1590
sg64
(lp1717
g57
(g78
g59
NtRp1718
(dp1719
g62
(dp1720
g82
g83
ssg71
g1714
sg64
(lp1721
g420
asbag57
(g78
g59
NtRp1722
(dp1723
g62
(dp1724
g89
g90
ssg71
g1714
sg64
(lp1725
S':'
asbag57
(g78
g59
NtRp1726
(dp1727
g62
(dp1728
sg71
g1714
sg64
(lp1729
g57
(g58
g59
NtRp1730
(dp1731
g62
(dp1732
g70
I3
ssg71
g1726
sg64
(lp1733
S''
asbasbasbag57
(g73
g59
NtRp1734
(dp1735
g62
(dp1736
sg71
g1590
sg64
(lp1737
g57
(g78
g59
NtRp1738
(dp1739
g62
(dp1740
g82
g83
ssg71
g1734
sg64
(lp1741
g441
asbag57
(g78
g59
NtRp1742
(dp1743
g62
(dp1744
g89
g90
ssg71
g1734
sg64
(lp1745
S':'
asbag57
(g78
g59
NtRp1746
(dp1747
g62
(dp1748
sg71
g1734
sg64
(lp1749
g57
(g58
g59
NtRp1750
(dp1751
g62
(dp1752
g70
I3
ssg71
g1746
sg64
(lp1753
S''
asbasbasbasbasbasbasbag57
(g73
g59
NtRp1754
(dp1755
g62
(dp1756
sg71
g256
sg64
(lp1757
g57
(g78
g59
NtRp1758
(dp1759
g62
(dp1760
g82
g83
ssg71
g1754
sg64
(lp1761
S'session_id_projeto'
p1762
asbag57
(g78
g59
NtRp1763
(dp1764
g62
(dp1765
g89
g90
ssg71
g1754
sg64
(lp1766
S':'
asbag57
(g78
g59
NtRp1767
(dp1768
g62
(dp1769
sg71
g1754
sg64
(lp1770
g57
(g58
g59
NtRp1771
(dp1772
g62
(dp1773
g70
I4
ssg71
g1767
sg64
(lp1774
S'127.0.0.1-b8c6a9b4-3ce7-4a48-b40d-12b6c8d18d0a'
p1775
ag57
(g66
g59
NtRp1776
(dp1777
g62
(dp1778
g70
I3
ssg71
Nsg64
(lp1779
g57
(g73
g59
NtRp1780
(dp1781
g62
(dp1782
sg71
g1776
sg64
(lp1783
g57
(g78
g59
NtRp1784
(dp1785
g62
(dp1786
g82
g83
ssg71
g1780
sg64
(lp1787
g294
asbag57
(g78
g59
NtRp1788
(dp1789
g62
(dp1790
g89
g90
ssg71
g1780
sg64
(lp1791
S':'
asbag57
(g78
g59
NtRp1792
(dp1793
g62
(dp1794
sg71
g1780
sg64
(lp1795
g57
(g58
g59
NtRp1796
(dp1797
g62
(dp1798
g70
I3
ssg71
g1792
sg64
(lp1799
S''
asbasbasbag57
(g73
g59
NtRp1800
(dp1801
g62
(dp1802
sg71
g1776
sg64
(lp1803
g57
(g78
g59
NtRp1804
(dp1805
g62
(dp1806
g82
g83
ssg71
g1800
sg64
(lp1807
g315
asbag57
(g78
g59
NtRp1808
(dp1809
g62
(dp1810
g89
g90
ssg71
g1800
sg64
(lp1811
S':'
asbag57
(g78
g59
NtRp1812
(dp1813
g62
(dp1814
sg71
g1800
sg64
(lp1815
g57
(g58
g59
NtRp1816
(dp1817
g62
(dp1818
g70
I3
ssg71
g1812
sg64
(lp1819
S''
asbasbasbag57
(g73
g59
NtRp1820
(dp1821
g62
(dp1822
sg71
g1776
sg64
(lp1823
g57
(g78
g59
NtRp1824
(dp1825
g62
(dp1826
g82
g83
ssg71
g1820
sg64
(lp1827
g336
asbag57
(g78
g59
NtRp1828
(dp1829
g62
(dp1830
g89
g90
ssg71
g1820
sg64
(lp1831
S':'
asbag57
(g78
g59
NtRp1832
(dp1833
g62
(dp1834
sg71
g1820
sg64
(lp1835
g57
(g58
g59
NtRp1836
(dp1837
g62
(dp1838
g70
I3
ssg71
g1832
sg64
(lp1839
S''
asbasbasbag57
(g73
g59
NtRp1840
(dp1841
g62
(dp1842
sg71
g1776
sg64
(lp1843
g57
(g78
g59
NtRp1844
(dp1845
g62
(dp1846
g82
g83
ssg71
g1840
sg64
(lp1847
g357
asbag57
(g78
g59
NtRp1848
(dp1849
g62
(dp1850
g89
g90
ssg71
g1840
sg64
(lp1851
S':'
asbag57
(g78
g59
NtRp1852
(dp1853
g62
(dp1854
sg71
g1840
sg64
(lp1855
g57
(g58
g59
NtRp1856
(dp1857
g62
(dp1858
g70
I3
ssg71
g1852
sg64
(lp1859
S''
asbasbasbag57
(g73
g59
NtRp1860
(dp1861
g62
(dp1862
sg71
g1776
sg64
(lp1863
g57
(g78
g59
NtRp1864
(dp1865
g62
(dp1866
g82
g83
ssg71
g1860
sg64
(lp1867
g378
asbag57
(g78
g59
NtRp1868
(dp1869
g62
(dp1870
g89
g90
ssg71
g1860
sg64
(lp1871
S':'
asbag57
(g78
g59
NtRp1872
(dp1873
g62
(dp1874
sg71
g1860
sg64
(lp1875
g57
(g58
g59
NtRp1876
(dp1877
g62
(dp1878
g70
I3
ssg71
g1872
sg64
(lp1879
S''
asbasbasbag57
(g73
g59
NtRp1880
(dp1881
g62
(dp1882
sg71
g1776
sg64
(lp1883
g57
(g78
g59
NtRp1884
(dp1885
g62
(dp1886
g82
g83
ssg71
g1880
sg64
(lp1887
g399
asbag57
(g78
g59
NtRp1888
(dp1889
g62
(dp1890
g89
g90
ssg71
g1880
sg64
(lp1891
S':'
asbag57
(g78
g59
NtRp1892
(dp1893
g62
(dp1894
sg71
g1880
sg64
(lp1895
g57
(g58
g59
NtRp1896
(dp1897
g62
(dp1898
g70
I3
ssg71
g1892
sg64
(lp1899
S''
asbasbasbag57
(g73
g59
NtRp1900
(dp1901
g62
(dp1902
sg71
g1776
sg64
(lp1903
g57
(g78
g59
NtRp1904
(dp1905
g62
(dp1906
g82
g83
ssg71
g1900
sg64
(lp1907
g420
asbag57
(g78
g59
NtRp1908
(dp1909
g62
(dp1910
g89
g90
ssg71
g1900
sg64
(lp1911
S':'
asbag57
(g78
g59
NtRp1912
(dp1913
g62
(dp1914
sg71
g1900
sg64
(lp1915
g57
(g58
g59
NtRp1916
(dp1917
g62
(dp1918
g70
I3
ssg71
g1912
sg64
(lp1919
S''
asbasbasbag57
(g73
g59
NtRp1920
(dp1921
g62
(dp1922
sg71
g1776
sg64
(lp1923
g57
(g78
g59
NtRp1924
(dp1925
g62
(dp1926
g82
g83
ssg71
g1920
sg64
(lp1927
g441
asbag57
(g78
g59
NtRp1928
(dp1929
g62
(dp1930
g89
g90
ssg71
g1920
sg64
(lp1931
S':'
asbag57
(g78
g59
NtRp1932
(dp1933
g62
(dp1934
sg71
g1920
sg64
(lp1935
g57
(g58
g59
NtRp1936
(dp1937
g62
(dp1938
g70
I3
ssg71
g1932
sg64
(lp1939
S''
asbasbasbasbasbasbasbag57
(g73
g59
NtRp1940
(dp1941
g62
(dp1942
sg71
g256
sg64
(lp1943
g57
(g78
g59
NtRp1944
(dp1945
g62
(dp1946
g82
g83
ssg71
g1940
sg64
(lp1947
S'types'
p1948
asbag57
(g78
g59
NtRp1949
(dp1950
g62
(dp1951
g89
g90
ssg71
g1940
sg64
(lp1952
S':'
asbag57
(g78
g59
NtRp1953
(dp1954
g62
(dp1955
sg71
g1940
sg64
(lp1956
g57
(g58
g59
NtRp1957
(dp1958
g62
(dp1959
g70
I4
ssg71
g1953
sg64
(lp1960
S'Rev%201.0.1%20MX60-32S%20%20Kernel%201.0.11%20%28F%29'
p1961
ag57
(g66
g59
NtRp1962
(dp1963
g62
(dp1964
g70
I3
ssg71
Nsg64
(lp1965
g57
(g73
g59
NtRp1966
(dp1967
g62
(dp1968
sg71
g1962
sg64
(lp1969
g57
(g78
g59
NtRp1970
(dp1971
g62
(dp1972
g82
g83
ssg71
g1966
sg64
(lp1973
g294
asbag57
(g78
g59
NtRp1974
(dp1975
g62
(dp1976
g89
g90
ssg71
g1966
sg64
(lp1977
S':'
asbag57
(g78
g59
NtRp1978
(dp1979
g62
(dp1980
sg71
g1966
sg64
(lp1981
g57
(g58
g59
NtRp1982
(dp1983
g62
(dp1984
g70
I3
ssg71
g1978
sg64
(lp1985
S''
asbasbasbag57
(g73
g59
NtRp1986
(dp1987
g62
(dp1988
sg71
g1962
sg64
(lp1989
g57
(g78
g59
NtRp1990
(dp1991
g62
(dp1992
g82
g83
ssg71
g1986
sg64
(lp1993
g315
asbag57
(g78
g59
NtRp1994
(dp1995
g62
(dp1996
g89
g90
ssg71
g1986
sg64
(lp1997
S':'
asbag57
(g78
g59
NtRp1998
(dp1999
g62
(dp2000
sg71
g1986
sg64
(lp2001
g57
(g58
g59
NtRp2002
(dp2003
g62
(dp2004
g70
I3
ssg71
g1998
sg64
(lp2005
S''
asbasbasbag57
(g73
g59
NtRp2006
(dp2007
g62
(dp2008
sg71
g1962
sg64
(lp2009
g57
(g78
g59
NtRp2010
(dp2011
g62
(dp2012
g82
g83
ssg71
g2006
sg64
(lp2013
g336
asbag57
(g78
g59
NtRp2014
(dp2015
g62
(dp2016
g89
g90
ssg71
g2006
sg64
(lp2017
S':'
asbag57
(g78
g59
NtRp2018
(dp2019
g62
(dp2020
sg71
g2006
sg64
(lp2021
g57
(g58
g59
NtRp2022
(dp2023
g62
(dp2024
g70
I3
ssg71
g2018
sg64
(lp2025
S''
asbasbasbag57
(g73
g59
NtRp2026
(dp2027
g62
(dp2028
sg71
g1962
sg64
(lp2029
g57
(g78
g59
NtRp2030
(dp2031
g62
(dp2032
g82
g83
ssg71
g2026
sg64
(lp2033
g357
asbag57
(g78
g59
NtRp2034
(dp2035
g62
(dp2036
g89
g90
ssg71
g2026
sg64
(lp2037
S':'
asbag57
(g78
g59
NtRp2038
(dp2039
g62
(dp2040
sg71
g2026
sg64
(lp2041
g57
(g58
g59
NtRp2042
(dp2043
g62
(dp2044
g70
I3
ssg71
g2038
sg64
(lp2045
S''
asbasbasbag57
(g73
g59
NtRp2046
(dp2047
g62
(dp2048
sg71
g1962
sg64
(lp2049
g57
(g78
g59
NtRp2050
(dp2051
g62
(dp2052
g82
g83
ssg71
g2046
sg64
(lp2053
g378
asbag57
(g78
g59
NtRp2054
(dp2055
g62
(dp2056
g89
g90
ssg71
g2046
sg64
(lp2057
S':'
asbag57
(g78
g59
NtRp2058
(dp2059
g62
(dp2060
sg71
g2046
sg64
(lp2061
g57
(g58
g59
NtRp2062
(dp2063
g62
(dp2064
g70
I3
ssg71
g2058
sg64
(lp2065
S''
asbasbasbag57
(g73
g59
NtRp2066
(dp2067
g62
(dp2068
sg71
g1962
sg64
(lp2069
g57
(g78
g59
NtRp2070
(dp2071
g62
(dp2072
g82
g83
ssg71
g2066
sg64
(lp2073
g399
asbag57
(g78
g59
NtRp2074
(dp2075
g62
(dp2076
g89
g90
ssg71
g2066
sg64
(lp2077
S':'
asbag57
(g78
g59
NtRp2078
(dp2079
g62
(dp2080
sg71
g2066
sg64
(lp2081
g57
(g58
g59
NtRp2082
(dp2083
g62
(dp2084
g70
I3
ssg71
g2078
sg64
(lp2085
S''
asbasbasbag57
(g73
g59
NtRp2086
(dp2087
g62
(dp2088
sg71
g1962
sg64
(lp2089
g57
(g78
g59
NtRp2090
(dp2091
g62
(dp2092
g82
g83
ssg71
g2086
sg64
(lp2093
g420
asbag57
(g78
g59
NtRp2094
(dp2095
g62
(dp2096
g89
g90
ssg71
g2086
sg64
(lp2097
S':'
asbag57
(g78
g59
NtRp2098
(dp2099
g62
(dp2100
sg71
g2086
sg64
(lp2101
g57
(g58
g59
NtRp2102
(dp2103
g62
(dp2104
g70
I3
ssg71
g2098
sg64
(lp2105
S''
asbasbasbag57
(g73
g59
NtRp2106
(dp2107
g62
(dp2108
sg71
g1962
sg64
(lp2109
g57
(g78
g59
NtRp2110
(dp2111
g62
(dp2112
g82
g83
ssg71
g2106
sg64
(lp2113
g441
asbag57
(g78
g59
NtRp2114
(dp2115
g62
(dp2116
g89
g90
ssg71
g2106
sg64
(lp2117
S':'
asbag57
(g78
g59
NtRp2118
(dp2119
g62
(dp2120
sg71
g2106
sg64
(lp2121
g57
(g58
g59
NtRp2122
(dp2123
g62
(dp2124
g70
I3
ssg71
g2118
sg64
(lp2125
S''
asbasbasbasbasbasbasbasbasbasbasbag57
(g73
g59
NtRp2126
(dp2127
g62
(dp2128
sg71
g67
sg64
(lp2129
g57
(g78
g59
NtRp2130
(dp2131
g62
(dp2132
g82
g83
ssg71
g2126
sg64
(lp2133
S'env'
p2134
asbag57
(g78
g59
NtRp2135
(dp2136
g62
(dp2137
g89
g90
ssg71
g2126
sg64
(lp2138
S':'
asbag57
(g78
g59
NtRp2139
(dp2140
g62
(dp2141
sg71
g2126
sg64
(lp2142
g57
(g58
g59
NtRp2143
(dp2144
g62
(dp2145
g70
I5
ssg71
g2139
sg64
(lp2146
g57
(g66
g59
NtRp2147
(dp2148
g62
(dp2149
g70
I4
ssg71
Nsg64
(lp2150
g57
(g73
g59
NtRp2151
(dp2152
g62
(dp2153
sg71
g2147
sg64
(lp2154
g57
(g78
g59
NtRp2155
(dp2156
g62
(dp2157
g82
g83
ssg71
g2151
sg64
(lp2158
S'app_folders'
p2159
asbag57
(g78
g59
NtRp2160
(dp2161
g62
(dp2162
g89
g90
ssg71
g2151
sg64
(lp2163
S':'
asbag57
(g78
g59
NtRp2164
(dp2165
g62
(dp2166
sg71
g2151
sg64
(lp2167
g57
(g58
g59
NtRp2168
(dp2169
g62
(dp2170
g70
I4
ssg71
g2164
sg64
(lp2171
S"set(['/var/www/web2py_curso/applications/admin/', '/var/www/web2py_curso/applications/projeto/'])"
p2172
asbasbasbag57
(g73
g59
NtRp2173
(dp2174
g62
(dp2175
sg71
g2147
sg64
(lp2176
g57
(g78
g59
NtRp2177
(dp2178
g62
(dp2179
g82
g83
ssg71
g2173
sg64
(lp2180
S'applications_parent'
p2181
asbag57
(g78
g59
NtRp2182
(dp2183
g62
(dp2184
g89
g90
ssg71
g2173
sg64
(lp2185
S':'
asbag57
(g78
g59
NtRp2186
(dp2187
g62
(dp2188
sg71
g2173
sg64
(lp2189
g57
(g58
g59
NtRp2190
(dp2191
g62
(dp2192
g70
I4
ssg71
g2186
sg64
(lp2193
S'/var/www/web2py_curso'
p2194
asbasbasbag57
(g73
g59
NtRp2195
(dp2196
g62
(dp2197
sg71
g2147
sg64
(lp2198
g57
(g78
g59
NtRp2199
(dp2200
g62
(dp2201
g82
g83
ssg71
g2195
sg64
(lp2202
S'cmd_args'
p2203
asbag57
(g78
g59
NtRp2204
(dp2205
g62
(dp2206
g89
g90
ssg71
g2195
sg64
(lp2207
S':'
asbag57
(g78
g59
NtRp2208
(dp2209
g62
(dp2210
sg71
g2195
sg64
(lp2211
g57
(g58
g59
NtRp2212
(dp2213
g62
(dp2214
g70
I4
ssg71
g2208
sg64
(lp2215
g57
(g66
g59
NtRp2216
(dp2217
g62
(dp2218
g70
I3
ssg71
Nsg64
(lp2219
sbasbasbasbag57
(g73
g59
NtRp2220
(dp2221
g62
(dp2222
sg71
g2147
sg64
(lp2223
g57
(g78
g59
NtRp2224
(dp2225
g62
(dp2226
g82
g83
ssg71
g2220
sg64
(lp2227
S'cmd_options'
p2228
asbag57
(g78
g59
NtRp2229
(dp2230
g62
(dp2231
g89
g90
ssg71
g2220
sg64
(lp2232
S':'
asbag57
(g78
g59
NtRp2233
(dp2234
g62
(dp2235
sg71
g2220
sg64
(lp2236
g57
(g58
g59
NtRp2237
(dp2238
g62
(dp2239
g70
I4
ssg71
g2233
sg64
(lp2240
S"<Values at 0x335a1b8: {'verbose': False, 'ip': '127.0.0.1', 'with_scheduler': False, 'ips': [], 'shutdown_timeout': 5, 'taskbar': False, 'port': 8000, 'maxthreads': None, 'softcron': False, 'server_name': 'fernado-desktop', 'bpython': False, 'nogui': False, 'pid_filename': 'httpserver.pid', 'extcron': False, 'runcron': False, 'run_system_tests': False, 'test': None, 'folder': '/var/www/web2py_curso', 'config': '', 'minthreads': None, 'winservice': '', 'shell': None, 'run': '', 'log_filename': 'httpserver.log', 'debuglevel': 30, 'args': [''], 'socket_timeout': 5, 'ssl_ca_certificate': None, 'scheduler': None, 'profiler_filename': None, 'ssl_private_key': '', 'scheduler_groups': None, 'password': '123456', 'request_queue_size': 5, 'ssl_certificate': '', 'cronjob': False, 'numthreads': None, 'quiet': False, 'interfaces': None, 'import_models': False, 'timeout': 10, 'plain': False, 'nobanner': False}>"
p2241
asbasbasbag57
(g73
g59
NtRp2242
(dp2243
g62
(dp2244
sg71
g2147
sg64
(lp2245
g57
(g78
g59
NtRp2246
(dp2247
g62
(dp2248
g82
g83
ssg71
g2242
sg64
(lp2249
S'db_sessions'
p2250
asbag57
(g78
g59
NtRp2251
(dp2252
g62
(dp2253
g89
g90
ssg71
g2242
sg64
(lp2254
S':'
asbag57
(g78
g59
NtRp2255
(dp2256
g62
(dp2257
sg71
g2242
sg64
(lp2258
g57
(g58
g59
NtRp2259
(dp2260
g62
(dp2261
g70
I4
ssg71
g2255
sg64
(lp2262
S'set([])'
p2263
asbasbasbag57
(g73
g59
NtRp2264
(dp2265
g62
(dp2266
sg71
g2147
sg64
(lp2267
g57
(g78
g59
NtRp2268
(dp2269
g62
(dp2270
g82
g83
ssg71
g2264
sg64
(lp2271
S'debugging'
p2272
asbag57
(g78
g59
NtRp2273
(dp2274
g62
(dp2275
g89
g90
ssg71
g2264
sg64
(lp2276
S':'
asbag57
(g78
g59
NtRp2277
(dp2278
g62
(dp2279
sg71
g2264
sg64
(lp2280
g57
(g58
g59
NtRp2281
(dp2282
g62
(dp2283
g70
I4
ssg71
g2277
sg64
(lp2284
g100
asbasbasbag57
(g73
g59
NtRp2285
(dp2286
g62
(dp2287
sg71
g2147
sg64
(lp2288
g57
(g78
g59
NtRp2289
(dp2290
g62
(dp2291
g82
g83
ssg71
g2285
sg64
(lp2292
S'gluon_parent'
p2293
asbag57
(g78
g59
NtRp2294
(dp2295
g62
(dp2296
g89
g90
ssg71
g2285
sg64
(lp2297
S':'
asbag57
(g78
g59
NtRp2298
(dp2299
g62
(dp2300
sg71
g2285
sg64
(lp2301
g57
(g58
g59
NtRp2302
(dp2303
g62
(dp2304
g70
I4
ssg71
g2298
sg64
(lp2305
S'/var/www/web2py_curso'
p2306
asbasbasbag57
(g73
g59
NtRp2307
(dp2308
g62
(dp2309
sg71
g2147
sg64
(lp2310
g57
(g78
g59
NtRp2311
(dp2312
g62
(dp2313
g82
g83
ssg71
g2307
sg64
(lp2314
S'http_accept'
p2315
asbag57
(g78
g59
NtRp2316
(dp2317
g62
(dp2318
g89
g90
ssg71
g2307
sg64
(lp2319
S':'
asbag57
(g78
g59
NtRp2320
(dp2321
g62
(dp2322
sg71
g2307
sg64
(lp2323
g57
(g58
g59
NtRp2324
(dp2325
g62
(dp2326
g70
I4
ssg71
g2320
sg64
(lp2327
S'text/html,application/xhtml+xml,application/xml;q=0.9,*/*;q=0.8'
p2328
asbasbasbag57
(g73
g59
NtRp2329
(dp2330
g62
(dp2331
sg71
g2147
sg64
(lp2332
g57
(g78
g59
NtRp2333
(dp2334
g62
(dp2335
g82
g83
ssg71
g2329
sg64
(lp2336
S'http_accept_charset'
p2337
asbag57
(g78
g59
NtRp2338
(dp2339
g62
(dp2340
g89
g90
ssg71
g2329
sg64
(lp2341
S':'
asbag57
(g78
g59
NtRp2342
(dp2343
g62
(dp2344
sg71
g2329
sg64
(lp2345
g57
(g58
g59
NtRp2346
(dp2347
g62
(dp2348
g70
I4
ssg71
g2342
sg64
(lp2349
S'ISO-8859-1,utf-8;q=0.7,*;q=0.3'
p2350
asbasbasbag57
(g73
g59
NtRp2351
(dp2352
g62
(dp2353
sg71
g2147
sg64
(lp2354
g57
(g78
g59
NtRp2355
(dp2356
g62
(dp2357
g82
g83
ssg71
g2351
sg64
(lp2358
S'http_accept_encoding'
p2359
asbag57
(g78
g59
NtRp2360
(dp2361
g62
(dp2362
g89
g90
ssg71
g2351
sg64
(lp2363
S':'
asbag57
(g78
g59
NtRp2364
(dp2365
g62
(dp2366
sg71
g2351
sg64
(lp2367
g57
(g58
g59
NtRp2368
(dp2369
g62
(dp2370
g70
I4
ssg71
g2364
sg64
(lp2371
S'gzip,deflate,sdch'
p2372
asbasbasbag57
(g73
g59
NtRp2373
(dp2374
g62
(dp2375
sg71
g2147
sg64
(lp2376
g57
(g78
g59
NtRp2377
(dp2378
g62
(dp2379
g82
g83
ssg71
g2373
sg64
(lp2380
S'http_accept_language'
p2381
asbag57
(g78
g59
NtRp2382
(dp2383
g62
(dp2384
g89
g90
ssg71
g2373
sg64
(lp2385
S':'
asbag57
(g78
g59
NtRp2386
(dp2387
g62
(dp2388
sg71
g2373
sg64
(lp2389
g57
(g58
g59
NtRp2390
(dp2391
g62
(dp2392
g70
I4
ssg71
g2386
sg64
(lp2393
S'pt-BR,pt;q=0.8,en-US;q=0.6,en;q=0.4'
p2394
asbasbasbag57
(g73
g59
NtRp2395
(dp2396
g62
(dp2397
sg71
g2147
sg64
(lp2398
g57
(g78
g59
NtRp2399
(dp2400
g62
(dp2401
g82
g83
ssg71
g2395
sg64
(lp2402
S'http_cache_control'
p2403
asbag57
(g78
g59
NtRp2404
(dp2405
g62
(dp2406
g89
g90
ssg71
g2395
sg64
(lp2407
S':'
asbag57
(g78
g59
NtRp2408
(dp2409
g62
(dp2410
sg71
g2395
sg64
(lp2411
g57
(g58
g59
NtRp2412
(dp2413
g62
(dp2414
g70
I4
ssg71
g2408
sg64
(lp2415
S'max-age=0'
p2416
asbasbasbag57
(g73
g59
NtRp2417
(dp2418
g62
(dp2419
sg71
g2147
sg64
(lp2420
g57
(g78
g59
NtRp2421
(dp2422
g62
(dp2423
g82
g83
ssg71
g2417
sg64
(lp2424
S'http_connection'
p2425
asbag57
(g78
g59
NtRp2426
(dp2427
g62
(dp2428
g89
g90
ssg71
g2417
sg64
(lp2429
S':'
asbag57
(g78
g59
NtRp2430
(dp2431
g62
(dp2432
sg71
g2417
sg64
(lp2433
g57
(g58
g59
NtRp2434
(dp2435
g62
(dp2436
g70
I4
ssg71
g2430
sg64
(lp2437
S'keep-alive'
p2438
asbasbasbag57
(g73
g59
NtRp2439
(dp2440
g62
(dp2441
sg71
g2147
sg64
(lp2442
g57
(g78
g59
NtRp2443
(dp2444
g62
(dp2445
g82
g83
ssg71
g2439
sg64
(lp2446
S'http_cookie'
p2447
asbag57
(g78
g59
NtRp2448
(dp2449
g62
(dp2450
g89
g90
ssg71
g2439
sg64
(lp2451
S':'
asbag57
(g78
g59
NtRp2452
(dp2453
g62
(dp2454
sg71
g2439
sg64
(lp2455
g57
(g58
g59
NtRp2456
(dp2457
g62
(dp2458
g70
I4
ssg71
g2452
sg64
(lp2459
S'hw_type=MX60; hw_version=Rev%201.9.82.316; types=Rev%201.0.1%20MX60-32S%20%20Kernel%201.0.11%20%28F%29; admin=admin; cookie=1649423593; model=MX; nr=1; language=1; session_id_admin=127.0.0.1-2137e5fc-73b0-4fcd-be7b-d2f46e1918b1; session_id_projeto=127.0.0.1-b8c6a9b4-3ce7-4a48-b40d-12b6c8d18d0a'
p2460
asbasbasbag57
(g73
g59
NtRp2461
(dp2462
g62
(dp2463
sg71
g2147
sg64
(lp2464
g57
(g78
g59
NtRp2465
(dp2466
g62
(dp2467
g82
g83
ssg71
g2461
sg64
(lp2468
S'http_host'
p2469
asbag57
(g78
g59
NtRp2470
(dp2471
g62
(dp2472
g89
g90
ssg71
g2461
sg64
(lp2473
S':'
asbag57
(g78
g59
NtRp2474
(dp2475
g62
(dp2476
sg71
g2461
sg64
(lp2477
g57
(g58
g59
NtRp2478
(dp2479
g62
(dp2480
g70
I4
ssg71
g2474
sg64
(lp2481
S'127.0.0.1:8000'
p2482
asbasbasbag57
(g73
g59
NtRp2483
(dp2484
g62
(dp2485
sg71
g2147
sg64
(lp2486
g57
(g78
g59
NtRp2487
(dp2488
g62
(dp2489
g82
g83
ssg71
g2483
sg64
(lp2490
S'http_user_agent'
p2491
asbag57
(g78
g59
NtRp2492
(dp2493
g62
(dp2494
g89
g90
ssg71
g2483
sg64
(lp2495
S':'
asbag57
(g78
g59
NtRp2496
(dp2497
g62
(dp2498
sg71
g2483
sg64
(lp2499
g57
(g58
g59
NtRp2500
(dp2501
g62
(dp2502
g70
I4
ssg71
g2496
sg64
(lp2503
S'Mozilla/5.0 (X11; Linux x86_64) AppleWebKit/537.4 (KHTML, like Gecko) Ubuntu/12.10 Chromium/22.0.1229.94 Chrome/22.0.1229.94 Safari/537.4'
p2504
asbasbasbag57
(g73
g59
NtRp2505
(dp2506
g62
(dp2507
sg71
g2147
sg64
(lp2508
g57
(g78
g59
NtRp2509
(dp2510
g62
(dp2511
g82
g83
ssg71
g2505
sg64
(lp2512
S'is_jython'
p2513
asbag57
(g78
g59
NtRp2514
(dp2515
g62
(dp2516
g89
g90
ssg71
g2505
sg64
(lp2517
S':'
asbag57
(g78
g59
NtRp2518
(dp2519
g62
(dp2520
sg71
g2505
sg64
(lp2521
g57
(g58
g59
NtRp2522
(dp2523
g62
(dp2524
g70
I4
ssg71
g2518
sg64
(lp2525
g100
asbasbasbag57
(g73
g59
NtRp2526
(dp2527
g62
(dp2528
sg71
g2147
sg64
(lp2529
g57
(g78
g59
NtRp2530
(dp2531
g62
(dp2532
g82
g83
ssg71
g2526
sg64
(lp2533
S'is_pypy'
p2534
asbag57
(g78
g59
NtRp2535
(dp2536
g62
(dp2537
g89
g90
ssg71
g2526
sg64
(lp2538
S':'
asbag57
(g78
g59
NtRp2539
(dp2540
g62
(dp2541
sg71
g2526
sg64
(lp2542
g57
(g58
g59
NtRp2543
(dp2544
g62
(dp2545
g70
I4
ssg71
g2539
sg64
(lp2546
g100
asbasbasbag57
(g73
g59
NtRp2547
(dp2548
g62
(dp2549
sg71
g2147
sg64
(lp2550
g57
(g78
g59
NtRp2551
(dp2552
g62
(dp2553
g82
g83
ssg71
g2547
sg64
(lp2554
S'local_hosts'
p2555
asbag57
(g78
g59
NtRp2556
(dp2557
g62
(dp2558
g89
g90
ssg71
g2547
sg64
(lp2559
S':'
asbag57
(g78
g59
NtRp2560
(dp2561
g62
(dp2562
sg71
g2547
sg64
(lp2563
g57
(g58
g59
NtRp2564
(dp2565
g62
(dp2566
g70
I4
ssg71
g2560
sg64
(lp2567
g57
(g66
g59
NtRp2568
(dp2569
g62
(dp2570
g70
I3
ssg71
Nsg64
(lp2571
g57
(g73
g59
NtRp2572
(dp2573
g62
(dp2574
sg71
g2568
sg64
(lp2575
g57
(g78
g59
NtRp2576
(dp2577
g62
(dp2578
sg71
g2572
sg64
(lp2579
g57
(g58
g59
NtRp2580
(dp2581
g62
(dp2582
g70
I3
ssg71
g2576
sg64
(lp2583
S'127.0.1.1'
p2584
asbasbasbag57
(g73
g59
NtRp2585
(dp2586
g62
(dp2587
sg71
g2568
sg64
(lp2588
g57
(g78
g59
NtRp2589
(dp2590
g62
(dp2591
sg71
g2585
sg64
(lp2592
g57
(g58
g59
NtRp2593
(dp2594
g62
(dp2595
g70
I3
ssg71
g2589
sg64
(lp2596
S'::1'
p2597
asbasbasbag57
(g73
g59
NtRp2598
(dp2599
g62
(dp2600
sg71
g2568
sg64
(lp2601
g57
(g78
g59
NtRp2602
(dp2603
g62
(dp2604
sg71
g2598
sg64
(lp2605
g57
(g58
g59
NtRp2606
(dp2607
g62
(dp2608
g70
I3
ssg71
g2602
sg64
(lp2609
S'fernado-desktop'
p2610
asbasbasbag57
(g73
g59
NtRp2611
(dp2612
g62
(dp2613
sg71
g2568
sg64
(lp2614
g57
(g78
g59
NtRp2615
(dp2616
g62
(dp2617
sg71
g2611
sg64
(lp2618
g57
(g58
g59
NtRp2619
(dp2620
g62
(dp2621
g70
I3
ssg71
g2615
sg64
(lp2622
S'::ffff:127.0.0.1'
p2623
asbasbasbag57
(g73
g59
NtRp2624
(dp2625
g62
(dp2626
sg71
g2568
sg64
(lp2627
g57
(g78
g59
NtRp2628
(dp2629
g62
(dp2630
sg71
g2624
sg64
(lp2631
g57
(g58
g59
NtRp2632
(dp2633
g62
(dp2634
g70
I3
ssg71
g2628
sg64
(lp2635
S'127.0.0.1'
p2636
asbasbasbasbasbasbasbag57
(g73
g59
NtRp2637
(dp2638
g62
(dp2639
sg71
g2147
sg64
(lp2640
g57
(g78
g59
NtRp2641
(dp2642
g62
(dp2643
g82
g83
ssg71
g2637
sg64
(lp2644
S'path_info'
p2645
asbag57
(g78
g59
NtRp2646
(dp2647
g62
(dp2648
g89
g90
ssg71
g2637
sg64
(lp2649
S':'
asbag57
(g78
g59
NtRp2650
(dp2651
g62
(dp2652
sg71
g2637
sg64
(lp2653
g57
(g58
g59
NtRp2654
(dp2655
g62
(dp2656
g70
I4
ssg71
g2650
sg64
(lp2657
S'/'
asbasbasbag57
(g73
g59
NtRp2658
(dp2659
g62
(dp2660
sg71
g2147
sg64
(lp2661
g57
(g78
g59
NtRp2662
(dp2663
g62
(dp2664
g82
g83
ssg71
g2658
sg64
(lp2665
S'query_string'
p2666
asbag57
(g78
g59
NtRp2667
(dp2668
g62
(dp2669
g89
g90
ssg71
g2658
sg64
(lp2670
S':'
asbag57
(g78
g59
NtRp2671
(dp2672
g62
(dp2673
sg71
g2658
sg64
(lp2674
g57
(g58
g59
NtRp2675
(dp2676
g62
(dp2677
g70
I4
ssg71
g2671
sg64
(lp2678
S''
asbasbasbag57
(g73
g59
NtRp2679
(dp2680
g62
(dp2681
sg71
g2147
sg64
(lp2682
g57
(g78
g59
NtRp2683
(dp2684
g62
(dp2685
g82
g83
ssg71
g2679
sg64
(lp2686
S'remote_addr'
p2687
asbag57
(g78
g59
NtRp2688
(dp2689
g62
(dp2690
g89
g90
ssg71
g2679
sg64
(lp2691
S':'
asbag57
(g78
g59
NtRp2692
(dp2693
g62
(dp2694
sg71
g2679
sg64
(lp2695
g57
(g58
g59
NtRp2696
(dp2697
g62
(dp2698
g70
I4
ssg71
g2692
sg64
(lp2699
g212
asbasbasbag57
(g73
g59
NtRp2700
(dp2701
g62
(dp2702
sg71
g2147
sg64
(lp2703
g57
(g78
g59
NtRp2704
(dp2705
g62
(dp2706
g82
g83
ssg71
g2700
sg64
(lp2707
S'remote_port'
p2708
asbag57
(g78
g59
NtRp2709
(dp2710
g62
(dp2711
g89
g90
ssg71
g2700
sg64
(lp2712
S':'
asbag57
(g78
g59
NtRp2713
(dp2714
g62
(dp2715
sg71
g2700
sg64
(lp2716
g57
(g58
g59
NtRp2717
(dp2718
g62
(dp2719
g70
I4
ssg71
g2713
sg64
(lp2720
S'38065'
p2721
asbasbasbag57
(g73
g59
NtRp2722
(dp2723
g62
(dp2724
sg71
g2147
sg64
(lp2725
g57
(g78
g59
NtRp2726
(dp2727
g62
(dp2728
g82
g83
ssg71
g2722
sg64
(lp2729
S'request_method'
p2730
asbag57
(g78
g59
NtRp2731
(dp2732
g62
(dp2733
g89
g90
ssg71
g2722
sg64
(lp2734
S':'
asbag57
(g78
g59
NtRp2735
(dp2736
g62
(dp2737
sg71
g2722
sg64
(lp2738
g57
(g58
g59
NtRp2739
(dp2740
g62
(dp2741
g70
I4
ssg71
g2735
sg64
(lp2742
S'GET'
p2743
asbasbasbag57
(g73
g59
NtRp2744
(dp2745
g62
(dp2746
sg71
g2147
sg64
(lp2747
g57
(g78
g59
NtRp2748
(dp2749
g62
(dp2750
g82
g83
ssg71
g2744
sg64
(lp2751
S'request_uri'
p2752
asbag57
(g78
g59
NtRp2753
(dp2754
g62
(dp2755
g89
g90
ssg71
g2744
sg64
(lp2756
S':'
asbag57
(g78
g59
NtRp2757
(dp2758
g62
(dp2759
sg71
g2744
sg64
(lp2760
g57
(g58
g59
NtRp2761
(dp2762
g62
(dp2763
g70
I4
ssg71
g2757
sg64
(lp2764
S'/projeto/initial/home'
p2765
asbasbasbag57
(g73
g59
NtRp2766
(dp2767
g62
(dp2768
sg71
g2147
sg64
(lp2769
g57
(g78
g59
NtRp2770
(dp2771
g62
(dp2772
g82
g83
ssg71
g2766
sg64
(lp2773
S'script_name'
p2774
asbag57
(g78
g59
NtRp2775
(dp2776
g62
(dp2777
g89
g90
ssg71
g2766
sg64
(lp2778
S':'
asbag57
(g78
g59
NtRp2779
(dp2780
g62
(dp2781
sg71
g2766
sg64
(lp2782
g57
(g58
g59
NtRp2783
(dp2784
g62
(dp2785
g70
I4
ssg71
g2779
sg64
(lp2786
S''
asbasbasbag57
(g73
g59
NtRp2787
(dp2788
g62
(dp2789
sg71
g2147
sg64
(lp2790
g57
(g78
g59
NtRp2791
(dp2792
g62
(dp2793
g82
g83
ssg71
g2787
sg64
(lp2794
S'server_name'
p2795
asbag57
(g78
g59
NtRp2796
(dp2797
g62
(dp2798
g89
g90
ssg71
g2787
sg64
(lp2799
S':'
asbag57
(g78
g59
NtRp2800
(dp2801
g62
(dp2802
sg71
g2787
sg64
(lp2803
g57
(g58
g59
NtRp2804
(dp2805
g62
(dp2806
g70
I4
ssg71
g2800
sg64
(lp2807
S'fernado-desktop'
p2808
asbasbasbag57
(g73
g59
NtRp2809
(dp2810
g62
(dp2811
sg71
g2147
sg64
(lp2812
g57
(g78
g59
NtRp2813
(dp2814
g62
(dp2815
g82
g83
ssg71
g2809
sg64
(lp2816
S'server_port'
p2817
asbag57
(g78
g59
NtRp2818
(dp2819
g62
(dp2820
g89
g90
ssg71
g2809
sg64
(lp2821
S':'
asbag57
(g78
g59
NtRp2822
(dp2823
g62
(dp2824
sg71
g2809
sg64
(lp2825
g57
(g58
g59
NtRp2826
(dp2827
g62
(dp2828
g70
I4
ssg71
g2822
sg64
(lp2829
S'8000'
p2830
asbasbasbag57
(g73
g59
NtRp2831
(dp2832
g62
(dp2833
sg71
g2147
sg64
(lp2834
g57
(g78
g59
NtRp2835
(dp2836
g62
(dp2837
g82
g83
ssg71
g2831
sg64
(lp2838
S'server_protocol'
p2839
asbag57
(g78
g59
NtRp2840
(dp2841
g62
(dp2842
g89
g90
ssg71
g2831
sg64
(lp2843
S':'
asbag57
(g78
g59
NtRp2844
(dp2845
g62
(dp2846
sg71
g2831
sg64
(lp2847
g57
(g58
g59
NtRp2848
(dp2849
g62
(dp2850
g70
I4
ssg71
g2844
sg64
(lp2851
S'HTTP/1.1'
p2852
asbasbasbag57
(g73
g59
NtRp2853
(dp2854
g62
(dp2855
sg71
g2147
sg64
(lp2856
g57
(g78
g59
NtRp2857
(dp2858
g62
(dp2859
g82
g83
ssg71
g2853
sg64
(lp2860
S'server_software'
p2861
asbag57
(g78
g59
NtRp2862
(dp2863
g62
(dp2864
g89
g90
ssg71
g2853
sg64
(lp2865
S':'
asbag57
(g78
g59
NtRp2866
(dp2867
g62
(dp2868
sg71
g2853
sg64
(lp2869
g57
(g58
g59
NtRp2870
(dp2871
g62
(dp2872
g70
I4
ssg71
g2866
sg64
(lp2873
S'Rocket 1.2.6'
p2874
asbasbasbag57
(g73
g59
NtRp2875
(dp2876
g62
(dp2877
sg71
g2147
sg64
(lp2878
g57
(g78
g59
NtRp2879
(dp2880
g62
(dp2881
g82
g83
ssg71
g2875
sg64
(lp2882
S'web2py_original_uri'
p2883
asbag57
(g78
g59
NtRp2884
(dp2885
g62
(dp2886
g89
g90
ssg71
g2875
sg64
(lp2887
S':'
asbag57
(g78
g59
NtRp2888
(dp2889
g62
(dp2890
sg71
g2875
sg64
(lp2891
g57
(g58
g59
NtRp2892
(dp2893
g62
(dp2894
g70
I4
ssg71
g2888
sg64
(lp2895
S'/'
asbasbasbag57
(g73
g59
NtRp2896
(dp2897
g62
(dp2898
sg71
g2147
sg64
(lp2899
g57
(g78
g59
NtRp2900
(dp2901
g62
(dp2902
g82
g83
ssg71
g2896
sg64
(lp2903
S'web2py_path'
p2904
asbag57
(g78
g59
NtRp2905
(dp2906
g62
(dp2907
g89
g90
ssg71
g2896
sg64
(lp2908
S':'
asbag57
(g78
g59
NtRp2909
(dp2910
g62
(dp2911
sg71
g2896
sg64
(lp2912
g57
(g58
g59
NtRp2913
(dp2914
g62
(dp2915
g70
I4
ssg71
g2909
sg64
(lp2916
g2194
asbasbasbag57
(g73
g59
NtRp2917
(dp2918
g62
(dp2919
sg71
g2147
sg64
(lp2920
g57
(g78
g59
NtRp2921
(dp2922
g62
(dp2923
g82
g83
ssg71
g2917
sg64
(lp2924
S'web2py_version'
p2925
asbag57
(g78
g59
NtRp2926
(dp2927
g62
(dp2928
g89
g90
ssg71
g2917
sg64
(lp2929
S':'
asbag57
(g78
g59
NtRp2930
(dp2931
g62
(dp2932
sg71
g2917
sg64
(lp2933
g57
(g58
g59
NtRp2934
(dp2935
g62
(dp2936
g70
I4
ssg71
g2930
sg64
(lp2937
g57
(g66
g59
NtRp2938
(dp2939
g62
(dp2940
g70
I3
ssg71
Nsg64
(lp2941
g57
(g73
g59
NtRp2942
(dp2943
g62
(dp2944
sg71
g2938
sg64
(lp2945
g57
(g78
g59
NtRp2946
(dp2947
g62
(dp2948
sg71
g2942
sg64
(lp2949
g57
(g58
g59
NtRp2950
(dp2951
g62
(dp2952
g70
I3
ssg71
g2946
sg64
(lp2953
S'2'
asbasbasbag57
(g73
g59
NtRp2954
(dp2955
g62
(dp2956
sg71
g2938
sg64
(lp2957
g57
(g78
g59
NtRp2958
(dp2959
g62
(dp2960
sg71
g2954
sg64
(lp2961
g57
(g58
g59
NtRp2962
(dp2963
g62
(dp2964
g70
I3
ssg71
g2958
sg64
(lp2965
S'3'
asbasbasbag57
(g73
g59
NtRp2966
(dp2967
g62
(dp2968
sg71
g2938
sg64
(lp2969
g57
(g78
g59
NtRp2970
(dp2971
g62
(dp2972
sg71
g2966
sg64
(lp2973
g57
(g58
g59
NtRp2974
(dp2975
g62
(dp2976
g70
I3
ssg71
g2970
sg64
(lp2977
S'2'
asbasbasbag57
(g73
g59
NtRp2978
(dp2979
g62
(dp2980
sg71
g2938
sg64
(lp2981
g57
(g78
g59
NtRp2982
(dp2983
g62
(dp2984
sg71
g2978
sg64
(lp2985
g57
(g58
g59
NtRp2986
(dp2987
g62
(dp2988
g70
I3
ssg71
g2982
sg64
(lp2989
S'datetime.datetime(2012, 12, 17, 15, 3, 30)'
p2990
asbasbasbag57
(g73
g59
NtRp2991
(dp2992
g62
(dp2993
sg71
g2938
sg64
(lp2994
g57
(g78
g59
NtRp2995
(dp2996
g62
(dp2997
sg71
g2991
sg64
(lp2998
g57
(g58
g59
NtRp2999
(dp3000
g62
(dp3001
g70
I3
ssg71
g2995
sg64
(lp3002
S'stable'
p3003
asbasbasbasbasbasbasbag57
(g73
g59
NtRp3004
(dp3005
g62
(dp3006
sg71
g2147
sg64
(lp3007
g57
(g78
g59
NtRp3008
(dp3009
g62
(dp3010
g82
g83
ssg71
g3004
sg64
(lp3011
S'wsgi_errors'
p3012
asbag57
(g78
g59
NtRp3013
(dp3014
g62
(dp3015
g89
g90
ssg71
g3004
sg64
(lp3016
S':'
asbag57
(g78
g59
NtRp3017
(dp3018
g62
(dp3019
sg71
g3004
sg64
(lp3020
g57
(g58
g59
NtRp3021
(dp3022
g62
(dp3023
g70
I4
ssg71
g3017
sg64
(lp3024
S"<open file '<stderr>', mode 'w' at 0x7fb4dd175270>"
p3025
asbasbasbag57
(g73
g59
NtRp3026
(dp3027
g62
(dp3028
sg71
g2147
sg64
(lp3029
g57
(g78
g59
NtRp3030
(dp3031
g62
(dp3032
g82
g83
ssg71
g3026
sg64
(lp3033
S'wsgi_file_wrapper'
p3034
asbag57
(g78
g59
NtRp3035
(dp3036
g62
(dp3037
g89
g90
ssg71
g3026
sg64
(lp3038
S':'
asbag57
(g78
g59
NtRp3039
(dp3040
g62
(dp3041
sg71
g3026
sg64
(lp3042
g57
(g58
g59
NtRp3043
(dp3044
g62
(dp3045
g70
I4
ssg71
g3039
sg64
(lp3046
S'<class wsgiref.util.FileWrapper at 0x37136d0>'
p3047
asbasbasbag57
(g73
g59
NtRp3048
(dp3049
g62
(dp3050
sg71
g2147
sg64
(lp3051
g57
(g78
g59
NtRp3052
(dp3053
g62
(dp3054
g82
g83
ssg71
g3048
sg64
(lp3055
S'wsgi_input'
p3056
asbag57
(g78
g59
NtRp3057
(dp3058
g62
(dp3059
g89
g90
ssg71
g3048
sg64
(lp3060
S':'
asbag57
(g78
g59
NtRp3061
(dp3062
g62
(dp3063
sg71
g3048
sg64
(lp3064
g57
(g58
g59
NtRp3065
(dp3066
g62
(dp3067
g70
I4
ssg71
g3061
sg64
(lp3068
S'<socket._fileobject object at 0x7fb4cc358250>'
p3069
asbasbasbag57
(g73
g59
NtRp3070
(dp3071
g62
(dp3072
sg71
g2147
sg64
(lp3073
g57
(g78
g59
NtRp3074
(dp3075
g62
(dp3076
g82
g83
ssg71
g3070
sg64
(lp3077
S'wsgi_multiprocess'
p3078
asbag57
(g78
g59
NtRp3079
(dp3080
g62
(dp3081
g89
g90
ssg71
g3070
sg64
(lp3082
S':'
asbag57
(g78
g59
NtRp3083
(dp3084
g62
(dp3085
sg71
g3070
sg64
(lp3086
g57
(g58
g59
NtRp3087
(dp3088
g62
(dp3089
g70
I4
ssg71
g3083
sg64
(lp3090
g100
asbasbasbag57
(g73
g59
NtRp3091
(dp3092
g62
(dp3093
sg71
g2147
sg64
(lp3094
g57
(g78
g59
NtRp3095
(dp3096
g62
(dp3097
g82
g83
ssg71
g3091
sg64
(lp3098
S'wsgi_multithread'
p3099
asbag57
(g78
g59
NtRp3100
(dp3101
g62
(dp3102
g89
g90
ssg71
g3091
sg64
(lp3103
S':'
asbag57
(g78
g59
NtRp3104
(dp3105
g62
(dp3106
sg71
g3091
sg64
(lp3107
g57
(g58
g59
NtRp3108
(dp3109
g62
(dp3110
g70
I4
ssg71
g3104
sg64
(lp3111
S'True'
p3112
asbasbasbag57
(g73
g59
NtRp3113
(dp3114
g62
(dp3115
sg71
g2147
sg64
(lp3116
g57
(g78
g59
NtRp3117
(dp3118
g62
(dp3119
g82
g83
ssg71
g3113
sg64
(lp3120
S'wsgi_run_once'
p3121
asbag57
(g78
g59
NtRp3122
(dp3123
g62
(dp3124
g89
g90
ssg71
g3113
sg64
(lp3125
S':'
asbag57
(g78
g59
NtRp3126
(dp3127
g62
(dp3128
sg71
g3113
sg64
(lp3129
g57
(g58
g59
NtRp3130
(dp3131
g62
(dp3132
g70
I4
ssg71
g3126
sg64
(lp3133
g100
asbasbasbag57
(g73
g59
NtRp3134
(dp3135
g62
(dp3136
sg71
g2147
sg64
(lp3137
g57
(g78
g59
NtRp3138
(dp3139
g62
(dp3140
g82
g83
ssg71
g3134
sg64
(lp3141
S'wsgi_url_scheme'
p3142
asbag57
(g78
g59
NtRp3143
(dp3144
g62
(dp3145
g89
g90
ssg71
g3134
sg64
(lp3146
S':'
asbag57
(g78
g59
NtRp3147
(dp3148
g62
(dp3149
sg71
g3134
sg64
(lp3150
g57
(g58
g59
NtRp3151
(dp3152
g62
(dp3153
g70
I4
ssg71
g3147
sg64
(lp3154
S'http'
p3155
asbasbasbag57
(g73
g59
NtRp3156
(dp3157
g62
(dp3158
sg71
g2147
sg64
(lp3159
g57
(g78
g59
NtRp3160
(dp3161
g62
(dp3162
g82
g83
ssg71
g3156
sg64
(lp3163
S'wsgi_version'
p3164
asbag57
(g78
g59
NtRp3165
(dp3166
g62
(dp3167
g89
g90
ssg71
g3156
sg64
(lp3168
S':'
asbag57
(g78
g59
NtRp3169
(dp3170
g62
(dp3171
sg71
g3156
sg64
(lp3172
g57
(g58
g59
NtRp3173
(dp3174
g62
(dp3175
g70
I4
ssg71
g3169
sg64
(lp3176
g57
(g66
g59
NtRp3177
(dp3178
g62
(dp3179
g70
I3
ssg71
Nsg64
(lp3180
g57
(g73
g59
NtRp3181
(dp3182
g62
(dp3183
sg71
g3177
sg64
(lp3184
g57
(g78
g59
NtRp3185
(dp3186
g62
(dp3187
sg71
g3181
sg64
(lp3188
g57
(g58
g59
NtRp3189
(dp3190
g62
(dp3191
g70
I3
ssg71
g3185
sg64
(lp3192
S'1'
asbasbasbag57
(g73
g59
NtRp3193
(dp3194
g62
(dp3195
sg71
g3177
sg64
(lp3196
g57
(g78
g59
NtRp3197
(dp3198
g62
(dp3199
sg71
g3193
sg64
(lp3200
g57
(g58
g59
NtRp3201
(dp3202
g62
(dp3203
g70
I3
ssg71
g3197
sg64
(lp3204
S'0'
asbasbasbasbasbasbasbasbasbasbasbag57
(g73
g59
NtRp3205
(dp3206
g62
(dp3207
sg71
g67
sg64
(lp3208
g57
(g78
g59
NtRp3209
(dp3210
g62
(dp3211
g82
g83
ssg71
g3205
sg64
(lp3212
S'extension'
p3213
asbag57
(g78
g59
NtRp3214
(dp3215
g62
(dp3216
g89
g90
ssg71
g3205
sg64
(lp3217
S':'
asbag57
(g78
g59
NtRp3218
(dp3219
g62
(dp3220
sg71
g3205
sg64
(lp3221
g57
(g58
g59
NtRp3222
(dp3223
g62
(dp3224
g70
I5
ssg71
g3218
sg64
(lp3225
S'html'
p3226
asbasbasbag57
(g73
g59
NtRp3227
(dp3228
g62
(dp3229
sg71
g67
sg64
(lp3230
g57
(g78
g59
NtRp3231
(dp3232
g62
(dp3233
g82
g83
ssg71
g3227
sg64
(lp3234
S'folder'
p3235
asbag57
(g78
g59
NtRp3236
(dp3237
g62
(dp3238
g89
g90
ssg71
g3227
sg64
(lp3239
S':'
asbag57
(g78
g59
NtRp3240
(dp3241
g62
(dp3242
sg71
g3227
sg64
(lp3243
g57
(g58
g59
NtRp3244
(dp3245
g62
(dp3246
g70
I5
ssg71
g3240
sg64
(lp3247
S'/var/www/web2py_curso/applications/projeto/'
p3248
asbasbasbag57
(g73
g59
NtRp3249
(dp3250
g62
(dp3251
sg71
g67
sg64
(lp3252
g57
(g78
g59
NtRp3253
(dp3254
g62
(dp3255
g82
g83
ssg71
g3249
sg64
(lp3256
S'function'
p3257
asbag57
(g78
g59
NtRp3258
(dp3259
g62
(dp3260
g89
g90
ssg71
g3249
sg64
(lp3261
S':'
asbag57
(g78
g59
NtRp3262
(dp3263
g62
(dp3264
sg71
g3249
sg64
(lp3265
g57
(g58
g59
NtRp3266
(dp3267
g62
(dp3268
g70
I5
ssg71
g3262
sg64
(lp3269
S'home'
p3270
asbasbasbag57
(g73
g59
NtRp3271
(dp3272
g62
(dp3273
sg71
g67
sg64
(lp3274
g57
(g78
g59
NtRp3275
(dp3276
g62
(dp3277
g82
g83
ssg71
g3271
sg64
(lp3278
S'get_vars'
p3279
asbag57
(g78
g59
NtRp3280
(dp3281
g62
(dp3282
g89
g90
ssg71
g3271
sg64
(lp3283
S':'
asbag57
(g78
g59
NtRp3284
(dp3285
g62
(dp3286
sg71
g3271
sg64
(lp3287
g57
(g58
g59
NtRp3288
(dp3289
g62
(dp3290
g70
I5
ssg71
g3284
sg64
(lp3291
g57
(g66
g59
NtRp3292
(dp3293
g62
(dp3294
g70
I4
ssg71
Nsg64
(lp3295
sbasbasbasbag57
(g73
g59
NtRp3296
(dp3297
g62
(dp3298
sg71
g67
sg64
(lp3299
g57
(g78
g59
NtRp3300
(dp3301
g62
(dp3302
g82
g83
ssg71
g3296
sg64
(lp3303
S'global_settings'
p3304
asbag57
(g78
g59
NtRp3305
(dp3306
g62
(dp3307
g89
g90
ssg71
g3296
sg64
(lp3308
S':'
asbag57
(g78
g59
NtRp3309
(dp3310
g62
(dp3311
sg71
g3296
sg64
(lp3312
g57
(g58
g59
NtRp3313
(dp3314
g62
(dp3315
g70
I5
ssg71
g3309
sg64
(lp3316
g57
(g66
g59
NtRp3317
(dp3318
g62
(dp3319
g70
I4
ssg71
Nsg64
(lp3320
g57
(g73
g59
NtRp3321
(dp3322
g62
(dp3323
sg71
g3317
sg64
(lp3324
g57
(g78
g59
NtRp3325
(dp3326
g62
(dp3327
g82
g83
ssg71
g3321
sg64
(lp3328
g2159
asbag57
(g78
g59
NtRp3329
(dp3330
g62
(dp3331
g89
g90
ssg71
g3321
sg64
(lp3332
S':'
asbag57
(g78
g59
NtRp3333
(dp3334
g62
(dp3335
sg71
g3321
sg64
(lp3336
g57
(g58
g59
NtRp3337
(dp3338
g62
(dp3339
g70
I4
ssg71
g3333
sg64
(lp3340
S"set(['/var/www/web2py_curso/applications/admin/', '/var/www/web2py_curso/applications/projeto/'])"
p3341
asbasbasbag57
(g73
g59
NtRp3342
(dp3343
g62
(dp3344
sg71
g3317
sg64
(lp3345
g57
(g78
g59
NtRp3346
(dp3347
g62
(dp3348
g82
g83
ssg71
g3342
sg64
(lp3349
g2181
asbag57
(g78
g59
NtRp3350
(dp3351
g62
(dp3352
g89
g90
ssg71
g3342
sg64
(lp3353
S':'
asbag57
(g78
g59
NtRp3354
(dp3355
g62
(dp3356
sg71
g3342
sg64
(lp3357
g57
(g58
g59
NtRp3358
(dp3359
g62
(dp3360
g70
I4
ssg71
g3354
sg64
(lp3361
g2194
asbasbasbag57
(g73
g59
NtRp3362
(dp3363
g62
(dp3364
sg71
g3317
sg64
(lp3365
g57
(g78
g59
NtRp3366
(dp3367
g62
(dp3368
g82
g83
ssg71
g3362
sg64
(lp3369
g2203
asbag57
(g78
g59
NtRp3370
(dp3371
g62
(dp3372
g89
g90
ssg71
g3362
sg64
(lp3373
S':'
asbag57
(g78
g59
NtRp3374
(dp3375
g62
(dp3376
sg71
g3362
sg64
(lp3377
g57
(g58
g59
NtRp3378
(dp3379
g62
(dp3380
g70
I4
ssg71
g3374
sg64
(lp3381
g57
(g66
g59
NtRp3382
(dp3383
g62
(dp3384
g70
I3
ssg71
Nsg64
(lp3385
sbasbasbasbag57
(g73
g59
NtRp3386
(dp3387
g62
(dp3388
sg71
g3317
sg64
(lp3389
g57
(g78
g59
NtRp3390
(dp3391
g62
(dp3392
g82
g83
ssg71
g3386
sg64
(lp3393
g2228
asbag57
(g78
g59
NtRp3394
(dp3395
g62
(dp3396
g89
g90
ssg71
g3386
sg64
(lp3397
S':'
asbag57
(g78
g59
NtRp3398
(dp3399
g62
(dp3400
sg71
g3386
sg64
(lp3401
g57
(g58
g59
NtRp3402
(dp3403
g62
(dp3404
g70
I4
ssg71
g3398
sg64
(lp3405
S"<Values at 0x335a1b8: {'verbose': False, 'ip': '127.0.0.1', 'with_scheduler': False, 'ips': [], 'shutdown_timeout': 5, 'taskbar': False, 'port': 8000, 'maxthreads': None, 'softcron': False, 'server_name': 'fernado-desktop', 'bpython': False, 'nogui': False, 'pid_filename': 'httpserver.pid', 'extcron': False, 'runcron': False, 'run_system_tests': False, 'test': None, 'folder': '/var/www/web2py_curso', 'config': '', 'minthreads': None, 'winservice': '', 'shell': None, 'run': '', 'log_filename': 'httpserver.log', 'debuglevel': 30, 'args': [''], 'socket_timeout': 5, 'ssl_ca_certificate': None, 'scheduler': None, 'profiler_filename': None, 'ssl_private_key': '', 'scheduler_groups': None, 'password': '123456', 'request_queue_size': 5, 'ssl_certificate': '', 'cronjob': False, 'numthreads': None, 'quiet': False, 'interfaces': None, 'import_models': False, 'timeout': 10, 'plain': False, 'nobanner': False}>"
p3406
asbasbasbag57
(g73
g59
NtRp3407
(dp3408
g62
(dp3409
sg71
g3317
sg64
(lp3410
g57
(g78
g59
NtRp3411
(dp3412
g62
(dp3413
g82
g83
ssg71
g3407
sg64
(lp3414
g2250
asbag57
(g78
g59
NtRp3415
(dp3416
g62
(dp3417
g89
g90
ssg71
g3407
sg64
(lp3418
S':'
asbag57
(g78
g59
NtRp3419
(dp3420
g62
(dp3421
sg71
g3407
sg64
(lp3422
g57
(g58
g59
NtRp3423
(dp3424
g62
(dp3425
g70
I4
ssg71
g3419
sg64
(lp3426
S'set([])'
p3427
asbasbasbag57
(g73
g59
NtRp3428
(dp3429
g62
(dp3430
sg71
g3317
sg64
(lp3431
g57
(g78
g59
NtRp3432
(dp3433
g62
(dp3434
g82
g83
ssg71
g3428
sg64
(lp3435
g2272
asbag57
(g78
g59
NtRp3436
(dp3437
g62
(dp3438
g89
g90
ssg71
g3428
sg64
(lp3439
S':'
asbag57
(g78
g59
NtRp3440
(dp3441
g62
(dp3442
sg71
g3428
sg64
(lp3443
g57
(g58
g59
NtRp3444
(dp3445
g62
(dp3446
g70
I4
ssg71
g3440
sg64
(lp3447
g100
asbasbasbag57
(g73
g59
NtRp3448
(dp3449
g62
(dp3450
sg71
g3317
sg64
(lp3451
g57
(g78
g59
NtRp3452
(dp3453
g62
(dp3454
g82
g83
ssg71
g3448
sg64
(lp3455
g2293
asbag57
(g78
g59
NtRp3456
(dp3457
g62
(dp3458
g89
g90
ssg71
g3448
sg64
(lp3459
S':'
asbag57
(g78
g59
NtRp3460
(dp3461
g62
(dp3462
sg71
g3448
sg64
(lp3463
g57
(g58
g59
NtRp3464
(dp3465
g62
(dp3466
g70
I4
ssg71
g3460
sg64
(lp3467
g2306
asbasbasbag57
(g73
g59
NtRp3468
(dp3469
g62
(dp3470
sg71
g3317
sg64
(lp3471
g57
(g78
g59
NtRp3472
(dp3473
g62
(dp3474
g82
g83
ssg71
g3468
sg64
(lp3475
g2513
asbag57
(g78
g59
NtRp3476
(dp3477
g62
(dp3478
g89
g90
ssg71
g3468
sg64
(lp3479
S':'
asbag57
(g78
g59
NtRp3480
(dp3481
g62
(dp3482
sg71
g3468
sg64
(lp3483
g57
(g58
g59
NtRp3484
(dp3485
g62
(dp3486
g70
I4
ssg71
g3480
sg64
(lp3487
g100
asbasbasbag57
(g73
g59
NtRp3488
(dp3489
g62
(dp3490
sg71
g3317
sg64
(lp3491
g57
(g78
g59
NtRp3492
(dp3493
g62
(dp3494
g82
g83
ssg71
g3488
sg64
(lp3495
g2534
asbag57
(g78
g59
NtRp3496
(dp3497
g62
(dp3498
g89
g90
ssg71
g3488
sg64
(lp3499
S':'
asbag57
(g78
g59
NtRp3500
(dp3501
g62
(dp3502
sg71
g3488
sg64
(lp3503
g57
(g58
g59
NtRp3504
(dp3505
g62
(dp3506
g70
I4
ssg71
g3500
sg64
(lp3507
g100
asbasbasbag57
(g73
g59
NtRp3508
(dp3509
g62
(dp3510
sg71
g3317
sg64
(lp3511
g57
(g78
g59
NtRp3512
(dp3513
g62
(dp3514
g82
g83
ssg71
g3508
sg64
(lp3515
g2555
asbag57
(g78
g59
NtRp3516
(dp3517
g62
(dp3518
g89
g90
ssg71
g3508
sg64
(lp3519
S':'
asbag57
(g78
g59
NtRp3520
(dp3521
g62
(dp3522
sg71
g3508
sg64
(lp3523
g57
(g58
g59
NtRp3524
(dp3525
g62
(dp3526
g70
I4
ssg71
g3520
sg64
(lp3527
g57
(g66
g59
NtRp3528
(dp3529
g62
(dp3530
g70
I3
ssg71
Nsg64
(lp3531
g57
(g73
g59
NtRp3532
(dp3533
g62
(dp3534
sg71
g3528
sg64
(lp3535
g57
(g78
g59
NtRp3536
(dp3537
g62
(dp3538
sg71
g3532
sg64
(lp3539
g57
(g58
g59
NtRp3540
(dp3541
g62
(dp3542
g70
I3
ssg71
g3536
sg64
(lp3543
g2584
asbasbasbag57
(g73
g59
NtRp3544
(dp3545
g62
(dp3546
sg71
g3528
sg64
(lp3547
g57
(g78
g59
NtRp3548
(dp3549
g62
(dp3550
sg71
g3544
sg64
(lp3551
g57
(g58
g59
NtRp3552
(dp3553
g62
(dp3554
g70
I3
ssg71
g3548
sg64
(lp3555
g2597
asbasbasbag57
(g73
g59
NtRp3556
(dp3557
g62
(dp3558
sg71
g3528
sg64
(lp3559
g57
(g78
g59
NtRp3560
(dp3561
g62
(dp3562
sg71
g3556
sg64
(lp3563
g57
(g58
g59
NtRp3564
(dp3565
g62
(dp3566
g70
I3
ssg71
g3560
sg64
(lp3567
g2610
asbasbasbag57
(g73
g59
NtRp3568
(dp3569
g62
(dp3570
sg71
g3528
sg64
(lp3571
g57
(g78
g59
NtRp3572
(dp3573
g62
(dp3574
sg71
g3568
sg64
(lp3575
g57
(g58
g59
NtRp3576
(dp3577
g62
(dp3578
g70
I3
ssg71
g3572
sg64
(lp3579
g2623
asbasbasbag57
(g73
g59
NtRp3580
(dp3581
g62
(dp3582
sg71
g3528
sg64
(lp3583
g57
(g78
g59
NtRp3584
(dp3585
g62
(dp3586
sg71
g3580
sg64
(lp3587
g57
(g58
g59
NtRp3588
(dp3589
g62
(dp3590
g70
I3
ssg71
g3584
sg64
(lp3591
g2636
asbasbasbasbasbasbasbag57
(g73
g59
NtRp3592
(dp3593
g62
(dp3594
sg71
g3317
sg64
(lp3595
g57
(g78
g59
NtRp3596
(dp3597
g62
(dp3598
g82
g83
ssg71
g3592
sg64
(lp3599
g2925
asbag57
(g78
g59
NtRp3600
(dp3601
g62
(dp3602
g89
g90
ssg71
g3592
sg64
(lp3603
S':'
asbag57
(g78
g59
NtRp3604
(dp3605
g62
(dp3606
sg71
g3592
sg64
(lp3607
g57
(g58
g59
NtRp3608
(dp3609
g62
(dp3610
g70
I4
ssg71
g3604
sg64
(lp3611
g57
(g66
g59
NtRp3612
(dp3613
g62
(dp3614
g70
I3
ssg71
Nsg64
(lp3615
g57
(g73
g59
NtRp3616
(dp3617
g62
(dp3618
sg71
g3612
sg64
(lp3619
g57
(g78
g59
NtRp3620
(dp3621
g62
(dp3622
sg71
g3616
sg64
(lp3623
g57
(g58
g59
NtRp3624
(dp3625
g62
(dp3626
g70
I3
ssg71
g3620
sg64
(lp3627
S'2'
asbasbasbag57
(g73
g59
NtRp3628
(dp3629
g62
(dp3630
sg71
g3612
sg64
(lp3631
g57
(g78
g59
NtRp3632
(dp3633
g62
(dp3634
sg71
g3628
sg64
(lp3635
g57
(g58
g59
NtRp3636
(dp3637
g62
(dp3638
g70
I3
ssg71
g3632
sg64
(lp3639
S'3'
asbasbasbag57
(g73
g59
NtRp3640
(dp3641
g62
(dp3642
sg71
g3612
sg64
(lp3643
g57
(g78
g59
NtRp3644
(dp3645
g62
(dp3646
sg71
g3640
sg64
(lp3647
g57
(g58
g59
NtRp3648
(dp3649
g62
(dp3650
g70
I3
ssg71
g3644
sg64
(lp3651
S'2'
asbasbasbag57
(g73
g59
NtRp3652
(dp3653
g62
(dp3654
sg71
g3612
sg64
(lp3655
g57
(g78
g59
NtRp3656
(dp3657
g62
(dp3658
sg71
g3652
sg64
(lp3659
g57
(g58
g59
NtRp3660
(dp3661
g62
(dp3662
g70
I3
ssg71
g3656
sg64
(lp3663
S'datetime.datetime(2012, 12, 17, 15, 3, 30)'
p3664
asbasbasbag57
(g73
g59
NtRp3665
(dp3666
g62
(dp3667
sg71
g3612
sg64
(lp3668
g57
(g78
g59
NtRp3669
(dp3670
g62
(dp3671
sg71
g3665
sg64
(lp3672
g57
(g58
g59
NtRp3673
(dp3674
g62
(dp3675
g70
I3
ssg71
g3669
sg64
(lp3676
g3003
asbasbasbasbasbasbasbasbasbasbasbag57
(g73
g59
NtRp3677
(dp3678
g62
(dp3679
sg71
g67
sg64
(lp3680
g57
(g78
g59
NtRp3681
(dp3682
g62
(dp3683
g82
g83
ssg71
g3677
sg64
(lp3684
S'is_https'
p3685
asbag57
(g78
g59
NtRp3686
(dp3687
g62
(dp3688
g89
g90
ssg71
g3677
sg64
(lp3689
S':'
asbag57
(g78
g59
NtRp3690
(dp3691
g62
(dp3692
sg71
g3677
sg64
(lp3693
g57
(g58
g59
NtRp3694
(dp3695
g62
(dp3696
g70
I5
ssg71
g3690
sg64
(lp3697
g100
asbasbasbag57
(g73
g59
NtRp3698
(dp3699
g62
(dp3700
sg71
g67
sg64
(lp3701
g57
(g78
g59
NtRp3702
(dp3703
g62
(dp3704
g82
g83
ssg71
g3698
sg64
(lp3705
S'is_local'
p3706
asbag57
(g78
g59
NtRp3707
(dp3708
g62
(dp3709
g89
g90
ssg71
g3698
sg64
(lp3710
S':'
asbag57
(g78
g59
NtRp3711
(dp3712
g62
(dp3713
sg71
g3698
sg64
(lp3714
g57
(g58
g59
NtRp3715
(dp3716
g62
(dp3717
g70
I5
ssg71
g3711
sg64
(lp3718
g3112
asbasbasbag57
(g73
g59
NtRp3719
(dp3720
g62
(dp3721
sg71
g67
sg64
(lp3722
g57
(g78
g59
NtRp3723
(dp3724
g62
(dp3725
g82
g83
ssg71
g3719
sg64
(lp3726
S'is_restful'
p3727
asbag57
(g78
g59
NtRp3728
(dp3729
g62
(dp3730
g89
g90
ssg71
g3719
sg64
(lp3731
S':'
asbag57
(g78
g59
NtRp3732
(dp3733
g62
(dp3734
sg71
g3719
sg64
(lp3735
g57
(g58
g59
NtRp3736
(dp3737
g62
(dp3738
g70
I5
ssg71
g3732
sg64
(lp3739
g100
asbasbasbag57
(g73
g59
NtRp3740
(dp3741
g62
(dp3742
sg71
g67
sg64
(lp3743
g57
(g78
g59
NtRp3744
(dp3745
g62
(dp3746
g82
g83
ssg71
g3740
sg64
(lp3747
S'now'
p3748
asbag57
(g78
g59
NtRp3749
(dp3750
g62
(dp3751
g89
g90
ssg71
g3740
sg64
(lp3752
S':'
asbag57
(g78
g59
NtRp3753
(dp3754
g62
(dp3755
sg71
g3740
sg64
(lp3756
g57
(g58
g59
NtRp3757
(dp3758
g62
(dp3759
g70
I5
ssg71
g3753
sg64
(lp3760
S'datetime.datetime(2013, 2, 4, 12, 43, 42, 410940)'
p3761
asbasbasbag57
(g73
g59
NtRp3762
(dp3763
g62
(dp3764
sg71
g67
sg64
(lp3765
g57
(g78
g59
NtRp3766
(dp3767
g62
(dp3768
g82
g83
ssg71
g3762
sg64
(lp3769
S'post_vars'
p3770
asbag57
(g78
g59
NtRp3771
(dp3772
g62
(dp3773
g89
g90
ssg71
g3762
sg64
(lp3774
S':'
asbag57
(g78
g59
NtRp3775
(dp3776
g62
(dp3777
sg71
g3762
sg64
(lp3778
g57
(g58
g59
NtRp3779
(dp3780
g62
(dp3781
g70
I5
ssg71
g3775
sg64
(lp3782
g57
(g66
g59
NtRp3783
(dp3784
g62
(dp3785
g70
I4
ssg71
Nsg64
(lp3786
sbasbasbasbag57
(g73
g59
NtRp3787
(dp3788
g62
(dp3789
sg71
g67
sg64
(lp3790
g57
(g78
g59
NtRp3791
(dp3792
g62
(dp3793
g82
g83
ssg71
g3787
sg64
(lp3794
S'url'
p3795
asbag57
(g78
g59
NtRp3796
(dp3797
g62
(dp3798
g89
g90
ssg71
g3787
sg64
(lp3799
S':'
asbag57
(g78
g59
NtRp3800
(dp3801
g62
(dp3802
sg71
g3787
sg64
(lp3803
g57
(g58
g59
NtRp3804
(dp3805
g62
(dp3806
g70
I5
ssg71
g3800
sg64
(lp3807
S'/'
asbasbasbag57
(g73
g59
NtRp3808
(dp3809
g62
(dp3810
sg71
g67
sg64
(lp3811
g57
(g78
g59
NtRp3812
(dp3813
g62
(dp3814
g82
g83
ssg71
g3808
sg64
(lp3815
S'utcnow'
p3816
asbag57
(g78
g59
NtRp3817
(dp3818
g62
(dp3819
g89
g90
ssg71
g3808
sg64
(lp3820
S':'
asbag57
(g78
g59
NtRp3821
(dp3822
g62
(dp3823
sg71
g3808
sg64
(lp3824
g57
(g58
g59
NtRp3825
(dp3826
g62
(dp3827
g70
I5
ssg71
g3821
sg64
(lp3828
S'datetime.datetime(2013, 2, 4, 14, 43, 42, 410988)'
p3829
asbasbasbag57
(g73
g59
NtRp3830
(dp3831
g62
(dp3832
sg71
g67
sg64
(lp3833
g57
(g78
g59
NtRp3834
(dp3835
g62
(dp3836
g82
g83
ssg71
g3830
sg64
(lp3837
S'uuid'
p3838
asbag57
(g78
g59
NtRp3839
(dp3840
g62
(dp3841
g89
g90
ssg71
g3830
sg64
(lp3842
S':'
asbag57
(g78
g59
NtRp3843
(dp3844
g62
(dp3845
sg71
g3830
sg64
(lp3846
g57
(g58
g59
NtRp3847
(dp3848
g62
(dp3849
g70
I5
ssg71
g3843
sg64
(lp3850
S'projeto/127.0.0.1.2013-02-04.12-43-42.b48ceb55-aaca-4419-a6b4-5e3293cf43a4'
p3851
asbasbasbag57
(g73
g59
NtRp3852
(dp3853
g62
(dp3854
sg71
g67
sg64
(lp3855
g57
(g78
g59
NtRp3856
(dp3857
g62
(dp3858
g82
g83
ssg71
g3852
sg64
(lp3859
S'vars'
p3860
asbag57
(g78
g59
NtRp3861
(dp3862
g62
(dp3863
g89
g90
ssg71
g3852
sg64
(lp3864
S':'
asbag57
(g78
g59
NtRp3865
(dp3866
g62
(dp3867
sg71
g3852
sg64
(lp3868
g57
(g58
g59
NtRp3869
(dp3870
g62
(dp3871
g70
I5
ssg71
g3865
sg64
(lp3872
g57
(g66
g59
NtRp3873
(dp3874
g62
(dp3875
g70
I4
ssg71
Nsg64
(lp3876
sbasbasbasbag57
(g73
g59
NtRp3877
(dp3878
g62
(dp3879
sg71
g67
sg64
(lp3880
g57
(g78
g59
NtRp3881
(dp3882
g62
(dp3883
g82
g83
ssg71
g3877
sg64
(lp3884
S'wsgi'
p3885
asbag57
(g78
g59
NtRp3886
(dp3887
g62
(dp3888
g89
g90
ssg71
g3877
sg64
(lp3889
S':'
asbag57
(g78
g59
NtRp3890
(dp3891
g62
(dp3892
sg71
g3877
sg64
(lp3893
g57
(g58
g59
NtRp3894
(dp3895
g62
(dp3896
g70
I5
ssg71
g3890
sg64
(lp3897
g57
(g66
g59
NtRp3898
(dp3899
g62
(dp3900
g70
I4
ssg71
Nsg64
(lp3901
g57
(g73
g59
NtRp3902
(dp3903
g62
(dp3904
sg71
g3898
sg64
(lp3905
g57
(g78
g59
NtRp3906
(dp3907
g62
(dp3908
g82
g83
ssg71
g3902
sg64
(lp3909
S'environ'
p3910
asbag57
(g78
g59
NtRp3911
(dp3912
g62
(dp3913
g89
g90
ssg71
g3902
sg64
(lp3914
S':'
asbag57
(g78
g59
NtRp3915
(dp3916
g62
(dp3917
sg71
g3902
sg64
(lp3918
g57
(g58
g59
NtRp3919
(dp3920
g62
(dp3921
g70
I4
ssg71
g3915
sg64
(lp3922
g57
(g66
g59
NtRp3923
(dp3924
g62
(dp3925
g70
I3
ssg71
Nsg64
(lp3926
g57
(g73
g59
NtRp3927
(dp3928
g62
(dp3929
sg71
g3923
sg64
(lp3930
g57
(g78
g59
NtRp3931
(dp3932
g62
(dp3933
g82
g83
ssg71
g3927
sg64
(lp3934
S'HTTP_ACCEPT'
p3935
asbag57
(g78
g59
NtRp3936
(dp3937
g62
(dp3938
g89
g90
ssg71
g3927
sg64
(lp3939
S':'
asbag57
(g78
g59
NtRp3940
(dp3941
g62
(dp3942
sg71
g3927
sg64
(lp3943
g57
(g58
g59
NtRp3944
(dp3945
g62
(dp3946
g70
I3
ssg71
g3940
sg64
(lp3947
g2328
asbasbasbag57
(g73
g59
NtRp3948
(dp3949
g62
(dp3950
sg71
g3923
sg64
(lp3951
g57
(g78
g59
NtRp3952
(dp3953
g62
(dp3954
g82
g83
ssg71
g3948
sg64
(lp3955
S'HTTP_ACCEPT_CHARSET'
p3956
asbag57
(g78
g59
NtRp3957
(dp3958
g62
(dp3959
g89
g90
ssg71
g3948
sg64
(lp3960
S':'
asbag57
(g78
g59
NtRp3961
(dp3962
g62
(dp3963
sg71
g3948
sg64
(lp3964
g57
(g58
g59
NtRp3965
(dp3966
g62
(dp3967
g70
I3
ssg71
g3961
sg64
(lp3968
g2350
asbasbasbag57
(g73
g59
NtRp3969
(dp3970
g62
(dp3971
sg71
g3923
sg64
(lp3972
g57
(g78
g59
NtRp3973
(dp3974
g62
(dp3975
g82
g83
ssg71
g3969
sg64
(lp3976
S'HTTP_ACCEPT_ENCODING'
p3977
asbag57
(g78
g59
NtRp3978
(dp3979
g62
(dp3980
g89
g90
ssg71
g3969
sg64
(lp3981
S':'
asbag57
(g78
g59
NtRp3982
(dp3983
g62
(dp3984
sg71
g3969
sg64
(lp3985
g57
(g58
g59
NtRp3986
(dp3987
g62
(dp3988
g70
I3
ssg71
g3982
sg64
(lp3989
g2372
asbasbasbag57
(g73
g59
NtRp3990
(dp3991
g62
(dp3992
sg71
g3923
sg64
(lp3993
g57
(g78
g59
NtRp3994
(dp3995
g62
(dp3996
g82
g83
ssg71
g3990
sg64
(lp3997
S'HTTP_ACCEPT_LANGUAGE'
p3998
asbag57
(g78
g59
NtRp3999
(dp4000
g62
(dp4001
g89
g90
ssg71
g3990
sg64
(lp4002
S':'
asbag57
(g78
g59
NtRp4003
(dp4004
g62
(dp4005
sg71
g3990
sg64
(lp4006
g57
(g58
g59
NtRp4007
(dp4008
g62
(dp4009
g70
I3
ssg71
g4003
sg64
(lp4010
g2394
asbasbasbag57
(g73
g59
NtRp4011
(dp4012
g62
(dp4013
sg71
g3923
sg64
(lp4014
g57
(g78
g59
NtRp4015
(dp4016
g62
(dp4017
g82
g83
ssg71
g4011
sg64
(lp4018
S'HTTP_CACHE_CONTROL'
p4019
asbag57
(g78
g59
NtRp4020
(dp4021
g62
(dp4022
g89
g90
ssg71
g4011
sg64
(lp4023
S':'
asbag57
(g78
g59
NtRp4024
(dp4025
g62
(dp4026
sg71
g4011
sg64
(lp4027
g57
(g58
g59
NtRp4028
(dp4029
g62
(dp4030
g70
I3
ssg71
g4024
sg64
(lp4031
g2416
asbasbasbag57
(g73
g59
NtRp4032
(dp4033
g62
(dp4034
sg71
g3923
sg64
(lp4035
g57
(g78
g59
NtRp4036
(dp4037
g62
(dp4038
g82
g83
ssg71
g4032
sg64
(lp4039
S'HTTP_CONNECTION'
p4040
asbag57
(g78
g59
NtRp4041
(dp4042
g62
(dp4043
g89
g90
ssg71
g4032
sg64
(lp4044
S':'
asbag57
(g78
g59
NtRp4045
(dp4046
g62
(dp4047
sg71
g4032
sg64
(lp4048
g57
(g58
g59
NtRp4049
(dp4050
g62
(dp4051
g70
I3
ssg71
g4045
sg64
(lp4052
g2438
asbasbasbag57
(g73
g59
NtRp4053
(dp4054
g62
(dp4055
sg71
g3923
sg64
(lp4056
g57
(g78
g59
NtRp4057
(dp4058
g62
(dp4059
g82
g83
ssg71
g4053
sg64
(lp4060
S'HTTP_COOKIE'
p4061
asbag57
(g78
g59
NtRp4062
(dp4063
g62
(dp4064
g89
g90
ssg71
g4053
sg64
(lp4065
S':'
asbag57
(g78
g59
NtRp4066
(dp4067
g62
(dp4068
sg71
g4053
sg64
(lp4069
g57
(g58
g59
NtRp4070
(dp4071
g62
(dp4072
g70
I3
ssg71
g4066
sg64
(lp4073
g2460
asbasbasbag57
(g73
g59
NtRp4074
(dp4075
g62
(dp4076
sg71
g3923
sg64
(lp4077
g57
(g78
g59
NtRp4078
(dp4079
g62
(dp4080
g82
g83
ssg71
g4074
sg64
(lp4081
S'HTTP_HOST'
p4082
asbag57
(g78
g59
NtRp4083
(dp4084
g62
(dp4085
g89
g90
ssg71
g4074
sg64
(lp4086
S':'
asbag57
(g78
g59
NtRp4087
(dp4088
g62
(dp4089
sg71
g4074
sg64
(lp4090
g57
(g58
g59
NtRp4091
(dp4092
g62
(dp4093
g70
I3
ssg71
g4087
sg64
(lp4094
g2482
asbasbasbag57
(g73
g59
NtRp4095
(dp4096
g62
(dp4097
sg71
g3923
sg64
(lp4098
g57
(g78
g59
NtRp4099
(dp4100
g62
(dp4101
g82
g83
ssg71
g4095
sg64
(lp4102
S'HTTP_USER_AGENT'
p4103
asbag57
(g78
g59
NtRp4104
(dp4105
g62
(dp4106
g89
g90
ssg71
g4095
sg64
(lp4107
S':'
asbag57
(g78
g59
NtRp4108
(dp4109
g62
(dp4110
sg71
g4095
sg64
(lp4111
g57
(g58
g59
NtRp4112
(dp4113
g62
(dp4114
g70
I3
ssg71
g4108
sg64
(lp4115
g2504
asbasbasbag57
(g73
g59
NtRp4116
(dp4117
g62
(dp4118
sg71
g3923
sg64
(lp4119
g57
(g78
g59
NtRp4120
(dp4121
g62
(dp4122
g82
g83
ssg71
g4116
sg64
(lp4123
S'PATH_INFO'
p4124
asbag57
(g78
g59
NtRp4125
(dp4126
g62
(dp4127
g89
g90
ssg71
g4116
sg64
(lp4128
S':'
asbag57
(g78
g59
NtRp4129
(dp4130
g62
(dp4131
sg71
g4116
sg64
(lp4132
g57
(g58
g59
NtRp4133
(dp4134
g62
(dp4135
g70
I3
ssg71
g4129
sg64
(lp4136
S'/'
asbasbasbag57
(g73
g59
NtRp4137
(dp4138
g62
(dp4139
sg71
g3923
sg64
(lp4140
g57
(g78
g59
NtRp4141
(dp4142
g62
(dp4143
g82
g83
ssg71
g4137
sg64
(lp4144
S'QUERY_STRING'
p4145
asbag57
(g78
g59
NtRp4146
(dp4147
g62
(dp4148
g89
g90
ssg71
g4137
sg64
(lp4149
S':'
asbag57
(g78
g59
NtRp4150
(dp4151
g62
(dp4152
sg71
g4137
sg64
(lp4153
g57
(g58
g59
NtRp4154
(dp4155
g62
(dp4156
g70
I3
ssg71
g4150
sg64
(lp4157
S''
asbasbasbag57
(g73
g59
NtRp4158
(dp4159
g62
(dp4160
sg71
g3923
sg64
(lp4161
g57
(g78
g59
NtRp4162
(dp4163
g62
(dp4164
g82
g83
ssg71
g4158
sg64
(lp4165
S'REMOTE_ADDR'
p4166
asbag57
(g78
g59
NtRp4167
(dp4168
g62
(dp4169
g89
g90
ssg71
g4158
sg64
(lp4170
S':'
asbag57
(g78
g59
NtRp4171
(dp4172
g62
(dp4173
sg71
g4158
sg64
(lp4174
g57
(g58
g59
NtRp4175
(dp4176
g62
(dp4177
g70
I3
ssg71
g4171
sg64
(lp4178
g212
asbasbasbag57
(g73
g59
NtRp4179
(dp4180
g62
(dp4181
sg71
g3923
sg64
(lp4182
g57
(g78
g59
NtRp4183
(dp4184
g62
(dp4185
g82
g83
ssg71
g4179
sg64
(lp4186
S'REMOTE_PORT'
p4187
asbag57
(g78
g59
NtRp4188
(dp4189
g62
(dp4190
g89
g90
ssg71
g4179
sg64
(lp4191
S':'
asbag57
(g78
g59
NtRp4192
(dp4193
g62
(dp4194
sg71
g4179
sg64
(lp4195
g57
(g58
g59
NtRp4196
(dp4197
g62
(dp4198
g70
I3
ssg71
g4192
sg64
(lp4199
g2721
asbasbasbag57
(g73
g59
NtRp4200
(dp4201
g62
(dp4202
sg71
g3923
sg64
(lp4203
g57
(g78
g59
NtRp4204
(dp4205
g62
(dp4206
g82
g83
ssg71
g4200
sg64
(lp4207
S'REQUEST_METHOD'
p4208
asbag57
(g78
g59
NtRp4209
(dp4210
g62
(dp4211
g89
g90
ssg71
g4200
sg64
(lp4212
S':'
asbag57
(g78
g59
NtRp4213
(dp4214
g62
(dp4215
sg71
g4200
sg64
(lp4216
g57
(g58
g59
NtRp4217
(dp4218
g62
(dp4219
g70
I3
ssg71
g4213
sg64
(lp4220
g2743
asbasbasbag57
(g73
g59
NtRp4221
(dp4222
g62
(dp4223
sg71
g3923
sg64
(lp4224
g57
(g78
g59
NtRp4225
(dp4226
g62
(dp4227
g82
g83
ssg71
g4221
sg64
(lp4228
S'REQUEST_URI'
p4229
asbag57
(g78
g59
NtRp4230
(dp4231
g62
(dp4232
g89
g90
ssg71
g4221
sg64
(lp4233
S':'
asbag57
(g78
g59
NtRp4234
(dp4235
g62
(dp4236
sg71
g4221
sg64
(lp4237
g57
(g58
g59
NtRp4238
(dp4239
g62
(dp4240
g70
I3
ssg71
g4234
sg64
(lp4241
g2765
asbasbasbag57
(g73
g59
NtRp4242
(dp4243
g62
(dp4244
sg71
g3923
sg64
(lp4245
g57
(g78
g59
NtRp4246
(dp4247
g62
(dp4248
g82
g83
ssg71
g4242
sg64
(lp4249
S'SCRIPT_NAME'
p4250
asbag57
(g78
g59
NtRp4251
(dp4252
g62
(dp4253
g89
g90
ssg71
g4242
sg64
(lp4254
S':'
asbag57
(g78
g59
NtRp4255
(dp4256
g62
(dp4257
sg71
g4242
sg64
(lp4258
g57
(g58
g59
NtRp4259
(dp4260
g62
(dp4261
g70
I3
ssg71
g4255
sg64
(lp4262
S''
asbasbasbag57
(g73
g59
NtRp4263
(dp4264
g62
(dp4265
sg71
g3923
sg64
(lp4266
g57
(g78
g59
NtRp4267
(dp4268
g62
(dp4269
g82
g83
ssg71
g4263
sg64
(lp4270
S'SERVER_NAME'
p4271
asbag57
(g78
g59
NtRp4272
(dp4273
g62
(dp4274
g89
g90
ssg71
g4263
sg64
(lp4275
S':'
asbag57
(g78
g59
NtRp4276
(dp4277
g62
(dp4278
sg71
g4263
sg64
(lp4279
g57
(g58
g59
NtRp4280
(dp4281
g62
(dp4282
g70
I3
ssg71
g4276
sg64
(lp4283
g2808
asbasbasbag57
(g73
g59
NtRp4284
(dp4285
g62
(dp4286
sg71
g3923
sg64
(lp4287
g57
(g78
g59
NtRp4288
(dp4289
g62
(dp4290
g82
g83
ssg71
g4284
sg64
(lp4291
S'SERVER_PORT'
p4292
asbag57
(g78
g59
NtRp4293
(dp4294
g62
(dp4295
g89
g90
ssg71
g4284
sg64
(lp4296
S':'
asbag57
(g78
g59
NtRp4297
(dp4298
g62
(dp4299
sg71
g4284
sg64
(lp4300
g57
(g58
g59
NtRp4301
(dp4302
g62
(dp4303
g70
I3
ssg71
g4297
sg64
(lp4304
g2830
asbasbasbag57
(g73
g59
NtRp4305
(dp4306
g62
(dp4307
sg71
g3923
sg64
(lp4308
g57
(g78
g59
NtRp4309
(dp4310
g62
(dp4311
g82
g83
ssg71
g4305
sg64
(lp4312
S'SERVER_PROTOCOL'
p4313
asbag57
(g78
g59
NtRp4314
(dp4315
g62
(dp4316
g89
g90
ssg71
g4305
sg64
(lp4317
S':'
asbag57
(g78
g59
NtRp4318
(dp4319
g62
(dp4320
sg71
g4305
sg64
(lp4321
g57
(g58
g59
NtRp4322
(dp4323
g62
(dp4324
g70
I3
ssg71
g4318
sg64
(lp4325
g2852
asbasbasbag57
(g73
g59
NtRp4326
(dp4327
g62
(dp4328
sg71
g3923
sg64
(lp4329
g57
(g78
g59
NtRp4330
(dp4331
g62
(dp4332
g82
g83
ssg71
g4326
sg64
(lp4333
S'SERVER_SOFTWARE'
p4334
asbag57
(g78
g59
NtRp4335
(dp4336
g62
(dp4337
g89
g90
ssg71
g4326
sg64
(lp4338
S':'
asbag57
(g78
g59
NtRp4339
(dp4340
g62
(dp4341
sg71
g4326
sg64
(lp4342
g57
(g58
g59
NtRp4343
(dp4344
g62
(dp4345
g70
I3
ssg71
g4339
sg64
(lp4346
g2874
asbasbasbag57
(g73
g59
NtRp4347
(dp4348
g62
(dp4349
sg71
g3923
sg64
(lp4350
g57
(g78
g59
NtRp4351
(dp4352
g62
(dp4353
g82
g83
ssg71
g4347
sg64
(lp4354
S'WEB2PY_ORIGINAL_URI'
p4355
asbag57
(g78
g59
NtRp4356
(dp4357
g62
(dp4358
g89
g90
ssg71
g4347
sg64
(lp4359
S':'
asbag57
(g78
g59
NtRp4360
(dp4361
g62
(dp4362
sg71
g4347
sg64
(lp4363
g57
(g58
g59
NtRp4364
(dp4365
g62
(dp4366
g70
I3
ssg71
g4360
sg64
(lp4367
S'/'
asbasbasbag57
(g73
g59
NtRp4368
(dp4369
g62
(dp4370
sg71
g3923
sg64
(lp4371
g57
(g78
g59
NtRp4372
(dp4373
g62
(dp4374
g82
g83
ssg71
g4368
sg64
(lp4375
S'wsgi.errors'
p4376
asbag57
(g78
g59
NtRp4377
(dp4378
g62
(dp4379
g89
g90
ssg71
g4368
sg64
(lp4380
S':'
asbag57
(g78
g59
NtRp4381
(dp4382
g62
(dp4383
sg71
g4368
sg64
(lp4384
g57
(g58
g59
NtRp4385
(dp4386
g62
(dp4387
g70
I3
ssg71
g4381
sg64
(lp4388
S"<open file '<stderr>', mode 'w' at 0x7fb4dd175270>"
p4389
asbasbasbag57
(g73
g59
NtRp4390
(dp4391
g62
(dp4392
sg71
g3923
sg64
(lp4393
g57
(g78
g59
NtRp4394
(dp4395
g62
(dp4396
g82
g83
ssg71
g4390
sg64
(lp4397
S'wsgi.file_wrapper'
p4398
asbag57
(g78
g59
NtRp4399
(dp4400
g62
(dp4401
g89
g90
ssg71
g4390
sg64
(lp4402
S':'
asbag57
(g78
g59
NtRp4403
(dp4404
g62
(dp4405
sg71
g4390
sg64
(lp4406
g57
(g58
g59
NtRp4407
(dp4408
g62
(dp4409
g70
I3
ssg71
g4403
sg64
(lp4410
S'<class wsgiref.util.FileWrapper at 0x37136d0>'
p4411
asbasbasbag57
(g73
g59
NtRp4412
(dp4413
g62
(dp4414
sg71
g3923
sg64
(lp4415
g57
(g78
g59
NtRp4416
(dp4417
g62
(dp4418
g82
g83
ssg71
g4412
sg64
(lp4419
S'wsgi.input'
p4420
asbag57
(g78
g59
NtRp4421
(dp4422
g62
(dp4423
g89
g90
ssg71
g4412
sg64
(lp4424
S':'
asbag57
(g78
g59
NtRp4425
(dp4426
g62
(dp4427
sg71
g4412
sg64
(lp4428
g57
(g58
g59
NtRp4429
(dp4430
g62
(dp4431
g70
I3
ssg71
g4425
sg64
(lp4432
S'<cStringIO.StringO object at 0x7fb4b0363ea0>'
p4433
asbasbasbag57
(g73
g59
NtRp4434
(dp4435
g62
(dp4436
sg71
g3923
sg64
(lp4437
g57
(g78
g59
NtRp4438
(dp4439
g62
(dp4440
g82
g83
ssg71
g4434
sg64
(lp4441
S'wsgi.multiprocess'
p4442
asbag57
(g78
g59
NtRp4443
(dp4444
g62
(dp4445
g89
g90
ssg71
g4434
sg64
(lp4446
S':'
asbag57
(g78
g59
NtRp4447
(dp4448
g62
(dp4449
sg71
g4434
sg64
(lp4450
g57
(g58
g59
NtRp4451
(dp4452
g62
(dp4453
g70
I3
ssg71
g4447
sg64
(lp4454
g100
asbasbasbag57
(g73
g59
NtRp4455
(dp4456
g62
(dp4457
sg71
g3923
sg64
(lp4458
g57
(g78
g59
NtRp4459
(dp4460
g62
(dp4461
g82
g83
ssg71
g4455
sg64
(lp4462
S'wsgi.multithread'
p4463
asbag57
(g78
g59
NtRp4464
(dp4465
g62
(dp4466
g89
g90
ssg71
g4455
sg64
(lp4467
S':'
asbag57
(g78
g59
NtRp4468
(dp4469
g62
(dp4470
sg71
g4455
sg64
(lp4471
g57
(g58
g59
NtRp4472
(dp4473
g62
(dp4474
g70
I3
ssg71
g4468
sg64
(lp4475
g3112
asbasbasbag57
(g73
g59
NtRp4476
(dp4477
g62
(dp4478
sg71
g3923
sg64
(lp4479
g57
(g78
g59
NtRp4480
(dp4481
g62
(dp4482
g82
g83
ssg71
g4476
sg64
(lp4483
S'wsgi.run_once'
p4484
asbag57
(g78
g59
NtRp4485
(dp4486
g62
(dp4487
g89
g90
ssg71
g4476
sg64
(lp4488
S':'
asbag57
(g78
g59
NtRp4489
(dp4490
g62
(dp4491
sg71
g4476
sg64
(lp4492
g57
(g58
g59
NtRp4493
(dp4494
g62
(dp4495
g70
I3
ssg71
g4489
sg64
(lp4496
g100
asbasbasbag57
(g73
g59
NtRp4497
(dp4498
g62
(dp4499
sg71
g3923
sg64
(lp4500
g57
(g78
g59
NtRp4501
(dp4502
g62
(dp4503
g82
g83
ssg71
g4497
sg64
(lp4504
S'wsgi.url_scheme'
p4505
asbag57
(g78
g59
NtRp4506
(dp4507
g62
(dp4508
g89
g90
ssg71
g4497
sg64
(lp4509
S':'
asbag57
(g78
g59
NtRp4510
(dp4511
g62
(dp4512
sg71
g4497
sg64
(lp4513
g57
(g58
g59
NtRp4514
(dp4515
g62
(dp4516
g70
I3
ssg71
g4510
sg64
(lp4517
g3155
asbasbasbag57
(g73
g59
NtRp4518
(dp4519
g62
(dp4520
sg71
g3923
sg64
(lp4521
g57
(g78
g59
NtRp4522
(dp4523
g62
(dp4524
g82
g83
ssg71
g4518
sg64
(lp4525
S'wsgi.version'
p4526
asbag57
(g78
g59
NtRp4527
(dp4528
g62
(dp4529
g89
g90
ssg71
g4518
sg64
(lp4530
S':'
asbag57
(g78
g59
NtRp4531
(dp4532
g62
(dp4533
sg71
g4518
sg64
(lp4534
g57
(g58
g59
NtRp4535
(dp4536
g62
(dp4537
g70
I3
ssg71
g4531
sg64
(lp4538
S'1'
asbasbasbasbasbasbasbasbasbasbasbasbasbsS'frames'
p4539
(lp4540
(dp4541
S'file'
p4542
S'/var/www/web2py_curso/gluon/restricted.py'
p4543
sS'dump'
p4544
(dp4545
S'environment'
p4546
S"{'A': <class 'gluon.html.A'>, 'Auth': <class 'gluon.tools.Auth'>, 'B': <class 'gluon.html.B'>, 'BEAUTIFY': <class 'gluon.html.BEAUTIFY'>, 'BODY': <class 'gluon.html.BODY'>, 'BR': <class 'gluon.html.BR'>, 'BUTTON': <class 'gluon.html.BUTTON'>, 'Blog': <Table blog (id,title,description)>, 'CAT': <class 'gluon.html.CAT'>, 'CENTER': <class 'gluon.html.CENTER'>, ...}"
p4547
sS'ccode'
p4548
S'<code object <module> at 0x7fb4a42a20b0, file "/...cations/projeto/views/initial/home.html", line 1>'
p4549
ssS'lnum'
p4550
I212
sS'lines'
p4551
(dp4552
I207
S'    try:'
p4553
sI208
S'        if isinstance(code, types.CodeType):'
p4554
sI209
S'            ccode = code'
p4555
sI210
S'        else:'
p4556
sI211
S'            ccode = compile2(code, layer)'
p4557
sI212
S'        exec ccode in environment'
p4558
sI213
S'    except HTTP:'
p4559
sI214
S'        raise'
p4560
sI215
S'    except RestrictedError:'
p4561
sI216
S'        # do not encapsulate (obfuscate) the original RestrictedError'
p4562
ssS'call'
p4563
S'(code=\'response.write(\\\'<!DOCTYPE HTML>\\\\n<html lang="en"....</p>\\\\n</div>\\\\n\\\\n</body>\\\\n</html>\\\', escape=False)\', environment={\'A\': <class \'gluon.html.A\'>, \'Auth\': <class \'gluon.tools.Auth\'>, \'B\': <class \'gluon.html.B\'>, \'BEAUTIFY\': <class \'gluon.html.BEAUTIFY\'>, \'BODY\': <class \'gluon.html.BODY\'>, \'BR\': <class \'gluon.html.BR\'>, \'BUTTON\': <class \'gluon.html.BUTTON\'>, \'Blog\': <Table blog (id,title,description)>, \'CAT\': <class \'gluon.html.CAT\'>, \'CENTER\': <class \'gluon.html.CENTER\'>, ...}, layer=\'/var/www/web2py_curso/applications/projeto/views/initial/home.html\')'
p4564
sS'func'
p4565
S'restricted'
p4566
sa(dp4567
g4542
S'/var/www/web2py_curso/applications/projeto/views/initial/home.html'
p4568
sg4544
(dp4569
sg4550
I77
sg4551
(dp4570
I68
S'response.write(posts[0].title)'
p4571
sI69
S"response.write('-->\\n        ', escape=False)"
p4572
sI70
S'for post in posts:'
p4573
sI71
S"    response.write('\\n            ', escape=False)"
p4574
sI72
S"    response.write(' <article>\\n   <header>\\n      <h2>', escape=False)"
p4575
sI73
S'    response.write(post.title)'
p4576
sI74
S"    response.write('</h2>\\n   </header>\\n   <p> ', escape=False)"
p4577
sI75
S'    response.write(XML(post.post_body))'
p4578
sI76
S"    response.write('</p><br>\\n   <footer>\\n      <span>Postado por <b> ', escape=False)"
p4579
sI77
S'    response.write(post.created_by(db.auth_user.first.name))'
p4580
sI78
S"    response.write('</b> em ', escape=False)"
p4581
sI79
S'    response.write(prettydate(post.created_on))'
p4582
sI80
S"    response.write('\\n      \\t', escape=False)"
p4583
sI81
S'    #=post.created_on.strftime("%d/%m/%Y %H:%M")'
p4584
sI82
S"    response.write('\\n\\n   </footer>\\n</article>', escape=False)"
p4585
sI83
S"    response.write('\\n        ', escape=False)"
p4586
sI84
S'    pass'
p4587
sI85
S"response.write('\\n    </section>\\n\\n   ', escape=False)"
p4588
sI86
S'response.write(\'\\n    \\n   <!-- <section id="games" class="post">\\n        <header>\\n           <h1> Games e trens!</h1>\\n        </header>\\n        <article>\\n           <header>\\n              <h2>Sheldon Cooper inventa Xadrez para 3 pessoas</h2>\\n           </header>\\n           <p> Lorem ipsum dolor sit amet, consectetuer adipiscing elit, sed diam inonummy nibh euismod tincidunt ut laoreet dolore magna aliquam erat volutpat.\\n             \\n            <video onclick="this.play()"  height="310" width="550" poster="\', escape=False)'
p4589
sI87
S'response.write(img)'
p4590
ssg4563
S'()'
p4591
sg4565
S'<module>'
p4592
sa(dp4593
g4542
S'/var/www/web2py_curso/gluon/dal.py'
p4594
sg4544
(dp4595
S'builtinstr'
p4596
S"<type 'str'>"
p4597
sS'self'
p4598
S'<Table auth_user (id,first_name,last_name,email,...t_password_key,registration_id,bio,photo,gender)>'
p4599
sS'global ogetattr'
p4600
S"<slot wrapper '__getattribute__' of 'object' objects>"
p4601
sS'key'
p4602
S"'first'"
p4603
ssg4550
I7745
sg4551
(dp4604
I7744
S'        elif key:'
p4605
sI7745
S'            return ogetattr(self, str(key))'
p4606
sI7746
S''
sI7747
S'    def __call__(self, key=DEFAULT, **kwargs):'
p4607
sI7748
S"        for_update = kwargs.get('_for_update',False)"
p4608
sI7749
S"        if '_for_update' in kwargs: del kwargs['_for_update']"
p4609
sI7740
S'                return rows[0]'
p4610
sI7741
S'            return None'
p4611
sI7742
S"        elif str(key).isdigit() or 'google' in DRIVERS and isinstance(key, Key):"
p4612
sI7743
S'            return self._db(self._id == key).select(limitby=(0,1)).first()'
p4613
ssg4563
S"(self=<Table auth_user (id,first_name,last_name,email,...t_password_key,registration_id,bio,photo,gender)>, key='first')"
p4614
sg4565
g20
sasS'pyver'
p4615
S'Python 2.7.3: /usr/bin/python'
p4616
sS'session'
p4617
g57
(g58
g59
NtRp4618
(dp4619
g62
(dp4620
sg64
(lp4621
g57
(g66
g59
NtRp4622
(dp4623
g62
(dp4624
g70
I5
ssg71
Nsg64
(lp4625
g57
(g73
g59
NtRp4626
(dp4627
g62
(dp4628
sg71
g4622
sg64
(lp4629
g57
(g78
g59
NtRp4630
(dp4631
g62
(dp4632
g82
g83
ssg71
g4626
sg64
(lp4633
S'auth'
p4634
asbag57
(g78
g59
NtRp4635
(dp4636
g62
(dp4637
g89
g90
ssg71
g4626
sg64
(lp4638
S':'
asbag57
(g78
g59
NtRp4639
(dp4640
g62
(dp4641
sg71
g4626
sg64
(lp4642
g57
(g58
g59
NtRp4643
(dp4644
g62
(dp4645
g70
I5
ssg71
g4639
sg64
(lp4646
g57
(g66
g59
NtRp4647
(dp4648
g62
(dp4649
g70
I4
ssg71
Nsg64
(lp4650
g57
(g73
g59
NtRp4651
(dp4652
g62
(dp4653
sg71
g4647
sg64
(lp4654
g57
(g78
g59
NtRp4655
(dp4656
g62
(dp4657
g82
g83
ssg71
g4651
sg64
(lp4658
S'expiration'
p4659
asbag57
(g78
g59
NtRp4660
(dp4661
g62
(dp4662
g89
g90
ssg71
g4651
sg64
(lp4663
S':'
asbag57
(g78
g59
NtRp4664
(dp4665
g62
(dp4666
sg71
g4651
sg64
(lp4667
g57
(g58
g59
NtRp4668
(dp4669
g62
(dp4670
g70
I4
ssg71
g4664
sg64
(lp4671
S'3600'
p4672
asbasbasbag57
(g73
g59
NtRp4673
(dp4674
g62
(dp4675
sg71
g4647
sg64
(lp4676
g57
(g78
g59
NtRp4677
(dp4678
g62
(dp4679
g82
g83
ssg71
g4673
sg64
(lp4680
S'hmac_key'
p4681
asbag57
(g78
g59
NtRp4682
(dp4683
g62
(dp4684
g89
g90
ssg71
g4673
sg64
(lp4685
S':'
asbag57
(g78
g59
NtRp4686
(dp4687
g62
(dp4688
sg71
g4673
sg64
(lp4689
g57
(g58
g59
NtRp4690
(dp4691
g62
(dp4692
g70
I4
ssg71
g4686
sg64
(lp4693
S'06d5f56b-88f9-4901-9c78-d174d90978a3'
p4694
asbasbasbag57
(g73
g59
NtRp4695
(dp4696
g62
(dp4697
sg71
g4647
sg64
(lp4698
g57
(g78
g59
NtRp4699
(dp4700
g62
(dp4701
g82
g83
ssg71
g4695
sg64
(lp4702
S'last_visit'
p4703
asbag57
(g78
g59
NtRp4704
(dp4705
g62
(dp4706
g89
g90
ssg71
g4695
sg64
(lp4707
S':'
asbag57
(g78
g59
NtRp4708
(dp4709
g62
(dp4710
sg71
g4695
sg64
(lp4711
g57
(g58
g59
NtRp4712
(dp4713
g62
(dp4714
g70
I4
ssg71
g4708
sg64
(lp4715
S'datetime.datetime(2013, 2, 4, 12, 39, 58, 97617)'
p4716
asbasbasbag57
(g73
g59
NtRp4717
(dp4718
g62
(dp4719
sg71
g4647
sg64
(lp4720
g57
(g78
g59
NtRp4721
(dp4722
g62
(dp4723
g82
g83
ssg71
g4717
sg64
(lp4724
S'remember'
p4725
asbag57
(g78
g59
NtRp4726
(dp4727
g62
(dp4728
g89
g90
ssg71
g4717
sg64
(lp4729
S':'
asbag57
(g78
g59
NtRp4730
(dp4731
g62
(dp4732
sg71
g4717
sg64
(lp4733
g57
(g58
g59
NtRp4734
(dp4735
g62
(dp4736
g70
I4
ssg71
g4730
sg64
(lp4737
g100
asbasbasbag57
(g73
g59
NtRp4738
(dp4739
g62
(dp4740
sg71
g4647
sg64
(lp4741
g57
(g78
g59
NtRp4742
(dp4743
g62
(dp4744
g82
g83
ssg71
g4738
sg64
(lp4745
S'user'
p4746
asbag57
(g78
g59
NtRp4747
(dp4748
g62
(dp4749
g89
g90
ssg71
g4738
sg64
(lp4750
S':'
asbag57
(g78
g59
NtRp4751
(dp4752
g62
(dp4753
sg71
g4738
sg64
(lp4754
g57
(g58
g59
NtRp4755
(dp4756
g62
(dp4757
g70
I4
ssg71
g4751
sg64
(lp4758
g57
(g66
g59
NtRp4759
(dp4760
g62
(dp4761
g70
I3
ssg71
Nsg64
(lp4762
g57
(g73
g59
NtRp4763
(dp4764
g62
(dp4765
sg71
g4759
sg64
(lp4766
g57
(g78
g59
NtRp4767
(dp4768
g62
(dp4769
g82
g83
ssg71
g4763
sg64
(lp4770
S'bio'
p4771
asbag57
(g78
g59
NtRp4772
(dp4773
g62
(dp4774
g89
g90
ssg71
g4763
sg64
(lp4775
S':'
asbag57
(g78
g59
NtRp4776
(dp4777
g62
(dp4778
sg71
g4763
sg64
(lp4779
g57
(g58
g59
NtRp4780
(dp4781
g62
(dp4782
g70
I3
ssg71
g4776
sg64
(lp4783
S'None'
p4784
asbasbasbag57
(g73
g59
NtRp4785
(dp4786
g62
(dp4787
sg71
g4759
sg64
(lp4788
g57
(g78
g59
NtRp4789
(dp4790
g62
(dp4791
g82
g83
ssg71
g4785
sg64
(lp4792
S'email'
p4793
asbag57
(g78
g59
NtRp4794
(dp4795
g62
(dp4796
g89
g90
ssg71
g4785
sg64
(lp4797
S':'
asbag57
(g78
g59
NtRp4798
(dp4799
g62
(dp4800
sg71
g4785
sg64
(lp4801
g57
(g58
g59
NtRp4802
(dp4803
g62
(dp4804
g70
I3
ssg71
g4798
sg64
(lp4805
S'fernando@ad2.com.br'
p4806
asbasbasbag57
(g73
g59
NtRp4807
(dp4808
g62
(dp4809
sg71
g4759
sg64
(lp4810
g57
(g78
g59
NtRp4811
(dp4812
g62
(dp4813
g82
g83
ssg71
g4807
sg64
(lp4814
S'first_name'
p4815
asbag57
(g78
g59
NtRp4816
(dp4817
g62
(dp4818
g89
g90
ssg71
g4807
sg64
(lp4819
S':'
asbag57
(g78
g59
NtRp4820
(dp4821
g62
(dp4822
sg71
g4807
sg64
(lp4823
g57
(g58
g59
NtRp4824
(dp4825
g62
(dp4826
g70
I3
ssg71
g4820
sg64
(lp4827
S'Dend'
p4828
asbasbasbag57
(g73
g59
NtRp4829
(dp4830
g62
(dp4831
sg71
g4759
sg64
(lp4832
g57
(g78
g59
NtRp4833
(dp4834
g62
(dp4835
g82
g83
ssg71
g4829
sg64
(lp4836
S'gender'
p4837
asbag57
(g78
g59
NtRp4838
(dp4839
g62
(dp4840
g89
g90
ssg71
g4829
sg64
(lp4841
S':'
asbag57
(g78
g59
NtRp4842
(dp4843
g62
(dp4844
sg71
g4829
sg64
(lp4845
g57
(g58
g59
NtRp4846
(dp4847
g62
(dp4848
g70
I3
ssg71
g4842
sg64
(lp4849
S'masculino'
p4850
asbasbasbag57
(g73
g59
NtRp4851
(dp4852
g62
(dp4853
sg71
g4759
sg64
(lp4854
g57
(g78
g59
NtRp4855
(dp4856
g62
(dp4857
g82
g83
ssg71
g4851
sg64
(lp4858
S'id'
p4859
asbag57
(g78
g59
NtRp4860
(dp4861
g62
(dp4862
g89
g90
ssg71
g4851
sg64
(lp4863
S':'
asbag57
(g78
g59
NtRp4864
(dp4865
g62
(dp4866
sg71
g4851
sg64
(lp4867
g57
(g58
g59
NtRp4868
(dp4869
g62
(dp4870
g70
I3
ssg71
g4864
sg64
(lp4871
S'5'
asbasbasbag57
(g73
g59
NtRp4872
(dp4873
g62
(dp4874
sg71
g4759
sg64
(lp4875
g57
(g78
g59
NtRp4876
(dp4877
g62
(dp4878
g82
g83
ssg71
g4872
sg64
(lp4879
S'last_name'
p4880
asbag57
(g78
g59
NtRp4881
(dp4882
g62
(dp4883
g89
g90
ssg71
g4872
sg64
(lp4884
S':'
asbag57
(g78
g59
NtRp4885
(dp4886
g62
(dp4887
sg71
g4872
sg64
(lp4888
g57
(g58
g59
NtRp4889
(dp4890
g62
(dp4891
g70
I3
ssg71
g4885
sg64
(lp4892
S'delkson'
p4893
asbasbasbag57
(g73
g59
NtRp4894
(dp4895
g62
(dp4896
sg71
g4759
sg64
(lp4897
g57
(g78
g59
NtRp4898
(dp4899
g62
(dp4900
g82
g83
ssg71
g4894
sg64
(lp4901
S'photo'
p4902
asbag57
(g78
g59
NtRp4903
(dp4904
g62
(dp4905
g89
g90
ssg71
g4894
sg64
(lp4906
S':'
asbag57
(g78
g59
NtRp4907
(dp4908
g62
(dp4909
sg71
g4894
sg64
(lp4910
g57
(g58
g59
NtRp4911
(dp4912
g62
(dp4913
g70
I3
ssg71
g4907
sg64
(lp4914
S'auth_user.photo.852c1e9d624a7670.746563686e6f6c6f676965735f7068702e706e67.png'
p4915
asbasbasbag57
(g73
g59
NtRp4916
(dp4917
g62
(dp4918
sg71
g4759
sg64
(lp4919
g57
(g78
g59
NtRp4920
(dp4921
g62
(dp4922
g82
g83
ssg71
g4916
sg64
(lp4923
S'registration_id'
p4924
asbag57
(g78
g59
NtRp4925
(dp4926
g62
(dp4927
g89
g90
ssg71
g4916
sg64
(lp4928
S':'
asbag57
(g78
g59
NtRp4929
(dp4930
g62
(dp4931
sg71
g4916
sg64
(lp4932
g57
(g58
g59
NtRp4933
(dp4934
g62
(dp4935
g70
I3
ssg71
g4929
sg64
(lp4936
S''
asbasbasbag57
(g73
g59
NtRp4937
(dp4938
g62
(dp4939
sg71
g4759
sg64
(lp4940
g57
(g78
g59
NtRp4941
(dp4942
g62
(dp4943
g82
g83
ssg71
g4937
sg64
(lp4944
S'registration_key'
p4945
asbag57
(g78
g59
NtRp4946
(dp4947
g62
(dp4948
g89
g90
ssg71
g4937
sg64
(lp4949
S':'
asbag57
(g78
g59
NtRp4950
(dp4951
g62
(dp4952
sg71
g4937
sg64
(lp4953
g57
(g58
g59
NtRp4954
(dp4955
g62
(dp4956
g70
I3
ssg71
g4950
sg64
(lp4957
S''
asbasbasbag57
(g73
g59
NtRp4958
(dp4959
g62
(dp4960
sg71
g4759
sg64
(lp4961
g57
(g78
g59
NtRp4962
(dp4963
g62
(dp4964
g82
g83
ssg71
g4958
sg64
(lp4965
S'reset_password_key'
p4966
asbag57
(g78
g59
NtRp4967
(dp4968
g62
(dp4969
g89
g90
ssg71
g4958
sg64
(lp4970
S':'
asbag57
(g78
g59
NtRp4971
(dp4972
g62
(dp4973
sg71
g4958
sg64
(lp4974
g57
(g58
g59
NtRp4975
(dp4976
g62
(dp4977
g70
I3
ssg71
g4971
sg64
(lp4978
S''
asbasbasbasbasbasbasbag57
(g73
g59
NtRp4979
(dp4980
g62
(dp4981
sg71
g4647
sg64
(lp4982
g57
(g78
g59
NtRp4983
(dp4984
g62
(dp4985
g82
g83
ssg71
g4979
sg64
(lp4986
S'user_groups'
p4987
asbag57
(g78
g59
NtRp4988
(dp4989
g62
(dp4990
g89
g90
ssg71
g4979
sg64
(lp4991
S':'
asbag57
(g78
g59
NtRp4992
(dp4993
g62
(dp4994
sg71
g4979
sg64
(lp4995
g57
(g58
g59
NtRp4996
(dp4997
g62
(dp4998
g70
I4
ssg71
g4992
sg64
(lp4999
g57
(g66
g59
NtRp5000
(dp5001
g62
(dp5002
g70
I3
ssg71
Nsg64
(lp5003
g57
(g73
g59
NtRp5004
(dp5005
g62
(dp5006
sg71
g5000
sg64
(lp5007
g57
(g78
g59
NtRp5008
(dp5009
g62
(dp5010
g82
g83
ssg71
g5004
sg64
(lp5011
S'5'
asbag57
(g78
g59
NtRp5012
(dp5013
g62
(dp5014
g89
g90
ssg71
g5004
sg64
(lp5015
S':'
asbag57
(g78
g59
NtRp5016
(dp5017
g62
(dp5018
sg71
g5004
sg64
(lp5019
g57
(g58
g59
NtRp5020
(dp5021
g62
(dp5022
g70
I3
ssg71
g5016
sg64
(lp5023
S'user_5'
p5024
asbasbasbag57
(g73
g59
NtRp5025
(dp5026
g62
(dp5027
sg71
g5000
sg64
(lp5028
g57
(g78
g59
NtRp5029
(dp5030
g62
(dp5031
g82
g83
ssg71
g5025
sg64
(lp5032
S'7'
asbag57
(g78
g59
NtRp5033
(dp5034
g62
(dp5035
g89
g90
ssg71
g5025
sg64
(lp5036
S':'
asbag57
(g78
g59
NtRp5037
(dp5038
g62
(dp5039
sg71
g5025
sg64
(lp5040
g57
(g58
g59
NtRp5041
(dp5042
g62
(dp5043
g70
I3
ssg71
g5037
sg64
(lp5044
S'admin'
p5045
asbasbasbasbasbasbasbasbasbasbasbag57
(g73
g59
NtRp5046
(dp5047
g62
(dp5048
sg71
g4622
sg64
(lp5049
g57
(g78
g59
NtRp5050
(dp5051
g62
(dp5052
g82
g83
ssg71
g5046
sg64
(lp5053
S'flash'
p5054
asbag57
(g78
g59
NtRp5055
(dp5056
g62
(dp5057
g89
g90
ssg71
g5046
sg64
(lp5058
S':'
asbag57
(g78
g59
NtRp5059
(dp5060
g62
(dp5061
sg71
g5046
sg64
(lp5062
g57
(g58
g59
NtRp5063
(dp5064
g62
(dp5065
g70
I5
ssg71
g5059
sg64
(lp5066
S'None'
p5067
asbasbasbag57
(g73
g59
NtRp5068
(dp5069
g62
(dp5070
sg71
g4622
sg64
(lp5071
g57
(g78
g59
NtRp5072
(dp5073
g62
(dp5074
g82
g83
ssg71
g5068
sg64
(lp5075
S'last_orderby'
p5076
asbag57
(g78
g59
NtRp5077
(dp5078
g62
(dp5079
g89
g90
ssg71
g5068
sg64
(lp5080
S':'
asbag57
(g78
g59
NtRp5081
(dp5082
g62
(dp5083
sg71
g5068
sg64
(lp5084
g57
(g58
g59
NtRp5085
(dp5086
g62
(dp5087
g70
I5
ssg71
g5081
sg64
(lp5088
S'None'
p5089
asbasbasbag57
(g73
g59
NtRp5090
(dp5091
g62
(dp5092
sg71
g4622
sg64
(lp5093
g57
(g78
g59
NtRp5094
(dp5095
g62
(dp5096
g82
g83
ssg71
g5090
sg64
(lp5097
S'last_query'
p5098
asbag57
(g78
g59
NtRp5099
(dp5100
g62
(dp5101
g89
g90
ssg71
g5090
sg64
(lp5102
S':'
asbag57
(g78
g59
NtRp5103
(dp5104
g62
(dp5105
sg71
g5090
sg64
(lp5106
g57
(g58
g59
NtRp5107
(dp5108
g62
(dp5109
g70
I5
ssg71
g5103
sg64
(lp5110
S'db.post.id>0'
p5111
asbasbasbasbasbsS'etype'
p5112
S"<type 'exceptions.AttributeError'>"
p5113
sS'date'
p5114
S'Mon Feb  4 12:43:42 2013'
p5115
sS'response'
p5116
g57
(g58
g59
NtRp5117
(dp5118
g62
(dp5119
sg64
(lp5120
g57
(g66
g59
NtRp5121
(dp5122
g62
(dp5123
g70
I5
ssg71
Nsg64
(lp5124
g57
(g73
g59
NtRp5125
(dp5126
g62
(dp5127
sg71
g5121
sg64
(lp5128
g57
(g78
g59
NtRp5129
(dp5130
g62
(dp5131
g82
g83
ssg71
g5125
sg64
(lp5132
g155
asbag57
(g78
g59
NtRp5133
(dp5134
g62
(dp5135
g89
g90
ssg71
g5125
sg64
(lp5136
S':'
asbag57
(g78
g59
NtRp5137
(dp5138
g62
(dp5139
sg71
g5125
sg64
(lp5140
g57
(g58
g59
NtRp5141
(dp5142
g62
(dp5143
g70
I5
ssg71
g5137
sg64
(lp5144
S'<cStringIO.StringO object at 0x7fb4b0363d50>'
p5145
asbasbasbag57
(g73
g59
NtRp5146
(dp5147
g62
(dp5148
sg71
g5121
sg64
(lp5149
g57
(g78
g59
NtRp5150
(dp5151
g62
(dp5152
g82
g83
ssg71
g5146
sg64
(lp5153
g243
asbag57
(g78
g59
NtRp5154
(dp5155
g62
(dp5156
g89
g90
ssg71
g5146
sg64
(lp5157
S':'
asbag57
(g78
g59
NtRp5158
(dp5159
g62
(dp5160
sg71
g5146
sg64
(lp5161
g57
(g58
g59
NtRp5162
(dp5163
g62
(dp5164
g70
I5
ssg71
g5158
sg64
(lp5165
g57
(g66
g59
NtRp5166
(dp5167
g62
(dp5168
g70
I4
ssg71
Nsg64
(lp5169
g57
(g73
g59
NtRp5170
(dp5171
g62
(dp5172
sg71
g5166
sg64
(lp5173
g57
(g78
g59
NtRp5174
(dp5175
g62
(dp5176
g82
g83
ssg71
g5170
sg64
(lp5177
S'session_id_projeto'
p5178
asbag57
(g78
g59
NtRp5179
(dp5180
g62
(dp5181
g89
g90
ssg71
g5170
sg64
(lp5182
S':'
asbag57
(g78
g59
NtRp5183
(dp5184
g62
(dp5185
sg71
g5170
sg64
(lp5186
g57
(g58
g59
NtRp5187
(dp5188
g62
(dp5189
g70
I4
ssg71
g5183
sg64
(lp5190
g1775
ag57
(g66
g59
NtRp5191
(dp5192
g62
(dp5193
g70
I3
ssg71
Nsg64
(lp5194
g57
(g73
g59
NtRp5195
(dp5196
g62
(dp5197
sg71
g5191
sg64
(lp5198
g57
(g78
g59
NtRp5199
(dp5200
g62
(dp5201
g82
g83
ssg71
g5195
sg64
(lp5202
g294
asbag57
(g78
g59
NtRp5203
(dp5204
g62
(dp5205
g89
g90
ssg71
g5195
sg64
(lp5206
S':'
asbag57
(g78
g59
NtRp5207
(dp5208
g62
(dp5209
sg71
g5195
sg64
(lp5210
g57
(g58
g59
NtRp5211
(dp5212
g62
(dp5213
g70
I3
ssg71
g5207
sg64
(lp5214
S''
asbasbasbag57
(g73
g59
NtRp5215
(dp5216
g62
(dp5217
sg71
g5191
sg64
(lp5218
g57
(g78
g59
NtRp5219
(dp5220
g62
(dp5221
g82
g83
ssg71
g5215
sg64
(lp5222
g315
asbag57
(g78
g59
NtRp5223
(dp5224
g62
(dp5225
g89
g90
ssg71
g5215
sg64
(lp5226
S':'
asbag57
(g78
g59
NtRp5227
(dp5228
g62
(dp5229
sg71
g5215
sg64
(lp5230
g57
(g58
g59
NtRp5231
(dp5232
g62
(dp5233
g70
I3
ssg71
g5227
sg64
(lp5234
S''
asbasbasbag57
(g73
g59
NtRp5235
(dp5236
g62
(dp5237
sg71
g5191
sg64
(lp5238
g57
(g78
g59
NtRp5239
(dp5240
g62
(dp5241
g82
g83
ssg71
g5235
sg64
(lp5242
g336
asbag57
(g78
g59
NtRp5243
(dp5244
g62
(dp5245
g89
g90
ssg71
g5235
sg64
(lp5246
S':'
asbag57
(g78
g59
NtRp5247
(dp5248
g62
(dp5249
sg71
g5235
sg64
(lp5250
g57
(g58
g59
NtRp5251
(dp5252
g62
(dp5253
g70
I3
ssg71
g5247
sg64
(lp5254
S''
asbasbasbag57
(g73
g59
NtRp5255
(dp5256
g62
(dp5257
sg71
g5191
sg64
(lp5258
g57
(g78
g59
NtRp5259
(dp5260
g62
(dp5261
g82
g83
ssg71
g5255
sg64
(lp5262
g357
asbag57
(g78
g59
NtRp5263
(dp5264
g62
(dp5265
g89
g90
ssg71
g5255
sg64
(lp5266
S':'
asbag57
(g78
g59
NtRp5267
(dp5268
g62
(dp5269
sg71
g5255
sg64
(lp5270
g57
(g58
g59
NtRp5271
(dp5272
g62
(dp5273
g70
I3
ssg71
g5267
sg64
(lp5274
S''
asbasbasbag57
(g73
g59
NtRp5275
(dp5276
g62
(dp5277
sg71
g5191
sg64
(lp5278
g57
(g78
g59
NtRp5279
(dp5280
g62
(dp5281
g82
g83
ssg71
g5275
sg64
(lp5282
g378
asbag57
(g78
g59
NtRp5283
(dp5284
g62
(dp5285
g89
g90
ssg71
g5275
sg64
(lp5286
S':'
asbag57
(g78
g59
NtRp5287
(dp5288
g62
(dp5289
sg71
g5275
sg64
(lp5290
g57
(g58
g59
NtRp5291
(dp5292
g62
(dp5293
g70
I3
ssg71
g5287
sg64
(lp5294
S''
asbasbasbag57
(g73
g59
NtRp5295
(dp5296
g62
(dp5297
sg71
g5191
sg64
(lp5298
g57
(g78
g59
NtRp5299
(dp5300
g62
(dp5301
g82
g83
ssg71
g5295
sg64
(lp5302
g399
asbag57
(g78
g59
NtRp5303
(dp5304
g62
(dp5305
g89
g90
ssg71
g5295
sg64
(lp5306
S':'
asbag57
(g78
g59
NtRp5307
(dp5308
g62
(dp5309
sg71
g5295
sg64
(lp5310
g57
(g58
g59
NtRp5311
(dp5312
g62
(dp5313
g70
I3
ssg71
g5307
sg64
(lp5314
S'/'
asbasbasbag57
(g73
g59
NtRp5315
(dp5316
g62
(dp5317
sg71
g5191
sg64
(lp5318
g57
(g78
g59
NtRp5319
(dp5320
g62
(dp5321
g82
g83
ssg71
g5315
sg64
(lp5322
g420
asbag57
(g78
g59
NtRp5323
(dp5324
g62
(dp5325
g89
g90
ssg71
g5315
sg64
(lp5326
S':'
asbag57
(g78
g59
NtRp5327
(dp5328
g62
(dp5329
sg71
g5315
sg64
(lp5330
g57
(g58
g59
NtRp5331
(dp5332
g62
(dp5333
g70
I3
ssg71
g5327
sg64
(lp5334
S''
asbasbasbag57
(g73
g59
NtRp5335
(dp5336
g62
(dp5337
sg71
g5191
sg64
(lp5338
g57
(g78
g59
NtRp5339
(dp5340
g62
(dp5341
g82
g83
ssg71
g5335
sg64
(lp5342
g441
asbag57
(g78
g59
NtRp5343
(dp5344
g62
(dp5345
g89
g90
ssg71
g5335
sg64
(lp5346
S':'
asbag57
(g78
g59
NtRp5347
(dp5348
g62
(dp5349
sg71
g5335
sg64
(lp5350
g57
(g58
g59
NtRp5351
(dp5352
g62
(dp5353
g70
I3
ssg71
g5347
sg64
(lp5354
S''
asbasbasbasbasbasbasbasbasbasbasbag57
(g73
g59
NtRp5355
(dp5356
g62
(dp5357
sg71
g5121
sg64
(lp5358
g57
(g78
g59
NtRp5359
(dp5360
g62
(dp5361
g82
g83
ssg71
g5355
sg64
(lp5362
S'delimiters'
p5363
asbag57
(g78
g59
NtRp5364
(dp5365
g62
(dp5366
g89
g90
ssg71
g5355
sg64
(lp5367
S':'
asbag57
(g78
g59
NtRp5368
(dp5369
g62
(dp5370
sg71
g5355
sg64
(lp5371
g57
(g58
g59
NtRp5372
(dp5373
g62
(dp5374
g70
I5
ssg71
g5368
sg64
(lp5375
g57
(g66
g59
NtRp5376
(dp5377
g62
(dp5378
g70
I4
ssg71
Nsg64
(lp5379
g57
(g73
g59
NtRp5380
(dp5381
g62
(dp5382
sg71
g5376
sg64
(lp5383
g57
(g78
g59
NtRp5384
(dp5385
g62
(dp5386
sg71
g5380
sg64
(lp5387
g57
(g58
g59
NtRp5388
(dp5389
g62
(dp5390
g70
I4
ssg71
g5384
sg64
(lp5391
S'{{'
p5392
asbasbasbag57
(g73
g59
NtRp5393
(dp5394
g62
(dp5395
sg71
g5376
sg64
(lp5396
g57
(g78
g59
NtRp5397
(dp5398
g62
(dp5399
sg71
g5393
sg64
(lp5400
g57
(g58
g59
NtRp5401
(dp5402
g62
(dp5403
g70
I4
ssg71
g5397
sg64
(lp5404
S'}}'
p5405
asbasbasbasbasbasbasbag57
(g73
g59
NtRp5406
(dp5407
g62
(dp5408
sg71
g5121
sg64
(lp5409
g57
(g78
g59
NtRp5410
(dp5411
g62
(dp5412
g82
g83
ssg71
g5406
sg64
(lp5413
S'files'
p5414
asbag57
(g78
g59
NtRp5415
(dp5416
g62
(dp5417
g89
g90
ssg71
g5406
sg64
(lp5418
S':'
asbag57
(g78
g59
NtRp5419
(dp5420
g62
(dp5421
sg71
g5406
sg64
(lp5422
g57
(g58
g59
NtRp5423
(dp5424
g62
(dp5425
g70
I5
ssg71
g5419
sg64
(lp5426
g57
(g66
g59
NtRp5427
(dp5428
g62
(dp5429
g70
I4
ssg71
Nsg64
(lp5430
g57
(g73
g59
NtRp5431
(dp5432
g62
(dp5433
sg71
g5427
sg64
(lp5434
g57
(g78
g59
NtRp5435
(dp5436
g62
(dp5437
sg71
g5431
sg64
(lp5438
g57
(g58
g59
NtRp5439
(dp5440
g62
(dp5441
g70
I4
ssg71
g5435
sg64
(lp5442
S'/projeto/static/js/jquery.js'
p5443
asbasbasbag57
(g73
g59
NtRp5444
(dp5445
g62
(dp5446
sg71
g5427
sg64
(lp5447
g57
(g78
g59
NtRp5448
(dp5449
g62
(dp5450
sg71
g5444
sg64
(lp5451
g57
(g58
g59
NtRp5452
(dp5453
g62
(dp5454
g70
I4
ssg71
g5448
sg64
(lp5455
S'/projeto/static/css/calendar.css'
p5456
asbasbasbag57
(g73
g59
NtRp5457
(dp5458
g62
(dp5459
sg71
g5427
sg64
(lp5460
g57
(g78
g59
NtRp5461
(dp5462
g62
(dp5463
sg71
g5457
sg64
(lp5464
g57
(g58
g59
NtRp5465
(dp5466
g62
(dp5467
g70
I4
ssg71
g5461
sg64
(lp5468
S'/projeto/static/js/calendar.js'
p5469
asbasbasbag57
(g73
g59
NtRp5470
(dp5471
g62
(dp5472
sg71
g5427
sg64
(lp5473
g57
(g78
g59
NtRp5474
(dp5475
g62
(dp5476
sg71
g5470
sg64
(lp5477
g57
(g58
g59
NtRp5478
(dp5479
g62
(dp5480
g70
I4
ssg71
g5474
sg64
(lp5481
S'/projeto/static/js/web2py.js'
p5482
asbasbasbasbasbasbasbag57
(g73
g59
NtRp5483
(dp5484
g62
(dp5485
sg71
g5121
sg64
(lp5486
g57
(g78
g59
NtRp5487
(dp5488
g62
(dp5489
g82
g83
ssg71
g5483
sg64
(lp5490
S'flash'
p5491
asbag57
(g78
g59
NtRp5492
(dp5493
g62
(dp5494
g89
g90
ssg71
g5483
sg64
(lp5495
S':'
asbag57
(g78
g59
NtRp5496
(dp5497
g62
(dp5498
sg71
g5483
sg64
(lp5499
g57
(g58
g59
NtRp5500
(dp5501
g62
(dp5502
g70
I5
ssg71
g5496
sg64
(lp5503
S''
asbasbasbag57
(g73
g59
NtRp5504
(dp5505
g62
(dp5506
sg71
g5121
sg64
(lp5507
g57
(g78
g59
NtRp5508
(dp5509
g62
(dp5510
g82
g83
ssg71
g5504
sg64
(lp5511
S'generic_patterns'
p5512
asbag57
(g78
g59
NtRp5513
(dp5514
g62
(dp5515
g89
g90
ssg71
g5504
sg64
(lp5516
S':'
asbag57
(g78
g59
NtRp5517
(dp5518
g62
(dp5519
sg71
g5504
sg64
(lp5520
g57
(g58
g59
NtRp5521
(dp5522
g62
(dp5523
g70
I5
ssg71
g5517
sg64
(lp5524
g57
(g66
g59
NtRp5525
(dp5526
g62
(dp5527
g70
I4
ssg71
Nsg64
(lp5528
g57
(g73
g59
NtRp5529
(dp5530
g62
(dp5531
sg71
g5525
sg64
(lp5532
g57
(g78
g59
NtRp5533
(dp5534
g62
(dp5535
sg71
g5529
sg64
(lp5536
g57
(g58
g59
NtRp5537
(dp5538
g62
(dp5539
g70
I4
ssg71
g5533
sg64
(lp5540
S'*'
asbasbasbasbasbasbasbag57
(g73
g59
NtRp5541
(dp5542
g62
(dp5543
sg71
g5121
sg64
(lp5544
g57
(g78
g59
NtRp5545
(dp5546
g62
(dp5547
g82
g83
ssg71
g5541
sg64
(lp5548
S'headers'
p5549
asbag57
(g78
g59
NtRp5550
(dp5551
g62
(dp5552
g89
g90
ssg71
g5541
sg64
(lp5553
S':'
asbag57
(g78
g59
NtRp5554
(dp5555
g62
(dp5556
sg71
g5541
sg64
(lp5557
g57
(g58
g59
NtRp5558
(dp5559
g62
(dp5560
g70
I5
ssg71
g5554
sg64
(lp5561
g57
(g66
g59
NtRp5562
(dp5563
g62
(dp5564
g70
I4
ssg71
Nsg64
(lp5565
g57
(g73
g59
NtRp5566
(dp5567
g62
(dp5568
sg71
g5562
sg64
(lp5569
g57
(g78
g59
NtRp5570
(dp5571
g62
(dp5572
g82
g83
ssg71
g5566
sg64
(lp5573
S'X-Powered-By'
p5574
asbag57
(g78
g59
NtRp5575
(dp5576
g62
(dp5577
g89
g90
ssg71
g5566
sg64
(lp5578
S':'
asbag57
(g78
g59
NtRp5579
(dp5580
g62
(dp5581
sg71
g5566
sg64
(lp5582
g57
(g58
g59
NtRp5583
(dp5584
g62
(dp5585
g70
I4
ssg71
g5579
sg64
(lp5586
S'web2py'
p5587
asbasbasbasbasbasbasbag57
(g73
g59
NtRp5588
(dp5589
g62
(dp5590
sg71
g5121
sg64
(lp5591
g57
(g78
g59
NtRp5592
(dp5593
g62
(dp5594
g82
g83
ssg71
g5588
sg64
(lp5595
S'menu'
p5596
asbag57
(g78
g59
NtRp5597
(dp5598
g62
(dp5599
g89
g90
ssg71
g5588
sg64
(lp5600
S':'
asbag57
(g78
g59
NtRp5601
(dp5602
g62
(dp5603
sg71
g5588
sg64
(lp5604
g57
(g58
g59
NtRp5605
(dp5606
g62
(dp5607
g70
I5
ssg71
g5601
sg64
(lp5608
g57
(g66
g59
NtRp5609
(dp5610
g62
(dp5611
g70
I4
ssg71
Nsg64
(lp5612
sbasbasbasbag57
(g73
g59
NtRp5613
(dp5614
g62
(dp5615
sg71
g5121
sg64
(lp5616
g57
(g78
g59
NtRp5617
(dp5618
g62
(dp5619
g82
g83
ssg71
g5613
sg64
(lp5620
S'meta'
p5621
asbag57
(g78
g59
NtRp5622
(dp5623
g62
(dp5624
g89
g90
ssg71
g5613
sg64
(lp5625
S':'
asbag57
(g78
g59
NtRp5626
(dp5627
g62
(dp5628
sg71
g5613
sg64
(lp5629
g57
(g58
g59
NtRp5630
(dp5631
g62
(dp5632
g70
I5
ssg71
g5626
sg64
(lp5633
g57
(g66
g59
NtRp5634
(dp5635
g62
(dp5636
g70
I4
ssg71
Nsg64
(lp5637
g57
(g73
g59
NtRp5638
(dp5639
g62
(dp5640
sg71
g5634
sg64
(lp5641
g57
(g78
g59
NtRp5642
(dp5643
g62
(dp5644
g82
g83
ssg71
g5638
sg64
(lp5645
S'description'
p5646
asbag57
(g78
g59
NtRp5647
(dp5648
g62
(dp5649
g89
g90
ssg71
g5638
sg64
(lp5650
S':'
asbag57
(g78
g59
NtRp5651
(dp5652
g62
(dp5653
sg71
g5638
sg64
(lp5654
g57
(g58
g59
NtRp5655
(dp5656
g62
(dp5657
g70
I4
ssg71
g5651
sg64
(lp5658
S'blog do shedon'
p5659
asbasbasbag57
(g73
g59
NtRp5660
(dp5661
g62
(dp5662
sg71
g5634
sg64
(lp5663
g57
(g78
g59
NtRp5664
(dp5665
g62
(dp5666
g82
g83
ssg71
g5660
sg64
(lp5667
S'keywords'
p5668
asbag57
(g78
g59
NtRp5669
(dp5670
g62
(dp5671
g89
g90
ssg71
g5660
sg64
(lp5672
S':'
asbag57
(g78
g59
NtRp5673
(dp5674
g62
(dp5675
sg71
g5660
sg64
(lp5676
g57
(g58
g59
NtRp5677
(dp5678
g62
(dp5679
g70
I4
ssg71
g5673
sg64
(lp5680
S'chave, outra, e utra'
p5681
asbasbasbasbasbasbasbag57
(g73
g59
NtRp5682
(dp5683
g62
(dp5684
sg71
g5121
sg64
(lp5685
g57
(g78
g59
NtRp5686
(dp5687
g62
(dp5688
g82
g83
ssg71
g5682
sg64
(lp5689
S'models_to_run'
p5690
asbag57
(g78
g59
NtRp5691
(dp5692
g62
(dp5693
g89
g90
ssg71
g5682
sg64
(lp5694
S':'
asbag57
(g78
g59
NtRp5695
(dp5696
g62
(dp5697
sg71
g5682
sg64
(lp5698
g57
(g58
g59
NtRp5699
(dp5700
g62
(dp5701
g70
I5
ssg71
g5695
sg64
(lp5702
g57
(g66
g59
NtRp5703
(dp5704
g62
(dp5705
g70
I4
ssg71
Nsg64
(lp5706
g57
(g73
g59
NtRp5707
(dp5708
g62
(dp5709
sg71
g5703
sg64
(lp5710
g57
(g78
g59
NtRp5711
(dp5712
g62
(dp5713
sg71
g5707
sg64
(lp5714
g57
(g58
g59
NtRp5715
(dp5716
g62
(dp5717
g70
I4
ssg71
g5711
sg64
(lp5718
S'^\\w+\\.py$'
p5719
asbasbasbag57
(g73
g59
NtRp5720
(dp5721
g62
(dp5722
sg71
g5703
sg64
(lp5723
g57
(g78
g59
NtRp5724
(dp5725
g62
(dp5726
sg71
g5720
sg64
(lp5727
g57
(g58
g59
NtRp5728
(dp5729
g62
(dp5730
g70
I4
ssg71
g5724
sg64
(lp5731
S'^initial/\\w+\\.py$'
p5732
asbasbasbag57
(g73
g59
NtRp5733
(dp5734
g62
(dp5735
sg71
g5703
sg64
(lp5736
g57
(g78
g59
NtRp5737
(dp5738
g62
(dp5739
sg71
g5733
sg64
(lp5740
g57
(g58
g59
NtRp5741
(dp5742
g62
(dp5743
g70
I4
ssg71
g5737
sg64
(lp5744
S'^initial/home/\\w+\\.py$'
p5745
asbasbasbasbasbasbasbag57
(g73
g59
NtRp5746
(dp5747
g62
(dp5748
sg71
g5121
sg64
(lp5749
g57
(g78
g59
NtRp5750
(dp5751
g62
(dp5752
g82
g83
ssg71
g5746
sg64
(lp5753
S'postprocessing'
p5754
asbag57
(g78
g59
NtRp5755
(dp5756
g62
(dp5757
g89
g90
ssg71
g5746
sg64
(lp5758
S':'
asbag57
(g78
g59
NtRp5759
(dp5760
g62
(dp5761
sg71
g5746
sg64
(lp5762
g57
(g58
g59
NtRp5763
(dp5764
g62
(dp5765
g70
I5
ssg71
g5759
sg64
(lp5766
g57
(g66
g59
NtRp5767
(dp5768
g62
(dp5769
g70
I4
ssg71
Nsg64
(lp5770
sbasbasbasbag57
(g73
g59
NtRp5771
(dp5772
g62
(dp5773
sg71
g5121
sg64
(lp5774
g57
(g78
g59
NtRp5775
(dp5776
g62
(dp5777
g82
g83
ssg71
g5771
sg64
(lp5778
S'session_cookie_expires'
p5779
asbag57
(g78
g59
NtRp5780
(dp5781
g62
(dp5782
g89
g90
ssg71
g5771
sg64
(lp5783
S':'
asbag57
(g78
g59
NtRp5784
(dp5785
g62
(dp5786
sg71
g5771
sg64
(lp5787
g57
(g58
g59
NtRp5788
(dp5789
g62
(dp5790
g70
I5
ssg71
g5784
sg64
(lp5791
S'None'
p5792
asbasbasbag57
(g73
g59
NtRp5793
(dp5794
g62
(dp5795
sg71
g5121
sg64
(lp5796
g57
(g78
g59
NtRp5797
(dp5798
g62
(dp5799
g82
g83
ssg71
g5793
sg64
(lp5800
S'session_data_name'
p5801
asbag57
(g78
g59
NtRp5802
(dp5803
g62
(dp5804
g89
g90
ssg71
g5793
sg64
(lp5805
S':'
asbag57
(g78
g59
NtRp5806
(dp5807
g62
(dp5808
sg71
g5793
sg64
(lp5809
g57
(g58
g59
NtRp5810
(dp5811
g62
(dp5812
g70
I5
ssg71
g5806
sg64
(lp5813
S'session_data_projeto'
p5814
asbasbasbag57
(g73
g59
NtRp5815
(dp5816
g62
(dp5817
sg71
g5121
sg64
(lp5818
g57
(g78
g59
NtRp5819
(dp5820
g62
(dp5821
g82
g83
ssg71
g5815
sg64
(lp5822
S'session_file'
p5823
asbag57
(g78
g59
NtRp5824
(dp5825
g62
(dp5826
g89
g90
ssg71
g5815
sg64
(lp5827
S':'
asbag57
(g78
g59
NtRp5828
(dp5829
g62
(dp5830
sg71
g5815
sg64
(lp5831
g57
(g58
g59
NtRp5832
(dp5833
g62
(dp5834
g70
I5
ssg71
g5828
sg64
(lp5835
S"<open file '/var/www/web2py_curso/applications/projeto/sessions/127.0.0.1-b8c6a9b4-3ce7-4a48-b40d-12b6c8d18d0a', mode 'rb+' at 0x7fb4b06a14b0>"
p5836
asbasbasbag57
(g73
g59
NtRp5837
(dp5838
g62
(dp5839
sg71
g5121
sg64
(lp5840
g57
(g78
g59
NtRp5841
(dp5842
g62
(dp5843
g82
g83
ssg71
g5837
sg64
(lp5844
S'session_filename'
p5845
asbag57
(g78
g59
NtRp5846
(dp5847
g62
(dp5848
g89
g90
ssg71
g5837
sg64
(lp5849
S':'
asbag57
(g78
g59
NtRp5850
(dp5851
g62
(dp5852
sg71
g5837
sg64
(lp5853
g57
(g58
g59
NtRp5854
(dp5855
g62
(dp5856
g70
I5
ssg71
g5850
sg64
(lp5857
S'/var/www/web2py_curso/applications/projeto/sessions/127.0.0.1-b8c6a9b4-3ce7-4a48-b40d-12b6c8d18d0a'
p5858
asbasbasbag57
(g73
g59
NtRp5859
(dp5860
g62
(dp5861
sg71
g5121
sg64
(lp5862
g57
(g78
g59
NtRp5863
(dp5864
g62
(dp5865
g82
g83
ssg71
g5859
sg64
(lp5866
S'session_id'
p5867
asbag57
(g78
g59
NtRp5868
(dp5869
g62
(dp5870
g89
g90
ssg71
g5859
sg64
(lp5871
S':'
asbag57
(g78
g59
NtRp5872
(dp5873
g62
(dp5874
sg71
g5859
sg64
(lp5875
g57
(g58
g59
NtRp5876
(dp5877
g62
(dp5878
g70
I5
ssg71
g5872
sg64
(lp5879
g1775
asbasbasbag57
(g73
g59
NtRp5880
(dp5881
g62
(dp5882
sg71
g5121
sg64
(lp5883
g57
(g78
g59
NtRp5884
(dp5885
g62
(dp5886
g82
g83
ssg71
g5880
sg64
(lp5887
S'session_id_name'
p5888
asbag57
(g78
g59
NtRp5889
(dp5890
g62
(dp5891
g89
g90
ssg71
g5880
sg64
(lp5892
S':'
asbag57
(g78
g59
NtRp5893
(dp5894
g62
(dp5895
sg71
g5880
sg64
(lp5896
g57
(g58
g59
NtRp5897
(dp5898
g62
(dp5899
g70
I5
ssg71
g5893
sg64
(lp5900
g5178
asbasbasbag57
(g73
g59
NtRp5901
(dp5902
g62
(dp5903
sg71
g5121
sg64
(lp5904
g57
(g78
g59
NtRp5905
(dp5906
g62
(dp5907
g82
g83
ssg71
g5901
sg64
(lp5908
S'session_locked'
p5909
asbag57
(g78
g59
NtRp5910
(dp5911
g62
(dp5912
g89
g90
ssg71
g5901
sg64
(lp5913
S':'
asbag57
(g78
g59
NtRp5914
(dp5915
g62
(dp5916
sg71
g5901
sg64
(lp5917
g57
(g58
g59
NtRp5918
(dp5919
g62
(dp5920
g70
I5
ssg71
g5914
sg64
(lp5921
g3112
asbasbasbag57
(g73
g59
NtRp5922
(dp5923
g62
(dp5924
sg71
g5121
sg64
(lp5925
g57
(g78
g59
NtRp5926
(dp5927
g62
(dp5928
g82
g83
ssg71
g5922
sg64
(lp5929
S'session_new'
p5930
asbag57
(g78
g59
NtRp5931
(dp5932
g62
(dp5933
g89
g90
ssg71
g5922
sg64
(lp5934
S':'
asbag57
(g78
g59
NtRp5935
(dp5936
g62
(dp5937
sg71
g5922
sg64
(lp5938
g57
(g58
g59
NtRp5939
(dp5940
g62
(dp5941
g70
I5
ssg71
g5935
sg64
(lp5942
g100
asbasbasbag57
(g73
g59
NtRp5943
(dp5944
g62
(dp5945
sg71
g5121
sg64
(lp5946
g57
(g78
g59
NtRp5947
(dp5948
g62
(dp5949
g82
g83
ssg71
g5943
sg64
(lp5950
S'session_storage_type'
p5951
asbag57
(g78
g59
NtRp5952
(dp5953
g62
(dp5954
g89
g90
ssg71
g5943
sg64
(lp5955
S':'
asbag57
(g78
g59
NtRp5956
(dp5957
g62
(dp5958
sg71
g5943
sg64
(lp5959
g57
(g58
g59
NtRp5960
(dp5961
g62
(dp5962
g70
I5
ssg71
g5956
sg64
(lp5963
g4542
asbasbasbag57
(g73
g59
NtRp5964
(dp5965
g62
(dp5966
sg71
g5121
sg64
(lp5967
g57
(g78
g59
NtRp5968
(dp5969
g62
(dp5970
g82
g83
ssg71
g5964
sg64
(lp5971
S'status'
p5972
asbag57
(g78
g59
NtRp5973
(dp5974
g62
(dp5975
g89
g90
ssg71
g5964
sg64
(lp5976
S':'
asbag57
(g78
g59
NtRp5977
(dp5978
g62
(dp5979
sg71
g5964
sg64
(lp5980
g57
(g58
g59
NtRp5981
(dp5982
g62
(dp5983
g70
I5
ssg71
g5977
sg64
(lp5984
S'200'
p5985
asbasbasbag57
(g73
g59
NtRp5986
(dp5987
g62
(dp5988
sg71
g5121
sg64
(lp5989
g57
(g78
g59
NtRp5990
(dp5991
g62
(dp5992
g82
g83
ssg71
g5986
sg64
(lp5993
S'subtitle'
p5994
asbag57
(g78
g59
NtRp5995
(dp5996
g62
(dp5997
g89
g90
ssg71
g5986
sg64
(lp5998
S':'
asbag57
(g78
g59
NtRp5999
(dp6000
g62
(dp6001
sg71
g5986
sg64
(lp6002
g57
(g58
g59
NtRp6003
(dp6004
g62
(dp6005
g70
I5
ssg71
g5999
sg64
(lp6006
S'O blog do sheldon'
p6007
asbasbasbag57
(g73
g59
NtRp6008
(dp6009
g62
(dp6010
sg71
g5121
sg64
(lp6011
g57
(g78
g59
NtRp6012
(dp6013
g62
(dp6014
g82
g83
ssg71
g6008
sg64
(lp6015
S'title'
p6016
asbag57
(g78
g59
NtRp6017
(dp6018
g62
(dp6019
g89
g90
ssg71
g6008
sg64
(lp6020
S':'
asbag57
(g78
g59
NtRp6021
(dp6022
g62
(dp6023
sg71
g6008
sg64
(lp6024
g57
(g58
g59
NtRp6025
(dp6026
g62
(dp6027
g70
I5
ssg71
g6021
sg64
(lp6028
S'Titulo home'
p6029
asbasbasbag57
(g73
g59
NtRp6030
(dp6031
g62
(dp6032
sg71
g5121
sg64
(lp6033
g57
(g78
g59
NtRp6034
(dp6035
g62
(dp6036
g82
g83
ssg71
g6030
sg64
(lp6037
S'view'
p6038
asbag57
(g78
g59
NtRp6039
(dp6040
g62
(dp6041
g89
g90
ssg71
g6030
sg64
(lp6042
S':'
asbag57
(g78
g59
NtRp6043
(dp6044
g62
(dp6045
sg71
g6030
sg64
(lp6046
g57
(g58
g59
NtRp6047
(dp6048
g62
(dp6049
g70
I5
ssg71
g6043
sg64
(lp6050
S'initial/home.html'
p6051
asbasbasbasbasbsS'locals'
p6052
(dp6053
S'self'
p6054
S'<Table auth_user (id,first_name,last_name,email,...t_password_key,registration_id,bio,photo,gender)>'
p6055
sS'key'
p6056
S"'first'"
p6057
sssS'traceback'
p6058
S'Traceback (most recent call last):\n  File "/var/www/web2py_curso/gluon/restricted.py", line 212, in restricted\n    exec ccode in environment\n  File "/var/www/web2py_curso/applications/projeto/views/initial/home.html", line 77, in <module>\n  File "/var/www/web2py_curso/gluon/dal.py", line 7745, in __getitem__\n    return ogetattr(self, str(key))\nAttributeError: \'Table\' object has no attribute \'first\'\n'
p6059
s.