(dp1
S'output'
p2
S"<type 'exceptions.SyntaxError'> invalid syntax (default.py, line 7)"
p3
sS'layer'
p4
S'/var/www/web2py_curso/applications/projeto/controllers/default.py'
p5
sS'code'
p6
S'# coding: utf-8\n\ndef index():\n\tprint "Action index"\n\tprint request.args\n\tprint request.vars\n        if nome in request.args\n        mensagem = "Bem Vindo %s" % request.vars\n\treturn mensagem\n\ndef contato():\n\treturn "<form><label>Nome</label><input /></form><br><a href=\'http://www.w3schools.com\'>Visit W3Schools</a>"\n\t#return dict(nome="fernando")\n\t#return response.render("teste.html", dict(nome="fernando"))\n\ndef soma(x, y):\n\treturn x + y\n\n \n\nresponse._vars=response._caller(index)\n'
p7
sS'snapshot'
p8
(dp9
S'exception'
p10
(dp11
S'__getslice__'
p12
S"<method-wrapper '__getslice__' of exceptions.SyntaxError object>"
p13
sS'text'
p14
S"'        if nome in request.args\\n'"
p15
sS'__str__'
p16
S"<method-wrapper '__str__' of exceptions.SyntaxError object>"
p17
sS'__reduce__'
p18
S'<built-in method __reduce__ of exceptions.SyntaxError object>'
p19
sS'__dict__'
p20
S'{}'
p21
sS'__sizeof__'
p22
S'<built-in method __sizeof__ of exceptions.SyntaxError object>'
p23
sS'__init__'
p24
S"<method-wrapper '__init__' of exceptions.SyntaxError object>"
p25
sS'__setattr__'
p26
S"<method-wrapper '__setattr__' of exceptions.SyntaxError object>"
p27
sS'__reduce_ex__'
p28
S'<built-in method __reduce_ex__ of exceptions.SyntaxError object>'
p29
sS'__new__'
p30
S'<built-in method __new__ of type object>'
p31
sS'__format__'
p32
S'<built-in method __format__ of exceptions.SyntaxError object>'
p33
sS'__class__'
p34
S"<type 'exceptions.SyntaxError'>"
p35
sS'filename'
p36
S"'/var/www/web2py_curso/applications/projeto/controllers/default.py'"
p37
sS'lineno'
p38
S'7'
sS'msg'
p39
S"'invalid syntax'"
p40
sS'__doc__'
p41
S"'Invalid syntax.'"
p42
sS'__getitem__'
p43
S"<method-wrapper '__getitem__' of exceptions.SyntaxError object>"
p44
sS'__setstate__'
p45
S'<built-in method __setstate__ of exceptions.SyntaxError object>'
p46
sS'__getattribute__'
p47
S"<method-wrapper '__getattribute__' of exceptions.SyntaxError object>"
p48
sS'print_file_and_line'
p49
S'None'
p50
sS'args'
p51
S"('invalid syntax', ('/var/www/web2py_curso/applications/projeto/controllers/default.py', 7, 32, '        if nome in request.args\\n'))"
p52
sS'__subclasshook__'
p53
S'<built-in method __subclasshook__ of type object>'
p54
sS'offset'
p55
S'32'
p56
sS'__unicode__'
p57
S'<built-in method __unicode__ of exceptions.SyntaxError object>'
p58
sS'__delattr__'
p59
S"<method-wrapper '__delattr__' of exceptions.SyntaxError object>"
p60
sS'__repr__'
p61
S"<method-wrapper '__repr__' of exceptions.SyntaxError object>"
p62
sS'__hash__'
p63
S"<method-wrapper '__hash__' of exceptions.SyntaxError object>"
p64
ssS'evalue'
p65
S'invalid syntax (default.py, line 7)'
p66
sS'request'
p67
ccopy_reg
_reconstructor
p68
(cgluon.html
BEAUTIFY
p69
c__builtin__
object
p70
NtRp71
(dp72
S'attributes'
p73
(dp74
sS'components'
p75
(lp76
g68
(cgluon.html
TABLE
p77
g70
NtRp78
(dp79
g73
(dp80
S'level'
p81
I5
ssS'parent'
p82
Nsg75
(lp83
g68
(cgluon.html
TR
p84
g70
NtRp85
(dp86
g73
(dp87
sg82
g78
sg75
(lp88
g68
(cgluon.html
TD
p89
g70
NtRp90
(dp91
g73
(dp92
S'_style'
p93
S'font-weight:bold;vertical-align:top'
p94
ssg82
g85
sg75
(lp95
S'ajax'
p96
asbag68
(g89
g70
NtRp97
(dp98
g73
(dp99
S'_valign'
p100
S'top'
p101
ssg82
g85
sg75
(lp102
S':'
asbag68
(g89
g70
NtRp103
(dp104
g73
(dp105
sg82
g85
sg75
(lp106
g68
(g69
g70
NtRp107
(dp108
g73
(dp109
g81
I5
ssg82
g103
sg75
(lp110
S'False'
p111
asbasbasbag68
(g84
g70
NtRp112
(dp113
g73
(dp114
sg82
g78
sg75
(lp115
g68
(g89
g70
NtRp116
(dp117
g73
(dp118
g93
g94
ssg82
g112
sg75
(lp119
S'application'
p120
asbag68
(g89
g70
NtRp121
(dp122
g73
(dp123
g100
g101
ssg82
g112
sg75
(lp124
S':'
asbag68
(g89
g70
NtRp125
(dp126
g73
(dp127
sg82
g112
sg75
(lp128
g68
(g69
g70
NtRp129
(dp130
g73
(dp131
g81
I5
ssg82
g125
sg75
(lp132
S'projeto'
p133
asbasbasbag68
(g84
g70
NtRp134
(dp135
g73
(dp136
sg82
g78
sg75
(lp137
g68
(g89
g70
NtRp138
(dp139
g73
(dp140
g93
g94
ssg82
g134
sg75
(lp141
g51
asbag68
(g89
g70
NtRp142
(dp143
g73
(dp144
g100
g101
ssg82
g134
sg75
(lp145
S':'
asbag68
(g89
g70
NtRp146
(dp147
g73
(dp148
sg82
g134
sg75
(lp149
g68
(g69
g70
NtRp150
(dp151
g73
(dp152
g81
I5
ssg82
g146
sg75
(lp153
g68
(g77
g70
NtRp154
(dp155
g73
(dp156
g81
I4
ssg82
Nsg75
(lp157
sbasbasbasbag68
(g84
g70
NtRp158
(dp159
g73
(dp160
sg82
g78
sg75
(lp161
g68
(g89
g70
NtRp162
(dp163
g73
(dp164
g93
g94
ssg82
g158
sg75
(lp165
S'body'
p166
asbag68
(g89
g70
NtRp167
(dp168
g73
(dp169
g100
g101
ssg82
g158
sg75
(lp170
S':'
asbag68
(g89
g70
NtRp171
(dp172
g73
(dp173
sg82
g158
sg75
(lp174
g68
(g69
g70
NtRp175
(dp176
g73
(dp177
g81
I5
ssg82
g171
sg75
(lp178
S'<cStringIO.StringO object at 0x7fde30199c00>'
p179
asbasbasbag68
(g84
g70
NtRp180
(dp181
g73
(dp182
sg82
g78
sg75
(lp183
g68
(g89
g70
NtRp184
(dp185
g73
(dp186
g93
g94
ssg82
g180
sg75
(lp187
S'cid'
p188
asbag68
(g89
g70
NtRp189
(dp190
g73
(dp191
g100
g101
ssg82
g180
sg75
(lp192
S':'
asbag68
(g89
g70
NtRp193
(dp194
g73
(dp195
sg82
g180
sg75
(lp196
g68
(g69
g70
NtRp197
(dp198
g73
(dp199
g81
I5
ssg82
g193
sg75
(lp200
S'None'
p201
asbasbasbag68
(g84
g70
NtRp202
(dp203
g73
(dp204
sg82
g78
sg75
(lp205
g68
(g89
g70
NtRp206
(dp207
g73
(dp208
g93
g94
ssg82
g202
sg75
(lp209
S'client'
p210
asbag68
(g89
g70
NtRp211
(dp212
g73
(dp213
g100
g101
ssg82
g202
sg75
(lp214
S':'
asbag68
(g89
g70
NtRp215
(dp216
g73
(dp217
sg82
g202
sg75
(lp218
g68
(g69
g70
NtRp219
(dp220
g73
(dp221
g81
I5
ssg82
g215
sg75
(lp222
S'127.0.0.1'
p223
asbasbasbag68
(g84
g70
NtRp224
(dp225
g73
(dp226
sg82
g78
sg75
(lp227
g68
(g89
g70
NtRp228
(dp229
g73
(dp230
g93
g94
ssg82
g224
sg75
(lp231
S'controller'
p232
asbag68
(g89
g70
NtRp233
(dp234
g73
(dp235
g100
g101
ssg82
g224
sg75
(lp236
S':'
asbag68
(g89
g70
NtRp237
(dp238
g73
(dp239
sg82
g224
sg75
(lp240
g68
(g69
g70
NtRp241
(dp242
g73
(dp243
g81
I5
ssg82
g237
sg75
(lp244
S'default'
p245
asbasbasbag68
(g84
g70
NtRp246
(dp247
g73
(dp248
sg82
g78
sg75
(lp249
g68
(g89
g70
NtRp250
(dp251
g73
(dp252
g93
g94
ssg82
g246
sg75
(lp253
S'cookies'
p254
asbag68
(g89
g70
NtRp255
(dp256
g73
(dp257
g100
g101
ssg82
g246
sg75
(lp258
S':'
asbag68
(g89
g70
NtRp259
(dp260
g73
(dp261
sg82
g246
sg75
(lp262
g68
(g69
g70
NtRp263
(dp264
g73
(dp265
g81
I5
ssg82
g259
sg75
(lp266
g68
(g77
g70
NtRp267
(dp268
g73
(dp269
g81
I4
ssg82
Nsg75
(lp270
g68
(g84
g70
NtRp271
(dp272
g73
(dp273
sg82
g267
sg75
(lp274
g68
(g89
g70
NtRp275
(dp276
g73
(dp277
g93
g94
ssg82
g271
sg75
(lp278
S'session_id_admin'
p279
asbag68
(g89
g70
NtRp280
(dp281
g73
(dp282
g100
g101
ssg82
g271
sg75
(lp283
S':'
asbag68
(g89
g70
NtRp284
(dp285
g73
(dp286
sg82
g271
sg75
(lp287
g68
(g69
g70
NtRp288
(dp289
g73
(dp290
g81
I4
ssg82
g284
sg75
(lp291
S'127.0.0.1-6b19d69e-1405-460b-b17e-ad0b8deb3490'
p292
ag68
(g77
g70
NtRp293
(dp294
g73
(dp295
g81
I3
ssg82
Nsg75
(lp296
g68
(g84
g70
NtRp297
(dp298
g73
(dp299
sg82
g293
sg75
(lp300
g68
(g89
g70
NtRp301
(dp302
g73
(dp303
g93
g94
ssg82
g297
sg75
(lp304
S'comment'
p305
asbag68
(g89
g70
NtRp306
(dp307
g73
(dp308
g100
g101
ssg82
g297
sg75
(lp309
S':'
asbag68
(g89
g70
NtRp310
(dp311
g73
(dp312
sg82
g297
sg75
(lp313
g68
(g69
g70
NtRp314
(dp315
g73
(dp316
g81
I3
ssg82
g310
sg75
(lp317
S''
asbasbasbag68
(g84
g70
NtRp318
(dp319
g73
(dp320
sg82
g293
sg75
(lp321
g68
(g89
g70
NtRp322
(dp323
g73
(dp324
g93
g94
ssg82
g318
sg75
(lp325
S'domain'
p326
asbag68
(g89
g70
NtRp327
(dp328
g73
(dp329
g100
g101
ssg82
g318
sg75
(lp330
S':'
asbag68
(g89
g70
NtRp331
(dp332
g73
(dp333
sg82
g318
sg75
(lp334
g68
(g69
g70
NtRp335
(dp336
g73
(dp337
g81
I3
ssg82
g331
sg75
(lp338
S''
asbasbasbag68
(g84
g70
NtRp339
(dp340
g73
(dp341
sg82
g293
sg75
(lp342
g68
(g89
g70
NtRp343
(dp344
g73
(dp345
g93
g94
ssg82
g339
sg75
(lp346
S'expires'
p347
asbag68
(g89
g70
NtRp348
(dp349
g73
(dp350
g100
g101
ssg82
g339
sg75
(lp351
S':'
asbag68
(g89
g70
NtRp352
(dp353
g73
(dp354
sg82
g339
sg75
(lp355
g68
(g69
g70
NtRp356
(dp357
g73
(dp358
g81
I3
ssg82
g352
sg75
(lp359
S''
asbasbasbag68
(g84
g70
NtRp360
(dp361
g73
(dp362
sg82
g293
sg75
(lp363
g68
(g89
g70
NtRp364
(dp365
g73
(dp366
g93
g94
ssg82
g360
sg75
(lp367
S'httponly'
p368
asbag68
(g89
g70
NtRp369
(dp370
g73
(dp371
g100
g101
ssg82
g360
sg75
(lp372
S':'
asbag68
(g89
g70
NtRp373
(dp374
g73
(dp375
sg82
g360
sg75
(lp376
g68
(g69
g70
NtRp377
(dp378
g73
(dp379
g81
I3
ssg82
g373
sg75
(lp380
S''
asbasbasbag68
(g84
g70
NtRp381
(dp382
g73
(dp383
sg82
g293
sg75
(lp384
g68
(g89
g70
NtRp385
(dp386
g73
(dp387
g93
g94
ssg82
g381
sg75
(lp388
S'max-age'
p389
asbag68
(g89
g70
NtRp390
(dp391
g73
(dp392
g100
g101
ssg82
g381
sg75
(lp393
S':'
asbag68
(g89
g70
NtRp394
(dp395
g73
(dp396
sg82
g381
sg75
(lp397
g68
(g69
g70
NtRp398
(dp399
g73
(dp400
g81
I3
ssg82
g394
sg75
(lp401
S''
asbasbasbag68
(g84
g70
NtRp402
(dp403
g73
(dp404
sg82
g293
sg75
(lp405
g68
(g89
g70
NtRp406
(dp407
g73
(dp408
g93
g94
ssg82
g402
sg75
(lp409
S'path'
p410
asbag68
(g89
g70
NtRp411
(dp412
g73
(dp413
g100
g101
ssg82
g402
sg75
(lp414
S':'
asbag68
(g89
g70
NtRp415
(dp416
g73
(dp417
sg82
g402
sg75
(lp418
g68
(g69
g70
NtRp419
(dp420
g73
(dp421
g81
I3
ssg82
g415
sg75
(lp422
S''
asbasbasbag68
(g84
g70
NtRp423
(dp424
g73
(dp425
sg82
g293
sg75
(lp426
g68
(g89
g70
NtRp427
(dp428
g73
(dp429
g93
g94
ssg82
g423
sg75
(lp430
S'secure'
p431
asbag68
(g89
g70
NtRp432
(dp433
g73
(dp434
g100
g101
ssg82
g423
sg75
(lp435
S':'
asbag68
(g89
g70
NtRp436
(dp437
g73
(dp438
sg82
g423
sg75
(lp439
g68
(g69
g70
NtRp440
(dp441
g73
(dp442
g81
I3
ssg82
g436
sg75
(lp443
S''
asbasbasbag68
(g84
g70
NtRp444
(dp445
g73
(dp446
sg82
g293
sg75
(lp447
g68
(g89
g70
NtRp448
(dp449
g73
(dp450
g93
g94
ssg82
g444
sg75
(lp451
S'version'
p452
asbag68
(g89
g70
NtRp453
(dp454
g73
(dp455
g100
g101
ssg82
g444
sg75
(lp456
S':'
asbag68
(g89
g70
NtRp457
(dp458
g73
(dp459
sg82
g444
sg75
(lp460
g68
(g69
g70
NtRp461
(dp462
g73
(dp463
g81
I3
ssg82
g457
sg75
(lp464
S''
asbasbasbasbasbasbasbag68
(g84
g70
NtRp465
(dp466
g73
(dp467
sg82
g267
sg75
(lp468
g68
(g89
g70
NtRp469
(dp470
g73
(dp471
g93
g94
ssg82
g465
sg75
(lp472
S'session_id_home'
p473
asbag68
(g89
g70
NtRp474
(dp475
g73
(dp476
g100
g101
ssg82
g465
sg75
(lp477
S':'
asbag68
(g89
g70
NtRp478
(dp479
g73
(dp480
sg82
g465
sg75
(lp481
g68
(g69
g70
NtRp482
(dp483
g73
(dp484
g81
I4
ssg82
g478
sg75
(lp485
S'127.0.0.1-61c26c04-034b-4717-a3a3-84ec434f1b9b'
p486
ag68
(g77
g70
NtRp487
(dp488
g73
(dp489
g81
I3
ssg82
Nsg75
(lp490
g68
(g84
g70
NtRp491
(dp492
g73
(dp493
sg82
g487
sg75
(lp494
g68
(g89
g70
NtRp495
(dp496
g73
(dp497
g93
g94
ssg82
g491
sg75
(lp498
g305
asbag68
(g89
g70
NtRp499
(dp500
g73
(dp501
g100
g101
ssg82
g491
sg75
(lp502
S':'
asbag68
(g89
g70
NtRp503
(dp504
g73
(dp505
sg82
g491
sg75
(lp506
g68
(g69
g70
NtRp507
(dp508
g73
(dp509
g81
I3
ssg82
g503
sg75
(lp510
S''
asbasbasbag68
(g84
g70
NtRp511
(dp512
g73
(dp513
sg82
g487
sg75
(lp514
g68
(g89
g70
NtRp515
(dp516
g73
(dp517
g93
g94
ssg82
g511
sg75
(lp518
g326
asbag68
(g89
g70
NtRp519
(dp520
g73
(dp521
g100
g101
ssg82
g511
sg75
(lp522
S':'
asbag68
(g89
g70
NtRp523
(dp524
g73
(dp525
sg82
g511
sg75
(lp526
g68
(g69
g70
NtRp527
(dp528
g73
(dp529
g81
I3
ssg82
g523
sg75
(lp530
S''
asbasbasbag68
(g84
g70
NtRp531
(dp532
g73
(dp533
sg82
g487
sg75
(lp534
g68
(g89
g70
NtRp535
(dp536
g73
(dp537
g93
g94
ssg82
g531
sg75
(lp538
g347
asbag68
(g89
g70
NtRp539
(dp540
g73
(dp541
g100
g101
ssg82
g531
sg75
(lp542
S':'
asbag68
(g89
g70
NtRp543
(dp544
g73
(dp545
sg82
g531
sg75
(lp546
g68
(g69
g70
NtRp547
(dp548
g73
(dp549
g81
I3
ssg82
g543
sg75
(lp550
S''
asbasbasbag68
(g84
g70
NtRp551
(dp552
g73
(dp553
sg82
g487
sg75
(lp554
g68
(g89
g70
NtRp555
(dp556
g73
(dp557
g93
g94
ssg82
g551
sg75
(lp558
g368
asbag68
(g89
g70
NtRp559
(dp560
g73
(dp561
g100
g101
ssg82
g551
sg75
(lp562
S':'
asbag68
(g89
g70
NtRp563
(dp564
g73
(dp565
sg82
g551
sg75
(lp566
g68
(g69
g70
NtRp567
(dp568
g73
(dp569
g81
I3
ssg82
g563
sg75
(lp570
S''
asbasbasbag68
(g84
g70
NtRp571
(dp572
g73
(dp573
sg82
g487
sg75
(lp574
g68
(g89
g70
NtRp575
(dp576
g73
(dp577
g93
g94
ssg82
g571
sg75
(lp578
g389
asbag68
(g89
g70
NtRp579
(dp580
g73
(dp581
g100
g101
ssg82
g571
sg75
(lp582
S':'
asbag68
(g89
g70
NtRp583
(dp584
g73
(dp585
sg82
g571
sg75
(lp586
g68
(g69
g70
NtRp587
(dp588
g73
(dp589
g81
I3
ssg82
g583
sg75
(lp590
S''
asbasbasbag68
(g84
g70
NtRp591
(dp592
g73
(dp593
sg82
g487
sg75
(lp594
g68
(g89
g70
NtRp595
(dp596
g73
(dp597
g93
g94
ssg82
g591
sg75
(lp598
g410
asbag68
(g89
g70
NtRp599
(dp600
g73
(dp601
g100
g101
ssg82
g591
sg75
(lp602
S':'
asbag68
(g89
g70
NtRp603
(dp604
g73
(dp605
sg82
g591
sg75
(lp606
g68
(g69
g70
NtRp607
(dp608
g73
(dp609
g81
I3
ssg82
g603
sg75
(lp610
S''
asbasbasbag68
(g84
g70
NtRp611
(dp612
g73
(dp613
sg82
g487
sg75
(lp614
g68
(g89
g70
NtRp615
(dp616
g73
(dp617
g93
g94
ssg82
g611
sg75
(lp618
g431
asbag68
(g89
g70
NtRp619
(dp620
g73
(dp621
g100
g101
ssg82
g611
sg75
(lp622
S':'
asbag68
(g89
g70
NtRp623
(dp624
g73
(dp625
sg82
g611
sg75
(lp626
g68
(g69
g70
NtRp627
(dp628
g73
(dp629
g81
I3
ssg82
g623
sg75
(lp630
S''
asbasbasbag68
(g84
g70
NtRp631
(dp632
g73
(dp633
sg82
g487
sg75
(lp634
g68
(g89
g70
NtRp635
(dp636
g73
(dp637
g93
g94
ssg82
g631
sg75
(lp638
g452
asbag68
(g89
g70
NtRp639
(dp640
g73
(dp641
g100
g101
ssg82
g631
sg75
(lp642
S':'
asbag68
(g89
g70
NtRp643
(dp644
g73
(dp645
sg82
g631
sg75
(lp646
g68
(g69
g70
NtRp647
(dp648
g73
(dp649
g81
I3
ssg82
g643
sg75
(lp650
S''
asbasbasbasbasbasbasbag68
(g84
g70
NtRp651
(dp652
g73
(dp653
sg82
g267
sg75
(lp654
g68
(g89
g70
NtRp655
(dp656
g73
(dp657
g93
g94
ssg82
g651
sg75
(lp658
S'session_id_projeto'
p659
asbag68
(g89
g70
NtRp660
(dp661
g73
(dp662
g100
g101
ssg82
g651
sg75
(lp663
S':'
asbag68
(g89
g70
NtRp664
(dp665
g73
(dp666
sg82
g651
sg75
(lp667
g68
(g69
g70
NtRp668
(dp669
g73
(dp670
g81
I4
ssg82
g664
sg75
(lp671
S'127.0.0.1-ac2fedfb-a46a-42e9-8bef-23a136eddeb8'
p672
ag68
(g77
g70
NtRp673
(dp674
g73
(dp675
g81
I3
ssg82
Nsg75
(lp676
g68
(g84
g70
NtRp677
(dp678
g73
(dp679
sg82
g673
sg75
(lp680
g68
(g89
g70
NtRp681
(dp682
g73
(dp683
g93
g94
ssg82
g677
sg75
(lp684
g305
asbag68
(g89
g70
NtRp685
(dp686
g73
(dp687
g100
g101
ssg82
g677
sg75
(lp688
S':'
asbag68
(g89
g70
NtRp689
(dp690
g73
(dp691
sg82
g677
sg75
(lp692
g68
(g69
g70
NtRp693
(dp694
g73
(dp695
g81
I3
ssg82
g689
sg75
(lp696
S''
asbasbasbag68
(g84
g70
NtRp697
(dp698
g73
(dp699
sg82
g673
sg75
(lp700
g68
(g89
g70
NtRp701
(dp702
g73
(dp703
g93
g94
ssg82
g697
sg75
(lp704
g326
asbag68
(g89
g70
NtRp705
(dp706
g73
(dp707
g100
g101
ssg82
g697
sg75
(lp708
S':'
asbag68
(g89
g70
NtRp709
(dp710
g73
(dp711
sg82
g697
sg75
(lp712
g68
(g69
g70
NtRp713
(dp714
g73
(dp715
g81
I3
ssg82
g709
sg75
(lp716
S''
asbasbasbag68
(g84
g70
NtRp717
(dp718
g73
(dp719
sg82
g673
sg75
(lp720
g68
(g89
g70
NtRp721
(dp722
g73
(dp723
g93
g94
ssg82
g717
sg75
(lp724
g347
asbag68
(g89
g70
NtRp725
(dp726
g73
(dp727
g100
g101
ssg82
g717
sg75
(lp728
S':'
asbag68
(g89
g70
NtRp729
(dp730
g73
(dp731
sg82
g717
sg75
(lp732
g68
(g69
g70
NtRp733
(dp734
g73
(dp735
g81
I3
ssg82
g729
sg75
(lp736
S''
asbasbasbag68
(g84
g70
NtRp737
(dp738
g73
(dp739
sg82
g673
sg75
(lp740
g68
(g89
g70
NtRp741
(dp742
g73
(dp743
g93
g94
ssg82
g737
sg75
(lp744
g368
asbag68
(g89
g70
NtRp745
(dp746
g73
(dp747
g100
g101
ssg82
g737
sg75
(lp748
S':'
asbag68
(g89
g70
NtRp749
(dp750
g73
(dp751
sg82
g737
sg75
(lp752
g68
(g69
g70
NtRp753
(dp754
g73
(dp755
g81
I3
ssg82
g749
sg75
(lp756
S''
asbasbasbag68
(g84
g70
NtRp757
(dp758
g73
(dp759
sg82
g673
sg75
(lp760
g68
(g89
g70
NtRp761
(dp762
g73
(dp763
g93
g94
ssg82
g757
sg75
(lp764
g389
asbag68
(g89
g70
NtRp765
(dp766
g73
(dp767
g100
g101
ssg82
g757
sg75
(lp768
S':'
asbag68
(g89
g70
NtRp769
(dp770
g73
(dp771
sg82
g757
sg75
(lp772
g68
(g69
g70
NtRp773
(dp774
g73
(dp775
g81
I3
ssg82
g769
sg75
(lp776
S''
asbasbasbag68
(g84
g70
NtRp777
(dp778
g73
(dp779
sg82
g673
sg75
(lp780
g68
(g89
g70
NtRp781
(dp782
g73
(dp783
g93
g94
ssg82
g777
sg75
(lp784
g410
asbag68
(g89
g70
NtRp785
(dp786
g73
(dp787
g100
g101
ssg82
g777
sg75
(lp788
S':'
asbag68
(g89
g70
NtRp789
(dp790
g73
(dp791
sg82
g777
sg75
(lp792
g68
(g69
g70
NtRp793
(dp794
g73
(dp795
g81
I3
ssg82
g789
sg75
(lp796
S''
asbasbasbag68
(g84
g70
NtRp797
(dp798
g73
(dp799
sg82
g673
sg75
(lp800
g68
(g89
g70
NtRp801
(dp802
g73
(dp803
g93
g94
ssg82
g797
sg75
(lp804
g431
asbag68
(g89
g70
NtRp805
(dp806
g73
(dp807
g100
g101
ssg82
g797
sg75
(lp808
S':'
asbag68
(g89
g70
NtRp809
(dp810
g73
(dp811
sg82
g797
sg75
(lp812
g68
(g69
g70
NtRp813
(dp814
g73
(dp815
g81
I3
ssg82
g809
sg75
(lp816
S''
asbasbasbag68
(g84
g70
NtRp817
(dp818
g73
(dp819
sg82
g673
sg75
(lp820
g68
(g89
g70
NtRp821
(dp822
g73
(dp823
g93
g94
ssg82
g817
sg75
(lp824
g452
asbag68
(g89
g70
NtRp825
(dp826
g73
(dp827
g100
g101
ssg82
g817
sg75
(lp828
S':'
asbag68
(g89
g70
NtRp829
(dp830
g73
(dp831
sg82
g817
sg75
(lp832
g68
(g69
g70
NtRp833
(dp834
g73
(dp835
g81
I3
ssg82
g829
sg75
(lp836
S''
asbasbasbasbasbasbasbag68
(g84
g70
NtRp837
(dp838
g73
(dp839
sg82
g267
sg75
(lp840
g68
(g89
g70
NtRp841
(dp842
g73
(dp843
g93
g94
ssg82
g837
sg75
(lp844
S'session_id_welcome'
p845
asbag68
(g89
g70
NtRp846
(dp847
g73
(dp848
g100
g101
ssg82
g837
sg75
(lp849
S':'
asbag68
(g89
g70
NtRp850
(dp851
g73
(dp852
sg82
g837
sg75
(lp853
g68
(g69
g70
NtRp854
(dp855
g73
(dp856
g81
I4
ssg82
g850
sg75
(lp857
S'127.0.0.1-112b4c82-b064-485e-80d3-cb116c714609'
p858
ag68
(g77
g70
NtRp859
(dp860
g73
(dp861
g81
I3
ssg82
Nsg75
(lp862
g68
(g84
g70
NtRp863
(dp864
g73
(dp865
sg82
g859
sg75
(lp866
g68
(g89
g70
NtRp867
(dp868
g73
(dp869
g93
g94
ssg82
g863
sg75
(lp870
g305
asbag68
(g89
g70
NtRp871
(dp872
g73
(dp873
g100
g101
ssg82
g863
sg75
(lp874
S':'
asbag68
(g89
g70
NtRp875
(dp876
g73
(dp877
sg82
g863
sg75
(lp878
g68
(g69
g70
NtRp879
(dp880
g73
(dp881
g81
I3
ssg82
g875
sg75
(lp882
S''
asbasbasbag68
(g84
g70
NtRp883
(dp884
g73
(dp885
sg82
g859
sg75
(lp886
g68
(g89
g70
NtRp887
(dp888
g73
(dp889
g93
g94
ssg82
g883
sg75
(lp890
g326
asbag68
(g89
g70
NtRp891
(dp892
g73
(dp893
g100
g101
ssg82
g883
sg75
(lp894
S':'
asbag68
(g89
g70
NtRp895
(dp896
g73
(dp897
sg82
g883
sg75
(lp898
g68
(g69
g70
NtRp899
(dp900
g73
(dp901
g81
I3
ssg82
g895
sg75
(lp902
S''
asbasbasbag68
(g84
g70
NtRp903
(dp904
g73
(dp905
sg82
g859
sg75
(lp906
g68
(g89
g70
NtRp907
(dp908
g73
(dp909
g93
g94
ssg82
g903
sg75
(lp910
g347
asbag68
(g89
g70
NtRp911
(dp912
g73
(dp913
g100
g101
ssg82
g903
sg75
(lp914
S':'
asbag68
(g89
g70
NtRp915
(dp916
g73
(dp917
sg82
g903
sg75
(lp918
g68
(g69
g70
NtRp919
(dp920
g73
(dp921
g81
I3
ssg82
g915
sg75
(lp922
S''
asbasbasbag68
(g84
g70
NtRp923
(dp924
g73
(dp925
sg82
g859
sg75
(lp926
g68
(g89
g70
NtRp927
(dp928
g73
(dp929
g93
g94
ssg82
g923
sg75
(lp930
g368
asbag68
(g89
g70
NtRp931
(dp932
g73
(dp933
g100
g101
ssg82
g923
sg75
(lp934
S':'
asbag68
(g89
g70
NtRp935
(dp936
g73
(dp937
sg82
g923
sg75
(lp938
g68
(g69
g70
NtRp939
(dp940
g73
(dp941
g81
I3
ssg82
g935
sg75
(lp942
S''
asbasbasbag68
(g84
g70
NtRp943
(dp944
g73
(dp945
sg82
g859
sg75
(lp946
g68
(g89
g70
NtRp947
(dp948
g73
(dp949
g93
g94
ssg82
g943
sg75
(lp950
g389
asbag68
(g89
g70
NtRp951
(dp952
g73
(dp953
g100
g101
ssg82
g943
sg75
(lp954
S':'
asbag68
(g89
g70
NtRp955
(dp956
g73
(dp957
sg82
g943
sg75
(lp958
g68
(g69
g70
NtRp959
(dp960
g73
(dp961
g81
I3
ssg82
g955
sg75
(lp962
S''
asbasbasbag68
(g84
g70
NtRp963
(dp964
g73
(dp965
sg82
g859
sg75
(lp966
g68
(g89
g70
NtRp967
(dp968
g73
(dp969
g93
g94
ssg82
g963
sg75
(lp970
g410
asbag68
(g89
g70
NtRp971
(dp972
g73
(dp973
g100
g101
ssg82
g963
sg75
(lp974
S':'
asbag68
(g89
g70
NtRp975
(dp976
g73
(dp977
sg82
g963
sg75
(lp978
g68
(g69
g70
NtRp979
(dp980
g73
(dp981
g81
I3
ssg82
g975
sg75
(lp982
S''
asbasbasbag68
(g84
g70
NtRp983
(dp984
g73
(dp985
sg82
g859
sg75
(lp986
g68
(g89
g70
NtRp987
(dp988
g73
(dp989
g93
g94
ssg82
g983
sg75
(lp990
g431
asbag68
(g89
g70
NtRp991
(dp992
g73
(dp993
g100
g101
ssg82
g983
sg75
(lp994
S':'
asbag68
(g89
g70
NtRp995
(dp996
g73
(dp997
sg82
g983
sg75
(lp998
g68
(g69
g70
NtRp999
(dp1000
g73
(dp1001
g81
I3
ssg82
g995
sg75
(lp1002
S''
asbasbasbag68
(g84
g70
NtRp1003
(dp1004
g73
(dp1005
sg82
g859
sg75
(lp1006
g68
(g89
g70
NtRp1007
(dp1008
g73
(dp1009
g93
g94
ssg82
g1003
sg75
(lp1010
g452
asbag68
(g89
g70
NtRp1011
(dp1012
g73
(dp1013
g100
g101
ssg82
g1003
sg75
(lp1014
S':'
asbag68
(g89
g70
NtRp1015
(dp1016
g73
(dp1017
sg82
g1003
sg75
(lp1018
g68
(g69
g70
NtRp1019
(dp1020
g73
(dp1021
g81
I3
ssg82
g1015
sg75
(lp1022
S''
asbasbasbasbasbasbasbasbasbasbasbag68
(g84
g70
NtRp1023
(dp1024
g73
(dp1025
sg82
g78
sg75
(lp1026
g68
(g89
g70
NtRp1027
(dp1028
g73
(dp1029
g93
g94
ssg82
g1023
sg75
(lp1030
S'env'
p1031
asbag68
(g89
g70
NtRp1032
(dp1033
g73
(dp1034
g100
g101
ssg82
g1023
sg75
(lp1035
S':'
asbag68
(g89
g70
NtRp1036
(dp1037
g73
(dp1038
sg82
g1023
sg75
(lp1039
g68
(g69
g70
NtRp1040
(dp1041
g73
(dp1042
g81
I5
ssg82
g1036
sg75
(lp1043
g68
(g77
g70
NtRp1044
(dp1045
g73
(dp1046
g81
I4
ssg82
Nsg75
(lp1047
g68
(g84
g70
NtRp1048
(dp1049
g73
(dp1050
sg82
g1044
sg75
(lp1051
g68
(g89
g70
NtRp1052
(dp1053
g73
(dp1054
g93
g94
ssg82
g1048
sg75
(lp1055
S'app_folders'
p1056
asbag68
(g89
g70
NtRp1057
(dp1058
g73
(dp1059
g100
g101
ssg82
g1048
sg75
(lp1060
S':'
asbag68
(g89
g70
NtRp1061
(dp1062
g73
(dp1063
sg82
g1048
sg75
(lp1064
g68
(g69
g70
NtRp1065
(dp1066
g73
(dp1067
g81
I4
ssg82
g1061
sg75
(lp1068
S"set(['/var/www/web2py_curso/applications/welcome/', '/var/www/web2py_curso/applications/admin/', '/var/www/web2py_curso/applications/projeto/'])"
p1069
asbasbasbag68
(g84
g70
NtRp1070
(dp1071
g73
(dp1072
sg82
g1044
sg75
(lp1073
g68
(g89
g70
NtRp1074
(dp1075
g73
(dp1076
g93
g94
ssg82
g1070
sg75
(lp1077
S'applications_parent'
p1078
asbag68
(g89
g70
NtRp1079
(dp1080
g73
(dp1081
g100
g101
ssg82
g1070
sg75
(lp1082
S':'
asbag68
(g89
g70
NtRp1083
(dp1084
g73
(dp1085
sg82
g1070
sg75
(lp1086
g68
(g69
g70
NtRp1087
(dp1088
g73
(dp1089
g81
I4
ssg82
g1083
sg75
(lp1090
S'/var/www/web2py_curso'
p1091
asbasbasbag68
(g84
g70
NtRp1092
(dp1093
g73
(dp1094
sg82
g1044
sg75
(lp1095
g68
(g89
g70
NtRp1096
(dp1097
g73
(dp1098
g93
g94
ssg82
g1092
sg75
(lp1099
S'cmd_args'
p1100
asbag68
(g89
g70
NtRp1101
(dp1102
g73
(dp1103
g100
g101
ssg82
g1092
sg75
(lp1104
S':'
asbag68
(g89
g70
NtRp1105
(dp1106
g73
(dp1107
sg82
g1092
sg75
(lp1108
g68
(g69
g70
NtRp1109
(dp1110
g73
(dp1111
g81
I4
ssg82
g1105
sg75
(lp1112
g68
(g77
g70
NtRp1113
(dp1114
g73
(dp1115
g81
I3
ssg82
Nsg75
(lp1116
sbasbasbasbag68
(g84
g70
NtRp1117
(dp1118
g73
(dp1119
sg82
g1044
sg75
(lp1120
g68
(g89
g70
NtRp1121
(dp1122
g73
(dp1123
g93
g94
ssg82
g1117
sg75
(lp1124
S'cmd_options'
p1125
asbag68
(g89
g70
NtRp1126
(dp1127
g73
(dp1128
g100
g101
ssg82
g1117
sg75
(lp1129
S':'
asbag68
(g89
g70
NtRp1130
(dp1131
g73
(dp1132
sg82
g1117
sg75
(lp1133
g68
(g69
g70
NtRp1134
(dp1135
g73
(dp1136
g81
I4
ssg82
g1130
sg75
(lp1137
S"<Values at 0x20c31b8: {'verbose': False, 'ip': '127.0.0.1', 'with_scheduler': False, 'ips': [], 'shutdown_timeout': 5, 'taskbar': False, 'port': 8000, 'maxthreads': None, 'softcron': False, 'server_name': 'fernado-desktop', 'bpython': False, 'nogui': False, 'pid_filename': 'httpserver.pid', 'extcron': False, 'runcron': False, 'run_system_tests': False, 'test': None, 'folder': '/var/www/web2py_curso', 'config': '', 'minthreads': None, 'winservice': '', 'shell': None, 'run': '', 'log_filename': 'httpserver.log', 'debuglevel': 30, 'args': [''], 'socket_timeout': 5, 'ssl_ca_certificate': None, 'scheduler': None, 'profiler_filename': None, 'ssl_private_key': '', 'scheduler_groups': None, 'password': '123456', 'request_queue_size': 5, 'ssl_certificate': '', 'cronjob': False, 'numthreads': None, 'quiet': False, 'interfaces': None, 'import_models': False, 'timeout': 10, 'plain': False, 'nobanner': False}>"
p1138
asbasbasbag68
(g84
g70
NtRp1139
(dp1140
g73
(dp1141
sg82
g1044
sg75
(lp1142
g68
(g89
g70
NtRp1143
(dp1144
g73
(dp1145
g93
g94
ssg82
g1139
sg75
(lp1146
S'db_sessions'
p1147
asbag68
(g89
g70
NtRp1148
(dp1149
g73
(dp1150
g100
g101
ssg82
g1139
sg75
(lp1151
S':'
asbag68
(g89
g70
NtRp1152
(dp1153
g73
(dp1154
sg82
g1139
sg75
(lp1155
g68
(g69
g70
NtRp1156
(dp1157
g73
(dp1158
g81
I4
ssg82
g1152
sg75
(lp1159
S'set([])'
p1160
asbasbasbag68
(g84
g70
NtRp1161
(dp1162
g73
(dp1163
sg82
g1044
sg75
(lp1164
g68
(g89
g70
NtRp1165
(dp1166
g73
(dp1167
g93
g94
ssg82
g1161
sg75
(lp1168
S'debugging'
p1169
asbag68
(g89
g70
NtRp1170
(dp1171
g73
(dp1172
g100
g101
ssg82
g1161
sg75
(lp1173
S':'
asbag68
(g89
g70
NtRp1174
(dp1175
g73
(dp1176
sg82
g1161
sg75
(lp1177
g68
(g69
g70
NtRp1178
(dp1179
g73
(dp1180
g81
I4
ssg82
g1174
sg75
(lp1181
g111
asbasbasbag68
(g84
g70
NtRp1182
(dp1183
g73
(dp1184
sg82
g1044
sg75
(lp1185
g68
(g89
g70
NtRp1186
(dp1187
g73
(dp1188
g93
g94
ssg82
g1182
sg75
(lp1189
S'gluon_parent'
p1190
asbag68
(g89
g70
NtRp1191
(dp1192
g73
(dp1193
g100
g101
ssg82
g1182
sg75
(lp1194
S':'
asbag68
(g89
g70
NtRp1195
(dp1196
g73
(dp1197
sg82
g1182
sg75
(lp1198
g68
(g69
g70
NtRp1199
(dp1200
g73
(dp1201
g81
I4
ssg82
g1195
sg75
(lp1202
S'/var/www/web2py_curso'
p1203
asbasbasbag68
(g84
g70
NtRp1204
(dp1205
g73
(dp1206
sg82
g1044
sg75
(lp1207
g68
(g89
g70
NtRp1208
(dp1209
g73
(dp1210
g93
g94
ssg82
g1204
sg75
(lp1211
S'http_accept'
p1212
asbag68
(g89
g70
NtRp1213
(dp1214
g73
(dp1215
g100
g101
ssg82
g1204
sg75
(lp1216
S':'
asbag68
(g89
g70
NtRp1217
(dp1218
g73
(dp1219
sg82
g1204
sg75
(lp1220
g68
(g69
g70
NtRp1221
(dp1222
g73
(dp1223
g81
I4
ssg82
g1217
sg75
(lp1224
S'text/html,application/xhtml+xml,application/xml;q=0.9,*/*;q=0.8'
p1225
asbasbasbag68
(g84
g70
NtRp1226
(dp1227
g73
(dp1228
sg82
g1044
sg75
(lp1229
g68
(g89
g70
NtRp1230
(dp1231
g73
(dp1232
g93
g94
ssg82
g1226
sg75
(lp1233
S'http_accept_charset'
p1234
asbag68
(g89
g70
NtRp1235
(dp1236
g73
(dp1237
g100
g101
ssg82
g1226
sg75
(lp1238
S':'
asbag68
(g89
g70
NtRp1239
(dp1240
g73
(dp1241
sg82
g1226
sg75
(lp1242
g68
(g69
g70
NtRp1243
(dp1244
g73
(dp1245
g81
I4
ssg82
g1239
sg75
(lp1246
S'ISO-8859-1,utf-8;q=0.7,*;q=0.3'
p1247
asbasbasbag68
(g84
g70
NtRp1248
(dp1249
g73
(dp1250
sg82
g1044
sg75
(lp1251
g68
(g89
g70
NtRp1252
(dp1253
g73
(dp1254
g93
g94
ssg82
g1248
sg75
(lp1255
S'http_accept_encoding'
p1256
asbag68
(g89
g70
NtRp1257
(dp1258
g73
(dp1259
g100
g101
ssg82
g1248
sg75
(lp1260
S':'
asbag68
(g89
g70
NtRp1261
(dp1262
g73
(dp1263
sg82
g1248
sg75
(lp1264
g68
(g69
g70
NtRp1265
(dp1266
g73
(dp1267
g81
I4
ssg82
g1261
sg75
(lp1268
S'gzip,deflate,sdch'
p1269
asbasbasbag68
(g84
g70
NtRp1270
(dp1271
g73
(dp1272
sg82
g1044
sg75
(lp1273
g68
(g89
g70
NtRp1274
(dp1275
g73
(dp1276
g93
g94
ssg82
g1270
sg75
(lp1277
S'http_accept_language'
p1278
asbag68
(g89
g70
NtRp1279
(dp1280
g73
(dp1281
g100
g101
ssg82
g1270
sg75
(lp1282
S':'
asbag68
(g89
g70
NtRp1283
(dp1284
g73
(dp1285
sg82
g1270
sg75
(lp1286
g68
(g69
g70
NtRp1287
(dp1288
g73
(dp1289
g81
I4
ssg82
g1283
sg75
(lp1290
S'pt-BR,pt;q=0.8,en-US;q=0.6,en;q=0.4'
p1291
asbasbasbag68
(g84
g70
NtRp1292
(dp1293
g73
(dp1294
sg82
g1044
sg75
(lp1295
g68
(g89
g70
NtRp1296
(dp1297
g73
(dp1298
g93
g94
ssg82
g1292
sg75
(lp1299
S'http_connection'
p1300
asbag68
(g89
g70
NtRp1301
(dp1302
g73
(dp1303
g100
g101
ssg82
g1292
sg75
(lp1304
S':'
asbag68
(g89
g70
NtRp1305
(dp1306
g73
(dp1307
sg82
g1292
sg75
(lp1308
g68
(g69
g70
NtRp1309
(dp1310
g73
(dp1311
g81
I4
ssg82
g1305
sg75
(lp1312
S'keep-alive'
p1313
asbasbasbag68
(g84
g70
NtRp1314
(dp1315
g73
(dp1316
sg82
g1044
sg75
(lp1317
g68
(g89
g70
NtRp1318
(dp1319
g73
(dp1320
g93
g94
ssg82
g1314
sg75
(lp1321
S'http_cookie'
p1322
asbag68
(g89
g70
NtRp1323
(dp1324
g73
(dp1325
g100
g101
ssg82
g1314
sg75
(lp1326
S':'
asbag68
(g89
g70
NtRp1327
(dp1328
g73
(dp1329
sg82
g1314
sg75
(lp1330
g68
(g69
g70
NtRp1331
(dp1332
g73
(dp1333
g81
I4
ssg82
g1327
sg75
(lp1334
S'session_id_home=127.0.0.1-61c26c04-034b-4717-a3a3-84ec434f1b9b; session_id_welcome=127.0.0.1-112b4c82-b064-485e-80d3-cb116c714609; session_id_admin=127.0.0.1-6b19d69e-1405-460b-b17e-ad0b8deb3490; session_id_projeto=127.0.0.1-ac2fedfb-a46a-42e9-8bef-23a136eddeb8'
p1335
asbasbasbag68
(g84
g70
NtRp1336
(dp1337
g73
(dp1338
sg82
g1044
sg75
(lp1339
g68
(g89
g70
NtRp1340
(dp1341
g73
(dp1342
g93
g94
ssg82
g1336
sg75
(lp1343
S'http_host'
p1344
asbag68
(g89
g70
NtRp1345
(dp1346
g73
(dp1347
g100
g101
ssg82
g1336
sg75
(lp1348
S':'
asbag68
(g89
g70
NtRp1349
(dp1350
g73
(dp1351
sg82
g1336
sg75
(lp1352
g68
(g69
g70
NtRp1353
(dp1354
g73
(dp1355
g81
I4
ssg82
g1349
sg75
(lp1356
S'127.0.0.1:8000'
p1357
asbasbasbag68
(g84
g70
NtRp1358
(dp1359
g73
(dp1360
sg82
g1044
sg75
(lp1361
g68
(g89
g70
NtRp1362
(dp1363
g73
(dp1364
g93
g94
ssg82
g1358
sg75
(lp1365
S'http_user_agent'
p1366
asbag68
(g89
g70
NtRp1367
(dp1368
g73
(dp1369
g100
g101
ssg82
g1358
sg75
(lp1370
S':'
asbag68
(g89
g70
NtRp1371
(dp1372
g73
(dp1373
sg82
g1358
sg75
(lp1374
g68
(g69
g70
NtRp1375
(dp1376
g73
(dp1377
g81
I4
ssg82
g1371
sg75
(lp1378
S'Mozilla/5.0 (X11; Linux x86_64) AppleWebKit/537.4 (KHTML, like Gecko) Ubuntu/12.10 Chromium/22.0.1229.94 Chrome/22.0.1229.94 Safari/537.4'
p1379
asbasbasbag68
(g84
g70
NtRp1380
(dp1381
g73
(dp1382
sg82
g1044
sg75
(lp1383
g68
(g89
g70
NtRp1384
(dp1385
g73
(dp1386
g93
g94
ssg82
g1380
sg75
(lp1387
S'is_jython'
p1388
asbag68
(g89
g70
NtRp1389
(dp1390
g73
(dp1391
g100
g101
ssg82
g1380
sg75
(lp1392
S':'
asbag68
(g89
g70
NtRp1393
(dp1394
g73
(dp1395
sg82
g1380
sg75
(lp1396
g68
(g69
g70
NtRp1397
(dp1398
g73
(dp1399
g81
I4
ssg82
g1393
sg75
(lp1400
g111
asbasbasbag68
(g84
g70
NtRp1401
(dp1402
g73
(dp1403
sg82
g1044
sg75
(lp1404
g68
(g89
g70
NtRp1405
(dp1406
g73
(dp1407
g93
g94
ssg82
g1401
sg75
(lp1408
S'is_pypy'
p1409
asbag68
(g89
g70
NtRp1410
(dp1411
g73
(dp1412
g100
g101
ssg82
g1401
sg75
(lp1413
S':'
asbag68
(g89
g70
NtRp1414
(dp1415
g73
(dp1416
sg82
g1401
sg75
(lp1417
g68
(g69
g70
NtRp1418
(dp1419
g73
(dp1420
g81
I4
ssg82
g1414
sg75
(lp1421
g111
asbasbasbag68
(g84
g70
NtRp1422
(dp1423
g73
(dp1424
sg82
g1044
sg75
(lp1425
g68
(g89
g70
NtRp1426
(dp1427
g73
(dp1428
g93
g94
ssg82
g1422
sg75
(lp1429
S'local_hosts'
p1430
asbag68
(g89
g70
NtRp1431
(dp1432
g73
(dp1433
g100
g101
ssg82
g1422
sg75
(lp1434
S':'
asbag68
(g89
g70
NtRp1435
(dp1436
g73
(dp1437
sg82
g1422
sg75
(lp1438
g68
(g69
g70
NtRp1439
(dp1440
g73
(dp1441
g81
I4
ssg82
g1435
sg75
(lp1442
g68
(g77
g70
NtRp1443
(dp1444
g73
(dp1445
g81
I3
ssg82
Nsg75
(lp1446
g68
(g84
g70
NtRp1447
(dp1448
g73
(dp1449
sg82
g1443
sg75
(lp1450
g68
(g89
g70
NtRp1451
(dp1452
g73
(dp1453
sg82
g1447
sg75
(lp1454
g68
(g69
g70
NtRp1455
(dp1456
g73
(dp1457
g81
I3
ssg82
g1451
sg75
(lp1458
S'127.0.1.1'
p1459
asbasbasbag68
(g84
g70
NtRp1460
(dp1461
g73
(dp1462
sg82
g1443
sg75
(lp1463
g68
(g89
g70
NtRp1464
(dp1465
g73
(dp1466
sg82
g1460
sg75
(lp1467
g68
(g69
g70
NtRp1468
(dp1469
g73
(dp1470
g81
I3
ssg82
g1464
sg75
(lp1471
S'::1'
p1472
asbasbasbag68
(g84
g70
NtRp1473
(dp1474
g73
(dp1475
sg82
g1443
sg75
(lp1476
g68
(g89
g70
NtRp1477
(dp1478
g73
(dp1479
sg82
g1473
sg75
(lp1480
g68
(g69
g70
NtRp1481
(dp1482
g73
(dp1483
g81
I3
ssg82
g1477
sg75
(lp1484
S'fernado-desktop'
p1485
asbasbasbag68
(g84
g70
NtRp1486
(dp1487
g73
(dp1488
sg82
g1443
sg75
(lp1489
g68
(g89
g70
NtRp1490
(dp1491
g73
(dp1492
sg82
g1486
sg75
(lp1493
g68
(g69
g70
NtRp1494
(dp1495
g73
(dp1496
g81
I3
ssg82
g1490
sg75
(lp1497
S'::ffff:127.0.0.1'
p1498
asbasbasbag68
(g84
g70
NtRp1499
(dp1500
g73
(dp1501
sg82
g1443
sg75
(lp1502
g68
(g89
g70
NtRp1503
(dp1504
g73
(dp1505
sg82
g1499
sg75
(lp1506
g68
(g69
g70
NtRp1507
(dp1508
g73
(dp1509
g81
I3
ssg82
g1503
sg75
(lp1510
S'127.0.0.1'
p1511
asbasbasbasbasbasbasbag68
(g84
g70
NtRp1512
(dp1513
g73
(dp1514
sg82
g1044
sg75
(lp1515
g68
(g89
g70
NtRp1516
(dp1517
g73
(dp1518
g93
g94
ssg82
g1512
sg75
(lp1519
S'path_info'
p1520
asbag68
(g89
g70
NtRp1521
(dp1522
g73
(dp1523
g100
g101
ssg82
g1512
sg75
(lp1524
S':'
asbag68
(g89
g70
NtRp1525
(dp1526
g73
(dp1527
sg82
g1512
sg75
(lp1528
g68
(g69
g70
NtRp1529
(dp1530
g73
(dp1531
g81
I4
ssg82
g1525
sg75
(lp1532
S'/projeto/default/index'
p1533
asbasbasbag68
(g84
g70
NtRp1534
(dp1535
g73
(dp1536
sg82
g1044
sg75
(lp1537
g68
(g89
g70
NtRp1538
(dp1539
g73
(dp1540
g93
g94
ssg82
g1534
sg75
(lp1541
S'query_string'
p1542
asbag68
(g89
g70
NtRp1543
(dp1544
g73
(dp1545
g100
g101
ssg82
g1534
sg75
(lp1546
S':'
asbag68
(g89
g70
NtRp1547
(dp1548
g73
(dp1549
sg82
g1534
sg75
(lp1550
g68
(g69
g70
NtRp1551
(dp1552
g73
(dp1553
g81
I4
ssg82
g1547
sg75
(lp1554
S''
asbasbasbag68
(g84
g70
NtRp1555
(dp1556
g73
(dp1557
sg82
g1044
sg75
(lp1558
g68
(g89
g70
NtRp1559
(dp1560
g73
(dp1561
g93
g94
ssg82
g1555
sg75
(lp1562
S'remote_addr'
p1563
asbag68
(g89
g70
NtRp1564
(dp1565
g73
(dp1566
g100
g101
ssg82
g1555
sg75
(lp1567
S':'
asbag68
(g89
g70
NtRp1568
(dp1569
g73
(dp1570
sg82
g1555
sg75
(lp1571
g68
(g69
g70
NtRp1572
(dp1573
g73
(dp1574
g81
I4
ssg82
g1568
sg75
(lp1575
g223
asbasbasbag68
(g84
g70
NtRp1576
(dp1577
g73
(dp1578
sg82
g1044
sg75
(lp1579
g68
(g89
g70
NtRp1580
(dp1581
g73
(dp1582
g93
g94
ssg82
g1576
sg75
(lp1583
S'remote_port'
p1584
asbag68
(g89
g70
NtRp1585
(dp1586
g73
(dp1587
g100
g101
ssg82
g1576
sg75
(lp1588
S':'
asbag68
(g89
g70
NtRp1589
(dp1590
g73
(dp1591
sg82
g1576
sg75
(lp1592
g68
(g69
g70
NtRp1593
(dp1594
g73
(dp1595
g81
I4
ssg82
g1589
sg75
(lp1596
S'46597'
p1597
asbasbasbag68
(g84
g70
NtRp1598
(dp1599
g73
(dp1600
sg82
g1044
sg75
(lp1601
g68
(g89
g70
NtRp1602
(dp1603
g73
(dp1604
g93
g94
ssg82
g1598
sg75
(lp1605
S'request_method'
p1606
asbag68
(g89
g70
NtRp1607
(dp1608
g73
(dp1609
g100
g101
ssg82
g1598
sg75
(lp1610
S':'
asbag68
(g89
g70
NtRp1611
(dp1612
g73
(dp1613
sg82
g1598
sg75
(lp1614
g68
(g69
g70
NtRp1615
(dp1616
g73
(dp1617
g81
I4
ssg82
g1611
sg75
(lp1618
S'GET'
p1619
asbasbasbag68
(g84
g70
NtRp1620
(dp1621
g73
(dp1622
sg82
g1044
sg75
(lp1623
g68
(g89
g70
NtRp1624
(dp1625
g73
(dp1626
g93
g94
ssg82
g1620
sg75
(lp1627
S'request_uri'
p1628
asbag68
(g89
g70
NtRp1629
(dp1630
g73
(dp1631
g100
g101
ssg82
g1620
sg75
(lp1632
S':'
asbag68
(g89
g70
NtRp1633
(dp1634
g73
(dp1635
sg82
g1620
sg75
(lp1636
g68
(g69
g70
NtRp1637
(dp1638
g73
(dp1639
g81
I4
ssg82
g1633
sg75
(lp1640
g1533
asbasbasbag68
(g84
g70
NtRp1641
(dp1642
g73
(dp1643
sg82
g1044
sg75
(lp1644
g68
(g89
g70
NtRp1645
(dp1646
g73
(dp1647
g93
g94
ssg82
g1641
sg75
(lp1648
S'script_name'
p1649
asbag68
(g89
g70
NtRp1650
(dp1651
g73
(dp1652
g100
g101
ssg82
g1641
sg75
(lp1653
S':'
asbag68
(g89
g70
NtRp1654
(dp1655
g73
(dp1656
sg82
g1641
sg75
(lp1657
g68
(g69
g70
NtRp1658
(dp1659
g73
(dp1660
g81
I4
ssg82
g1654
sg75
(lp1661
S''
asbasbasbag68
(g84
g70
NtRp1662
(dp1663
g73
(dp1664
sg82
g1044
sg75
(lp1665
g68
(g89
g70
NtRp1666
(dp1667
g73
(dp1668
g93
g94
ssg82
g1662
sg75
(lp1669
S'server_name'
p1670
asbag68
(g89
g70
NtRp1671
(dp1672
g73
(dp1673
g100
g101
ssg82
g1662
sg75
(lp1674
S':'
asbag68
(g89
g70
NtRp1675
(dp1676
g73
(dp1677
sg82
g1662
sg75
(lp1678
g68
(g69
g70
NtRp1679
(dp1680
g73
(dp1681
g81
I4
ssg82
g1675
sg75
(lp1682
S'fernado-desktop'
p1683
asbasbasbag68
(g84
g70
NtRp1684
(dp1685
g73
(dp1686
sg82
g1044
sg75
(lp1687
g68
(g89
g70
NtRp1688
(dp1689
g73
(dp1690
g93
g94
ssg82
g1684
sg75
(lp1691
S'server_port'
p1692
asbag68
(g89
g70
NtRp1693
(dp1694
g73
(dp1695
g100
g101
ssg82
g1684
sg75
(lp1696
S':'
asbag68
(g89
g70
NtRp1697
(dp1698
g73
(dp1699
sg82
g1684
sg75
(lp1700
g68
(g69
g70
NtRp1701
(dp1702
g73
(dp1703
g81
I4
ssg82
g1697
sg75
(lp1704
S'8000'
p1705
asbasbasbag68
(g84
g70
NtRp1706
(dp1707
g73
(dp1708
sg82
g1044
sg75
(lp1709
g68
(g89
g70
NtRp1710
(dp1711
g73
(dp1712
g93
g94
ssg82
g1706
sg75
(lp1713
S'server_protocol'
p1714
asbag68
(g89
g70
NtRp1715
(dp1716
g73
(dp1717
g100
g101
ssg82
g1706
sg75
(lp1718
S':'
asbag68
(g89
g70
NtRp1719
(dp1720
g73
(dp1721
sg82
g1706
sg75
(lp1722
g68
(g69
g70
NtRp1723
(dp1724
g73
(dp1725
g81
I4
ssg82
g1719
sg75
(lp1726
S'HTTP/1.1'
p1727
asbasbasbag68
(g84
g70
NtRp1728
(dp1729
g73
(dp1730
sg82
g1044
sg75
(lp1731
g68
(g89
g70
NtRp1732
(dp1733
g73
(dp1734
g93
g94
ssg82
g1728
sg75
(lp1735
S'server_software'
p1736
asbag68
(g89
g70
NtRp1737
(dp1738
g73
(dp1739
g100
g101
ssg82
g1728
sg75
(lp1740
S':'
asbag68
(g89
g70
NtRp1741
(dp1742
g73
(dp1743
sg82
g1728
sg75
(lp1744
g68
(g69
g70
NtRp1745
(dp1746
g73
(dp1747
g81
I4
ssg82
g1741
sg75
(lp1748
S'Rocket 1.2.6'
p1749
asbasbasbag68
(g84
g70
NtRp1750
(dp1751
g73
(dp1752
sg82
g1044
sg75
(lp1753
g68
(g89
g70
NtRp1754
(dp1755
g73
(dp1756
g93
g94
ssg82
g1750
sg75
(lp1757
S'web2py_path'
p1758
asbag68
(g89
g70
NtRp1759
(dp1760
g73
(dp1761
g100
g101
ssg82
g1750
sg75
(lp1762
S':'
asbag68
(g89
g70
NtRp1763
(dp1764
g73
(dp1765
sg82
g1750
sg75
(lp1766
g68
(g69
g70
NtRp1767
(dp1768
g73
(dp1769
g81
I4
ssg82
g1763
sg75
(lp1770
g1091
asbasbasbag68
(g84
g70
NtRp1771
(dp1772
g73
(dp1773
sg82
g1044
sg75
(lp1774
g68
(g89
g70
NtRp1775
(dp1776
g73
(dp1777
g93
g94
ssg82
g1771
sg75
(lp1778
S'web2py_version'
p1779
asbag68
(g89
g70
NtRp1780
(dp1781
g73
(dp1782
g100
g101
ssg82
g1771
sg75
(lp1783
S':'
asbag68
(g89
g70
NtRp1784
(dp1785
g73
(dp1786
sg82
g1771
sg75
(lp1787
g68
(g69
g70
NtRp1788
(dp1789
g73
(dp1790
g81
I4
ssg82
g1784
sg75
(lp1791
g68
(g77
g70
NtRp1792
(dp1793
g73
(dp1794
g81
I3
ssg82
Nsg75
(lp1795
g68
(g84
g70
NtRp1796
(dp1797
g73
(dp1798
sg82
g1792
sg75
(lp1799
g68
(g89
g70
NtRp1800
(dp1801
g73
(dp1802
sg82
g1796
sg75
(lp1803
g68
(g69
g70
NtRp1804
(dp1805
g73
(dp1806
g81
I3
ssg82
g1800
sg75
(lp1807
S'2'
asbasbasbag68
(g84
g70
NtRp1808
(dp1809
g73
(dp1810
sg82
g1792
sg75
(lp1811
g68
(g89
g70
NtRp1812
(dp1813
g73
(dp1814
sg82
g1808
sg75
(lp1815
g68
(g69
g70
NtRp1816
(dp1817
g73
(dp1818
g81
I3
ssg82
g1812
sg75
(lp1819
S'3'
asbasbasbag68
(g84
g70
NtRp1820
(dp1821
g73
(dp1822
sg82
g1792
sg75
(lp1823
g68
(g89
g70
NtRp1824
(dp1825
g73
(dp1826
sg82
g1820
sg75
(lp1827
g68
(g69
g70
NtRp1828
(dp1829
g73
(dp1830
g81
I3
ssg82
g1824
sg75
(lp1831
S'2'
asbasbasbag68
(g84
g70
NtRp1832
(dp1833
g73
(dp1834
sg82
g1792
sg75
(lp1835
g68
(g89
g70
NtRp1836
(dp1837
g73
(dp1838
sg82
g1832
sg75
(lp1839
g68
(g69
g70
NtRp1840
(dp1841
g73
(dp1842
g81
I3
ssg82
g1836
sg75
(lp1843
S'datetime.datetime(2012, 12, 17, 15, 3, 30)'
p1844
asbasbasbag68
(g84
g70
NtRp1845
(dp1846
g73
(dp1847
sg82
g1792
sg75
(lp1848
g68
(g89
g70
NtRp1849
(dp1850
g73
(dp1851
sg82
g1845
sg75
(lp1852
g68
(g69
g70
NtRp1853
(dp1854
g73
(dp1855
g81
I3
ssg82
g1849
sg75
(lp1856
S'stable'
p1857
asbasbasbasbasbasbasbag68
(g84
g70
NtRp1858
(dp1859
g73
(dp1860
sg82
g1044
sg75
(lp1861
g68
(g89
g70
NtRp1862
(dp1863
g73
(dp1864
g93
g94
ssg82
g1858
sg75
(lp1865
S'wsgi_errors'
p1866
asbag68
(g89
g70
NtRp1867
(dp1868
g73
(dp1869
g100
g101
ssg82
g1858
sg75
(lp1870
S':'
asbag68
(g89
g70
NtRp1871
(dp1872
g73
(dp1873
sg82
g1858
sg75
(lp1874
g68
(g69
g70
NtRp1875
(dp1876
g73
(dp1877
g81
I4
ssg82
g1871
sg75
(lp1878
S"<open file '<stderr>', mode 'w' at 0x7fde3c532270>"
p1879
asbasbasbag68
(g84
g70
NtRp1880
(dp1881
g73
(dp1882
sg82
g1044
sg75
(lp1883
g68
(g89
g70
NtRp1884
(dp1885
g73
(dp1886
g93
g94
ssg82
g1880
sg75
(lp1887
S'wsgi_file_wrapper'
p1888
asbag68
(g89
g70
NtRp1889
(dp1890
g73
(dp1891
g100
g101
ssg82
g1880
sg75
(lp1892
S':'
asbag68
(g89
g70
NtRp1893
(dp1894
g73
(dp1895
sg82
g1880
sg75
(lp1896
g68
(g69
g70
NtRp1897
(dp1898
g73
(dp1899
g81
I4
ssg82
g1893
sg75
(lp1900
S'<class wsgiref.util.FileWrapper at 0x2cd6c18>'
p1901
asbasbasbag68
(g84
g70
NtRp1902
(dp1903
g73
(dp1904
sg82
g1044
sg75
(lp1905
g68
(g89
g70
NtRp1906
(dp1907
g73
(dp1908
g93
g94
ssg82
g1902
sg75
(lp1909
S'wsgi_input'
p1910
asbag68
(g89
g70
NtRp1911
(dp1912
g73
(dp1913
g100
g101
ssg82
g1902
sg75
(lp1914
S':'
asbag68
(g89
g70
NtRp1915
(dp1916
g73
(dp1917
sg82
g1902
sg75
(lp1918
g68
(g69
g70
NtRp1919
(dp1920
g73
(dp1921
g81
I4
ssg82
g1915
sg75
(lp1922
S'<socket._fileobject object at 0x7fde303a35d0>'
p1923
asbasbasbag68
(g84
g70
NtRp1924
(dp1925
g73
(dp1926
sg82
g1044
sg75
(lp1927
g68
(g89
g70
NtRp1928
(dp1929
g73
(dp1930
g93
g94
ssg82
g1924
sg75
(lp1931
S'wsgi_multiprocess'
p1932
asbag68
(g89
g70
NtRp1933
(dp1934
g73
(dp1935
g100
g101
ssg82
g1924
sg75
(lp1936
S':'
asbag68
(g89
g70
NtRp1937
(dp1938
g73
(dp1939
sg82
g1924
sg75
(lp1940
g68
(g69
g70
NtRp1941
(dp1942
g73
(dp1943
g81
I4
ssg82
g1937
sg75
(lp1944
g111
asbasbasbag68
(g84
g70
NtRp1945
(dp1946
g73
(dp1947
sg82
g1044
sg75
(lp1948
g68
(g89
g70
NtRp1949
(dp1950
g73
(dp1951
g93
g94
ssg82
g1945
sg75
(lp1952
S'wsgi_multithread'
p1953
asbag68
(g89
g70
NtRp1954
(dp1955
g73
(dp1956
g100
g101
ssg82
g1945
sg75
(lp1957
S':'
asbag68
(g89
g70
NtRp1958
(dp1959
g73
(dp1960
sg82
g1945
sg75
(lp1961
g68
(g69
g70
NtRp1962
(dp1963
g73
(dp1964
g81
I4
ssg82
g1958
sg75
(lp1965
S'True'
p1966
asbasbasbag68
(g84
g70
NtRp1967
(dp1968
g73
(dp1969
sg82
g1044
sg75
(lp1970
g68
(g89
g70
NtRp1971
(dp1972
g73
(dp1973
g93
g94
ssg82
g1967
sg75
(lp1974
S'wsgi_run_once'
p1975
asbag68
(g89
g70
NtRp1976
(dp1977
g73
(dp1978
g100
g101
ssg82
g1967
sg75
(lp1979
S':'
asbag68
(g89
g70
NtRp1980
(dp1981
g73
(dp1982
sg82
g1967
sg75
(lp1983
g68
(g69
g70
NtRp1984
(dp1985
g73
(dp1986
g81
I4
ssg82
g1980
sg75
(lp1987
g111
asbasbasbag68
(g84
g70
NtRp1988
(dp1989
g73
(dp1990
sg82
g1044
sg75
(lp1991
g68
(g89
g70
NtRp1992
(dp1993
g73
(dp1994
g93
g94
ssg82
g1988
sg75
(lp1995
S'wsgi_url_scheme'
p1996
asbag68
(g89
g70
NtRp1997
(dp1998
g73
(dp1999
g100
g101
ssg82
g1988
sg75
(lp2000
S':'
asbag68
(g89
g70
NtRp2001
(dp2002
g73
(dp2003
sg82
g1988
sg75
(lp2004
g68
(g69
g70
NtRp2005
(dp2006
g73
(dp2007
g81
I4
ssg82
g2001
sg75
(lp2008
S'http'
p2009
asbasbasbag68
(g84
g70
NtRp2010
(dp2011
g73
(dp2012
sg82
g1044
sg75
(lp2013
g68
(g89
g70
NtRp2014
(dp2015
g73
(dp2016
g93
g94
ssg82
g2010
sg75
(lp2017
S'wsgi_version'
p2018
asbag68
(g89
g70
NtRp2019
(dp2020
g73
(dp2021
g100
g101
ssg82
g2010
sg75
(lp2022
S':'
asbag68
(g89
g70
NtRp2023
(dp2024
g73
(dp2025
sg82
g2010
sg75
(lp2026
g68
(g69
g70
NtRp2027
(dp2028
g73
(dp2029
g81
I4
ssg82
g2023
sg75
(lp2030
g68
(g77
g70
NtRp2031
(dp2032
g73
(dp2033
g81
I3
ssg82
Nsg75
(lp2034
g68
(g84
g70
NtRp2035
(dp2036
g73
(dp2037
sg82
g2031
sg75
(lp2038
g68
(g89
g70
NtRp2039
(dp2040
g73
(dp2041
sg82
g2035
sg75
(lp2042
g68
(g69
g70
NtRp2043
(dp2044
g73
(dp2045
g81
I3
ssg82
g2039
sg75
(lp2046
S'1'
asbasbasbag68
(g84
g70
NtRp2047
(dp2048
g73
(dp2049
sg82
g2031
sg75
(lp2050
g68
(g89
g70
NtRp2051
(dp2052
g73
(dp2053
sg82
g2047
sg75
(lp2054
g68
(g69
g70
NtRp2055
(dp2056
g73
(dp2057
g81
I3
ssg82
g2051
sg75
(lp2058
S'0'
asbasbasbasbasbasbasbasbasbasbasbag68
(g84
g70
NtRp2059
(dp2060
g73
(dp2061
sg82
g78
sg75
(lp2062
g68
(g89
g70
NtRp2063
(dp2064
g73
(dp2065
g93
g94
ssg82
g2059
sg75
(lp2066
S'extension'
p2067
asbag68
(g89
g70
NtRp2068
(dp2069
g73
(dp2070
g100
g101
ssg82
g2059
sg75
(lp2071
S':'
asbag68
(g89
g70
NtRp2072
(dp2073
g73
(dp2074
sg82
g2059
sg75
(lp2075
g68
(g69
g70
NtRp2076
(dp2077
g73
(dp2078
g81
I5
ssg82
g2072
sg75
(lp2079
S'html'
p2080
asbasbasbag68
(g84
g70
NtRp2081
(dp2082
g73
(dp2083
sg82
g78
sg75
(lp2084
g68
(g89
g70
NtRp2085
(dp2086
g73
(dp2087
g93
g94
ssg82
g2081
sg75
(lp2088
S'folder'
p2089
asbag68
(g89
g70
NtRp2090
(dp2091
g73
(dp2092
g100
g101
ssg82
g2081
sg75
(lp2093
S':'
asbag68
(g89
g70
NtRp2094
(dp2095
g73
(dp2096
sg82
g2081
sg75
(lp2097
g68
(g69
g70
NtRp2098
(dp2099
g73
(dp2100
g81
I5
ssg82
g2094
sg75
(lp2101
S'/var/www/web2py_curso/applications/projeto/'
p2102
asbasbasbag68
(g84
g70
NtRp2103
(dp2104
g73
(dp2105
sg82
g78
sg75
(lp2106
g68
(g89
g70
NtRp2107
(dp2108
g73
(dp2109
g93
g94
ssg82
g2103
sg75
(lp2110
S'function'
p2111
asbag68
(g89
g70
NtRp2112
(dp2113
g73
(dp2114
g100
g101
ssg82
g2103
sg75
(lp2115
S':'
asbag68
(g89
g70
NtRp2116
(dp2117
g73
(dp2118
sg82
g2103
sg75
(lp2119
g68
(g69
g70
NtRp2120
(dp2121
g73
(dp2122
g81
I5
ssg82
g2116
sg75
(lp2123
S'index'
p2124
asbasbasbag68
(g84
g70
NtRp2125
(dp2126
g73
(dp2127
sg82
g78
sg75
(lp2128
g68
(g89
g70
NtRp2129
(dp2130
g73
(dp2131
g93
g94
ssg82
g2125
sg75
(lp2132
S'get_vars'
p2133
asbag68
(g89
g70
NtRp2134
(dp2135
g73
(dp2136
g100
g101
ssg82
g2125
sg75
(lp2137
S':'
asbag68
(g89
g70
NtRp2138
(dp2139
g73
(dp2140
sg82
g2125
sg75
(lp2141
g68
(g69
g70
NtRp2142
(dp2143
g73
(dp2144
g81
I5
ssg82
g2138
sg75
(lp2145
g68
(g77
g70
NtRp2146
(dp2147
g73
(dp2148
g81
I4
ssg82
Nsg75
(lp2149
sbasbasbasbag68
(g84
g70
NtRp2150
(dp2151
g73
(dp2152
sg82
g78
sg75
(lp2153
g68
(g89
g70
NtRp2154
(dp2155
g73
(dp2156
g93
g94
ssg82
g2150
sg75
(lp2157
S'global_settings'
p2158
asbag68
(g89
g70
NtRp2159
(dp2160
g73
(dp2161
g100
g101
ssg82
g2150
sg75
(lp2162
S':'
asbag68
(g89
g70
NtRp2163
(dp2164
g73
(dp2165
sg82
g2150
sg75
(lp2166
g68
(g69
g70
NtRp2167
(dp2168
g73
(dp2169
g81
I5
ssg82
g2163
sg75
(lp2170
g68
(g77
g70
NtRp2171
(dp2172
g73
(dp2173
g81
I4
ssg82
Nsg75
(lp2174
g68
(g84
g70
NtRp2175
(dp2176
g73
(dp2177
sg82
g2171
sg75
(lp2178
g68
(g89
g70
NtRp2179
(dp2180
g73
(dp2181
g93
g94
ssg82
g2175
sg75
(lp2182
g1056
asbag68
(g89
g70
NtRp2183
(dp2184
g73
(dp2185
g100
g101
ssg82
g2175
sg75
(lp2186
S':'
asbag68
(g89
g70
NtRp2187
(dp2188
g73
(dp2189
sg82
g2175
sg75
(lp2190
g68
(g69
g70
NtRp2191
(dp2192
g73
(dp2193
g81
I4
ssg82
g2187
sg75
(lp2194
S"set(['/var/www/web2py_curso/applications/welcome/', '/var/www/web2py_curso/applications/admin/', '/var/www/web2py_curso/applications/projeto/'])"
p2195
asbasbasbag68
(g84
g70
NtRp2196
(dp2197
g73
(dp2198
sg82
g2171
sg75
(lp2199
g68
(g89
g70
NtRp2200
(dp2201
g73
(dp2202
g93
g94
ssg82
g2196
sg75
(lp2203
g1078
asbag68
(g89
g70
NtRp2204
(dp2205
g73
(dp2206
g100
g101
ssg82
g2196
sg75
(lp2207
S':'
asbag68
(g89
g70
NtRp2208
(dp2209
g73
(dp2210
sg82
g2196
sg75
(lp2211
g68
(g69
g70
NtRp2212
(dp2213
g73
(dp2214
g81
I4
ssg82
g2208
sg75
(lp2215
g1091
asbasbasbag68
(g84
g70
NtRp2216
(dp2217
g73
(dp2218
sg82
g2171
sg75
(lp2219
g68
(g89
g70
NtRp2220
(dp2221
g73
(dp2222
g93
g94
ssg82
g2216
sg75
(lp2223
g1100
asbag68
(g89
g70
NtRp2224
(dp2225
g73
(dp2226
g100
g101
ssg82
g2216
sg75
(lp2227
S':'
asbag68
(g89
g70
NtRp2228
(dp2229
g73
(dp2230
sg82
g2216
sg75
(lp2231
g68
(g69
g70
NtRp2232
(dp2233
g73
(dp2234
g81
I4
ssg82
g2228
sg75
(lp2235
g68
(g77
g70
NtRp2236
(dp2237
g73
(dp2238
g81
I3
ssg82
Nsg75
(lp2239
sbasbasbasbag68
(g84
g70
NtRp2240
(dp2241
g73
(dp2242
sg82
g2171
sg75
(lp2243
g68
(g89
g70
NtRp2244
(dp2245
g73
(dp2246
g93
g94
ssg82
g2240
sg75
(lp2247
g1125
asbag68
(g89
g70
NtRp2248
(dp2249
g73
(dp2250
g100
g101
ssg82
g2240
sg75
(lp2251
S':'
asbag68
(g89
g70
NtRp2252
(dp2253
g73
(dp2254
sg82
g2240
sg75
(lp2255
g68
(g69
g70
NtRp2256
(dp2257
g73
(dp2258
g81
I4
ssg82
g2252
sg75
(lp2259
S"<Values at 0x20c31b8: {'verbose': False, 'ip': '127.0.0.1', 'with_scheduler': False, 'ips': [], 'shutdown_timeout': 5, 'taskbar': False, 'port': 8000, 'maxthreads': None, 'softcron': False, 'server_name': 'fernado-desktop', 'bpython': False, 'nogui': False, 'pid_filename': 'httpserver.pid', 'extcron': False, 'runcron': False, 'run_system_tests': False, 'test': None, 'folder': '/var/www/web2py_curso', 'config': '', 'minthreads': None, 'winservice': '', 'shell': None, 'run': '', 'log_filename': 'httpserver.log', 'debuglevel': 30, 'args': [''], 'socket_timeout': 5, 'ssl_ca_certificate': None, 'scheduler': None, 'profiler_filename': None, 'ssl_private_key': '', 'scheduler_groups': None, 'password': '123456', 'request_queue_size': 5, 'ssl_certificate': '', 'cronjob': False, 'numthreads': None, 'quiet': False, 'interfaces': None, 'import_models': False, 'timeout': 10, 'plain': False, 'nobanner': False}>"
p2260
asbasbasbag68
(g84
g70
NtRp2261
(dp2262
g73
(dp2263
sg82
g2171
sg75
(lp2264
g68
(g89
g70
NtRp2265
(dp2266
g73
(dp2267
g93
g94
ssg82
g2261
sg75
(lp2268
g1147
asbag68
(g89
g70
NtRp2269
(dp2270
g73
(dp2271
g100
g101
ssg82
g2261
sg75
(lp2272
S':'
asbag68
(g89
g70
NtRp2273
(dp2274
g73
(dp2275
sg82
g2261
sg75
(lp2276
g68
(g69
g70
NtRp2277
(dp2278
g73
(dp2279
g81
I4
ssg82
g2273
sg75
(lp2280
S'set([])'
p2281
asbasbasbag68
(g84
g70
NtRp2282
(dp2283
g73
(dp2284
sg82
g2171
sg75
(lp2285
g68
(g89
g70
NtRp2286
(dp2287
g73
(dp2288
g93
g94
ssg82
g2282
sg75
(lp2289
g1169
asbag68
(g89
g70
NtRp2290
(dp2291
g73
(dp2292
g100
g101
ssg82
g2282
sg75
(lp2293
S':'
asbag68
(g89
g70
NtRp2294
(dp2295
g73
(dp2296
sg82
g2282
sg75
(lp2297
g68
(g69
g70
NtRp2298
(dp2299
g73
(dp2300
g81
I4
ssg82
g2294
sg75
(lp2301
g111
asbasbasbag68
(g84
g70
NtRp2302
(dp2303
g73
(dp2304
sg82
g2171
sg75
(lp2305
g68
(g89
g70
NtRp2306
(dp2307
g73
(dp2308
g93
g94
ssg82
g2302
sg75
(lp2309
g1190
asbag68
(g89
g70
NtRp2310
(dp2311
g73
(dp2312
g100
g101
ssg82
g2302
sg75
(lp2313
S':'
asbag68
(g89
g70
NtRp2314
(dp2315
g73
(dp2316
sg82
g2302
sg75
(lp2317
g68
(g69
g70
NtRp2318
(dp2319
g73
(dp2320
g81
I4
ssg82
g2314
sg75
(lp2321
g1203
asbasbasbag68
(g84
g70
NtRp2322
(dp2323
g73
(dp2324
sg82
g2171
sg75
(lp2325
g68
(g89
g70
NtRp2326
(dp2327
g73
(dp2328
g93
g94
ssg82
g2322
sg75
(lp2329
g1388
asbag68
(g89
g70
NtRp2330
(dp2331
g73
(dp2332
g100
g101
ssg82
g2322
sg75
(lp2333
S':'
asbag68
(g89
g70
NtRp2334
(dp2335
g73
(dp2336
sg82
g2322
sg75
(lp2337
g68
(g69
g70
NtRp2338
(dp2339
g73
(dp2340
g81
I4
ssg82
g2334
sg75
(lp2341
g111
asbasbasbag68
(g84
g70
NtRp2342
(dp2343
g73
(dp2344
sg82
g2171
sg75
(lp2345
g68
(g89
g70
NtRp2346
(dp2347
g73
(dp2348
g93
g94
ssg82
g2342
sg75
(lp2349
g1409
asbag68
(g89
g70
NtRp2350
(dp2351
g73
(dp2352
g100
g101
ssg82
g2342
sg75
(lp2353
S':'
asbag68
(g89
g70
NtRp2354
(dp2355
g73
(dp2356
sg82
g2342
sg75
(lp2357
g68
(g69
g70
NtRp2358
(dp2359
g73
(dp2360
g81
I4
ssg82
g2354
sg75
(lp2361
g111
asbasbasbag68
(g84
g70
NtRp2362
(dp2363
g73
(dp2364
sg82
g2171
sg75
(lp2365
g68
(g89
g70
NtRp2366
(dp2367
g73
(dp2368
g93
g94
ssg82
g2362
sg75
(lp2369
g1430
asbag68
(g89
g70
NtRp2370
(dp2371
g73
(dp2372
g100
g101
ssg82
g2362
sg75
(lp2373
S':'
asbag68
(g89
g70
NtRp2374
(dp2375
g73
(dp2376
sg82
g2362
sg75
(lp2377
g68
(g69
g70
NtRp2378
(dp2379
g73
(dp2380
g81
I4
ssg82
g2374
sg75
(lp2381
g68
(g77
g70
NtRp2382
(dp2383
g73
(dp2384
g81
I3
ssg82
Nsg75
(lp2385
g68
(g84
g70
NtRp2386
(dp2387
g73
(dp2388
sg82
g2382
sg75
(lp2389
g68
(g89
g70
NtRp2390
(dp2391
g73
(dp2392
sg82
g2386
sg75
(lp2393
g68
(g69
g70
NtRp2394
(dp2395
g73
(dp2396
g81
I3
ssg82
g2390
sg75
(lp2397
g1459
asbasbasbag68
(g84
g70
NtRp2398
(dp2399
g73
(dp2400
sg82
g2382
sg75
(lp2401
g68
(g89
g70
NtRp2402
(dp2403
g73
(dp2404
sg82
g2398
sg75
(lp2405
g68
(g69
g70
NtRp2406
(dp2407
g73
(dp2408
g81
I3
ssg82
g2402
sg75
(lp2409
g1472
asbasbasbag68
(g84
g70
NtRp2410
(dp2411
g73
(dp2412
sg82
g2382
sg75
(lp2413
g68
(g89
g70
NtRp2414
(dp2415
g73
(dp2416
sg82
g2410
sg75
(lp2417
g68
(g69
g70
NtRp2418
(dp2419
g73
(dp2420
g81
I3
ssg82
g2414
sg75
(lp2421
g1485
asbasbasbag68
(g84
g70
NtRp2422
(dp2423
g73
(dp2424
sg82
g2382
sg75
(lp2425
g68
(g89
g70
NtRp2426
(dp2427
g73
(dp2428
sg82
g2422
sg75
(lp2429
g68
(g69
g70
NtRp2430
(dp2431
g73
(dp2432
g81
I3
ssg82
g2426
sg75
(lp2433
g1498
asbasbasbag68
(g84
g70
NtRp2434
(dp2435
g73
(dp2436
sg82
g2382
sg75
(lp2437
g68
(g89
g70
NtRp2438
(dp2439
g73
(dp2440
sg82
g2434
sg75
(lp2441
g68
(g69
g70
NtRp2442
(dp2443
g73
(dp2444
g81
I3
ssg82
g2438
sg75
(lp2445
g1511
asbasbasbasbasbasbasbag68
(g84
g70
NtRp2446
(dp2447
g73
(dp2448
sg82
g2171
sg75
(lp2449
g68
(g89
g70
NtRp2450
(dp2451
g73
(dp2452
g93
g94
ssg82
g2446
sg75
(lp2453
g1779
asbag68
(g89
g70
NtRp2454
(dp2455
g73
(dp2456
g100
g101
ssg82
g2446
sg75
(lp2457
S':'
asbag68
(g89
g70
NtRp2458
(dp2459
g73
(dp2460
sg82
g2446
sg75
(lp2461
g68
(g69
g70
NtRp2462
(dp2463
g73
(dp2464
g81
I4
ssg82
g2458
sg75
(lp2465
g68
(g77
g70
NtRp2466
(dp2467
g73
(dp2468
g81
I3
ssg82
Nsg75
(lp2469
g68
(g84
g70
NtRp2470
(dp2471
g73
(dp2472
sg82
g2466
sg75
(lp2473
g68
(g89
g70
NtRp2474
(dp2475
g73
(dp2476
sg82
g2470
sg75
(lp2477
g68
(g69
g70
NtRp2478
(dp2479
g73
(dp2480
g81
I3
ssg82
g2474
sg75
(lp2481
S'2'
asbasbasbag68
(g84
g70
NtRp2482
(dp2483
g73
(dp2484
sg82
g2466
sg75
(lp2485
g68
(g89
g70
NtRp2486
(dp2487
g73
(dp2488
sg82
g2482
sg75
(lp2489
g68
(g69
g70
NtRp2490
(dp2491
g73
(dp2492
g81
I3
ssg82
g2486
sg75
(lp2493
S'3'
asbasbasbag68
(g84
g70
NtRp2494
(dp2495
g73
(dp2496
sg82
g2466
sg75
(lp2497
g68
(g89
g70
NtRp2498
(dp2499
g73
(dp2500
sg82
g2494
sg75
(lp2501
g68
(g69
g70
NtRp2502
(dp2503
g73
(dp2504
g81
I3
ssg82
g2498
sg75
(lp2505
S'2'
asbasbasbag68
(g84
g70
NtRp2506
(dp2507
g73
(dp2508
sg82
g2466
sg75
(lp2509
g68
(g89
g70
NtRp2510
(dp2511
g73
(dp2512
sg82
g2506
sg75
(lp2513
g68
(g69
g70
NtRp2514
(dp2515
g73
(dp2516
g81
I3
ssg82
g2510
sg75
(lp2517
S'datetime.datetime(2012, 12, 17, 15, 3, 30)'
p2518
asbasbasbag68
(g84
g70
NtRp2519
(dp2520
g73
(dp2521
sg82
g2466
sg75
(lp2522
g68
(g89
g70
NtRp2523
(dp2524
g73
(dp2525
sg82
g2519
sg75
(lp2526
g68
(g69
g70
NtRp2527
(dp2528
g73
(dp2529
g81
I3
ssg82
g2523
sg75
(lp2530
g1857
asbasbasbasbasbasbasbasbasbasbasbag68
(g84
g70
NtRp2531
(dp2532
g73
(dp2533
sg82
g78
sg75
(lp2534
g68
(g89
g70
NtRp2535
(dp2536
g73
(dp2537
g93
g94
ssg82
g2531
sg75
(lp2538
S'is_https'
p2539
asbag68
(g89
g70
NtRp2540
(dp2541
g73
(dp2542
g100
g101
ssg82
g2531
sg75
(lp2543
S':'
asbag68
(g89
g70
NtRp2544
(dp2545
g73
(dp2546
sg82
g2531
sg75
(lp2547
g68
(g69
g70
NtRp2548
(dp2549
g73
(dp2550
g81
I5
ssg82
g2544
sg75
(lp2551
g111
asbasbasbag68
(g84
g70
NtRp2552
(dp2553
g73
(dp2554
sg82
g78
sg75
(lp2555
g68
(g89
g70
NtRp2556
(dp2557
g73
(dp2558
g93
g94
ssg82
g2552
sg75
(lp2559
S'is_local'
p2560
asbag68
(g89
g70
NtRp2561
(dp2562
g73
(dp2563
g100
g101
ssg82
g2552
sg75
(lp2564
S':'
asbag68
(g89
g70
NtRp2565
(dp2566
g73
(dp2567
sg82
g2552
sg75
(lp2568
g68
(g69
g70
NtRp2569
(dp2570
g73
(dp2571
g81
I5
ssg82
g2565
sg75
(lp2572
g1966
asbasbasbag68
(g84
g70
NtRp2573
(dp2574
g73
(dp2575
sg82
g78
sg75
(lp2576
g68
(g89
g70
NtRp2577
(dp2578
g73
(dp2579
g93
g94
ssg82
g2573
sg75
(lp2580
S'is_restful'
p2581
asbag68
(g89
g70
NtRp2582
(dp2583
g73
(dp2584
g100
g101
ssg82
g2573
sg75
(lp2585
S':'
asbag68
(g89
g70
NtRp2586
(dp2587
g73
(dp2588
sg82
g2573
sg75
(lp2589
g68
(g69
g70
NtRp2590
(dp2591
g73
(dp2592
g81
I5
ssg82
g2586
sg75
(lp2593
g111
asbasbasbag68
(g84
g70
NtRp2594
(dp2595
g73
(dp2596
sg82
g78
sg75
(lp2597
g68
(g89
g70
NtRp2598
(dp2599
g73
(dp2600
g93
g94
ssg82
g2594
sg75
(lp2601
S'now'
p2602
asbag68
(g89
g70
NtRp2603
(dp2604
g73
(dp2605
g100
g101
ssg82
g2594
sg75
(lp2606
S':'
asbag68
(g89
g70
NtRp2607
(dp2608
g73
(dp2609
sg82
g2594
sg75
(lp2610
g68
(g69
g70
NtRp2611
(dp2612
g73
(dp2613
g81
I5
ssg82
g2607
sg75
(lp2614
S'datetime.datetime(2013, 1, 23, 8, 56, 12, 582659)'
p2615
asbasbasbag68
(g84
g70
NtRp2616
(dp2617
g73
(dp2618
sg82
g78
sg75
(lp2619
g68
(g89
g70
NtRp2620
(dp2621
g73
(dp2622
g93
g94
ssg82
g2616
sg75
(lp2623
S'post_vars'
p2624
asbag68
(g89
g70
NtRp2625
(dp2626
g73
(dp2627
g100
g101
ssg82
g2616
sg75
(lp2628
S':'
asbag68
(g89
g70
NtRp2629
(dp2630
g73
(dp2631
sg82
g2616
sg75
(lp2632
g68
(g69
g70
NtRp2633
(dp2634
g73
(dp2635
g81
I5
ssg82
g2629
sg75
(lp2636
g68
(g77
g70
NtRp2637
(dp2638
g73
(dp2639
g81
I4
ssg82
Nsg75
(lp2640
sbasbasbasbag68
(g84
g70
NtRp2641
(dp2642
g73
(dp2643
sg82
g78
sg75
(lp2644
g68
(g89
g70
NtRp2645
(dp2646
g73
(dp2647
g93
g94
ssg82
g2641
sg75
(lp2648
S'raw_args'
p2649
asbag68
(g89
g70
NtRp2650
(dp2651
g73
(dp2652
g100
g101
ssg82
g2641
sg75
(lp2653
S':'
asbag68
(g89
g70
NtRp2654
(dp2655
g73
(dp2656
sg82
g2641
sg75
(lp2657
g68
(g69
g70
NtRp2658
(dp2659
g73
(dp2660
g81
I5
ssg82
g2654
sg75
(lp2661
S''
asbasbasbag68
(g84
g70
NtRp2662
(dp2663
g73
(dp2664
sg82
g78
sg75
(lp2665
g68
(g89
g70
NtRp2666
(dp2667
g73
(dp2668
g93
g94
ssg82
g2662
sg75
(lp2669
S'raw_extension'
p2670
asbag68
(g89
g70
NtRp2671
(dp2672
g73
(dp2673
g100
g101
ssg82
g2662
sg75
(lp2674
S':'
asbag68
(g89
g70
NtRp2675
(dp2676
g73
(dp2677
sg82
g2662
sg75
(lp2678
g68
(g69
g70
NtRp2679
(dp2680
g73
(dp2681
g81
I5
ssg82
g2675
sg75
(lp2682
S'None'
p2683
asbasbasbag68
(g84
g70
NtRp2684
(dp2685
g73
(dp2686
sg82
g78
sg75
(lp2687
g68
(g89
g70
NtRp2688
(dp2689
g73
(dp2690
g93
g94
ssg82
g2684
sg75
(lp2691
S'url'
p2692
asbag68
(g89
g70
NtRp2693
(dp2694
g73
(dp2695
g100
g101
ssg82
g2684
sg75
(lp2696
S':'
asbag68
(g89
g70
NtRp2697
(dp2698
g73
(dp2699
sg82
g2684
sg75
(lp2700
g68
(g69
g70
NtRp2701
(dp2702
g73
(dp2703
g81
I5
ssg82
g2697
sg75
(lp2704
g1533
asbasbasbag68
(g84
g70
NtRp2705
(dp2706
g73
(dp2707
sg82
g78
sg75
(lp2708
g68
(g89
g70
NtRp2709
(dp2710
g73
(dp2711
g93
g94
ssg82
g2705
sg75
(lp2712
S'utcnow'
p2713
asbag68
(g89
g70
NtRp2714
(dp2715
g73
(dp2716
g100
g101
ssg82
g2705
sg75
(lp2717
S':'
asbag68
(g89
g70
NtRp2718
(dp2719
g73
(dp2720
sg82
g2705
sg75
(lp2721
g68
(g69
g70
NtRp2722
(dp2723
g73
(dp2724
g81
I5
ssg82
g2718
sg75
(lp2725
S'datetime.datetime(2013, 1, 23, 10, 56, 12, 582711)'
p2726
asbasbasbag68
(g84
g70
NtRp2727
(dp2728
g73
(dp2729
sg82
g78
sg75
(lp2730
g68
(g89
g70
NtRp2731
(dp2732
g73
(dp2733
g93
g94
ssg82
g2727
sg75
(lp2734
S'uuid'
p2735
asbag68
(g89
g70
NtRp2736
(dp2737
g73
(dp2738
g100
g101
ssg82
g2727
sg75
(lp2739
S':'
asbag68
(g89
g70
NtRp2740
(dp2741
g73
(dp2742
sg82
g2727
sg75
(lp2743
g68
(g69
g70
NtRp2744
(dp2745
g73
(dp2746
g81
I5
ssg82
g2740
sg75
(lp2747
S'projeto/127.0.0.1.2013-01-23.08-56-12.e12514c5-a167-49b5-b4a5-715b77ce43dd'
p2748
asbasbasbag68
(g84
g70
NtRp2749
(dp2750
g73
(dp2751
sg82
g78
sg75
(lp2752
g68
(g89
g70
NtRp2753
(dp2754
g73
(dp2755
g93
g94
ssg82
g2749
sg75
(lp2756
S'vars'
p2757
asbag68
(g89
g70
NtRp2758
(dp2759
g73
(dp2760
g100
g101
ssg82
g2749
sg75
(lp2761
S':'
asbag68
(g89
g70
NtRp2762
(dp2763
g73
(dp2764
sg82
g2749
sg75
(lp2765
g68
(g69
g70
NtRp2766
(dp2767
g73
(dp2768
g81
I5
ssg82
g2762
sg75
(lp2769
g68
(g77
g70
NtRp2770
(dp2771
g73
(dp2772
g81
I4
ssg82
Nsg75
(lp2773
sbasbasbasbag68
(g84
g70
NtRp2774
(dp2775
g73
(dp2776
sg82
g78
sg75
(lp2777
g68
(g89
g70
NtRp2778
(dp2779
g73
(dp2780
g93
g94
ssg82
g2774
sg75
(lp2781
S'wsgi'
p2782
asbag68
(g89
g70
NtRp2783
(dp2784
g73
(dp2785
g100
g101
ssg82
g2774
sg75
(lp2786
S':'
asbag68
(g89
g70
NtRp2787
(dp2788
g73
(dp2789
sg82
g2774
sg75
(lp2790
g68
(g69
g70
NtRp2791
(dp2792
g73
(dp2793
g81
I5
ssg82
g2787
sg75
(lp2794
g68
(g77
g70
NtRp2795
(dp2796
g73
(dp2797
g81
I4
ssg82
Nsg75
(lp2798
g68
(g84
g70
NtRp2799
(dp2800
g73
(dp2801
sg82
g2795
sg75
(lp2802
g68
(g89
g70
NtRp2803
(dp2804
g73
(dp2805
g93
g94
ssg82
g2799
sg75
(lp2806
S'environ'
p2807
asbag68
(g89
g70
NtRp2808
(dp2809
g73
(dp2810
g100
g101
ssg82
g2799
sg75
(lp2811
S':'
asbag68
(g89
g70
NtRp2812
(dp2813
g73
(dp2814
sg82
g2799
sg75
(lp2815
g68
(g69
g70
NtRp2816
(dp2817
g73
(dp2818
g81
I4
ssg82
g2812
sg75
(lp2819
g68
(g77
g70
NtRp2820
(dp2821
g73
(dp2822
g81
I3
ssg82
Nsg75
(lp2823
g68
(g84
g70
NtRp2824
(dp2825
g73
(dp2826
sg82
g2820
sg75
(lp2827
g68
(g89
g70
NtRp2828
(dp2829
g73
(dp2830
g93
g94
ssg82
g2824
sg75
(lp2831
S'HTTP_ACCEPT'
p2832
asbag68
(g89
g70
NtRp2833
(dp2834
g73
(dp2835
g100
g101
ssg82
g2824
sg75
(lp2836
S':'
asbag68
(g89
g70
NtRp2837
(dp2838
g73
(dp2839
sg82
g2824
sg75
(lp2840
g68
(g69
g70
NtRp2841
(dp2842
g73
(dp2843
g81
I3
ssg82
g2837
sg75
(lp2844
g1225
asbasbasbag68
(g84
g70
NtRp2845
(dp2846
g73
(dp2847
sg82
g2820
sg75
(lp2848
g68
(g89
g70
NtRp2849
(dp2850
g73
(dp2851
g93
g94
ssg82
g2845
sg75
(lp2852
S'HTTP_ACCEPT_CHARSET'
p2853
asbag68
(g89
g70
NtRp2854
(dp2855
g73
(dp2856
g100
g101
ssg82
g2845
sg75
(lp2857
S':'
asbag68
(g89
g70
NtRp2858
(dp2859
g73
(dp2860
sg82
g2845
sg75
(lp2861
g68
(g69
g70
NtRp2862
(dp2863
g73
(dp2864
g81
I3
ssg82
g2858
sg75
(lp2865
g1247
asbasbasbag68
(g84
g70
NtRp2866
(dp2867
g73
(dp2868
sg82
g2820
sg75
(lp2869
g68
(g89
g70
NtRp2870
(dp2871
g73
(dp2872
g93
g94
ssg82
g2866
sg75
(lp2873
S'HTTP_ACCEPT_ENCODING'
p2874
asbag68
(g89
g70
NtRp2875
(dp2876
g73
(dp2877
g100
g101
ssg82
g2866
sg75
(lp2878
S':'
asbag68
(g89
g70
NtRp2879
(dp2880
g73
(dp2881
sg82
g2866
sg75
(lp2882
g68
(g69
g70
NtRp2883
(dp2884
g73
(dp2885
g81
I3
ssg82
g2879
sg75
(lp2886
g1269
asbasbasbag68
(g84
g70
NtRp2887
(dp2888
g73
(dp2889
sg82
g2820
sg75
(lp2890
g68
(g89
g70
NtRp2891
(dp2892
g73
(dp2893
g93
g94
ssg82
g2887
sg75
(lp2894
S'HTTP_ACCEPT_LANGUAGE'
p2895
asbag68
(g89
g70
NtRp2896
(dp2897
g73
(dp2898
g100
g101
ssg82
g2887
sg75
(lp2899
S':'
asbag68
(g89
g70
NtRp2900
(dp2901
g73
(dp2902
sg82
g2887
sg75
(lp2903
g68
(g69
g70
NtRp2904
(dp2905
g73
(dp2906
g81
I3
ssg82
g2900
sg75
(lp2907
g1291
asbasbasbag68
(g84
g70
NtRp2908
(dp2909
g73
(dp2910
sg82
g2820
sg75
(lp2911
g68
(g89
g70
NtRp2912
(dp2913
g73
(dp2914
g93
g94
ssg82
g2908
sg75
(lp2915
S'HTTP_CONNECTION'
p2916
asbag68
(g89
g70
NtRp2917
(dp2918
g73
(dp2919
g100
g101
ssg82
g2908
sg75
(lp2920
S':'
asbag68
(g89
g70
NtRp2921
(dp2922
g73
(dp2923
sg82
g2908
sg75
(lp2924
g68
(g69
g70
NtRp2925
(dp2926
g73
(dp2927
g81
I3
ssg82
g2921
sg75
(lp2928
g1313
asbasbasbag68
(g84
g70
NtRp2929
(dp2930
g73
(dp2931
sg82
g2820
sg75
(lp2932
g68
(g89
g70
NtRp2933
(dp2934
g73
(dp2935
g93
g94
ssg82
g2929
sg75
(lp2936
S'HTTP_COOKIE'
p2937
asbag68
(g89
g70
NtRp2938
(dp2939
g73
(dp2940
g100
g101
ssg82
g2929
sg75
(lp2941
S':'
asbag68
(g89
g70
NtRp2942
(dp2943
g73
(dp2944
sg82
g2929
sg75
(lp2945
g68
(g69
g70
NtRp2946
(dp2947
g73
(dp2948
g81
I3
ssg82
g2942
sg75
(lp2949
g1335
asbasbasbag68
(g84
g70
NtRp2950
(dp2951
g73
(dp2952
sg82
g2820
sg75
(lp2953
g68
(g89
g70
NtRp2954
(dp2955
g73
(dp2956
g93
g94
ssg82
g2950
sg75
(lp2957
S'HTTP_HOST'
p2958
asbag68
(g89
g70
NtRp2959
(dp2960
g73
(dp2961
g100
g101
ssg82
g2950
sg75
(lp2962
S':'
asbag68
(g89
g70
NtRp2963
(dp2964
g73
(dp2965
sg82
g2950
sg75
(lp2966
g68
(g69
g70
NtRp2967
(dp2968
g73
(dp2969
g81
I3
ssg82
g2963
sg75
(lp2970
g1357
asbasbasbag68
(g84
g70
NtRp2971
(dp2972
g73
(dp2973
sg82
g2820
sg75
(lp2974
g68
(g89
g70
NtRp2975
(dp2976
g73
(dp2977
g93
g94
ssg82
g2971
sg75
(lp2978
S'HTTP_USER_AGENT'
p2979
asbag68
(g89
g70
NtRp2980
(dp2981
g73
(dp2982
g100
g101
ssg82
g2971
sg75
(lp2983
S':'
asbag68
(g89
g70
NtRp2984
(dp2985
g73
(dp2986
sg82
g2971
sg75
(lp2987
g68
(g69
g70
NtRp2988
(dp2989
g73
(dp2990
g81
I3
ssg82
g2984
sg75
(lp2991
g1379
asbasbasbag68
(g84
g70
NtRp2992
(dp2993
g73
(dp2994
sg82
g2820
sg75
(lp2995
g68
(g89
g70
NtRp2996
(dp2997
g73
(dp2998
g93
g94
ssg82
g2992
sg75
(lp2999
S'PATH_INFO'
p3000
asbag68
(g89
g70
NtRp3001
(dp3002
g73
(dp3003
g100
g101
ssg82
g2992
sg75
(lp3004
S':'
asbag68
(g89
g70
NtRp3005
(dp3006
g73
(dp3007
sg82
g2992
sg75
(lp3008
g68
(g69
g70
NtRp3009
(dp3010
g73
(dp3011
g81
I3
ssg82
g3005
sg75
(lp3012
g1533
asbasbasbag68
(g84
g70
NtRp3013
(dp3014
g73
(dp3015
sg82
g2820
sg75
(lp3016
g68
(g89
g70
NtRp3017
(dp3018
g73
(dp3019
g93
g94
ssg82
g3013
sg75
(lp3020
S'QUERY_STRING'
p3021
asbag68
(g89
g70
NtRp3022
(dp3023
g73
(dp3024
g100
g101
ssg82
g3013
sg75
(lp3025
S':'
asbag68
(g89
g70
NtRp3026
(dp3027
g73
(dp3028
sg82
g3013
sg75
(lp3029
g68
(g69
g70
NtRp3030
(dp3031
g73
(dp3032
g81
I3
ssg82
g3026
sg75
(lp3033
S''
asbasbasbag68
(g84
g70
NtRp3034
(dp3035
g73
(dp3036
sg82
g2820
sg75
(lp3037
g68
(g89
g70
NtRp3038
(dp3039
g73
(dp3040
g93
g94
ssg82
g3034
sg75
(lp3041
S'REMOTE_ADDR'
p3042
asbag68
(g89
g70
NtRp3043
(dp3044
g73
(dp3045
g100
g101
ssg82
g3034
sg75
(lp3046
S':'
asbag68
(g89
g70
NtRp3047
(dp3048
g73
(dp3049
sg82
g3034
sg75
(lp3050
g68
(g69
g70
NtRp3051
(dp3052
g73
(dp3053
g81
I3
ssg82
g3047
sg75
(lp3054
g223
asbasbasbag68
(g84
g70
NtRp3055
(dp3056
g73
(dp3057
sg82
g2820
sg75
(lp3058
g68
(g89
g70
NtRp3059
(dp3060
g73
(dp3061
g93
g94
ssg82
g3055
sg75
(lp3062
S'REMOTE_PORT'
p3063
asbag68
(g89
g70
NtRp3064
(dp3065
g73
(dp3066
g100
g101
ssg82
g3055
sg75
(lp3067
S':'
asbag68
(g89
g70
NtRp3068
(dp3069
g73
(dp3070
sg82
g3055
sg75
(lp3071
g68
(g69
g70
NtRp3072
(dp3073
g73
(dp3074
g81
I3
ssg82
g3068
sg75
(lp3075
g1597
asbasbasbag68
(g84
g70
NtRp3076
(dp3077
g73
(dp3078
sg82
g2820
sg75
(lp3079
g68
(g89
g70
NtRp3080
(dp3081
g73
(dp3082
g93
g94
ssg82
g3076
sg75
(lp3083
S'REQUEST_METHOD'
p3084
asbag68
(g89
g70
NtRp3085
(dp3086
g73
(dp3087
g100
g101
ssg82
g3076
sg75
(lp3088
S':'
asbag68
(g89
g70
NtRp3089
(dp3090
g73
(dp3091
sg82
g3076
sg75
(lp3092
g68
(g69
g70
NtRp3093
(dp3094
g73
(dp3095
g81
I3
ssg82
g3089
sg75
(lp3096
g1619
asbasbasbag68
(g84
g70
NtRp3097
(dp3098
g73
(dp3099
sg82
g2820
sg75
(lp3100
g68
(g89
g70
NtRp3101
(dp3102
g73
(dp3103
g93
g94
ssg82
g3097
sg75
(lp3104
S'REQUEST_URI'
p3105
asbag68
(g89
g70
NtRp3106
(dp3107
g73
(dp3108
g100
g101
ssg82
g3097
sg75
(lp3109
S':'
asbag68
(g89
g70
NtRp3110
(dp3111
g73
(dp3112
sg82
g3097
sg75
(lp3113
g68
(g69
g70
NtRp3114
(dp3115
g73
(dp3116
g81
I3
ssg82
g3110
sg75
(lp3117
g1533
asbasbasbag68
(g84
g70
NtRp3118
(dp3119
g73
(dp3120
sg82
g2820
sg75
(lp3121
g68
(g89
g70
NtRp3122
(dp3123
g73
(dp3124
g93
g94
ssg82
g3118
sg75
(lp3125
S'SCRIPT_NAME'
p3126
asbag68
(g89
g70
NtRp3127
(dp3128
g73
(dp3129
g100
g101
ssg82
g3118
sg75
(lp3130
S':'
asbag68
(g89
g70
NtRp3131
(dp3132
g73
(dp3133
sg82
g3118
sg75
(lp3134
g68
(g69
g70
NtRp3135
(dp3136
g73
(dp3137
g81
I3
ssg82
g3131
sg75
(lp3138
S''
asbasbasbag68
(g84
g70
NtRp3139
(dp3140
g73
(dp3141
sg82
g2820
sg75
(lp3142
g68
(g89
g70
NtRp3143
(dp3144
g73
(dp3145
g93
g94
ssg82
g3139
sg75
(lp3146
S'SERVER_NAME'
p3147
asbag68
(g89
g70
NtRp3148
(dp3149
g73
(dp3150
g100
g101
ssg82
g3139
sg75
(lp3151
S':'
asbag68
(g89
g70
NtRp3152
(dp3153
g73
(dp3154
sg82
g3139
sg75
(lp3155
g68
(g69
g70
NtRp3156
(dp3157
g73
(dp3158
g81
I3
ssg82
g3152
sg75
(lp3159
g1683
asbasbasbag68
(g84
g70
NtRp3160
(dp3161
g73
(dp3162
sg82
g2820
sg75
(lp3163
g68
(g89
g70
NtRp3164
(dp3165
g73
(dp3166
g93
g94
ssg82
g3160
sg75
(lp3167
S'SERVER_PORT'
p3168
asbag68
(g89
g70
NtRp3169
(dp3170
g73
(dp3171
g100
g101
ssg82
g3160
sg75
(lp3172
S':'
asbag68
(g89
g70
NtRp3173
(dp3174
g73
(dp3175
sg82
g3160
sg75
(lp3176
g68
(g69
g70
NtRp3177
(dp3178
g73
(dp3179
g81
I3
ssg82
g3173
sg75
(lp3180
g1705
asbasbasbag68
(g84
g70
NtRp3181
(dp3182
g73
(dp3183
sg82
g2820
sg75
(lp3184
g68
(g89
g70
NtRp3185
(dp3186
g73
(dp3187
g93
g94
ssg82
g3181
sg75
(lp3188
S'SERVER_PROTOCOL'
p3189
asbag68
(g89
g70
NtRp3190
(dp3191
g73
(dp3192
g100
g101
ssg82
g3181
sg75
(lp3193
S':'
asbag68
(g89
g70
NtRp3194
(dp3195
g73
(dp3196
sg82
g3181
sg75
(lp3197
g68
(g69
g70
NtRp3198
(dp3199
g73
(dp3200
g81
I3
ssg82
g3194
sg75
(lp3201
g1727
asbasbasbag68
(g84
g70
NtRp3202
(dp3203
g73
(dp3204
sg82
g2820
sg75
(lp3205
g68
(g89
g70
NtRp3206
(dp3207
g73
(dp3208
g93
g94
ssg82
g3202
sg75
(lp3209
S'SERVER_SOFTWARE'
p3210
asbag68
(g89
g70
NtRp3211
(dp3212
g73
(dp3213
g100
g101
ssg82
g3202
sg75
(lp3214
S':'
asbag68
(g89
g70
NtRp3215
(dp3216
g73
(dp3217
sg82
g3202
sg75
(lp3218
g68
(g69
g70
NtRp3219
(dp3220
g73
(dp3221
g81
I3
ssg82
g3215
sg75
(lp3222
g1749
asbasbasbag68
(g84
g70
NtRp3223
(dp3224
g73
(dp3225
sg82
g2820
sg75
(lp3226
g68
(g89
g70
NtRp3227
(dp3228
g73
(dp3229
g93
g94
ssg82
g3223
sg75
(lp3230
S'wsgi.errors'
p3231
asbag68
(g89
g70
NtRp3232
(dp3233
g73
(dp3234
g100
g101
ssg82
g3223
sg75
(lp3235
S':'
asbag68
(g89
g70
NtRp3236
(dp3237
g73
(dp3238
sg82
g3223
sg75
(lp3239
g68
(g69
g70
NtRp3240
(dp3241
g73
(dp3242
g81
I3
ssg82
g3236
sg75
(lp3243
S"<open file '<stderr>', mode 'w' at 0x7fde3c532270>"
p3244
asbasbasbag68
(g84
g70
NtRp3245
(dp3246
g73
(dp3247
sg82
g2820
sg75
(lp3248
g68
(g89
g70
NtRp3249
(dp3250
g73
(dp3251
g93
g94
ssg82
g3245
sg75
(lp3252
S'wsgi.file_wrapper'
p3253
asbag68
(g89
g70
NtRp3254
(dp3255
g73
(dp3256
g100
g101
ssg82
g3245
sg75
(lp3257
S':'
asbag68
(g89
g70
NtRp3258
(dp3259
g73
(dp3260
sg82
g3245
sg75
(lp3261
g68
(g69
g70
NtRp3262
(dp3263
g73
(dp3264
g81
I3
ssg82
g3258
sg75
(lp3265
S'<class wsgiref.util.FileWrapper at 0x2cd6c18>'
p3266
asbasbasbag68
(g84
g70
NtRp3267
(dp3268
g73
(dp3269
sg82
g2820
sg75
(lp3270
g68
(g89
g70
NtRp3271
(dp3272
g73
(dp3273
g93
g94
ssg82
g3267
sg75
(lp3274
S'wsgi.input'
p3275
asbag68
(g89
g70
NtRp3276
(dp3277
g73
(dp3278
g100
g101
ssg82
g3267
sg75
(lp3279
S':'
asbag68
(g89
g70
NtRp3280
(dp3281
g73
(dp3282
sg82
g3267
sg75
(lp3283
g68
(g69
g70
NtRp3284
(dp3285
g73
(dp3286
g81
I3
ssg82
g3280
sg75
(lp3287
S'<cStringIO.StringO object at 0x7fde30199c00>'
p3288
asbasbasbag68
(g84
g70
NtRp3289
(dp3290
g73
(dp3291
sg82
g2820
sg75
(lp3292
g68
(g89
g70
NtRp3293
(dp3294
g73
(dp3295
g93
g94
ssg82
g3289
sg75
(lp3296
S'wsgi.multiprocess'
p3297
asbag68
(g89
g70
NtRp3298
(dp3299
g73
(dp3300
g100
g101
ssg82
g3289
sg75
(lp3301
S':'
asbag68
(g89
g70
NtRp3302
(dp3303
g73
(dp3304
sg82
g3289
sg75
(lp3305
g68
(g69
g70
NtRp3306
(dp3307
g73
(dp3308
g81
I3
ssg82
g3302
sg75
(lp3309
g111
asbasbasbag68
(g84
g70
NtRp3310
(dp3311
g73
(dp3312
sg82
g2820
sg75
(lp3313
g68
(g89
g70
NtRp3314
(dp3315
g73
(dp3316
g93
g94
ssg82
g3310
sg75
(lp3317
S'wsgi.multithread'
p3318
asbag68
(g89
g70
NtRp3319
(dp3320
g73
(dp3321
g100
g101
ssg82
g3310
sg75
(lp3322
S':'
asbag68
(g89
g70
NtRp3323
(dp3324
g73
(dp3325
sg82
g3310
sg75
(lp3326
g68
(g69
g70
NtRp3327
(dp3328
g73
(dp3329
g81
I3
ssg82
g3323
sg75
(lp3330
g1966
asbasbasbag68
(g84
g70
NtRp3331
(dp3332
g73
(dp3333
sg82
g2820
sg75
(lp3334
g68
(g89
g70
NtRp3335
(dp3336
g73
(dp3337
g93
g94
ssg82
g3331
sg75
(lp3338
S'wsgi.run_once'
p3339
asbag68
(g89
g70
NtRp3340
(dp3341
g73
(dp3342
g100
g101
ssg82
g3331
sg75
(lp3343
S':'
asbag68
(g89
g70
NtRp3344
(dp3345
g73
(dp3346
sg82
g3331
sg75
(lp3347
g68
(g69
g70
NtRp3348
(dp3349
g73
(dp3350
g81
I3
ssg82
g3344
sg75
(lp3351
g111
asbasbasbag68
(g84
g70
NtRp3352
(dp3353
g73
(dp3354
sg82
g2820
sg75
(lp3355
g68
(g89
g70
NtRp3356
(dp3357
g73
(dp3358
g93
g94
ssg82
g3352
sg75
(lp3359
S'wsgi.url_scheme'
p3360
asbag68
(g89
g70
NtRp3361
(dp3362
g73
(dp3363
g100
g101
ssg82
g3352
sg75
(lp3364
S':'
asbag68
(g89
g70
NtRp3365
(dp3366
g73
(dp3367
sg82
g3352
sg75
(lp3368
g68
(g69
g70
NtRp3369
(dp3370
g73
(dp3371
g81
I3
ssg82
g3365
sg75
(lp3372
g2009
asbasbasbag68
(g84
g70
NtRp3373
(dp3374
g73
(dp3375
sg82
g2820
sg75
(lp3376
g68
(g89
g70
NtRp3377
(dp3378
g73
(dp3379
g93
g94
ssg82
g3373
sg75
(lp3380
S'wsgi.version'
p3381
asbag68
(g89
g70
NtRp3382
(dp3383
g73
(dp3384
g100
g101
ssg82
g3373
sg75
(lp3385
S':'
asbag68
(g89
g70
NtRp3386
(dp3387
g73
(dp3388
sg82
g3373
sg75
(lp3389
g68
(g69
g70
NtRp3390
(dp3391
g73
(dp3392
g81
I3
ssg82
g3386
sg75
(lp3393
S'1'
asbasbasbasbasbasbasbasbasbasbasbasbasbsS'frames'
p3394
(lp3395
(dp3396
S'file'
p3397
S'/var/www/web2py_curso/gluon/restricted.py'
p3398
sS'dump'
p3399
(dp3400
S'code'
p3401
S'\'# coding: utf-8\\n\\ndef index():\\n\\tprint "Action ind...x + y\\n\\n \\n\\nresponse._vars=response._caller(index)\\n\''
p3402
sS'layer'
p3403
S"'/var/www/web2py_curso/applications/projeto/controllers/default.py'"
p3404
sS'global compile2'
p3405
S'<function compile2>'
p3406
sS'ccode'
p3407
S'undefined'
p3408
ssS'lnum'
p3409
I211
sS'lines'
p3410
(dp3411
I206
S"    environment['__name__'] = '__restricted__'"
p3412
sI207
S'    try:'
p3413
sI208
S'        if isinstance(code, types.CodeType):'
p3414
sI209
S'            ccode = code'
p3415
sI210
S'        else:'
p3416
sI211
S'            ccode = compile2(code, layer)'
p3417
sI212
S'        exec ccode in environment'
p3418
sI213
S'    except HTTP:'
p3419
sI214
S'        raise'
p3420
sI215
S'    except RestrictedError:'
p3421
ssS'call'
p3422
S'(code=\'# coding: utf-8\\n\\ndef index():\\n\\tprint "Action ind...x + y\\n\\n \\n\\nresponse._vars=response._caller(index)\\n\', environment={\'A\': <class \'gluon.html.A\'>, \'B\': <class \'gluon.html.B\'>, \'BEAUTIFY\': <class \'gluon.html.BEAUTIFY\'>, \'BODY\': <class \'gluon.html.BODY\'>, \'BR\': <class \'gluon.html.BR\'>, \'BUTTON\': <class \'gluon.html.BUTTON\'>, \'CAT\': <class \'gluon.html.CAT\'>, \'CENTER\': <class \'gluon.html.CENTER\'>, \'CLEANUP\': <class \'gluon.validators.CLEANUP\'>, \'CODE\': <class \'gluon.html.CODE\'>, ...}, layer=\'/var/www/web2py_curso/applications/projeto/controllers/default.py\')'
p3423
sS'func'
p3424
S'restricted'
p3425
sa(dp3426
g3397
S'/var/www/web2py_curso/gluon/restricted.py'
p3427
sg3399
(dp3428
S'builtincompile'
p3429
S'<built-in function compile>'
p3430
sS'code'
p3431
S'\'# coding: utf-8\\n\\ndef index():\\n\\tprint "Action ind...x + y\\n\\n \\n\\nresponse._vars=response._caller(index)\\n\''
p3432
sS'code.rstrip'
p3433
S'<built-in method rstrip of str object>'
p3434
sS').replace'
p3435
g3408
sS'layer'
p3436
S"'/var/www/web2py_curso/applications/projeto/controllers/default.py'"
p3437
ssg3409
I194
sg3410
(dp3438
I192
S"    The +'\\n' is necessary else compile fails when code ends in a comment."
p3439
sI193
S'    """'
p3440
sI194
S"    return compile(code.rstrip().replace('\\r\\n', '\\n') + '\\n', layer, 'exec')"
p3441
sI195
S''
sI196
S''
sI197
S"def restricted(code, environment=None, layer='Unknown'):"
p3442
sI198
S'    """'
p3443
sI189
S''
sI190
S'def compile2(code, layer):'
p3444
sI191
S'    """'
p3445
ssg3422
S'(code=\'# coding: utf-8\\n\\ndef index():\\n\\tprint "Action ind...x + y\\n\\n \\n\\nresponse._vars=response._caller(index)\\n\', layer=\'/var/www/web2py_curso/applications/projeto/controllers/default.py\')'
p3446
sg3424
S'compile2'
p3447
sasS'pyver'
p3448
S'Python 2.7.3: /usr/bin/python'
p3449
sS'session'
p3450
g68
(g69
g70
NtRp3451
(dp3452
g73
(dp3453
sg75
(lp3454
g68
(g77
g70
NtRp3455
(dp3456
g73
(dp3457
g81
I5
ssg82
Nsg75
(lp3458
sbasbsS'etype'
p3459
S"<type 'exceptions.SyntaxError'>"
p3460
sS'date'
p3461
S'Wed Jan 23 08:56:12 2013'
p3462
sS'response'
p3463
g68
(g69
g70
NtRp3464
(dp3465
g73
(dp3466
sg75
(lp3467
g68
(g77
g70
NtRp3468
(dp3469
g73
(dp3470
g81
I5
ssg82
Nsg75
(lp3471
g68
(g84
g70
NtRp3472
(dp3473
g73
(dp3474
sg82
g3468
sg75
(lp3475
g68
(g89
g70
NtRp3476
(dp3477
g73
(dp3478
g93
g94
ssg82
g3472
sg75
(lp3479
g166
asbag68
(g89
g70
NtRp3480
(dp3481
g73
(dp3482
g100
g101
ssg82
g3472
sg75
(lp3483
S':'
asbag68
(g89
g70
NtRp3484
(dp3485
g73
(dp3486
sg82
g3472
sg75
(lp3487
g68
(g69
g70
NtRp3488
(dp3489
g73
(dp3490
g81
I5
ssg82
g3484
sg75
(lp3491
S'<cStringIO.StringO object at 0x7fde102e1308>'
p3492
asbasbasbag68
(g84
g70
NtRp3493
(dp3494
g73
(dp3495
sg82
g3468
sg75
(lp3496
g68
(g89
g70
NtRp3497
(dp3498
g73
(dp3499
g93
g94
ssg82
g3493
sg75
(lp3500
g254
asbag68
(g89
g70
NtRp3501
(dp3502
g73
(dp3503
g100
g101
ssg82
g3493
sg75
(lp3504
S':'
asbag68
(g89
g70
NtRp3505
(dp3506
g73
(dp3507
sg82
g3493
sg75
(lp3508
g68
(g69
g70
NtRp3509
(dp3510
g73
(dp3511
g81
I5
ssg82
g3505
sg75
(lp3512
g68
(g77
g70
NtRp3513
(dp3514
g73
(dp3515
g81
I4
ssg82
Nsg75
(lp3516
g68
(g84
g70
NtRp3517
(dp3518
g73
(dp3519
sg82
g3513
sg75
(lp3520
g68
(g89
g70
NtRp3521
(dp3522
g73
(dp3523
g93
g94
ssg82
g3517
sg75
(lp3524
S'session_id_projeto'
p3525
asbag68
(g89
g70
NtRp3526
(dp3527
g73
(dp3528
g100
g101
ssg82
g3517
sg75
(lp3529
S':'
asbag68
(g89
g70
NtRp3530
(dp3531
g73
(dp3532
sg82
g3517
sg75
(lp3533
g68
(g69
g70
NtRp3534
(dp3535
g73
(dp3536
g81
I4
ssg82
g3530
sg75
(lp3537
g672
ag68
(g77
g70
NtRp3538
(dp3539
g73
(dp3540
g81
I3
ssg82
Nsg75
(lp3541
g68
(g84
g70
NtRp3542
(dp3543
g73
(dp3544
sg82
g3538
sg75
(lp3545
g68
(g89
g70
NtRp3546
(dp3547
g73
(dp3548
g93
g94
ssg82
g3542
sg75
(lp3549
g305
asbag68
(g89
g70
NtRp3550
(dp3551
g73
(dp3552
g100
g101
ssg82
g3542
sg75
(lp3553
S':'
asbag68
(g89
g70
NtRp3554
(dp3555
g73
(dp3556
sg82
g3542
sg75
(lp3557
g68
(g69
g70
NtRp3558
(dp3559
g73
(dp3560
g81
I3
ssg82
g3554
sg75
(lp3561
S''
asbasbasbag68
(g84
g70
NtRp3562
(dp3563
g73
(dp3564
sg82
g3538
sg75
(lp3565
g68
(g89
g70
NtRp3566
(dp3567
g73
(dp3568
g93
g94
ssg82
g3562
sg75
(lp3569
g326
asbag68
(g89
g70
NtRp3570
(dp3571
g73
(dp3572
g100
g101
ssg82
g3562
sg75
(lp3573
S':'
asbag68
(g89
g70
NtRp3574
(dp3575
g73
(dp3576
sg82
g3562
sg75
(lp3577
g68
(g69
g70
NtRp3578
(dp3579
g73
(dp3580
g81
I3
ssg82
g3574
sg75
(lp3581
S''
asbasbasbag68
(g84
g70
NtRp3582
(dp3583
g73
(dp3584
sg82
g3538
sg75
(lp3585
g68
(g89
g70
NtRp3586
(dp3587
g73
(dp3588
g93
g94
ssg82
g3582
sg75
(lp3589
g347
asbag68
(g89
g70
NtRp3590
(dp3591
g73
(dp3592
g100
g101
ssg82
g3582
sg75
(lp3593
S':'
asbag68
(g89
g70
NtRp3594
(dp3595
g73
(dp3596
sg82
g3582
sg75
(lp3597
g68
(g69
g70
NtRp3598
(dp3599
g73
(dp3600
g81
I3
ssg82
g3594
sg75
(lp3601
S''
asbasbasbag68
(g84
g70
NtRp3602
(dp3603
g73
(dp3604
sg82
g3538
sg75
(lp3605
g68
(g89
g70
NtRp3606
(dp3607
g73
(dp3608
g93
g94
ssg82
g3602
sg75
(lp3609
g368
asbag68
(g89
g70
NtRp3610
(dp3611
g73
(dp3612
g100
g101
ssg82
g3602
sg75
(lp3613
S':'
asbag68
(g89
g70
NtRp3614
(dp3615
g73
(dp3616
sg82
g3602
sg75
(lp3617
g68
(g69
g70
NtRp3618
(dp3619
g73
(dp3620
g81
I3
ssg82
g3614
sg75
(lp3621
S''
asbasbasbag68
(g84
g70
NtRp3622
(dp3623
g73
(dp3624
sg82
g3538
sg75
(lp3625
g68
(g89
g70
NtRp3626
(dp3627
g73
(dp3628
g93
g94
ssg82
g3622
sg75
(lp3629
g389
asbag68
(g89
g70
NtRp3630
(dp3631
g73
(dp3632
g100
g101
ssg82
g3622
sg75
(lp3633
S':'
asbag68
(g89
g70
NtRp3634
(dp3635
g73
(dp3636
sg82
g3622
sg75
(lp3637
g68
(g69
g70
NtRp3638
(dp3639
g73
(dp3640
g81
I3
ssg82
g3634
sg75
(lp3641
S''
asbasbasbag68
(g84
g70
NtRp3642
(dp3643
g73
(dp3644
sg82
g3538
sg75
(lp3645
g68
(g89
g70
NtRp3646
(dp3647
g73
(dp3648
g93
g94
ssg82
g3642
sg75
(lp3649
g410
asbag68
(g89
g70
NtRp3650
(dp3651
g73
(dp3652
g100
g101
ssg82
g3642
sg75
(lp3653
S':'
asbag68
(g89
g70
NtRp3654
(dp3655
g73
(dp3656
sg82
g3642
sg75
(lp3657
g68
(g69
g70
NtRp3658
(dp3659
g73
(dp3660
g81
I3
ssg82
g3654
sg75
(lp3661
S'/'
asbasbasbag68
(g84
g70
NtRp3662
(dp3663
g73
(dp3664
sg82
g3538
sg75
(lp3665
g68
(g89
g70
NtRp3666
(dp3667
g73
(dp3668
g93
g94
ssg82
g3662
sg75
(lp3669
g431
asbag68
(g89
g70
NtRp3670
(dp3671
g73
(dp3672
g100
g101
ssg82
g3662
sg75
(lp3673
S':'
asbag68
(g89
g70
NtRp3674
(dp3675
g73
(dp3676
sg82
g3662
sg75
(lp3677
g68
(g69
g70
NtRp3678
(dp3679
g73
(dp3680
g81
I3
ssg82
g3674
sg75
(lp3681
S''
asbasbasbag68
(g84
g70
NtRp3682
(dp3683
g73
(dp3684
sg82
g3538
sg75
(lp3685
g68
(g89
g70
NtRp3686
(dp3687
g73
(dp3688
g93
g94
ssg82
g3682
sg75
(lp3689
g452
asbag68
(g89
g70
NtRp3690
(dp3691
g73
(dp3692
g100
g101
ssg82
g3682
sg75
(lp3693
S':'
asbag68
(g89
g70
NtRp3694
(dp3695
g73
(dp3696
sg82
g3682
sg75
(lp3697
g68
(g69
g70
NtRp3698
(dp3699
g73
(dp3700
g81
I3
ssg82
g3694
sg75
(lp3701
S''
asbasbasbasbasbasbasbasbasbasbasbag68
(g84
g70
NtRp3702
(dp3703
g73
(dp3704
sg82
g3468
sg75
(lp3705
g68
(g89
g70
NtRp3706
(dp3707
g73
(dp3708
g93
g94
ssg82
g3702
sg75
(lp3709
S'delimiters'
p3710
asbag68
(g89
g70
NtRp3711
(dp3712
g73
(dp3713
g100
g101
ssg82
g3702
sg75
(lp3714
S':'
asbag68
(g89
g70
NtRp3715
(dp3716
g73
(dp3717
sg82
g3702
sg75
(lp3718
g68
(g69
g70
NtRp3719
(dp3720
g73
(dp3721
g81
I5
ssg82
g3715
sg75
(lp3722
g68
(g77
g70
NtRp3723
(dp3724
g73
(dp3725
g81
I4
ssg82
Nsg75
(lp3726
g68
(g84
g70
NtRp3727
(dp3728
g73
(dp3729
sg82
g3723
sg75
(lp3730
g68
(g89
g70
NtRp3731
(dp3732
g73
(dp3733
sg82
g3727
sg75
(lp3734
g68
(g69
g70
NtRp3735
(dp3736
g73
(dp3737
g81
I4
ssg82
g3731
sg75
(lp3738
S'{{'
p3739
asbasbasbag68
(g84
g70
NtRp3740
(dp3741
g73
(dp3742
sg82
g3723
sg75
(lp3743
g68
(g89
g70
NtRp3744
(dp3745
g73
(dp3746
sg82
g3740
sg75
(lp3747
g68
(g69
g70
NtRp3748
(dp3749
g73
(dp3750
g81
I4
ssg82
g3744
sg75
(lp3751
S'}}'
p3752
asbasbasbasbasbasbasbag68
(g84
g70
NtRp3753
(dp3754
g73
(dp3755
sg82
g3468
sg75
(lp3756
g68
(g89
g70
NtRp3757
(dp3758
g73
(dp3759
g93
g94
ssg82
g3753
sg75
(lp3760
S'files'
p3761
asbag68
(g89
g70
NtRp3762
(dp3763
g73
(dp3764
g100
g101
ssg82
g3753
sg75
(lp3765
S':'
asbag68
(g89
g70
NtRp3766
(dp3767
g73
(dp3768
sg82
g3753
sg75
(lp3769
g68
(g69
g70
NtRp3770
(dp3771
g73
(dp3772
g81
I5
ssg82
g3766
sg75
(lp3773
g68
(g77
g70
NtRp3774
(dp3775
g73
(dp3776
g81
I4
ssg82
Nsg75
(lp3777
sbasbasbasbag68
(g84
g70
NtRp3778
(dp3779
g73
(dp3780
sg82
g3468
sg75
(lp3781
g68
(g89
g70
NtRp3782
(dp3783
g73
(dp3784
g93
g94
ssg82
g3778
sg75
(lp3785
S'flash'
p3786
asbag68
(g89
g70
NtRp3787
(dp3788
g73
(dp3789
g100
g101
ssg82
g3778
sg75
(lp3790
S':'
asbag68
(g89
g70
NtRp3791
(dp3792
g73
(dp3793
sg82
g3778
sg75
(lp3794
g68
(g69
g70
NtRp3795
(dp3796
g73
(dp3797
g81
I5
ssg82
g3791
sg75
(lp3798
S''
asbasbasbag68
(g84
g70
NtRp3799
(dp3800
g73
(dp3801
sg82
g3468
sg75
(lp3802
g68
(g89
g70
NtRp3803
(dp3804
g73
(dp3805
g93
g94
ssg82
g3799
sg75
(lp3806
S'generic_patterns'
p3807
asbag68
(g89
g70
NtRp3808
(dp3809
g73
(dp3810
g100
g101
ssg82
g3799
sg75
(lp3811
S':'
asbag68
(g89
g70
NtRp3812
(dp3813
g73
(dp3814
sg82
g3799
sg75
(lp3815
g68
(g69
g70
NtRp3816
(dp3817
g73
(dp3818
g81
I5
ssg82
g3812
sg75
(lp3819
g68
(g77
g70
NtRp3820
(dp3821
g73
(dp3822
g81
I4
ssg82
Nsg75
(lp3823
sbasbasbasbag68
(g84
g70
NtRp3824
(dp3825
g73
(dp3826
sg82
g3468
sg75
(lp3827
g68
(g89
g70
NtRp3828
(dp3829
g73
(dp3830
g93
g94
ssg82
g3824
sg75
(lp3831
S'headers'
p3832
asbag68
(g89
g70
NtRp3833
(dp3834
g73
(dp3835
g100
g101
ssg82
g3824
sg75
(lp3836
S':'
asbag68
(g89
g70
NtRp3837
(dp3838
g73
(dp3839
sg82
g3824
sg75
(lp3840
g68
(g69
g70
NtRp3841
(dp3842
g73
(dp3843
g81
I5
ssg82
g3837
sg75
(lp3844
g68
(g77
g70
NtRp3845
(dp3846
g73
(dp3847
g81
I4
ssg82
Nsg75
(lp3848
g68
(g84
g70
NtRp3849
(dp3850
g73
(dp3851
sg82
g3845
sg75
(lp3852
g68
(g89
g70
NtRp3853
(dp3854
g73
(dp3855
g93
g94
ssg82
g3849
sg75
(lp3856
S'X-Powered-By'
p3857
asbag68
(g89
g70
NtRp3858
(dp3859
g73
(dp3860
g100
g101
ssg82
g3849
sg75
(lp3861
S':'
asbag68
(g89
g70
NtRp3862
(dp3863
g73
(dp3864
sg82
g3849
sg75
(lp3865
g68
(g69
g70
NtRp3866
(dp3867
g73
(dp3868
g81
I4
ssg82
g3862
sg75
(lp3869
S'web2py'
p3870
asbasbasbasbasbasbasbag68
(g84
g70
NtRp3871
(dp3872
g73
(dp3873
sg82
g3468
sg75
(lp3874
g68
(g89
g70
NtRp3875
(dp3876
g73
(dp3877
g93
g94
ssg82
g3871
sg75
(lp3878
S'menu'
p3879
asbag68
(g89
g70
NtRp3880
(dp3881
g73
(dp3882
g100
g101
ssg82
g3871
sg75
(lp3883
S':'
asbag68
(g89
g70
NtRp3884
(dp3885
g73
(dp3886
sg82
g3871
sg75
(lp3887
g68
(g69
g70
NtRp3888
(dp3889
g73
(dp3890
g81
I5
ssg82
g3884
sg75
(lp3891
g68
(g77
g70
NtRp3892
(dp3893
g73
(dp3894
g81
I4
ssg82
Nsg75
(lp3895
sbasbasbasbag68
(g84
g70
NtRp3896
(dp3897
g73
(dp3898
sg82
g3468
sg75
(lp3899
g68
(g89
g70
NtRp3900
(dp3901
g73
(dp3902
g93
g94
ssg82
g3896
sg75
(lp3903
S'meta'
p3904
asbag68
(g89
g70
NtRp3905
(dp3906
g73
(dp3907
g100
g101
ssg82
g3896
sg75
(lp3908
S':'
asbag68
(g89
g70
NtRp3909
(dp3910
g73
(dp3911
sg82
g3896
sg75
(lp3912
g68
(g69
g70
NtRp3913
(dp3914
g73
(dp3915
g81
I5
ssg82
g3909
sg75
(lp3916
g68
(g77
g70
NtRp3917
(dp3918
g73
(dp3919
g81
I4
ssg82
Nsg75
(lp3920
sbasbasbasbag68
(g84
g70
NtRp3921
(dp3922
g73
(dp3923
sg82
g3468
sg75
(lp3924
g68
(g89
g70
NtRp3925
(dp3926
g73
(dp3927
g93
g94
ssg82
g3921
sg75
(lp3928
S'models_to_run'
p3929
asbag68
(g89
g70
NtRp3930
(dp3931
g73
(dp3932
g100
g101
ssg82
g3921
sg75
(lp3933
S':'
asbag68
(g89
g70
NtRp3934
(dp3935
g73
(dp3936
sg82
g3921
sg75
(lp3937
g68
(g69
g70
NtRp3938
(dp3939
g73
(dp3940
g81
I5
ssg82
g3934
sg75
(lp3941
g68
(g77
g70
NtRp3942
(dp3943
g73
(dp3944
g81
I4
ssg82
Nsg75
(lp3945
g68
(g84
g70
NtRp3946
(dp3947
g73
(dp3948
sg82
g3942
sg75
(lp3949
g68
(g89
g70
NtRp3950
(dp3951
g73
(dp3952
sg82
g3946
sg75
(lp3953
g68
(g69
g70
NtRp3954
(dp3955
g73
(dp3956
g81
I4
ssg82
g3950
sg75
(lp3957
S'^\\w+\\.py$'
p3958
asbasbasbag68
(g84
g70
NtRp3959
(dp3960
g73
(dp3961
sg82
g3942
sg75
(lp3962
g68
(g89
g70
NtRp3963
(dp3964
g73
(dp3965
sg82
g3959
sg75
(lp3966
g68
(g69
g70
NtRp3967
(dp3968
g73
(dp3969
g81
I4
ssg82
g3963
sg75
(lp3970
S'^default/\\w+\\.py$'
p3971
asbasbasbag68
(g84
g70
NtRp3972
(dp3973
g73
(dp3974
sg82
g3942
sg75
(lp3975
g68
(g89
g70
NtRp3976
(dp3977
g73
(dp3978
sg82
g3972
sg75
(lp3979
g68
(g69
g70
NtRp3980
(dp3981
g73
(dp3982
g81
I4
ssg82
g3976
sg75
(lp3983
S'^default/index/\\w+\\.py$'
p3984
asbasbasbasbasbasbasbag68
(g84
g70
NtRp3985
(dp3986
g73
(dp3987
sg82
g3468
sg75
(lp3988
g68
(g89
g70
NtRp3989
(dp3990
g73
(dp3991
g93
g94
ssg82
g3985
sg75
(lp3992
S'postprocessing'
p3993
asbag68
(g89
g70
NtRp3994
(dp3995
g73
(dp3996
g100
g101
ssg82
g3985
sg75
(lp3997
S':'
asbag68
(g89
g70
NtRp3998
(dp3999
g73
(dp4000
sg82
g3985
sg75
(lp4001
g68
(g69
g70
NtRp4002
(dp4003
g73
(dp4004
g81
I5
ssg82
g3998
sg75
(lp4005
g68
(g77
g70
NtRp4006
(dp4007
g73
(dp4008
g81
I4
ssg82
Nsg75
(lp4009
sbasbasbasbag68
(g84
g70
NtRp4010
(dp4011
g73
(dp4012
sg82
g3468
sg75
(lp4013
g68
(g89
g70
NtRp4014
(dp4015
g73
(dp4016
g93
g94
ssg82
g4010
sg75
(lp4017
S'session_cookie_expires'
p4018
asbag68
(g89
g70
NtRp4019
(dp4020
g73
(dp4021
g100
g101
ssg82
g4010
sg75
(lp4022
S':'
asbag68
(g89
g70
NtRp4023
(dp4024
g73
(dp4025
sg82
g4010
sg75
(lp4026
g68
(g69
g70
NtRp4027
(dp4028
g73
(dp4029
g81
I5
ssg82
g4023
sg75
(lp4030
S'None'
p4031
asbasbasbag68
(g84
g70
NtRp4032
(dp4033
g73
(dp4034
sg82
g3468
sg75
(lp4035
g68
(g89
g70
NtRp4036
(dp4037
g73
(dp4038
g93
g94
ssg82
g4032
sg75
(lp4039
S'session_data_name'
p4040
asbag68
(g89
g70
NtRp4041
(dp4042
g73
(dp4043
g100
g101
ssg82
g4032
sg75
(lp4044
S':'
asbag68
(g89
g70
NtRp4045
(dp4046
g73
(dp4047
sg82
g4032
sg75
(lp4048
g68
(g69
g70
NtRp4049
(dp4050
g73
(dp4051
g81
I5
ssg82
g4045
sg75
(lp4052
S'session_data_projeto'
p4053
asbasbasbag68
(g84
g70
NtRp4054
(dp4055
g73
(dp4056
sg82
g3468
sg75
(lp4057
g68
(g89
g70
NtRp4058
(dp4059
g73
(dp4060
g93
g94
ssg82
g4054
sg75
(lp4061
S'session_file'
p4062
asbag68
(g89
g70
NtRp4063
(dp4064
g73
(dp4065
g100
g101
ssg82
g4054
sg75
(lp4066
S':'
asbag68
(g89
g70
NtRp4067
(dp4068
g73
(dp4069
sg82
g4054
sg75
(lp4070
g68
(g69
g70
NtRp4071
(dp4072
g73
(dp4073
g81
I5
ssg82
g4067
sg75
(lp4074
S'None'
p4075
asbasbasbag68
(g84
g70
NtRp4076
(dp4077
g73
(dp4078
sg82
g3468
sg75
(lp4079
g68
(g89
g70
NtRp4080
(dp4081
g73
(dp4082
g93
g94
ssg82
g4076
sg75
(lp4083
S'session_filename'
p4084
asbag68
(g89
g70
NtRp4085
(dp4086
g73
(dp4087
g100
g101
ssg82
g4076
sg75
(lp4088
S':'
asbag68
(g89
g70
NtRp4089
(dp4090
g73
(dp4091
sg82
g4076
sg75
(lp4092
g68
(g69
g70
NtRp4093
(dp4094
g73
(dp4095
g81
I5
ssg82
g4089
sg75
(lp4096
S'/var/www/web2py_curso/applications/projeto/sessions/127.0.0.1-ac2fedfb-a46a-42e9-8bef-23a136eddeb8'
p4097
asbasbasbag68
(g84
g70
NtRp4098
(dp4099
g73
(dp4100
sg82
g3468
sg75
(lp4101
g68
(g89
g70
NtRp4102
(dp4103
g73
(dp4104
g93
g94
ssg82
g4098
sg75
(lp4105
S'session_id'
p4106
asbag68
(g89
g70
NtRp4107
(dp4108
g73
(dp4109
g100
g101
ssg82
g4098
sg75
(lp4110
S':'
asbag68
(g89
g70
NtRp4111
(dp4112
g73
(dp4113
sg82
g4098
sg75
(lp4114
g68
(g69
g70
NtRp4115
(dp4116
g73
(dp4117
g81
I5
ssg82
g4111
sg75
(lp4118
g672
asbasbasbag68
(g84
g70
NtRp4119
(dp4120
g73
(dp4121
sg82
g3468
sg75
(lp4122
g68
(g89
g70
NtRp4123
(dp4124
g73
(dp4125
g93
g94
ssg82
g4119
sg75
(lp4126
S'session_id_name'
p4127
asbag68
(g89
g70
NtRp4128
(dp4129
g73
(dp4130
g100
g101
ssg82
g4119
sg75
(lp4131
S':'
asbag68
(g89
g70
NtRp4132
(dp4133
g73
(dp4134
sg82
g4119
sg75
(lp4135
g68
(g69
g70
NtRp4136
(dp4137
g73
(dp4138
g81
I5
ssg82
g4132
sg75
(lp4139
g3525
asbasbasbag68
(g84
g70
NtRp4140
(dp4141
g73
(dp4142
sg82
g3468
sg75
(lp4143
g68
(g89
g70
NtRp4144
(dp4145
g73
(dp4146
g93
g94
ssg82
g4140
sg75
(lp4147
S'session_new'
p4148
asbag68
(g89
g70
NtRp4149
(dp4150
g73
(dp4151
g100
g101
ssg82
g4140
sg75
(lp4152
S':'
asbag68
(g89
g70
NtRp4153
(dp4154
g73
(dp4155
sg82
g4140
sg75
(lp4156
g68
(g69
g70
NtRp4157
(dp4158
g73
(dp4159
g81
I5
ssg82
g4153
sg75
(lp4160
g111
asbasbasbag68
(g84
g70
NtRp4161
(dp4162
g73
(dp4163
sg82
g3468
sg75
(lp4164
g68
(g89
g70
NtRp4165
(dp4166
g73
(dp4167
g93
g94
ssg82
g4161
sg75
(lp4168
S'session_storage_type'
p4169
asbag68
(g89
g70
NtRp4170
(dp4171
g73
(dp4172
g100
g101
ssg82
g4161
sg75
(lp4173
S':'
asbag68
(g89
g70
NtRp4174
(dp4175
g73
(dp4176
sg82
g4161
sg75
(lp4177
g68
(g69
g70
NtRp4178
(dp4179
g73
(dp4180
g81
I5
ssg82
g4174
sg75
(lp4181
g3397
asbasbasbag68
(g84
g70
NtRp4182
(dp4183
g73
(dp4184
sg82
g3468
sg75
(lp4185
g68
(g89
g70
NtRp4186
(dp4187
g73
(dp4188
g93
g94
ssg82
g4182
sg75
(lp4189
S'status'
p4190
asbag68
(g89
g70
NtRp4191
(dp4192
g73
(dp4193
g100
g101
ssg82
g4182
sg75
(lp4194
S':'
asbag68
(g89
g70
NtRp4195
(dp4196
g73
(dp4197
sg82
g4182
sg75
(lp4198
g68
(g69
g70
NtRp4199
(dp4200
g73
(dp4201
g81
I5
ssg82
g4195
sg75
(lp4202
S'200'
p4203
asbasbasbag68
(g84
g70
NtRp4204
(dp4205
g73
(dp4206
sg82
g3468
sg75
(lp4207
g68
(g89
g70
NtRp4208
(dp4209
g73
(dp4210
g93
g94
ssg82
g4204
sg75
(lp4211
S'view'
p4212
asbag68
(g89
g70
NtRp4213
(dp4214
g73
(dp4215
g100
g101
ssg82
g4204
sg75
(lp4216
S':'
asbag68
(g89
g70
NtRp4217
(dp4218
g73
(dp4219
sg82
g4204
sg75
(lp4220
g68
(g69
g70
NtRp4221
(dp4222
g73
(dp4223
g81
I5
ssg82
g4217
sg75
(lp4224
S'default/index.html'
p4225
asbasbasbasbasbsS'locals'
p4226
(dp4227
g4
S"'/var/www/web2py_curso/applications/projeto/controllers/default.py'"
p4228
sg6
S'\'# coding: utf-8\\n\\ndef index():\\n\\tprint "Action ind...x + y\\n\\n \\n\\nresponse._vars=response._caller(index)\\n\''
p4229
sssS'traceback'
p4230
S'Traceback (most recent call last):\n  File "/var/www/web2py_curso/gluon/restricted.py", line 211, in restricted\n    ccode = compile2(code, layer)\n  File "/var/www/web2py_curso/gluon/restricted.py", line 194, in compile2\n    return compile(code.rstrip().replace(\'\\r\\n\', \'\\n\') + \'\\n\', layer, \'exec\')\n  File "/var/www/web2py_curso/applications/projeto/controllers/default.py", line 7\n    if nome in request.args\n                          ^\nSyntaxError: invalid syntax\n'
p4231
s.