(dp1
S'output'
p2
S"<type 'exceptions.TypeError'> update() takes exactly 1 argument (2 given)"
p3
sS'layer'
p4
S'/var/www/web2py_curso/applications/projeto/controllers/initial.py'
p5
sS'code'
p6
S'# coding: utf-8\n\ndef home():\n\tnome = "Fernando"\n\tresponse.title = "Titulo home"\n\treturn dict(nome=nome)\n\ndef contact():\n\treturn "form"\n\ndef about():\n\treturn "sobre"\n\ndef user():\n\tif request.args(0) == \'register\':\n        \tdb.auth_user.bio.writable = db.auth_user.bio.readable = False\n\treturn response.render ("initial/home.html", auth())\n\ndef register():\n\treturn auth.register()\n\ndef login():\n        return auth.login()\n\ndef account():\n    return dict(register=auth.register(),\n                login=auth.login())\n\t\ndef download():\n\treturn response.download(request, db)\n\n\n\n\n\ndef exemplo():\n#\treturn "teste"\n\treturn response.render("default/teste.html", nome="fernando", sobrenome="vieira", lista=["item1", "item2", "item3"])\n\ndef teste1():\n\tprint "Action index"\n\tprint request.args\n\tprint request.vars \t\n\tprint request.post_vars #somente entradas de formul\xc3\xa1rio\n    \tprint request.get_vars  #somente entradas de url\n    \t#nome = request.vars[\'nome\']\n        mensagem = "Bem Vindo"\n        form = "<form action=\'\' method=\'POST\'><input name=\'nome\' id=\'nome\'/><input type=\'Submit\'></form><br>"\n        if \'nome\' in request.vars:\n\t\tform = "<p>Bem vindo %(nome)s</p>" % request.vars + form\t\t\n\t\t#mensagem = mensagem + " usu\xc3\xa1rio %(nome)s" % request.vars\t#mostrando variavel da url\n        \t#mensagem = mensagem + " usu\xc3\xa1rio %s" %str(nome)\t\t\t#mostrando uma variavel local    \n\treturn form\n\ndef teste2():\n\treturn "<form><label>Nome</label><input /></form><br><a href=\'http://www.w3schools.com\'>Visit W3Schools</a>"\n\t#return dict(nome="fernando")\n\t#return response.render("teste.html", dict(nome="fernando"))\n\ndef soma(x, y):\n\treturn x + y\n\n \n\nresponse._vars=response._caller(user)\n'
p7
sS'snapshot'
p8
(dp9
S'exception'
p10
(dp11
S'__hash__'
p12
S"<method-wrapper '__hash__' of exceptions.TypeError object>"
p13
sS'__setattr__'
p14
S"<method-wrapper '__setattr__' of exceptions.TypeError object>"
p15
sS'__reduce_ex__'
p16
S'<built-in method __reduce_ex__ of exceptions.TypeError object>'
p17
sS'__getslice__'
p18
S"<method-wrapper '__getslice__' of exceptions.TypeError object>"
p19
sS'__getitem__'
p20
S"<method-wrapper '__getitem__' of exceptions.TypeError object>"
p21
sS'__setstate__'
p22
S'<built-in method __setstate__ of exceptions.TypeError object>'
p23
sS'args'
p24
S"('update() takes exactly 1 argument (2 given)',)"
p25
sS'__reduce__'
p26
S'<built-in method __reduce__ of exceptions.TypeError object>'
p27
sS'__str__'
p28
S"<method-wrapper '__str__' of exceptions.TypeError object>"
p29
sS'__format__'
p30
S'<built-in method __format__ of exceptions.TypeError object>'
p31
sS'__getattribute__'
p32
S"<method-wrapper '__getattribute__' of exceptions.TypeError object>"
p33
sS'__class__'
p34
S"<type 'exceptions.TypeError'>"
p35
sS'__unicode__'
p36
S'<built-in method __unicode__ of exceptions.TypeError object>'
p37
sS'__delattr__'
p38
S"<method-wrapper '__delattr__' of exceptions.TypeError object>"
p39
sS'__subclasshook__'
p40
S'<built-in method __subclasshook__ of type object>'
p41
sS'__repr__'
p42
S"<method-wrapper '__repr__' of exceptions.TypeError object>"
p43
sS'__dict__'
p44
S'{}'
p45
sS'__sizeof__'
p46
S'<built-in method __sizeof__ of exceptions.TypeError object>'
p47
sS'__doc__'
p48
S"'Inappropriate argument type.'"
p49
sS'__init__'
p50
S"<method-wrapper '__init__' of exceptions.TypeError object>"
p51
sS'__new__'
p52
S'<built-in method __new__ of type object>'
p53
ssS'evalue'
p54
S'update() takes exactly 1 argument (2 given)'
p55
sS'request'
p56
ccopy_reg
_reconstructor
p57
(cgluon.html
BEAUTIFY
p58
c__builtin__
object
p59
NtRp60
(dp61
S'attributes'
p62
(dp63
sS'components'
p64
(lp65
g57
(cgluon.html
TABLE
p66
g59
NtRp67
(dp68
g62
(dp69
S'level'
p70
I5
ssS'parent'
p71
Nsg64
(lp72
g57
(cgluon.html
TR
p73
g59
NtRp74
(dp75
g62
(dp76
sg71
g67
sg64
(lp77
g57
(cgluon.html
TD
p78
g59
NtRp79
(dp80
g62
(dp81
S'_style'
p82
S'font-weight:bold;vertical-align:top'
p83
ssg71
g74
sg64
(lp84
S'ajax'
p85
asbag57
(g78
g59
NtRp86
(dp87
g62
(dp88
S'_valign'
p89
S'top'
p90
ssg71
g74
sg64
(lp91
S':'
asbag57
(g78
g59
NtRp92
(dp93
g62
(dp94
sg71
g74
sg64
(lp95
g57
(g58
g59
NtRp96
(dp97
g62
(dp98
g70
I5
ssg71
g92
sg64
(lp99
S'False'
p100
asbasbasbag57
(g73
g59
NtRp101
(dp102
g62
(dp103
sg71
g67
sg64
(lp104
g57
(g78
g59
NtRp105
(dp106
g62
(dp107
g82
g83
ssg71
g101
sg64
(lp108
S'application'
p109
asbag57
(g78
g59
NtRp110
(dp111
g62
(dp112
g89
g90
ssg71
g101
sg64
(lp113
S':'
asbag57
(g78
g59
NtRp114
(dp115
g62
(dp116
sg71
g101
sg64
(lp117
g57
(g58
g59
NtRp118
(dp119
g62
(dp120
g70
I5
ssg71
g114
sg64
(lp121
S'projeto'
p122
asbasbasbag57
(g73
g59
NtRp123
(dp124
g62
(dp125
sg71
g67
sg64
(lp126
g57
(g78
g59
NtRp127
(dp128
g62
(dp129
g82
g83
ssg71
g123
sg64
(lp130
g24
asbag57
(g78
g59
NtRp131
(dp132
g62
(dp133
g89
g90
ssg71
g123
sg64
(lp134
S':'
asbag57
(g78
g59
NtRp135
(dp136
g62
(dp137
sg71
g123
sg64
(lp138
g57
(g58
g59
NtRp139
(dp140
g62
(dp141
g70
I5
ssg71
g135
sg64
(lp142
g57
(g66
g59
NtRp143
(dp144
g62
(dp145
g70
I4
ssg71
Nsg64
(lp146
g57
(g73
g59
NtRp147
(dp148
g62
(dp149
sg71
g143
sg64
(lp150
g57
(g78
g59
NtRp151
(dp152
g62
(dp153
sg71
g147
sg64
(lp154
g57
(g58
g59
NtRp155
(dp156
g62
(dp157
g70
I4
ssg71
g151
sg64
(lp158
S'register'
p159
asbasbasbasbasbasbasbag57
(g73
g59
NtRp160
(dp161
g62
(dp162
sg71
g67
sg64
(lp163
g57
(g78
g59
NtRp164
(dp165
g62
(dp166
g82
g83
ssg71
g160
sg64
(lp167
S'body'
p168
asbag57
(g78
g59
NtRp169
(dp170
g62
(dp171
g89
g90
ssg71
g160
sg64
(lp172
S':'
asbag57
(g78
g59
NtRp173
(dp174
g62
(dp175
sg71
g160
sg64
(lp176
g57
(g58
g59
NtRp177
(dp178
g62
(dp179
g70
I5
ssg71
g173
sg64
(lp180
S'<cStringIO.StringO object at 0x32c0618>'
p181
asbasbasbag57
(g73
g59
NtRp182
(dp183
g62
(dp184
sg71
g67
sg64
(lp185
g57
(g78
g59
NtRp186
(dp187
g62
(dp188
g82
g83
ssg71
g182
sg64
(lp189
S'cid'
p190
asbag57
(g78
g59
NtRp191
(dp192
g62
(dp193
g89
g90
ssg71
g182
sg64
(lp194
S':'
asbag57
(g78
g59
NtRp195
(dp196
g62
(dp197
sg71
g182
sg64
(lp198
g57
(g58
g59
NtRp199
(dp200
g62
(dp201
g70
I5
ssg71
g195
sg64
(lp202
S'None'
p203
asbasbasbag57
(g73
g59
NtRp204
(dp205
g62
(dp206
sg71
g67
sg64
(lp207
g57
(g78
g59
NtRp208
(dp209
g62
(dp210
g82
g83
ssg71
g204
sg64
(lp211
S'client'
p212
asbag57
(g78
g59
NtRp213
(dp214
g62
(dp215
g89
g90
ssg71
g204
sg64
(lp216
S':'
asbag57
(g78
g59
NtRp217
(dp218
g62
(dp219
sg71
g204
sg64
(lp220
g57
(g58
g59
NtRp221
(dp222
g62
(dp223
g70
I5
ssg71
g217
sg64
(lp224
S'127.0.0.1'
p225
asbasbasbag57
(g73
g59
NtRp226
(dp227
g62
(dp228
sg71
g67
sg64
(lp229
g57
(g78
g59
NtRp230
(dp231
g62
(dp232
g82
g83
ssg71
g226
sg64
(lp233
S'controller'
p234
asbag57
(g78
g59
NtRp235
(dp236
g62
(dp237
g89
g90
ssg71
g226
sg64
(lp238
S':'
asbag57
(g78
g59
NtRp239
(dp240
g62
(dp241
sg71
g226
sg64
(lp242
g57
(g58
g59
NtRp243
(dp244
g62
(dp245
g70
I5
ssg71
g239
sg64
(lp246
S'initial'
p247
asbasbasbag57
(g73
g59
NtRp248
(dp249
g62
(dp250
sg71
g67
sg64
(lp251
g57
(g78
g59
NtRp252
(dp253
g62
(dp254
g82
g83
ssg71
g248
sg64
(lp255
S'cookies'
p256
asbag57
(g78
g59
NtRp257
(dp258
g62
(dp259
g89
g90
ssg71
g248
sg64
(lp260
S':'
asbag57
(g78
g59
NtRp261
(dp262
g62
(dp263
sg71
g248
sg64
(lp264
g57
(g58
g59
NtRp265
(dp266
g62
(dp267
g70
I5
ssg71
g261
sg64
(lp268
g57
(g66
g59
NtRp269
(dp270
g62
(dp271
g70
I4
ssg71
Nsg64
(lp272
g57
(g73
g59
NtRp273
(dp274
g62
(dp275
sg71
g269
sg64
(lp276
g57
(g78
g59
NtRp277
(dp278
g62
(dp279
g82
g83
ssg71
g273
sg64
(lp280
S'session_id_admin'
p281
asbag57
(g78
g59
NtRp282
(dp283
g62
(dp284
g89
g90
ssg71
g273
sg64
(lp285
S':'
asbag57
(g78
g59
NtRp286
(dp287
g62
(dp288
sg71
g273
sg64
(lp289
g57
(g58
g59
NtRp290
(dp291
g62
(dp292
g70
I4
ssg71
g286
sg64
(lp293
S'127.0.0.1-970aa82f-cabd-42ac-b214-88c3da3aaada'
p294
ag57
(g66
g59
NtRp295
(dp296
g62
(dp297
g70
I3
ssg71
Nsg64
(lp298
g57
(g73
g59
NtRp299
(dp300
g62
(dp301
sg71
g295
sg64
(lp302
g57
(g78
g59
NtRp303
(dp304
g62
(dp305
g82
g83
ssg71
g299
sg64
(lp306
S'comment'
p307
asbag57
(g78
g59
NtRp308
(dp309
g62
(dp310
g89
g90
ssg71
g299
sg64
(lp311
S':'
asbag57
(g78
g59
NtRp312
(dp313
g62
(dp314
sg71
g299
sg64
(lp315
g57
(g58
g59
NtRp316
(dp317
g62
(dp318
g70
I3
ssg71
g312
sg64
(lp319
S''
asbasbasbag57
(g73
g59
NtRp320
(dp321
g62
(dp322
sg71
g295
sg64
(lp323
g57
(g78
g59
NtRp324
(dp325
g62
(dp326
g82
g83
ssg71
g320
sg64
(lp327
S'domain'
p328
asbag57
(g78
g59
NtRp329
(dp330
g62
(dp331
g89
g90
ssg71
g320
sg64
(lp332
S':'
asbag57
(g78
g59
NtRp333
(dp334
g62
(dp335
sg71
g320
sg64
(lp336
g57
(g58
g59
NtRp337
(dp338
g62
(dp339
g70
I3
ssg71
g333
sg64
(lp340
S''
asbasbasbag57
(g73
g59
NtRp341
(dp342
g62
(dp343
sg71
g295
sg64
(lp344
g57
(g78
g59
NtRp345
(dp346
g62
(dp347
g82
g83
ssg71
g341
sg64
(lp348
S'expires'
p349
asbag57
(g78
g59
NtRp350
(dp351
g62
(dp352
g89
g90
ssg71
g341
sg64
(lp353
S':'
asbag57
(g78
g59
NtRp354
(dp355
g62
(dp356
sg71
g341
sg64
(lp357
g57
(g58
g59
NtRp358
(dp359
g62
(dp360
g70
I3
ssg71
g354
sg64
(lp361
S''
asbasbasbag57
(g73
g59
NtRp362
(dp363
g62
(dp364
sg71
g295
sg64
(lp365
g57
(g78
g59
NtRp366
(dp367
g62
(dp368
g82
g83
ssg71
g362
sg64
(lp369
S'httponly'
p370
asbag57
(g78
g59
NtRp371
(dp372
g62
(dp373
g89
g90
ssg71
g362
sg64
(lp374
S':'
asbag57
(g78
g59
NtRp375
(dp376
g62
(dp377
sg71
g362
sg64
(lp378
g57
(g58
g59
NtRp379
(dp380
g62
(dp381
g70
I3
ssg71
g375
sg64
(lp382
S''
asbasbasbag57
(g73
g59
NtRp383
(dp384
g62
(dp385
sg71
g295
sg64
(lp386
g57
(g78
g59
NtRp387
(dp388
g62
(dp389
g82
g83
ssg71
g383
sg64
(lp390
S'max-age'
p391
asbag57
(g78
g59
NtRp392
(dp393
g62
(dp394
g89
g90
ssg71
g383
sg64
(lp395
S':'
asbag57
(g78
g59
NtRp396
(dp397
g62
(dp398
sg71
g383
sg64
(lp399
g57
(g58
g59
NtRp400
(dp401
g62
(dp402
g70
I3
ssg71
g396
sg64
(lp403
S''
asbasbasbag57
(g73
g59
NtRp404
(dp405
g62
(dp406
sg71
g295
sg64
(lp407
g57
(g78
g59
NtRp408
(dp409
g62
(dp410
g82
g83
ssg71
g404
sg64
(lp411
S'path'
p412
asbag57
(g78
g59
NtRp413
(dp414
g62
(dp415
g89
g90
ssg71
g404
sg64
(lp416
S':'
asbag57
(g78
g59
NtRp417
(dp418
g62
(dp419
sg71
g404
sg64
(lp420
g57
(g58
g59
NtRp421
(dp422
g62
(dp423
g70
I3
ssg71
g417
sg64
(lp424
S''
asbasbasbag57
(g73
g59
NtRp425
(dp426
g62
(dp427
sg71
g295
sg64
(lp428
g57
(g78
g59
NtRp429
(dp430
g62
(dp431
g82
g83
ssg71
g425
sg64
(lp432
S'secure'
p433
asbag57
(g78
g59
NtRp434
(dp435
g62
(dp436
g89
g90
ssg71
g425
sg64
(lp437
S':'
asbag57
(g78
g59
NtRp438
(dp439
g62
(dp440
sg71
g425
sg64
(lp441
g57
(g58
g59
NtRp442
(dp443
g62
(dp444
g70
I3
ssg71
g438
sg64
(lp445
S''
asbasbasbag57
(g73
g59
NtRp446
(dp447
g62
(dp448
sg71
g295
sg64
(lp449
g57
(g78
g59
NtRp450
(dp451
g62
(dp452
g82
g83
ssg71
g446
sg64
(lp453
S'version'
p454
asbag57
(g78
g59
NtRp455
(dp456
g62
(dp457
g89
g90
ssg71
g446
sg64
(lp458
S':'
asbag57
(g78
g59
NtRp459
(dp460
g62
(dp461
sg71
g446
sg64
(lp462
g57
(g58
g59
NtRp463
(dp464
g62
(dp465
g70
I3
ssg71
g459
sg64
(lp466
S''
asbasbasbasbasbasbasbag57
(g73
g59
NtRp467
(dp468
g62
(dp469
sg71
g269
sg64
(lp470
g57
(g78
g59
NtRp471
(dp472
g62
(dp473
g82
g83
ssg71
g467
sg64
(lp474
S'session_id_projeto'
p475
asbag57
(g78
g59
NtRp476
(dp477
g62
(dp478
g89
g90
ssg71
g467
sg64
(lp479
S':'
asbag57
(g78
g59
NtRp480
(dp481
g62
(dp482
sg71
g467
sg64
(lp483
g57
(g58
g59
NtRp484
(dp485
g62
(dp486
g70
I4
ssg71
g480
sg64
(lp487
S'127.0.0.1-b705e3e5-709a-4648-bd75-671bbf3eb083'
p488
ag57
(g66
g59
NtRp489
(dp490
g62
(dp491
g70
I3
ssg71
Nsg64
(lp492
g57
(g73
g59
NtRp493
(dp494
g62
(dp495
sg71
g489
sg64
(lp496
g57
(g78
g59
NtRp497
(dp498
g62
(dp499
g82
g83
ssg71
g493
sg64
(lp500
g307
asbag57
(g78
g59
NtRp501
(dp502
g62
(dp503
g89
g90
ssg71
g493
sg64
(lp504
S':'
asbag57
(g78
g59
NtRp505
(dp506
g62
(dp507
sg71
g493
sg64
(lp508
g57
(g58
g59
NtRp509
(dp510
g62
(dp511
g70
I3
ssg71
g505
sg64
(lp512
S''
asbasbasbag57
(g73
g59
NtRp513
(dp514
g62
(dp515
sg71
g489
sg64
(lp516
g57
(g78
g59
NtRp517
(dp518
g62
(dp519
g82
g83
ssg71
g513
sg64
(lp520
g328
asbag57
(g78
g59
NtRp521
(dp522
g62
(dp523
g89
g90
ssg71
g513
sg64
(lp524
S':'
asbag57
(g78
g59
NtRp525
(dp526
g62
(dp527
sg71
g513
sg64
(lp528
g57
(g58
g59
NtRp529
(dp530
g62
(dp531
g70
I3
ssg71
g525
sg64
(lp532
S''
asbasbasbag57
(g73
g59
NtRp533
(dp534
g62
(dp535
sg71
g489
sg64
(lp536
g57
(g78
g59
NtRp537
(dp538
g62
(dp539
g82
g83
ssg71
g533
sg64
(lp540
g349
asbag57
(g78
g59
NtRp541
(dp542
g62
(dp543
g89
g90
ssg71
g533
sg64
(lp544
S':'
asbag57
(g78
g59
NtRp545
(dp546
g62
(dp547
sg71
g533
sg64
(lp548
g57
(g58
g59
NtRp549
(dp550
g62
(dp551
g70
I3
ssg71
g545
sg64
(lp552
S''
asbasbasbag57
(g73
g59
NtRp553
(dp554
g62
(dp555
sg71
g489
sg64
(lp556
g57
(g78
g59
NtRp557
(dp558
g62
(dp559
g82
g83
ssg71
g553
sg64
(lp560
g370
asbag57
(g78
g59
NtRp561
(dp562
g62
(dp563
g89
g90
ssg71
g553
sg64
(lp564
S':'
asbag57
(g78
g59
NtRp565
(dp566
g62
(dp567
sg71
g553
sg64
(lp568
g57
(g58
g59
NtRp569
(dp570
g62
(dp571
g70
I3
ssg71
g565
sg64
(lp572
S''
asbasbasbag57
(g73
g59
NtRp573
(dp574
g62
(dp575
sg71
g489
sg64
(lp576
g57
(g78
g59
NtRp577
(dp578
g62
(dp579
g82
g83
ssg71
g573
sg64
(lp580
g391
asbag57
(g78
g59
NtRp581
(dp582
g62
(dp583
g89
g90
ssg71
g573
sg64
(lp584
S':'
asbag57
(g78
g59
NtRp585
(dp586
g62
(dp587
sg71
g573
sg64
(lp588
g57
(g58
g59
NtRp589
(dp590
g62
(dp591
g70
I3
ssg71
g585
sg64
(lp592
S''
asbasbasbag57
(g73
g59
NtRp593
(dp594
g62
(dp595
sg71
g489
sg64
(lp596
g57
(g78
g59
NtRp597
(dp598
g62
(dp599
g82
g83
ssg71
g593
sg64
(lp600
g412
asbag57
(g78
g59
NtRp601
(dp602
g62
(dp603
g89
g90
ssg71
g593
sg64
(lp604
S':'
asbag57
(g78
g59
NtRp605
(dp606
g62
(dp607
sg71
g593
sg64
(lp608
g57
(g58
g59
NtRp609
(dp610
g62
(dp611
g70
I3
ssg71
g605
sg64
(lp612
S''
asbasbasbag57
(g73
g59
NtRp613
(dp614
g62
(dp615
sg71
g489
sg64
(lp616
g57
(g78
g59
NtRp617
(dp618
g62
(dp619
g82
g83
ssg71
g613
sg64
(lp620
g433
asbag57
(g78
g59
NtRp621
(dp622
g62
(dp623
g89
g90
ssg71
g613
sg64
(lp624
S':'
asbag57
(g78
g59
NtRp625
(dp626
g62
(dp627
sg71
g613
sg64
(lp628
g57
(g58
g59
NtRp629
(dp630
g62
(dp631
g70
I3
ssg71
g625
sg64
(lp632
S''
asbasbasbag57
(g73
g59
NtRp633
(dp634
g62
(dp635
sg71
g489
sg64
(lp636
g57
(g78
g59
NtRp637
(dp638
g62
(dp639
g82
g83
ssg71
g633
sg64
(lp640
g454
asbag57
(g78
g59
NtRp641
(dp642
g62
(dp643
g89
g90
ssg71
g633
sg64
(lp644
S':'
asbag57
(g78
g59
NtRp645
(dp646
g62
(dp647
sg71
g633
sg64
(lp648
g57
(g58
g59
NtRp649
(dp650
g62
(dp651
g70
I3
ssg71
g645
sg64
(lp652
S''
asbasbasbasbasbasbasbag57
(g73
g59
NtRp653
(dp654
g62
(dp655
sg71
g269
sg64
(lp656
g57
(g78
g59
NtRp657
(dp658
g62
(dp659
g82
g83
ssg71
g653
sg64
(lp660
S'session_id_teste'
p661
asbag57
(g78
g59
NtRp662
(dp663
g62
(dp664
g89
g90
ssg71
g653
sg64
(lp665
S':'
asbag57
(g78
g59
NtRp666
(dp667
g62
(dp668
sg71
g653
sg64
(lp669
g57
(g58
g59
NtRp670
(dp671
g62
(dp672
g70
I4
ssg71
g666
sg64
(lp673
S'127.0.0.1-cafc6eb2-19ca-490a-8200-3018c9d82dee'
p674
ag57
(g66
g59
NtRp675
(dp676
g62
(dp677
g70
I3
ssg71
Nsg64
(lp678
g57
(g73
g59
NtRp679
(dp680
g62
(dp681
sg71
g675
sg64
(lp682
g57
(g78
g59
NtRp683
(dp684
g62
(dp685
g82
g83
ssg71
g679
sg64
(lp686
g307
asbag57
(g78
g59
NtRp687
(dp688
g62
(dp689
g89
g90
ssg71
g679
sg64
(lp690
S':'
asbag57
(g78
g59
NtRp691
(dp692
g62
(dp693
sg71
g679
sg64
(lp694
g57
(g58
g59
NtRp695
(dp696
g62
(dp697
g70
I3
ssg71
g691
sg64
(lp698
S''
asbasbasbag57
(g73
g59
NtRp699
(dp700
g62
(dp701
sg71
g675
sg64
(lp702
g57
(g78
g59
NtRp703
(dp704
g62
(dp705
g82
g83
ssg71
g699
sg64
(lp706
g328
asbag57
(g78
g59
NtRp707
(dp708
g62
(dp709
g89
g90
ssg71
g699
sg64
(lp710
S':'
asbag57
(g78
g59
NtRp711
(dp712
g62
(dp713
sg71
g699
sg64
(lp714
g57
(g58
g59
NtRp715
(dp716
g62
(dp717
g70
I3
ssg71
g711
sg64
(lp718
S''
asbasbasbag57
(g73
g59
NtRp719
(dp720
g62
(dp721
sg71
g675
sg64
(lp722
g57
(g78
g59
NtRp723
(dp724
g62
(dp725
g82
g83
ssg71
g719
sg64
(lp726
g349
asbag57
(g78
g59
NtRp727
(dp728
g62
(dp729
g89
g90
ssg71
g719
sg64
(lp730
S':'
asbag57
(g78
g59
NtRp731
(dp732
g62
(dp733
sg71
g719
sg64
(lp734
g57
(g58
g59
NtRp735
(dp736
g62
(dp737
g70
I3
ssg71
g731
sg64
(lp738
S''
asbasbasbag57
(g73
g59
NtRp739
(dp740
g62
(dp741
sg71
g675
sg64
(lp742
g57
(g78
g59
NtRp743
(dp744
g62
(dp745
g82
g83
ssg71
g739
sg64
(lp746
g370
asbag57
(g78
g59
NtRp747
(dp748
g62
(dp749
g89
g90
ssg71
g739
sg64
(lp750
S':'
asbag57
(g78
g59
NtRp751
(dp752
g62
(dp753
sg71
g739
sg64
(lp754
g57
(g58
g59
NtRp755
(dp756
g62
(dp757
g70
I3
ssg71
g751
sg64
(lp758
S''
asbasbasbag57
(g73
g59
NtRp759
(dp760
g62
(dp761
sg71
g675
sg64
(lp762
g57
(g78
g59
NtRp763
(dp764
g62
(dp765
g82
g83
ssg71
g759
sg64
(lp766
g391
asbag57
(g78
g59
NtRp767
(dp768
g62
(dp769
g89
g90
ssg71
g759
sg64
(lp770
S':'
asbag57
(g78
g59
NtRp771
(dp772
g62
(dp773
sg71
g759
sg64
(lp774
g57
(g58
g59
NtRp775
(dp776
g62
(dp777
g70
I3
ssg71
g771
sg64
(lp778
S''
asbasbasbag57
(g73
g59
NtRp779
(dp780
g62
(dp781
sg71
g675
sg64
(lp782
g57
(g78
g59
NtRp783
(dp784
g62
(dp785
g82
g83
ssg71
g779
sg64
(lp786
g412
asbag57
(g78
g59
NtRp787
(dp788
g62
(dp789
g89
g90
ssg71
g779
sg64
(lp790
S':'
asbag57
(g78
g59
NtRp791
(dp792
g62
(dp793
sg71
g779
sg64
(lp794
g57
(g58
g59
NtRp795
(dp796
g62
(dp797
g70
I3
ssg71
g791
sg64
(lp798
S''
asbasbasbag57
(g73
g59
NtRp799
(dp800
g62
(dp801
sg71
g675
sg64
(lp802
g57
(g78
g59
NtRp803
(dp804
g62
(dp805
g82
g83
ssg71
g799
sg64
(lp806
g433
asbag57
(g78
g59
NtRp807
(dp808
g62
(dp809
g89
g90
ssg71
g799
sg64
(lp810
S':'
asbag57
(g78
g59
NtRp811
(dp812
g62
(dp813
sg71
g799
sg64
(lp814
g57
(g58
g59
NtRp815
(dp816
g62
(dp817
g70
I3
ssg71
g811
sg64
(lp818
S''
asbasbasbag57
(g73
g59
NtRp819
(dp820
g62
(dp821
sg71
g675
sg64
(lp822
g57
(g78
g59
NtRp823
(dp824
g62
(dp825
g82
g83
ssg71
g819
sg64
(lp826
g454
asbag57
(g78
g59
NtRp827
(dp828
g62
(dp829
g89
g90
ssg71
g819
sg64
(lp830
S':'
asbag57
(g78
g59
NtRp831
(dp832
g62
(dp833
sg71
g819
sg64
(lp834
g57
(g58
g59
NtRp835
(dp836
g62
(dp837
g70
I3
ssg71
g831
sg64
(lp838
S''
asbasbasbasbasbasbasbag57
(g73
g59
NtRp839
(dp840
g62
(dp841
sg71
g269
sg64
(lp842
g57
(g78
g59
NtRp843
(dp844
g62
(dp845
g82
g83
ssg71
g839
sg64
(lp846
S'session_id_welcome'
p847
asbag57
(g78
g59
NtRp848
(dp849
g62
(dp850
g89
g90
ssg71
g839
sg64
(lp851
S':'
asbag57
(g78
g59
NtRp852
(dp853
g62
(dp854
sg71
g839
sg64
(lp855
g57
(g58
g59
NtRp856
(dp857
g62
(dp858
g70
I4
ssg71
g852
sg64
(lp859
S'127.0.0.1-08bf4a16-b0ca-4b00-9c18-ae757eec14f4'
p860
ag57
(g66
g59
NtRp861
(dp862
g62
(dp863
g70
I3
ssg71
Nsg64
(lp864
g57
(g73
g59
NtRp865
(dp866
g62
(dp867
sg71
g861
sg64
(lp868
g57
(g78
g59
NtRp869
(dp870
g62
(dp871
g82
g83
ssg71
g865
sg64
(lp872
g307
asbag57
(g78
g59
NtRp873
(dp874
g62
(dp875
g89
g90
ssg71
g865
sg64
(lp876
S':'
asbag57
(g78
g59
NtRp877
(dp878
g62
(dp879
sg71
g865
sg64
(lp880
g57
(g58
g59
NtRp881
(dp882
g62
(dp883
g70
I3
ssg71
g877
sg64
(lp884
S''
asbasbasbag57
(g73
g59
NtRp885
(dp886
g62
(dp887
sg71
g861
sg64
(lp888
g57
(g78
g59
NtRp889
(dp890
g62
(dp891
g82
g83
ssg71
g885
sg64
(lp892
g328
asbag57
(g78
g59
NtRp893
(dp894
g62
(dp895
g89
g90
ssg71
g885
sg64
(lp896
S':'
asbag57
(g78
g59
NtRp897
(dp898
g62
(dp899
sg71
g885
sg64
(lp900
g57
(g58
g59
NtRp901
(dp902
g62
(dp903
g70
I3
ssg71
g897
sg64
(lp904
S''
asbasbasbag57
(g73
g59
NtRp905
(dp906
g62
(dp907
sg71
g861
sg64
(lp908
g57
(g78
g59
NtRp909
(dp910
g62
(dp911
g82
g83
ssg71
g905
sg64
(lp912
g349
asbag57
(g78
g59
NtRp913
(dp914
g62
(dp915
g89
g90
ssg71
g905
sg64
(lp916
S':'
asbag57
(g78
g59
NtRp917
(dp918
g62
(dp919
sg71
g905
sg64
(lp920
g57
(g58
g59
NtRp921
(dp922
g62
(dp923
g70
I3
ssg71
g917
sg64
(lp924
S''
asbasbasbag57
(g73
g59
NtRp925
(dp926
g62
(dp927
sg71
g861
sg64
(lp928
g57
(g78
g59
NtRp929
(dp930
g62
(dp931
g82
g83
ssg71
g925
sg64
(lp932
g370
asbag57
(g78
g59
NtRp933
(dp934
g62
(dp935
g89
g90
ssg71
g925
sg64
(lp936
S':'
asbag57
(g78
g59
NtRp937
(dp938
g62
(dp939
sg71
g925
sg64
(lp940
g57
(g58
g59
NtRp941
(dp942
g62
(dp943
g70
I3
ssg71
g937
sg64
(lp944
S''
asbasbasbag57
(g73
g59
NtRp945
(dp946
g62
(dp947
sg71
g861
sg64
(lp948
g57
(g78
g59
NtRp949
(dp950
g62
(dp951
g82
g83
ssg71
g945
sg64
(lp952
g391
asbag57
(g78
g59
NtRp953
(dp954
g62
(dp955
g89
g90
ssg71
g945
sg64
(lp956
S':'
asbag57
(g78
g59
NtRp957
(dp958
g62
(dp959
sg71
g945
sg64
(lp960
g57
(g58
g59
NtRp961
(dp962
g62
(dp963
g70
I3
ssg71
g957
sg64
(lp964
S''
asbasbasbag57
(g73
g59
NtRp965
(dp966
g62
(dp967
sg71
g861
sg64
(lp968
g57
(g78
g59
NtRp969
(dp970
g62
(dp971
g82
g83
ssg71
g965
sg64
(lp972
g412
asbag57
(g78
g59
NtRp973
(dp974
g62
(dp975
g89
g90
ssg71
g965
sg64
(lp976
S':'
asbag57
(g78
g59
NtRp977
(dp978
g62
(dp979
sg71
g965
sg64
(lp980
g57
(g58
g59
NtRp981
(dp982
g62
(dp983
g70
I3
ssg71
g977
sg64
(lp984
S''
asbasbasbag57
(g73
g59
NtRp985
(dp986
g62
(dp987
sg71
g861
sg64
(lp988
g57
(g78
g59
NtRp989
(dp990
g62
(dp991
g82
g83
ssg71
g985
sg64
(lp992
g433
asbag57
(g78
g59
NtRp993
(dp994
g62
(dp995
g89
g90
ssg71
g985
sg64
(lp996
S':'
asbag57
(g78
g59
NtRp997
(dp998
g62
(dp999
sg71
g985
sg64
(lp1000
g57
(g58
g59
NtRp1001
(dp1002
g62
(dp1003
g70
I3
ssg71
g997
sg64
(lp1004
S''
asbasbasbag57
(g73
g59
NtRp1005
(dp1006
g62
(dp1007
sg71
g861
sg64
(lp1008
g57
(g78
g59
NtRp1009
(dp1010
g62
(dp1011
g82
g83
ssg71
g1005
sg64
(lp1012
g454
asbag57
(g78
g59
NtRp1013
(dp1014
g62
(dp1015
g89
g90
ssg71
g1005
sg64
(lp1016
S':'
asbag57
(g78
g59
NtRp1017
(dp1018
g62
(dp1019
sg71
g1005
sg64
(lp1020
g57
(g58
g59
NtRp1021
(dp1022
g62
(dp1023
g70
I3
ssg71
g1017
sg64
(lp1024
S''
asbasbasbasbasbasbasbasbasbasbasbag57
(g73
g59
NtRp1025
(dp1026
g62
(dp1027
sg71
g67
sg64
(lp1028
g57
(g78
g59
NtRp1029
(dp1030
g62
(dp1031
g82
g83
ssg71
g1025
sg64
(lp1032
S'env'
p1033
asbag57
(g78
g59
NtRp1034
(dp1035
g62
(dp1036
g89
g90
ssg71
g1025
sg64
(lp1037
S':'
asbag57
(g78
g59
NtRp1038
(dp1039
g62
(dp1040
sg71
g1025
sg64
(lp1041
g57
(g58
g59
NtRp1042
(dp1043
g62
(dp1044
g70
I5
ssg71
g1038
sg64
(lp1045
g57
(g66
g59
NtRp1046
(dp1047
g62
(dp1048
g70
I4
ssg71
Nsg64
(lp1049
g57
(g73
g59
NtRp1050
(dp1051
g62
(dp1052
sg71
g1046
sg64
(lp1053
g57
(g78
g59
NtRp1054
(dp1055
g62
(dp1056
g82
g83
ssg71
g1050
sg64
(lp1057
S'app_folders'
p1058
asbag57
(g78
g59
NtRp1059
(dp1060
g62
(dp1061
g89
g90
ssg71
g1050
sg64
(lp1062
S':'
asbag57
(g78
g59
NtRp1063
(dp1064
g62
(dp1065
sg71
g1050
sg64
(lp1066
g57
(g58
g59
NtRp1067
(dp1068
g62
(dp1069
g70
I4
ssg71
g1063
sg64
(lp1070
S"set(['/var/www/web2py_curso/applications/admin/', '/var/www/web2py_curso/applications/projeto/'])"
p1071
asbasbasbag57
(g73
g59
NtRp1072
(dp1073
g62
(dp1074
sg71
g1046
sg64
(lp1075
g57
(g78
g59
NtRp1076
(dp1077
g62
(dp1078
g82
g83
ssg71
g1072
sg64
(lp1079
S'applications_parent'
p1080
asbag57
(g78
g59
NtRp1081
(dp1082
g62
(dp1083
g89
g90
ssg71
g1072
sg64
(lp1084
S':'
asbag57
(g78
g59
NtRp1085
(dp1086
g62
(dp1087
sg71
g1072
sg64
(lp1088
g57
(g58
g59
NtRp1089
(dp1090
g62
(dp1091
g70
I4
ssg71
g1085
sg64
(lp1092
S'/var/www/web2py_curso'
p1093
asbasbasbag57
(g73
g59
NtRp1094
(dp1095
g62
(dp1096
sg71
g1046
sg64
(lp1097
g57
(g78
g59
NtRp1098
(dp1099
g62
(dp1100
g82
g83
ssg71
g1094
sg64
(lp1101
S'cmd_args'
p1102
asbag57
(g78
g59
NtRp1103
(dp1104
g62
(dp1105
g89
g90
ssg71
g1094
sg64
(lp1106
S':'
asbag57
(g78
g59
NtRp1107
(dp1108
g62
(dp1109
sg71
g1094
sg64
(lp1110
g57
(g58
g59
NtRp1111
(dp1112
g62
(dp1113
g70
I4
ssg71
g1107
sg64
(lp1114
g57
(g66
g59
NtRp1115
(dp1116
g62
(dp1117
g70
I3
ssg71
Nsg64
(lp1118
sbasbasbasbag57
(g73
g59
NtRp1119
(dp1120
g62
(dp1121
sg71
g1046
sg64
(lp1122
g57
(g78
g59
NtRp1123
(dp1124
g62
(dp1125
g82
g83
ssg71
g1119
sg64
(lp1126
S'cmd_options'
p1127
asbag57
(g78
g59
NtRp1128
(dp1129
g62
(dp1130
g89
g90
ssg71
g1119
sg64
(lp1131
S':'
asbag57
(g78
g59
NtRp1132
(dp1133
g62
(dp1134
sg71
g1119
sg64
(lp1135
g57
(g58
g59
NtRp1136
(dp1137
g62
(dp1138
g70
I4
ssg71
g1132
sg64
(lp1139
S"<Values at 0x3216a28: {'verbose': False, 'ip': '127.0.0.1', 'with_scheduler': False, 'ips': [], 'shutdown_timeout': 5, 'taskbar': False, 'port': 8000, 'maxthreads': None, 'softcron': False, 'server_name': 'fernando-pc', 'bpython': False, 'nogui': False, 'pid_filename': 'httpserver.pid', 'extcron': False, 'runcron': False, 'run_system_tests': False, 'test': None, 'folder': '/var/www/web2py_curso', 'config': '', 'minthreads': None, 'winservice': '', 'shell': None, 'run': '', 'log_filename': 'httpserver.log', 'debuglevel': 30, 'args': [''], 'socket_timeout': 5, 'ssl_ca_certificate': None, 'scheduler': None, 'profiler_filename': None, 'ssl_private_key': '', 'scheduler_groups': None, 'password': '123456', 'request_queue_size': 5, 'ssl_certificate': '', 'cronjob': False, 'numthreads': None, 'quiet': False, 'interfaces': None, 'import_models': False, 'timeout': 10, 'plain': False, 'nobanner': False}>"
p1140
asbasbasbag57
(g73
g59
NtRp1141
(dp1142
g62
(dp1143
sg71
g1046
sg64
(lp1144
g57
(g78
g59
NtRp1145
(dp1146
g62
(dp1147
g82
g83
ssg71
g1141
sg64
(lp1148
S'db_sessions'
p1149
asbag57
(g78
g59
NtRp1150
(dp1151
g62
(dp1152
g89
g90
ssg71
g1141
sg64
(lp1153
S':'
asbag57
(g78
g59
NtRp1154
(dp1155
g62
(dp1156
sg71
g1141
sg64
(lp1157
g57
(g58
g59
NtRp1158
(dp1159
g62
(dp1160
g70
I4
ssg71
g1154
sg64
(lp1161
S'set([])'
p1162
asbasbasbag57
(g73
g59
NtRp1163
(dp1164
g62
(dp1165
sg71
g1046
sg64
(lp1166
g57
(g78
g59
NtRp1167
(dp1168
g62
(dp1169
g82
g83
ssg71
g1163
sg64
(lp1170
S'debugging'
p1171
asbag57
(g78
g59
NtRp1172
(dp1173
g62
(dp1174
g89
g90
ssg71
g1163
sg64
(lp1175
S':'
asbag57
(g78
g59
NtRp1176
(dp1177
g62
(dp1178
sg71
g1163
sg64
(lp1179
g57
(g58
g59
NtRp1180
(dp1181
g62
(dp1182
g70
I4
ssg71
g1176
sg64
(lp1183
g100
asbasbasbag57
(g73
g59
NtRp1184
(dp1185
g62
(dp1186
sg71
g1046
sg64
(lp1187
g57
(g78
g59
NtRp1188
(dp1189
g62
(dp1190
g82
g83
ssg71
g1184
sg64
(lp1191
S'gluon_parent'
p1192
asbag57
(g78
g59
NtRp1193
(dp1194
g62
(dp1195
g89
g90
ssg71
g1184
sg64
(lp1196
S':'
asbag57
(g78
g59
NtRp1197
(dp1198
g62
(dp1199
sg71
g1184
sg64
(lp1200
g57
(g58
g59
NtRp1201
(dp1202
g62
(dp1203
g70
I4
ssg71
g1197
sg64
(lp1204
S'/var/www/web2py_curso'
p1205
asbasbasbag57
(g73
g59
NtRp1206
(dp1207
g62
(dp1208
sg71
g1046
sg64
(lp1209
g57
(g78
g59
NtRp1210
(dp1211
g62
(dp1212
g82
g83
ssg71
g1206
sg64
(lp1213
S'http_accept'
p1214
asbag57
(g78
g59
NtRp1215
(dp1216
g62
(dp1217
g89
g90
ssg71
g1206
sg64
(lp1218
S':'
asbag57
(g78
g59
NtRp1219
(dp1220
g62
(dp1221
sg71
g1206
sg64
(lp1222
g57
(g58
g59
NtRp1223
(dp1224
g62
(dp1225
g70
I4
ssg71
g1219
sg64
(lp1226
S'text/html,application/xhtml+xml,application/xml;q=0.9,*/*;q=0.8'
p1227
asbasbasbag57
(g73
g59
NtRp1228
(dp1229
g62
(dp1230
sg71
g1046
sg64
(lp1231
g57
(g78
g59
NtRp1232
(dp1233
g62
(dp1234
g82
g83
ssg71
g1228
sg64
(lp1235
S'http_accept_charset'
p1236
asbag57
(g78
g59
NtRp1237
(dp1238
g62
(dp1239
g89
g90
ssg71
g1228
sg64
(lp1240
S':'
asbag57
(g78
g59
NtRp1241
(dp1242
g62
(dp1243
sg71
g1228
sg64
(lp1244
g57
(g58
g59
NtRp1245
(dp1246
g62
(dp1247
g70
I4
ssg71
g1241
sg64
(lp1248
S'ISO-8859-1,utf-8;q=0.7,*;q=0.3'
p1249
asbasbasbag57
(g73
g59
NtRp1250
(dp1251
g62
(dp1252
sg71
g1046
sg64
(lp1253
g57
(g78
g59
NtRp1254
(dp1255
g62
(dp1256
g82
g83
ssg71
g1250
sg64
(lp1257
S'http_accept_encoding'
p1258
asbag57
(g78
g59
NtRp1259
(dp1260
g62
(dp1261
g89
g90
ssg71
g1250
sg64
(lp1262
S':'
asbag57
(g78
g59
NtRp1263
(dp1264
g62
(dp1265
sg71
g1250
sg64
(lp1266
g57
(g58
g59
NtRp1267
(dp1268
g62
(dp1269
g70
I4
ssg71
g1263
sg64
(lp1270
S'gzip,deflate,sdch'
p1271
asbasbasbag57
(g73
g59
NtRp1272
(dp1273
g62
(dp1274
sg71
g1046
sg64
(lp1275
g57
(g78
g59
NtRp1276
(dp1277
g62
(dp1278
g82
g83
ssg71
g1272
sg64
(lp1279
S'http_accept_language'
p1280
asbag57
(g78
g59
NtRp1281
(dp1282
g62
(dp1283
g89
g90
ssg71
g1272
sg64
(lp1284
S':'
asbag57
(g78
g59
NtRp1285
(dp1286
g62
(dp1287
sg71
g1272
sg64
(lp1288
g57
(g58
g59
NtRp1289
(dp1290
g62
(dp1291
g70
I4
ssg71
g1285
sg64
(lp1292
S'pt-BR,pt;q=0.8,en-US;q=0.6,en;q=0.4'
p1293
asbasbasbag57
(g73
g59
NtRp1294
(dp1295
g62
(dp1296
sg71
g1046
sg64
(lp1297
g57
(g78
g59
NtRp1298
(dp1299
g62
(dp1300
g82
g83
ssg71
g1294
sg64
(lp1301
S'http_connection'
p1302
asbag57
(g78
g59
NtRp1303
(dp1304
g62
(dp1305
g89
g90
ssg71
g1294
sg64
(lp1306
S':'
asbag57
(g78
g59
NtRp1307
(dp1308
g62
(dp1309
sg71
g1294
sg64
(lp1310
g57
(g58
g59
NtRp1311
(dp1312
g62
(dp1313
g70
I4
ssg71
g1307
sg64
(lp1314
S'keep-alive'
p1315
asbasbasbag57
(g73
g59
NtRp1316
(dp1317
g62
(dp1318
sg71
g1046
sg64
(lp1319
g57
(g78
g59
NtRp1320
(dp1321
g62
(dp1322
g82
g83
ssg71
g1316
sg64
(lp1323
S'http_cookie'
p1324
asbag57
(g78
g59
NtRp1325
(dp1326
g62
(dp1327
g89
g90
ssg71
g1316
sg64
(lp1328
S':'
asbag57
(g78
g59
NtRp1329
(dp1330
g62
(dp1331
sg71
g1316
sg64
(lp1332
g57
(g58
g59
NtRp1333
(dp1334
g62
(dp1335
g70
I4
ssg71
g1329
sg64
(lp1336
S'session_id_teste=127.0.0.1-cafc6eb2-19ca-490a-8200-3018c9d82dee; session_id_welcome=127.0.0.1-08bf4a16-b0ca-4b00-9c18-ae757eec14f4; session_id_admin=127.0.0.1-970aa82f-cabd-42ac-b214-88c3da3aaada; session_id_projeto=127.0.0.1-b705e3e5-709a-4648-bd75-671bbf3eb083'
p1337
asbasbasbag57
(g73
g59
NtRp1338
(dp1339
g62
(dp1340
sg71
g1046
sg64
(lp1341
g57
(g78
g59
NtRp1342
(dp1343
g62
(dp1344
g82
g83
ssg71
g1338
sg64
(lp1345
S'http_host'
p1346
asbag57
(g78
g59
NtRp1347
(dp1348
g62
(dp1349
g89
g90
ssg71
g1338
sg64
(lp1350
S':'
asbag57
(g78
g59
NtRp1351
(dp1352
g62
(dp1353
sg71
g1338
sg64
(lp1354
g57
(g58
g59
NtRp1355
(dp1356
g62
(dp1357
g70
I4
ssg71
g1351
sg64
(lp1358
S'127.0.0.1:8000'
p1359
asbasbasbag57
(g73
g59
NtRp1360
(dp1361
g62
(dp1362
sg71
g1046
sg64
(lp1363
g57
(g78
g59
NtRp1364
(dp1365
g62
(dp1366
g82
g83
ssg71
g1360
sg64
(lp1367
S'http_referer'
p1368
asbag57
(g78
g59
NtRp1369
(dp1370
g62
(dp1371
g89
g90
ssg71
g1360
sg64
(lp1372
S':'
asbag57
(g78
g59
NtRp1373
(dp1374
g62
(dp1375
sg71
g1360
sg64
(lp1376
g57
(g58
g59
NtRp1377
(dp1378
g62
(dp1379
g70
I4
ssg71
g1373
sg64
(lp1380
S'http://127.0.0.1:8000/'
p1381
asbasbasbag57
(g73
g59
NtRp1382
(dp1383
g62
(dp1384
sg71
g1046
sg64
(lp1385
g57
(g78
g59
NtRp1386
(dp1387
g62
(dp1388
g82
g83
ssg71
g1382
sg64
(lp1389
S'http_user_agent'
p1390
asbag57
(g78
g59
NtRp1391
(dp1392
g62
(dp1393
g89
g90
ssg71
g1382
sg64
(lp1394
S':'
asbag57
(g78
g59
NtRp1395
(dp1396
g62
(dp1397
sg71
g1382
sg64
(lp1398
g57
(g58
g59
NtRp1399
(dp1400
g62
(dp1401
g70
I4
ssg71
g1395
sg64
(lp1402
S'Mozilla/5.0 (X11; Linux x86_64) AppleWebKit/536.11 (KHTML, like Gecko) Ubuntu/12.04 Chromium/20.0.1132.47 Chrome/20.0.1132.47 Safari/536.11'
p1403
asbasbasbag57
(g73
g59
NtRp1404
(dp1405
g62
(dp1406
sg71
g1046
sg64
(lp1407
g57
(g78
g59
NtRp1408
(dp1409
g62
(dp1410
g82
g83
ssg71
g1404
sg64
(lp1411
S'is_jython'
p1412
asbag57
(g78
g59
NtRp1413
(dp1414
g62
(dp1415
g89
g90
ssg71
g1404
sg64
(lp1416
S':'
asbag57
(g78
g59
NtRp1417
(dp1418
g62
(dp1419
sg71
g1404
sg64
(lp1420
g57
(g58
g59
NtRp1421
(dp1422
g62
(dp1423
g70
I4
ssg71
g1417
sg64
(lp1424
g100
asbasbasbag57
(g73
g59
NtRp1425
(dp1426
g62
(dp1427
sg71
g1046
sg64
(lp1428
g57
(g78
g59
NtRp1429
(dp1430
g62
(dp1431
g82
g83
ssg71
g1425
sg64
(lp1432
S'is_pypy'
p1433
asbag57
(g78
g59
NtRp1434
(dp1435
g62
(dp1436
g89
g90
ssg71
g1425
sg64
(lp1437
S':'
asbag57
(g78
g59
NtRp1438
(dp1439
g62
(dp1440
sg71
g1425
sg64
(lp1441
g57
(g58
g59
NtRp1442
(dp1443
g62
(dp1444
g70
I4
ssg71
g1438
sg64
(lp1445
g100
asbasbasbag57
(g73
g59
NtRp1446
(dp1447
g62
(dp1448
sg71
g1046
sg64
(lp1449
g57
(g78
g59
NtRp1450
(dp1451
g62
(dp1452
g82
g83
ssg71
g1446
sg64
(lp1453
S'local_hosts'
p1454
asbag57
(g78
g59
NtRp1455
(dp1456
g62
(dp1457
g89
g90
ssg71
g1446
sg64
(lp1458
S':'
asbag57
(g78
g59
NtRp1459
(dp1460
g62
(dp1461
sg71
g1446
sg64
(lp1462
g57
(g58
g59
NtRp1463
(dp1464
g62
(dp1465
g70
I4
ssg71
g1459
sg64
(lp1466
g57
(g66
g59
NtRp1467
(dp1468
g62
(dp1469
g70
I3
ssg71
Nsg64
(lp1470
g57
(g73
g59
NtRp1471
(dp1472
g62
(dp1473
sg71
g1467
sg64
(lp1474
g57
(g78
g59
NtRp1475
(dp1476
g62
(dp1477
sg71
g1471
sg64
(lp1478
g57
(g58
g59
NtRp1479
(dp1480
g62
(dp1481
g70
I3
ssg71
g1475
sg64
(lp1482
S'::1'
p1483
asbasbasbag57
(g73
g59
NtRp1484
(dp1485
g62
(dp1486
sg71
g1467
sg64
(lp1487
g57
(g78
g59
NtRp1488
(dp1489
g62
(dp1490
sg71
g1484
sg64
(lp1491
g57
(g58
g59
NtRp1492
(dp1493
g62
(dp1494
g70
I3
ssg71
g1488
sg64
(lp1495
S'127.0.1.1'
p1496
asbasbasbag57
(g73
g59
NtRp1497
(dp1498
g62
(dp1499
sg71
g1467
sg64
(lp1500
g57
(g78
g59
NtRp1501
(dp1502
g62
(dp1503
sg71
g1497
sg64
(lp1504
g57
(g58
g59
NtRp1505
(dp1506
g62
(dp1507
g70
I3
ssg71
g1501
sg64
(lp1508
S'fernando-pc'
p1509
asbasbasbag57
(g73
g59
NtRp1510
(dp1511
g62
(dp1512
sg71
g1467
sg64
(lp1513
g57
(g78
g59
NtRp1514
(dp1515
g62
(dp1516
sg71
g1510
sg64
(lp1517
g57
(g58
g59
NtRp1518
(dp1519
g62
(dp1520
g70
I3
ssg71
g1514
sg64
(lp1521
S'::ffff:127.0.0.1'
p1522
asbasbasbag57
(g73
g59
NtRp1523
(dp1524
g62
(dp1525
sg71
g1467
sg64
(lp1526
g57
(g78
g59
NtRp1527
(dp1528
g62
(dp1529
sg71
g1523
sg64
(lp1530
g57
(g58
g59
NtRp1531
(dp1532
g62
(dp1533
g70
I3
ssg71
g1527
sg64
(lp1534
S'127.0.0.1'
p1535
asbasbasbasbasbasbasbag57
(g73
g59
NtRp1536
(dp1537
g62
(dp1538
sg71
g1046
sg64
(lp1539
g57
(g78
g59
NtRp1540
(dp1541
g62
(dp1542
g82
g83
ssg71
g1536
sg64
(lp1543
S'path_info'
p1544
asbag57
(g78
g59
NtRp1545
(dp1546
g62
(dp1547
g89
g90
ssg71
g1536
sg64
(lp1548
S':'
asbag57
(g78
g59
NtRp1549
(dp1550
g62
(dp1551
sg71
g1536
sg64
(lp1552
g57
(g58
g59
NtRp1553
(dp1554
g62
(dp1555
g70
I4
ssg71
g1549
sg64
(lp1556
S'/user/register'
p1557
asbasbasbag57
(g73
g59
NtRp1558
(dp1559
g62
(dp1560
sg71
g1046
sg64
(lp1561
g57
(g78
g59
NtRp1562
(dp1563
g62
(dp1564
g82
g83
ssg71
g1558
sg64
(lp1565
S'query_string'
p1566
asbag57
(g78
g59
NtRp1567
(dp1568
g62
(dp1569
g89
g90
ssg71
g1558
sg64
(lp1570
S':'
asbag57
(g78
g59
NtRp1571
(dp1572
g62
(dp1573
sg71
g1558
sg64
(lp1574
g57
(g58
g59
NtRp1575
(dp1576
g62
(dp1577
g70
I4
ssg71
g1571
sg64
(lp1578
S'_next=/initial'
p1579
asbasbasbag57
(g73
g59
NtRp1580
(dp1581
g62
(dp1582
sg71
g1046
sg64
(lp1583
g57
(g78
g59
NtRp1584
(dp1585
g62
(dp1586
g82
g83
ssg71
g1580
sg64
(lp1587
S'remote_addr'
p1588
asbag57
(g78
g59
NtRp1589
(dp1590
g62
(dp1591
g89
g90
ssg71
g1580
sg64
(lp1592
S':'
asbag57
(g78
g59
NtRp1593
(dp1594
g62
(dp1595
sg71
g1580
sg64
(lp1596
g57
(g58
g59
NtRp1597
(dp1598
g62
(dp1599
g70
I4
ssg71
g1593
sg64
(lp1600
g225
asbasbasbag57
(g73
g59
NtRp1601
(dp1602
g62
(dp1603
sg71
g1046
sg64
(lp1604
g57
(g78
g59
NtRp1605
(dp1606
g62
(dp1607
g82
g83
ssg71
g1601
sg64
(lp1608
S'remote_port'
p1609
asbag57
(g78
g59
NtRp1610
(dp1611
g62
(dp1612
g89
g90
ssg71
g1601
sg64
(lp1613
S':'
asbag57
(g78
g59
NtRp1614
(dp1615
g62
(dp1616
sg71
g1601
sg64
(lp1617
g57
(g58
g59
NtRp1618
(dp1619
g62
(dp1620
g70
I4
ssg71
g1614
sg64
(lp1621
S'51798'
p1622
asbasbasbag57
(g73
g59
NtRp1623
(dp1624
g62
(dp1625
sg71
g1046
sg64
(lp1626
g57
(g78
g59
NtRp1627
(dp1628
g62
(dp1629
g82
g83
ssg71
g1623
sg64
(lp1630
S'request_method'
p1631
asbag57
(g78
g59
NtRp1632
(dp1633
g62
(dp1634
g89
g90
ssg71
g1623
sg64
(lp1635
S':'
asbag57
(g78
g59
NtRp1636
(dp1637
g62
(dp1638
sg71
g1623
sg64
(lp1639
g57
(g58
g59
NtRp1640
(dp1641
g62
(dp1642
g70
I4
ssg71
g1636
sg64
(lp1643
S'GET'
p1644
asbasbasbag57
(g73
g59
NtRp1645
(dp1646
g62
(dp1647
sg71
g1046
sg64
(lp1648
g57
(g78
g59
NtRp1649
(dp1650
g62
(dp1651
g82
g83
ssg71
g1645
sg64
(lp1652
S'request_uri'
p1653
asbag57
(g78
g59
NtRp1654
(dp1655
g62
(dp1656
g89
g90
ssg71
g1645
sg64
(lp1657
S':'
asbag57
(g78
g59
NtRp1658
(dp1659
g62
(dp1660
sg71
g1645
sg64
(lp1661
g57
(g58
g59
NtRp1662
(dp1663
g62
(dp1664
g70
I4
ssg71
g1658
sg64
(lp1665
S'/projeto/initial/user/register?_next=/initial'
p1666
asbasbasbag57
(g73
g59
NtRp1667
(dp1668
g62
(dp1669
sg71
g1046
sg64
(lp1670
g57
(g78
g59
NtRp1671
(dp1672
g62
(dp1673
g82
g83
ssg71
g1667
sg64
(lp1674
S'script_name'
p1675
asbag57
(g78
g59
NtRp1676
(dp1677
g62
(dp1678
g89
g90
ssg71
g1667
sg64
(lp1679
S':'
asbag57
(g78
g59
NtRp1680
(dp1681
g62
(dp1682
sg71
g1667
sg64
(lp1683
g57
(g58
g59
NtRp1684
(dp1685
g62
(dp1686
g70
I4
ssg71
g1680
sg64
(lp1687
S''
asbasbasbag57
(g73
g59
NtRp1688
(dp1689
g62
(dp1690
sg71
g1046
sg64
(lp1691
g57
(g78
g59
NtRp1692
(dp1693
g62
(dp1694
g82
g83
ssg71
g1688
sg64
(lp1695
S'server_name'
p1696
asbag57
(g78
g59
NtRp1697
(dp1698
g62
(dp1699
g89
g90
ssg71
g1688
sg64
(lp1700
S':'
asbag57
(g78
g59
NtRp1701
(dp1702
g62
(dp1703
sg71
g1688
sg64
(lp1704
g57
(g58
g59
NtRp1705
(dp1706
g62
(dp1707
g70
I4
ssg71
g1701
sg64
(lp1708
S'fernando-pc'
p1709
asbasbasbag57
(g73
g59
NtRp1710
(dp1711
g62
(dp1712
sg71
g1046
sg64
(lp1713
g57
(g78
g59
NtRp1714
(dp1715
g62
(dp1716
g82
g83
ssg71
g1710
sg64
(lp1717
S'server_port'
p1718
asbag57
(g78
g59
NtRp1719
(dp1720
g62
(dp1721
g89
g90
ssg71
g1710
sg64
(lp1722
S':'
asbag57
(g78
g59
NtRp1723
(dp1724
g62
(dp1725
sg71
g1710
sg64
(lp1726
g57
(g58
g59
NtRp1727
(dp1728
g62
(dp1729
g70
I4
ssg71
g1723
sg64
(lp1730
S'8000'
p1731
asbasbasbag57
(g73
g59
NtRp1732
(dp1733
g62
(dp1734
sg71
g1046
sg64
(lp1735
g57
(g78
g59
NtRp1736
(dp1737
g62
(dp1738
g82
g83
ssg71
g1732
sg64
(lp1739
S'server_protocol'
p1740
asbag57
(g78
g59
NtRp1741
(dp1742
g62
(dp1743
g89
g90
ssg71
g1732
sg64
(lp1744
S':'
asbag57
(g78
g59
NtRp1745
(dp1746
g62
(dp1747
sg71
g1732
sg64
(lp1748
g57
(g58
g59
NtRp1749
(dp1750
g62
(dp1751
g70
I4
ssg71
g1745
sg64
(lp1752
S'HTTP/1.1'
p1753
asbasbasbag57
(g73
g59
NtRp1754
(dp1755
g62
(dp1756
sg71
g1046
sg64
(lp1757
g57
(g78
g59
NtRp1758
(dp1759
g62
(dp1760
g82
g83
ssg71
g1754
sg64
(lp1761
S'server_software'
p1762
asbag57
(g78
g59
NtRp1763
(dp1764
g62
(dp1765
g89
g90
ssg71
g1754
sg64
(lp1766
S':'
asbag57
(g78
g59
NtRp1767
(dp1768
g62
(dp1769
sg71
g1754
sg64
(lp1770
g57
(g58
g59
NtRp1771
(dp1772
g62
(dp1773
g70
I4
ssg71
g1767
sg64
(lp1774
S'Rocket 1.2.6'
p1775
asbasbasbag57
(g73
g59
NtRp1776
(dp1777
g62
(dp1778
sg71
g1046
sg64
(lp1779
g57
(g78
g59
NtRp1780
(dp1781
g62
(dp1782
g82
g83
ssg71
g1776
sg64
(lp1783
S'web2py_original_uri'
p1784
asbag57
(g78
g59
NtRp1785
(dp1786
g62
(dp1787
g89
g90
ssg71
g1776
sg64
(lp1788
S':'
asbag57
(g78
g59
NtRp1789
(dp1790
g62
(dp1791
sg71
g1776
sg64
(lp1792
g57
(g58
g59
NtRp1793
(dp1794
g62
(dp1795
g70
I4
ssg71
g1789
sg64
(lp1796
S'/user/register?_next=/initial'
p1797
asbasbasbag57
(g73
g59
NtRp1798
(dp1799
g62
(dp1800
sg71
g1046
sg64
(lp1801
g57
(g78
g59
NtRp1802
(dp1803
g62
(dp1804
g82
g83
ssg71
g1798
sg64
(lp1805
S'web2py_path'
p1806
asbag57
(g78
g59
NtRp1807
(dp1808
g62
(dp1809
g89
g90
ssg71
g1798
sg64
(lp1810
S':'
asbag57
(g78
g59
NtRp1811
(dp1812
g62
(dp1813
sg71
g1798
sg64
(lp1814
g57
(g58
g59
NtRp1815
(dp1816
g62
(dp1817
g70
I4
ssg71
g1811
sg64
(lp1818
g1093
asbasbasbag57
(g73
g59
NtRp1819
(dp1820
g62
(dp1821
sg71
g1046
sg64
(lp1822
g57
(g78
g59
NtRp1823
(dp1824
g62
(dp1825
g82
g83
ssg71
g1819
sg64
(lp1826
S'web2py_version'
p1827
asbag57
(g78
g59
NtRp1828
(dp1829
g62
(dp1830
g89
g90
ssg71
g1819
sg64
(lp1831
S':'
asbag57
(g78
g59
NtRp1832
(dp1833
g62
(dp1834
sg71
g1819
sg64
(lp1835
g57
(g58
g59
NtRp1836
(dp1837
g62
(dp1838
g70
I4
ssg71
g1832
sg64
(lp1839
g57
(g66
g59
NtRp1840
(dp1841
g62
(dp1842
g70
I3
ssg71
Nsg64
(lp1843
g57
(g73
g59
NtRp1844
(dp1845
g62
(dp1846
sg71
g1840
sg64
(lp1847
g57
(g78
g59
NtRp1848
(dp1849
g62
(dp1850
sg71
g1844
sg64
(lp1851
g57
(g58
g59
NtRp1852
(dp1853
g62
(dp1854
g70
I3
ssg71
g1848
sg64
(lp1855
S'2'
asbasbasbag57
(g73
g59
NtRp1856
(dp1857
g62
(dp1858
sg71
g1840
sg64
(lp1859
g57
(g78
g59
NtRp1860
(dp1861
g62
(dp1862
sg71
g1856
sg64
(lp1863
g57
(g58
g59
NtRp1864
(dp1865
g62
(dp1866
g70
I3
ssg71
g1860
sg64
(lp1867
S'3'
asbasbasbag57
(g73
g59
NtRp1868
(dp1869
g62
(dp1870
sg71
g1840
sg64
(lp1871
g57
(g78
g59
NtRp1872
(dp1873
g62
(dp1874
sg71
g1868
sg64
(lp1875
g57
(g58
g59
NtRp1876
(dp1877
g62
(dp1878
g70
I3
ssg71
g1872
sg64
(lp1879
S'2'
asbasbasbag57
(g73
g59
NtRp1880
(dp1881
g62
(dp1882
sg71
g1840
sg64
(lp1883
g57
(g78
g59
NtRp1884
(dp1885
g62
(dp1886
sg71
g1880
sg64
(lp1887
g57
(g58
g59
NtRp1888
(dp1889
g62
(dp1890
g70
I3
ssg71
g1884
sg64
(lp1891
S'datetime.datetime(2012, 12, 17, 15, 3, 30)'
p1892
asbasbasbag57
(g73
g59
NtRp1893
(dp1894
g62
(dp1895
sg71
g1840
sg64
(lp1896
g57
(g78
g59
NtRp1897
(dp1898
g62
(dp1899
sg71
g1893
sg64
(lp1900
g57
(g58
g59
NtRp1901
(dp1902
g62
(dp1903
g70
I3
ssg71
g1897
sg64
(lp1904
S'stable'
p1905
asbasbasbasbasbasbasbag57
(g73
g59
NtRp1906
(dp1907
g62
(dp1908
sg71
g1046
sg64
(lp1909
g57
(g78
g59
NtRp1910
(dp1911
g62
(dp1912
g82
g83
ssg71
g1906
sg64
(lp1913
S'wsgi_errors'
p1914
asbag57
(g78
g59
NtRp1915
(dp1916
g62
(dp1917
g89
g90
ssg71
g1906
sg64
(lp1918
S':'
asbag57
(g78
g59
NtRp1919
(dp1920
g62
(dp1921
sg71
g1906
sg64
(lp1922
g57
(g58
g59
NtRp1923
(dp1924
g62
(dp1925
g70
I4
ssg71
g1919
sg64
(lp1926
S"<open file '<stderr>', mode 'w' at 0x7f678cc58270>"
p1927
asbasbasbag57
(g73
g59
NtRp1928
(dp1929
g62
(dp1930
sg71
g1046
sg64
(lp1931
g57
(g78
g59
NtRp1932
(dp1933
g62
(dp1934
g82
g83
ssg71
g1928
sg64
(lp1935
S'wsgi_file_wrapper'
p1936
asbag57
(g78
g59
NtRp1937
(dp1938
g62
(dp1939
g89
g90
ssg71
g1928
sg64
(lp1940
S':'
asbag57
(g78
g59
NtRp1941
(dp1942
g62
(dp1943
sg71
g1928
sg64
(lp1944
g57
(g58
g59
NtRp1945
(dp1946
g62
(dp1947
g70
I4
ssg71
g1941
sg64
(lp1948
S'<class wsgiref.util.FileWrapper at 0x31637a0>'
p1949
asbasbasbag57
(g73
g59
NtRp1950
(dp1951
g62
(dp1952
sg71
g1046
sg64
(lp1953
g57
(g78
g59
NtRp1954
(dp1955
g62
(dp1956
g82
g83
ssg71
g1950
sg64
(lp1957
S'wsgi_input'
p1958
asbag57
(g78
g59
NtRp1959
(dp1960
g62
(dp1961
g89
g90
ssg71
g1950
sg64
(lp1962
S':'
asbag57
(g78
g59
NtRp1963
(dp1964
g62
(dp1965
sg71
g1950
sg64
(lp1966
g57
(g58
g59
NtRp1967
(dp1968
g62
(dp1969
g70
I4
ssg71
g1963
sg64
(lp1970
S'<socket._fileobject object at 0x7f675c12f7d0>'
p1971
asbasbasbag57
(g73
g59
NtRp1972
(dp1973
g62
(dp1974
sg71
g1046
sg64
(lp1975
g57
(g78
g59
NtRp1976
(dp1977
g62
(dp1978
g82
g83
ssg71
g1972
sg64
(lp1979
S'wsgi_multiprocess'
p1980
asbag57
(g78
g59
NtRp1981
(dp1982
g62
(dp1983
g89
g90
ssg71
g1972
sg64
(lp1984
S':'
asbag57
(g78
g59
NtRp1985
(dp1986
g62
(dp1987
sg71
g1972
sg64
(lp1988
g57
(g58
g59
NtRp1989
(dp1990
g62
(dp1991
g70
I4
ssg71
g1985
sg64
(lp1992
g100
asbasbasbag57
(g73
g59
NtRp1993
(dp1994
g62
(dp1995
sg71
g1046
sg64
(lp1996
g57
(g78
g59
NtRp1997
(dp1998
g62
(dp1999
g82
g83
ssg71
g1993
sg64
(lp2000
S'wsgi_multithread'
p2001
asbag57
(g78
g59
NtRp2002
(dp2003
g62
(dp2004
g89
g90
ssg71
g1993
sg64
(lp2005
S':'
asbag57
(g78
g59
NtRp2006
(dp2007
g62
(dp2008
sg71
g1993
sg64
(lp2009
g57
(g58
g59
NtRp2010
(dp2011
g62
(dp2012
g70
I4
ssg71
g2006
sg64
(lp2013
S'True'
p2014
asbasbasbag57
(g73
g59
NtRp2015
(dp2016
g62
(dp2017
sg71
g1046
sg64
(lp2018
g57
(g78
g59
NtRp2019
(dp2020
g62
(dp2021
g82
g83
ssg71
g2015
sg64
(lp2022
S'wsgi_run_once'
p2023
asbag57
(g78
g59
NtRp2024
(dp2025
g62
(dp2026
g89
g90
ssg71
g2015
sg64
(lp2027
S':'
asbag57
(g78
g59
NtRp2028
(dp2029
g62
(dp2030
sg71
g2015
sg64
(lp2031
g57
(g58
g59
NtRp2032
(dp2033
g62
(dp2034
g70
I4
ssg71
g2028
sg64
(lp2035
g100
asbasbasbag57
(g73
g59
NtRp2036
(dp2037
g62
(dp2038
sg71
g1046
sg64
(lp2039
g57
(g78
g59
NtRp2040
(dp2041
g62
(dp2042
g82
g83
ssg71
g2036
sg64
(lp2043
S'wsgi_url_scheme'
p2044
asbag57
(g78
g59
NtRp2045
(dp2046
g62
(dp2047
g89
g90
ssg71
g2036
sg64
(lp2048
S':'
asbag57
(g78
g59
NtRp2049
(dp2050
g62
(dp2051
sg71
g2036
sg64
(lp2052
g57
(g58
g59
NtRp2053
(dp2054
g62
(dp2055
g70
I4
ssg71
g2049
sg64
(lp2056
S'http'
p2057
asbasbasbag57
(g73
g59
NtRp2058
(dp2059
g62
(dp2060
sg71
g1046
sg64
(lp2061
g57
(g78
g59
NtRp2062
(dp2063
g62
(dp2064
g82
g83
ssg71
g2058
sg64
(lp2065
S'wsgi_version'
p2066
asbag57
(g78
g59
NtRp2067
(dp2068
g62
(dp2069
g89
g90
ssg71
g2058
sg64
(lp2070
S':'
asbag57
(g78
g59
NtRp2071
(dp2072
g62
(dp2073
sg71
g2058
sg64
(lp2074
g57
(g58
g59
NtRp2075
(dp2076
g62
(dp2077
g70
I4
ssg71
g2071
sg64
(lp2078
g57
(g66
g59
NtRp2079
(dp2080
g62
(dp2081
g70
I3
ssg71
Nsg64
(lp2082
g57
(g73
g59
NtRp2083
(dp2084
g62
(dp2085
sg71
g2079
sg64
(lp2086
g57
(g78
g59
NtRp2087
(dp2088
g62
(dp2089
sg71
g2083
sg64
(lp2090
g57
(g58
g59
NtRp2091
(dp2092
g62
(dp2093
g70
I3
ssg71
g2087
sg64
(lp2094
S'1'
asbasbasbag57
(g73
g59
NtRp2095
(dp2096
g62
(dp2097
sg71
g2079
sg64
(lp2098
g57
(g78
g59
NtRp2099
(dp2100
g62
(dp2101
sg71
g2095
sg64
(lp2102
g57
(g58
g59
NtRp2103
(dp2104
g62
(dp2105
g70
I3
ssg71
g2099
sg64
(lp2106
S'0'
asbasbasbasbasbasbasbasbasbasbasbag57
(g73
g59
NtRp2107
(dp2108
g62
(dp2109
sg71
g67
sg64
(lp2110
g57
(g78
g59
NtRp2111
(dp2112
g62
(dp2113
g82
g83
ssg71
g2107
sg64
(lp2114
S'extension'
p2115
asbag57
(g78
g59
NtRp2116
(dp2117
g62
(dp2118
g89
g90
ssg71
g2107
sg64
(lp2119
S':'
asbag57
(g78
g59
NtRp2120
(dp2121
g62
(dp2122
sg71
g2107
sg64
(lp2123
g57
(g58
g59
NtRp2124
(dp2125
g62
(dp2126
g70
I5
ssg71
g2120
sg64
(lp2127
S'html'
p2128
asbasbasbag57
(g73
g59
NtRp2129
(dp2130
g62
(dp2131
sg71
g67
sg64
(lp2132
g57
(g78
g59
NtRp2133
(dp2134
g62
(dp2135
g82
g83
ssg71
g2129
sg64
(lp2136
S'folder'
p2137
asbag57
(g78
g59
NtRp2138
(dp2139
g62
(dp2140
g89
g90
ssg71
g2129
sg64
(lp2141
S':'
asbag57
(g78
g59
NtRp2142
(dp2143
g62
(dp2144
sg71
g2129
sg64
(lp2145
g57
(g58
g59
NtRp2146
(dp2147
g62
(dp2148
g70
I5
ssg71
g2142
sg64
(lp2149
S'/var/www/web2py_curso/applications/projeto/'
p2150
asbasbasbag57
(g73
g59
NtRp2151
(dp2152
g62
(dp2153
sg71
g67
sg64
(lp2154
g57
(g78
g59
NtRp2155
(dp2156
g62
(dp2157
g82
g83
ssg71
g2151
sg64
(lp2158
S'function'
p2159
asbag57
(g78
g59
NtRp2160
(dp2161
g62
(dp2162
g89
g90
ssg71
g2151
sg64
(lp2163
S':'
asbag57
(g78
g59
NtRp2164
(dp2165
g62
(dp2166
sg71
g2151
sg64
(lp2167
g57
(g58
g59
NtRp2168
(dp2169
g62
(dp2170
g70
I5
ssg71
g2164
sg64
(lp2171
S'user'
p2172
asbasbasbag57
(g73
g59
NtRp2173
(dp2174
g62
(dp2175
sg71
g67
sg64
(lp2176
g57
(g78
g59
NtRp2177
(dp2178
g62
(dp2179
g82
g83
ssg71
g2173
sg64
(lp2180
S'get_vars'
p2181
asbag57
(g78
g59
NtRp2182
(dp2183
g62
(dp2184
g89
g90
ssg71
g2173
sg64
(lp2185
S':'
asbag57
(g78
g59
NtRp2186
(dp2187
g62
(dp2188
sg71
g2173
sg64
(lp2189
g57
(g58
g59
NtRp2190
(dp2191
g62
(dp2192
g70
I5
ssg71
g2186
sg64
(lp2193
g57
(g66
g59
NtRp2194
(dp2195
g62
(dp2196
g70
I4
ssg71
Nsg64
(lp2197
sbasbasbasbag57
(g73
g59
NtRp2198
(dp2199
g62
(dp2200
sg71
g67
sg64
(lp2201
g57
(g78
g59
NtRp2202
(dp2203
g62
(dp2204
g82
g83
ssg71
g2198
sg64
(lp2205
S'global_settings'
p2206
asbag57
(g78
g59
NtRp2207
(dp2208
g62
(dp2209
g89
g90
ssg71
g2198
sg64
(lp2210
S':'
asbag57
(g78
g59
NtRp2211
(dp2212
g62
(dp2213
sg71
g2198
sg64
(lp2214
g57
(g58
g59
NtRp2215
(dp2216
g62
(dp2217
g70
I5
ssg71
g2211
sg64
(lp2218
g57
(g66
g59
NtRp2219
(dp2220
g62
(dp2221
g70
I4
ssg71
Nsg64
(lp2222
g57
(g73
g59
NtRp2223
(dp2224
g62
(dp2225
sg71
g2219
sg64
(lp2226
g57
(g78
g59
NtRp2227
(dp2228
g62
(dp2229
g82
g83
ssg71
g2223
sg64
(lp2230
g1058
asbag57
(g78
g59
NtRp2231
(dp2232
g62
(dp2233
g89
g90
ssg71
g2223
sg64
(lp2234
S':'
asbag57
(g78
g59
NtRp2235
(dp2236
g62
(dp2237
sg71
g2223
sg64
(lp2238
g57
(g58
g59
NtRp2239
(dp2240
g62
(dp2241
g70
I4
ssg71
g2235
sg64
(lp2242
S"set(['/var/www/web2py_curso/applications/admin/', '/var/www/web2py_curso/applications/projeto/'])"
p2243
asbasbasbag57
(g73
g59
NtRp2244
(dp2245
g62
(dp2246
sg71
g2219
sg64
(lp2247
g57
(g78
g59
NtRp2248
(dp2249
g62
(dp2250
g82
g83
ssg71
g2244
sg64
(lp2251
g1080
asbag57
(g78
g59
NtRp2252
(dp2253
g62
(dp2254
g89
g90
ssg71
g2244
sg64
(lp2255
S':'
asbag57
(g78
g59
NtRp2256
(dp2257
g62
(dp2258
sg71
g2244
sg64
(lp2259
g57
(g58
g59
NtRp2260
(dp2261
g62
(dp2262
g70
I4
ssg71
g2256
sg64
(lp2263
g1093
asbasbasbag57
(g73
g59
NtRp2264
(dp2265
g62
(dp2266
sg71
g2219
sg64
(lp2267
g57
(g78
g59
NtRp2268
(dp2269
g62
(dp2270
g82
g83
ssg71
g2264
sg64
(lp2271
g1102
asbag57
(g78
g59
NtRp2272
(dp2273
g62
(dp2274
g89
g90
ssg71
g2264
sg64
(lp2275
S':'
asbag57
(g78
g59
NtRp2276
(dp2277
g62
(dp2278
sg71
g2264
sg64
(lp2279
g57
(g58
g59
NtRp2280
(dp2281
g62
(dp2282
g70
I4
ssg71
g2276
sg64
(lp2283
g57
(g66
g59
NtRp2284
(dp2285
g62
(dp2286
g70
I3
ssg71
Nsg64
(lp2287
sbasbasbasbag57
(g73
g59
NtRp2288
(dp2289
g62
(dp2290
sg71
g2219
sg64
(lp2291
g57
(g78
g59
NtRp2292
(dp2293
g62
(dp2294
g82
g83
ssg71
g2288
sg64
(lp2295
g1127
asbag57
(g78
g59
NtRp2296
(dp2297
g62
(dp2298
g89
g90
ssg71
g2288
sg64
(lp2299
S':'
asbag57
(g78
g59
NtRp2300
(dp2301
g62
(dp2302
sg71
g2288
sg64
(lp2303
g57
(g58
g59
NtRp2304
(dp2305
g62
(dp2306
g70
I4
ssg71
g2300
sg64
(lp2307
S"<Values at 0x3216a28: {'verbose': False, 'ip': '127.0.0.1', 'with_scheduler': False, 'ips': [], 'shutdown_timeout': 5, 'taskbar': False, 'port': 8000, 'maxthreads': None, 'softcron': False, 'server_name': 'fernando-pc', 'bpython': False, 'nogui': False, 'pid_filename': 'httpserver.pid', 'extcron': False, 'runcron': False, 'run_system_tests': False, 'test': None, 'folder': '/var/www/web2py_curso', 'config': '', 'minthreads': None, 'winservice': '', 'shell': None, 'run': '', 'log_filename': 'httpserver.log', 'debuglevel': 30, 'args': [''], 'socket_timeout': 5, 'ssl_ca_certificate': None, 'scheduler': None, 'profiler_filename': None, 'ssl_private_key': '', 'scheduler_groups': None, 'password': '123456', 'request_queue_size': 5, 'ssl_certificate': '', 'cronjob': False, 'numthreads': None, 'quiet': False, 'interfaces': None, 'import_models': False, 'timeout': 10, 'plain': False, 'nobanner': False}>"
p2308
asbasbasbag57
(g73
g59
NtRp2309
(dp2310
g62
(dp2311
sg71
g2219
sg64
(lp2312
g57
(g78
g59
NtRp2313
(dp2314
g62
(dp2315
g82
g83
ssg71
g2309
sg64
(lp2316
g1149
asbag57
(g78
g59
NtRp2317
(dp2318
g62
(dp2319
g89
g90
ssg71
g2309
sg64
(lp2320
S':'
asbag57
(g78
g59
NtRp2321
(dp2322
g62
(dp2323
sg71
g2309
sg64
(lp2324
g57
(g58
g59
NtRp2325
(dp2326
g62
(dp2327
g70
I4
ssg71
g2321
sg64
(lp2328
S'set([])'
p2329
asbasbasbag57
(g73
g59
NtRp2330
(dp2331
g62
(dp2332
sg71
g2219
sg64
(lp2333
g57
(g78
g59
NtRp2334
(dp2335
g62
(dp2336
g82
g83
ssg71
g2330
sg64
(lp2337
g1171
asbag57
(g78
g59
NtRp2338
(dp2339
g62
(dp2340
g89
g90
ssg71
g2330
sg64
(lp2341
S':'
asbag57
(g78
g59
NtRp2342
(dp2343
g62
(dp2344
sg71
g2330
sg64
(lp2345
g57
(g58
g59
NtRp2346
(dp2347
g62
(dp2348
g70
I4
ssg71
g2342
sg64
(lp2349
g100
asbasbasbag57
(g73
g59
NtRp2350
(dp2351
g62
(dp2352
sg71
g2219
sg64
(lp2353
g57
(g78
g59
NtRp2354
(dp2355
g62
(dp2356
g82
g83
ssg71
g2350
sg64
(lp2357
g1192
asbag57
(g78
g59
NtRp2358
(dp2359
g62
(dp2360
g89
g90
ssg71
g2350
sg64
(lp2361
S':'
asbag57
(g78
g59
NtRp2362
(dp2363
g62
(dp2364
sg71
g2350
sg64
(lp2365
g57
(g58
g59
NtRp2366
(dp2367
g62
(dp2368
g70
I4
ssg71
g2362
sg64
(lp2369
g1205
asbasbasbag57
(g73
g59
NtRp2370
(dp2371
g62
(dp2372
sg71
g2219
sg64
(lp2373
g57
(g78
g59
NtRp2374
(dp2375
g62
(dp2376
g82
g83
ssg71
g2370
sg64
(lp2377
g1412
asbag57
(g78
g59
NtRp2378
(dp2379
g62
(dp2380
g89
g90
ssg71
g2370
sg64
(lp2381
S':'
asbag57
(g78
g59
NtRp2382
(dp2383
g62
(dp2384
sg71
g2370
sg64
(lp2385
g57
(g58
g59
NtRp2386
(dp2387
g62
(dp2388
g70
I4
ssg71
g2382
sg64
(lp2389
g100
asbasbasbag57
(g73
g59
NtRp2390
(dp2391
g62
(dp2392
sg71
g2219
sg64
(lp2393
g57
(g78
g59
NtRp2394
(dp2395
g62
(dp2396
g82
g83
ssg71
g2390
sg64
(lp2397
g1433
asbag57
(g78
g59
NtRp2398
(dp2399
g62
(dp2400
g89
g90
ssg71
g2390
sg64
(lp2401
S':'
asbag57
(g78
g59
NtRp2402
(dp2403
g62
(dp2404
sg71
g2390
sg64
(lp2405
g57
(g58
g59
NtRp2406
(dp2407
g62
(dp2408
g70
I4
ssg71
g2402
sg64
(lp2409
g100
asbasbasbag57
(g73
g59
NtRp2410
(dp2411
g62
(dp2412
sg71
g2219
sg64
(lp2413
g57
(g78
g59
NtRp2414
(dp2415
g62
(dp2416
g82
g83
ssg71
g2410
sg64
(lp2417
g1454
asbag57
(g78
g59
NtRp2418
(dp2419
g62
(dp2420
g89
g90
ssg71
g2410
sg64
(lp2421
S':'
asbag57
(g78
g59
NtRp2422
(dp2423
g62
(dp2424
sg71
g2410
sg64
(lp2425
g57
(g58
g59
NtRp2426
(dp2427
g62
(dp2428
g70
I4
ssg71
g2422
sg64
(lp2429
g57
(g66
g59
NtRp2430
(dp2431
g62
(dp2432
g70
I3
ssg71
Nsg64
(lp2433
g57
(g73
g59
NtRp2434
(dp2435
g62
(dp2436
sg71
g2430
sg64
(lp2437
g57
(g78
g59
NtRp2438
(dp2439
g62
(dp2440
sg71
g2434
sg64
(lp2441
g57
(g58
g59
NtRp2442
(dp2443
g62
(dp2444
g70
I3
ssg71
g2438
sg64
(lp2445
g1483
asbasbasbag57
(g73
g59
NtRp2446
(dp2447
g62
(dp2448
sg71
g2430
sg64
(lp2449
g57
(g78
g59
NtRp2450
(dp2451
g62
(dp2452
sg71
g2446
sg64
(lp2453
g57
(g58
g59
NtRp2454
(dp2455
g62
(dp2456
g70
I3
ssg71
g2450
sg64
(lp2457
g1496
asbasbasbag57
(g73
g59
NtRp2458
(dp2459
g62
(dp2460
sg71
g2430
sg64
(lp2461
g57
(g78
g59
NtRp2462
(dp2463
g62
(dp2464
sg71
g2458
sg64
(lp2465
g57
(g58
g59
NtRp2466
(dp2467
g62
(dp2468
g70
I3
ssg71
g2462
sg64
(lp2469
g1509
asbasbasbag57
(g73
g59
NtRp2470
(dp2471
g62
(dp2472
sg71
g2430
sg64
(lp2473
g57
(g78
g59
NtRp2474
(dp2475
g62
(dp2476
sg71
g2470
sg64
(lp2477
g57
(g58
g59
NtRp2478
(dp2479
g62
(dp2480
g70
I3
ssg71
g2474
sg64
(lp2481
g1522
asbasbasbag57
(g73
g59
NtRp2482
(dp2483
g62
(dp2484
sg71
g2430
sg64
(lp2485
g57
(g78
g59
NtRp2486
(dp2487
g62
(dp2488
sg71
g2482
sg64
(lp2489
g57
(g58
g59
NtRp2490
(dp2491
g62
(dp2492
g70
I3
ssg71
g2486
sg64
(lp2493
g1535
asbasbasbasbasbasbasbag57
(g73
g59
NtRp2494
(dp2495
g62
(dp2496
sg71
g2219
sg64
(lp2497
g57
(g78
g59
NtRp2498
(dp2499
g62
(dp2500
g82
g83
ssg71
g2494
sg64
(lp2501
g1827
asbag57
(g78
g59
NtRp2502
(dp2503
g62
(dp2504
g89
g90
ssg71
g2494
sg64
(lp2505
S':'
asbag57
(g78
g59
NtRp2506
(dp2507
g62
(dp2508
sg71
g2494
sg64
(lp2509
g57
(g58
g59
NtRp2510
(dp2511
g62
(dp2512
g70
I4
ssg71
g2506
sg64
(lp2513
g57
(g66
g59
NtRp2514
(dp2515
g62
(dp2516
g70
I3
ssg71
Nsg64
(lp2517
g57
(g73
g59
NtRp2518
(dp2519
g62
(dp2520
sg71
g2514
sg64
(lp2521
g57
(g78
g59
NtRp2522
(dp2523
g62
(dp2524
sg71
g2518
sg64
(lp2525
g57
(g58
g59
NtRp2526
(dp2527
g62
(dp2528
g70
I3
ssg71
g2522
sg64
(lp2529
S'2'
asbasbasbag57
(g73
g59
NtRp2530
(dp2531
g62
(dp2532
sg71
g2514
sg64
(lp2533
g57
(g78
g59
NtRp2534
(dp2535
g62
(dp2536
sg71
g2530
sg64
(lp2537
g57
(g58
g59
NtRp2538
(dp2539
g62
(dp2540
g70
I3
ssg71
g2534
sg64
(lp2541
S'3'
asbasbasbag57
(g73
g59
NtRp2542
(dp2543
g62
(dp2544
sg71
g2514
sg64
(lp2545
g57
(g78
g59
NtRp2546
(dp2547
g62
(dp2548
sg71
g2542
sg64
(lp2549
g57
(g58
g59
NtRp2550
(dp2551
g62
(dp2552
g70
I3
ssg71
g2546
sg64
(lp2553
S'2'
asbasbasbag57
(g73
g59
NtRp2554
(dp2555
g62
(dp2556
sg71
g2514
sg64
(lp2557
g57
(g78
g59
NtRp2558
(dp2559
g62
(dp2560
sg71
g2554
sg64
(lp2561
g57
(g58
g59
NtRp2562
(dp2563
g62
(dp2564
g70
I3
ssg71
g2558
sg64
(lp2565
S'datetime.datetime(2012, 12, 17, 15, 3, 30)'
p2566
asbasbasbag57
(g73
g59
NtRp2567
(dp2568
g62
(dp2569
sg71
g2514
sg64
(lp2570
g57
(g78
g59
NtRp2571
(dp2572
g62
(dp2573
sg71
g2567
sg64
(lp2574
g57
(g58
g59
NtRp2575
(dp2576
g62
(dp2577
g70
I3
ssg71
g2571
sg64
(lp2578
g1905
asbasbasbasbasbasbasbasbasbasbasbag57
(g73
g59
NtRp2579
(dp2580
g62
(dp2581
sg71
g67
sg64
(lp2582
g57
(g78
g59
NtRp2583
(dp2584
g62
(dp2585
g82
g83
ssg71
g2579
sg64
(lp2586
S'is_https'
p2587
asbag57
(g78
g59
NtRp2588
(dp2589
g62
(dp2590
g89
g90
ssg71
g2579
sg64
(lp2591
S':'
asbag57
(g78
g59
NtRp2592
(dp2593
g62
(dp2594
sg71
g2579
sg64
(lp2595
g57
(g58
g59
NtRp2596
(dp2597
g62
(dp2598
g70
I5
ssg71
g2592
sg64
(lp2599
g100
asbasbasbag57
(g73
g59
NtRp2600
(dp2601
g62
(dp2602
sg71
g67
sg64
(lp2603
g57
(g78
g59
NtRp2604
(dp2605
g62
(dp2606
g82
g83
ssg71
g2600
sg64
(lp2607
S'is_local'
p2608
asbag57
(g78
g59
NtRp2609
(dp2610
g62
(dp2611
g89
g90
ssg71
g2600
sg64
(lp2612
S':'
asbag57
(g78
g59
NtRp2613
(dp2614
g62
(dp2615
sg71
g2600
sg64
(lp2616
g57
(g58
g59
NtRp2617
(dp2618
g62
(dp2619
g70
I5
ssg71
g2613
sg64
(lp2620
g2014
asbasbasbag57
(g73
g59
NtRp2621
(dp2622
g62
(dp2623
sg71
g67
sg64
(lp2624
g57
(g78
g59
NtRp2625
(dp2626
g62
(dp2627
g82
g83
ssg71
g2621
sg64
(lp2628
S'is_restful'
p2629
asbag57
(g78
g59
NtRp2630
(dp2631
g62
(dp2632
g89
g90
ssg71
g2621
sg64
(lp2633
S':'
asbag57
(g78
g59
NtRp2634
(dp2635
g62
(dp2636
sg71
g2621
sg64
(lp2637
g57
(g58
g59
NtRp2638
(dp2639
g62
(dp2640
g70
I5
ssg71
g2634
sg64
(lp2641
g100
asbasbasbag57
(g73
g59
NtRp2642
(dp2643
g62
(dp2644
sg71
g67
sg64
(lp2645
g57
(g78
g59
NtRp2646
(dp2647
g62
(dp2648
g82
g83
ssg71
g2642
sg64
(lp2649
S'now'
p2650
asbag57
(g78
g59
NtRp2651
(dp2652
g62
(dp2653
g89
g90
ssg71
g2642
sg64
(lp2654
S':'
asbag57
(g78
g59
NtRp2655
(dp2656
g62
(dp2657
sg71
g2642
sg64
(lp2658
g57
(g58
g59
NtRp2659
(dp2660
g62
(dp2661
g70
I5
ssg71
g2655
sg64
(lp2662
S'datetime.datetime(2013, 1, 26, 20, 7, 52, 348504)'
p2663
asbasbasbag57
(g73
g59
NtRp2664
(dp2665
g62
(dp2666
sg71
g67
sg64
(lp2667
g57
(g78
g59
NtRp2668
(dp2669
g62
(dp2670
g82
g83
ssg71
g2664
sg64
(lp2671
S'post_vars'
p2672
asbag57
(g78
g59
NtRp2673
(dp2674
g62
(dp2675
g89
g90
ssg71
g2664
sg64
(lp2676
S':'
asbag57
(g78
g59
NtRp2677
(dp2678
g62
(dp2679
sg71
g2664
sg64
(lp2680
g57
(g58
g59
NtRp2681
(dp2682
g62
(dp2683
g70
I5
ssg71
g2677
sg64
(lp2684
g57
(g66
g59
NtRp2685
(dp2686
g62
(dp2687
g70
I4
ssg71
Nsg64
(lp2688
sbasbasbasbag57
(g73
g59
NtRp2689
(dp2690
g62
(dp2691
sg71
g67
sg64
(lp2692
g57
(g78
g59
NtRp2693
(dp2694
g62
(dp2695
g82
g83
ssg71
g2689
sg64
(lp2696
S'url'
p2697
asbag57
(g78
g59
NtRp2698
(dp2699
g62
(dp2700
g89
g90
ssg71
g2689
sg64
(lp2701
S':'
asbag57
(g78
g59
NtRp2702
(dp2703
g62
(dp2704
sg71
g2689
sg64
(lp2705
g57
(g58
g59
NtRp2706
(dp2707
g62
(dp2708
g70
I5
ssg71
g2702
sg64
(lp2709
g1557
asbasbasbag57
(g73
g59
NtRp2710
(dp2711
g62
(dp2712
sg71
g67
sg64
(lp2713
g57
(g78
g59
NtRp2714
(dp2715
g62
(dp2716
g82
g83
ssg71
g2710
sg64
(lp2717
S'utcnow'
p2718
asbag57
(g78
g59
NtRp2719
(dp2720
g62
(dp2721
g89
g90
ssg71
g2710
sg64
(lp2722
S':'
asbag57
(g78
g59
NtRp2723
(dp2724
g62
(dp2725
sg71
g2710
sg64
(lp2726
g57
(g58
g59
NtRp2727
(dp2728
g62
(dp2729
g70
I5
ssg71
g2723
sg64
(lp2730
S'datetime.datetime(2013, 1, 26, 22, 7, 52, 348525)'
p2731
asbasbasbag57
(g73
g59
NtRp2732
(dp2733
g62
(dp2734
sg71
g67
sg64
(lp2735
g57
(g78
g59
NtRp2736
(dp2737
g62
(dp2738
g82
g83
ssg71
g2732
sg64
(lp2739
S'uuid'
p2740
asbag57
(g78
g59
NtRp2741
(dp2742
g62
(dp2743
g89
g90
ssg71
g2732
sg64
(lp2744
S':'
asbag57
(g78
g59
NtRp2745
(dp2746
g62
(dp2747
sg71
g2732
sg64
(lp2748
g57
(g58
g59
NtRp2749
(dp2750
g62
(dp2751
g70
I5
ssg71
g2745
sg64
(lp2752
S'projeto/127.0.0.1.2013-01-26.20-07-52.cc9b4466-505d-417e-b90c-bd4f2147daff'
p2753
asbasbasbag57
(g73
g59
NtRp2754
(dp2755
g62
(dp2756
sg71
g67
sg64
(lp2757
g57
(g78
g59
NtRp2758
(dp2759
g62
(dp2760
g82
g83
ssg71
g2754
sg64
(lp2761
S'vars'
p2762
asbag57
(g78
g59
NtRp2763
(dp2764
g62
(dp2765
g89
g90
ssg71
g2754
sg64
(lp2766
S':'
asbag57
(g78
g59
NtRp2767
(dp2768
g62
(dp2769
sg71
g2754
sg64
(lp2770
g57
(g58
g59
NtRp2771
(dp2772
g62
(dp2773
g70
I5
ssg71
g2767
sg64
(lp2774
g57
(g66
g59
NtRp2775
(dp2776
g62
(dp2777
g70
I4
ssg71
Nsg64
(lp2778
sbasbasbasbag57
(g73
g59
NtRp2779
(dp2780
g62
(dp2781
sg71
g67
sg64
(lp2782
g57
(g78
g59
NtRp2783
(dp2784
g62
(dp2785
g82
g83
ssg71
g2779
sg64
(lp2786
S'wsgi'
p2787
asbag57
(g78
g59
NtRp2788
(dp2789
g62
(dp2790
g89
g90
ssg71
g2779
sg64
(lp2791
S':'
asbag57
(g78
g59
NtRp2792
(dp2793
g62
(dp2794
sg71
g2779
sg64
(lp2795
g57
(g58
g59
NtRp2796
(dp2797
g62
(dp2798
g70
I5
ssg71
g2792
sg64
(lp2799
g57
(g66
g59
NtRp2800
(dp2801
g62
(dp2802
g70
I4
ssg71
Nsg64
(lp2803
g57
(g73
g59
NtRp2804
(dp2805
g62
(dp2806
sg71
g2800
sg64
(lp2807
g57
(g78
g59
NtRp2808
(dp2809
g62
(dp2810
g82
g83
ssg71
g2804
sg64
(lp2811
S'environ'
p2812
asbag57
(g78
g59
NtRp2813
(dp2814
g62
(dp2815
g89
g90
ssg71
g2804
sg64
(lp2816
S':'
asbag57
(g78
g59
NtRp2817
(dp2818
g62
(dp2819
sg71
g2804
sg64
(lp2820
g57
(g58
g59
NtRp2821
(dp2822
g62
(dp2823
g70
I4
ssg71
g2817
sg64
(lp2824
g57
(g66
g59
NtRp2825
(dp2826
g62
(dp2827
g70
I3
ssg71
Nsg64
(lp2828
g57
(g73
g59
NtRp2829
(dp2830
g62
(dp2831
sg71
g2825
sg64
(lp2832
g57
(g78
g59
NtRp2833
(dp2834
g62
(dp2835
g82
g83
ssg71
g2829
sg64
(lp2836
S'HTTP_ACCEPT'
p2837
asbag57
(g78
g59
NtRp2838
(dp2839
g62
(dp2840
g89
g90
ssg71
g2829
sg64
(lp2841
S':'
asbag57
(g78
g59
NtRp2842
(dp2843
g62
(dp2844
sg71
g2829
sg64
(lp2845
g57
(g58
g59
NtRp2846
(dp2847
g62
(dp2848
g70
I3
ssg71
g2842
sg64
(lp2849
g1227
asbasbasbag57
(g73
g59
NtRp2850
(dp2851
g62
(dp2852
sg71
g2825
sg64
(lp2853
g57
(g78
g59
NtRp2854
(dp2855
g62
(dp2856
g82
g83
ssg71
g2850
sg64
(lp2857
S'HTTP_ACCEPT_CHARSET'
p2858
asbag57
(g78
g59
NtRp2859
(dp2860
g62
(dp2861
g89
g90
ssg71
g2850
sg64
(lp2862
S':'
asbag57
(g78
g59
NtRp2863
(dp2864
g62
(dp2865
sg71
g2850
sg64
(lp2866
g57
(g58
g59
NtRp2867
(dp2868
g62
(dp2869
g70
I3
ssg71
g2863
sg64
(lp2870
g1249
asbasbasbag57
(g73
g59
NtRp2871
(dp2872
g62
(dp2873
sg71
g2825
sg64
(lp2874
g57
(g78
g59
NtRp2875
(dp2876
g62
(dp2877
g82
g83
ssg71
g2871
sg64
(lp2878
S'HTTP_ACCEPT_ENCODING'
p2879
asbag57
(g78
g59
NtRp2880
(dp2881
g62
(dp2882
g89
g90
ssg71
g2871
sg64
(lp2883
S':'
asbag57
(g78
g59
NtRp2884
(dp2885
g62
(dp2886
sg71
g2871
sg64
(lp2887
g57
(g58
g59
NtRp2888
(dp2889
g62
(dp2890
g70
I3
ssg71
g2884
sg64
(lp2891
g1271
asbasbasbag57
(g73
g59
NtRp2892
(dp2893
g62
(dp2894
sg71
g2825
sg64
(lp2895
g57
(g78
g59
NtRp2896
(dp2897
g62
(dp2898
g82
g83
ssg71
g2892
sg64
(lp2899
S'HTTP_ACCEPT_LANGUAGE'
p2900
asbag57
(g78
g59
NtRp2901
(dp2902
g62
(dp2903
g89
g90
ssg71
g2892
sg64
(lp2904
S':'
asbag57
(g78
g59
NtRp2905
(dp2906
g62
(dp2907
sg71
g2892
sg64
(lp2908
g57
(g58
g59
NtRp2909
(dp2910
g62
(dp2911
g70
I3
ssg71
g2905
sg64
(lp2912
g1293
asbasbasbag57
(g73
g59
NtRp2913
(dp2914
g62
(dp2915
sg71
g2825
sg64
(lp2916
g57
(g78
g59
NtRp2917
(dp2918
g62
(dp2919
g82
g83
ssg71
g2913
sg64
(lp2920
S'HTTP_CONNECTION'
p2921
asbag57
(g78
g59
NtRp2922
(dp2923
g62
(dp2924
g89
g90
ssg71
g2913
sg64
(lp2925
S':'
asbag57
(g78
g59
NtRp2926
(dp2927
g62
(dp2928
sg71
g2913
sg64
(lp2929
g57
(g58
g59
NtRp2930
(dp2931
g62
(dp2932
g70
I3
ssg71
g2926
sg64
(lp2933
g1315
asbasbasbag57
(g73
g59
NtRp2934
(dp2935
g62
(dp2936
sg71
g2825
sg64
(lp2937
g57
(g78
g59
NtRp2938
(dp2939
g62
(dp2940
g82
g83
ssg71
g2934
sg64
(lp2941
S'HTTP_COOKIE'
p2942
asbag57
(g78
g59
NtRp2943
(dp2944
g62
(dp2945
g89
g90
ssg71
g2934
sg64
(lp2946
S':'
asbag57
(g78
g59
NtRp2947
(dp2948
g62
(dp2949
sg71
g2934
sg64
(lp2950
g57
(g58
g59
NtRp2951
(dp2952
g62
(dp2953
g70
I3
ssg71
g2947
sg64
(lp2954
g1337
asbasbasbag57
(g73
g59
NtRp2955
(dp2956
g62
(dp2957
sg71
g2825
sg64
(lp2958
g57
(g78
g59
NtRp2959
(dp2960
g62
(dp2961
g82
g83
ssg71
g2955
sg64
(lp2962
S'HTTP_HOST'
p2963
asbag57
(g78
g59
NtRp2964
(dp2965
g62
(dp2966
g89
g90
ssg71
g2955
sg64
(lp2967
S':'
asbag57
(g78
g59
NtRp2968
(dp2969
g62
(dp2970
sg71
g2955
sg64
(lp2971
g57
(g58
g59
NtRp2972
(dp2973
g62
(dp2974
g70
I3
ssg71
g2968
sg64
(lp2975
g1359
asbasbasbag57
(g73
g59
NtRp2976
(dp2977
g62
(dp2978
sg71
g2825
sg64
(lp2979
g57
(g78
g59
NtRp2980
(dp2981
g62
(dp2982
g82
g83
ssg71
g2976
sg64
(lp2983
S'HTTP_REFERER'
p2984
asbag57
(g78
g59
NtRp2985
(dp2986
g62
(dp2987
g89
g90
ssg71
g2976
sg64
(lp2988
S':'
asbag57
(g78
g59
NtRp2989
(dp2990
g62
(dp2991
sg71
g2976
sg64
(lp2992
g57
(g58
g59
NtRp2993
(dp2994
g62
(dp2995
g70
I3
ssg71
g2989
sg64
(lp2996
g1381
asbasbasbag57
(g73
g59
NtRp2997
(dp2998
g62
(dp2999
sg71
g2825
sg64
(lp3000
g57
(g78
g59
NtRp3001
(dp3002
g62
(dp3003
g82
g83
ssg71
g2997
sg64
(lp3004
S'HTTP_USER_AGENT'
p3005
asbag57
(g78
g59
NtRp3006
(dp3007
g62
(dp3008
g89
g90
ssg71
g2997
sg64
(lp3009
S':'
asbag57
(g78
g59
NtRp3010
(dp3011
g62
(dp3012
sg71
g2997
sg64
(lp3013
g57
(g58
g59
NtRp3014
(dp3015
g62
(dp3016
g70
I3
ssg71
g3010
sg64
(lp3017
g1403
asbasbasbag57
(g73
g59
NtRp3018
(dp3019
g62
(dp3020
sg71
g2825
sg64
(lp3021
g57
(g78
g59
NtRp3022
(dp3023
g62
(dp3024
g82
g83
ssg71
g3018
sg64
(lp3025
S'PATH_INFO'
p3026
asbag57
(g78
g59
NtRp3027
(dp3028
g62
(dp3029
g89
g90
ssg71
g3018
sg64
(lp3030
S':'
asbag57
(g78
g59
NtRp3031
(dp3032
g62
(dp3033
sg71
g3018
sg64
(lp3034
g57
(g58
g59
NtRp3035
(dp3036
g62
(dp3037
g70
I3
ssg71
g3031
sg64
(lp3038
g1557
asbasbasbag57
(g73
g59
NtRp3039
(dp3040
g62
(dp3041
sg71
g2825
sg64
(lp3042
g57
(g78
g59
NtRp3043
(dp3044
g62
(dp3045
g82
g83
ssg71
g3039
sg64
(lp3046
S'QUERY_STRING'
p3047
asbag57
(g78
g59
NtRp3048
(dp3049
g62
(dp3050
g89
g90
ssg71
g3039
sg64
(lp3051
S':'
asbag57
(g78
g59
NtRp3052
(dp3053
g62
(dp3054
sg71
g3039
sg64
(lp3055
g57
(g58
g59
NtRp3056
(dp3057
g62
(dp3058
g70
I3
ssg71
g3052
sg64
(lp3059
g1579
asbasbasbag57
(g73
g59
NtRp3060
(dp3061
g62
(dp3062
sg71
g2825
sg64
(lp3063
g57
(g78
g59
NtRp3064
(dp3065
g62
(dp3066
g82
g83
ssg71
g3060
sg64
(lp3067
S'REMOTE_ADDR'
p3068
asbag57
(g78
g59
NtRp3069
(dp3070
g62
(dp3071
g89
g90
ssg71
g3060
sg64
(lp3072
S':'
asbag57
(g78
g59
NtRp3073
(dp3074
g62
(dp3075
sg71
g3060
sg64
(lp3076
g57
(g58
g59
NtRp3077
(dp3078
g62
(dp3079
g70
I3
ssg71
g3073
sg64
(lp3080
g225
asbasbasbag57
(g73
g59
NtRp3081
(dp3082
g62
(dp3083
sg71
g2825
sg64
(lp3084
g57
(g78
g59
NtRp3085
(dp3086
g62
(dp3087
g82
g83
ssg71
g3081
sg64
(lp3088
S'REMOTE_PORT'
p3089
asbag57
(g78
g59
NtRp3090
(dp3091
g62
(dp3092
g89
g90
ssg71
g3081
sg64
(lp3093
S':'
asbag57
(g78
g59
NtRp3094
(dp3095
g62
(dp3096
sg71
g3081
sg64
(lp3097
g57
(g58
g59
NtRp3098
(dp3099
g62
(dp3100
g70
I3
ssg71
g3094
sg64
(lp3101
g1622
asbasbasbag57
(g73
g59
NtRp3102
(dp3103
g62
(dp3104
sg71
g2825
sg64
(lp3105
g57
(g78
g59
NtRp3106
(dp3107
g62
(dp3108
g82
g83
ssg71
g3102
sg64
(lp3109
S'REQUEST_METHOD'
p3110
asbag57
(g78
g59
NtRp3111
(dp3112
g62
(dp3113
g89
g90
ssg71
g3102
sg64
(lp3114
S':'
asbag57
(g78
g59
NtRp3115
(dp3116
g62
(dp3117
sg71
g3102
sg64
(lp3118
g57
(g58
g59
NtRp3119
(dp3120
g62
(dp3121
g70
I3
ssg71
g3115
sg64
(lp3122
g1644
asbasbasbag57
(g73
g59
NtRp3123
(dp3124
g62
(dp3125
sg71
g2825
sg64
(lp3126
g57
(g78
g59
NtRp3127
(dp3128
g62
(dp3129
g82
g83
ssg71
g3123
sg64
(lp3130
S'REQUEST_URI'
p3131
asbag57
(g78
g59
NtRp3132
(dp3133
g62
(dp3134
g89
g90
ssg71
g3123
sg64
(lp3135
S':'
asbag57
(g78
g59
NtRp3136
(dp3137
g62
(dp3138
sg71
g3123
sg64
(lp3139
g57
(g58
g59
NtRp3140
(dp3141
g62
(dp3142
g70
I3
ssg71
g3136
sg64
(lp3143
g1666
asbasbasbag57
(g73
g59
NtRp3144
(dp3145
g62
(dp3146
sg71
g2825
sg64
(lp3147
g57
(g78
g59
NtRp3148
(dp3149
g62
(dp3150
g82
g83
ssg71
g3144
sg64
(lp3151
S'SCRIPT_NAME'
p3152
asbag57
(g78
g59
NtRp3153
(dp3154
g62
(dp3155
g89
g90
ssg71
g3144
sg64
(lp3156
S':'
asbag57
(g78
g59
NtRp3157
(dp3158
g62
(dp3159
sg71
g3144
sg64
(lp3160
g57
(g58
g59
NtRp3161
(dp3162
g62
(dp3163
g70
I3
ssg71
g3157
sg64
(lp3164
S''
asbasbasbag57
(g73
g59
NtRp3165
(dp3166
g62
(dp3167
sg71
g2825
sg64
(lp3168
g57
(g78
g59
NtRp3169
(dp3170
g62
(dp3171
g82
g83
ssg71
g3165
sg64
(lp3172
S'SERVER_NAME'
p3173
asbag57
(g78
g59
NtRp3174
(dp3175
g62
(dp3176
g89
g90
ssg71
g3165
sg64
(lp3177
S':'
asbag57
(g78
g59
NtRp3178
(dp3179
g62
(dp3180
sg71
g3165
sg64
(lp3181
g57
(g58
g59
NtRp3182
(dp3183
g62
(dp3184
g70
I3
ssg71
g3178
sg64
(lp3185
g1709
asbasbasbag57
(g73
g59
NtRp3186
(dp3187
g62
(dp3188
sg71
g2825
sg64
(lp3189
g57
(g78
g59
NtRp3190
(dp3191
g62
(dp3192
g82
g83
ssg71
g3186
sg64
(lp3193
S'SERVER_PORT'
p3194
asbag57
(g78
g59
NtRp3195
(dp3196
g62
(dp3197
g89
g90
ssg71
g3186
sg64
(lp3198
S':'
asbag57
(g78
g59
NtRp3199
(dp3200
g62
(dp3201
sg71
g3186
sg64
(lp3202
g57
(g58
g59
NtRp3203
(dp3204
g62
(dp3205
g70
I3
ssg71
g3199
sg64
(lp3206
g1731
asbasbasbag57
(g73
g59
NtRp3207
(dp3208
g62
(dp3209
sg71
g2825
sg64
(lp3210
g57
(g78
g59
NtRp3211
(dp3212
g62
(dp3213
g82
g83
ssg71
g3207
sg64
(lp3214
S'SERVER_PROTOCOL'
p3215
asbag57
(g78
g59
NtRp3216
(dp3217
g62
(dp3218
g89
g90
ssg71
g3207
sg64
(lp3219
S':'
asbag57
(g78
g59
NtRp3220
(dp3221
g62
(dp3222
sg71
g3207
sg64
(lp3223
g57
(g58
g59
NtRp3224
(dp3225
g62
(dp3226
g70
I3
ssg71
g3220
sg64
(lp3227
g1753
asbasbasbag57
(g73
g59
NtRp3228
(dp3229
g62
(dp3230
sg71
g2825
sg64
(lp3231
g57
(g78
g59
NtRp3232
(dp3233
g62
(dp3234
g82
g83
ssg71
g3228
sg64
(lp3235
S'SERVER_SOFTWARE'
p3236
asbag57
(g78
g59
NtRp3237
(dp3238
g62
(dp3239
g89
g90
ssg71
g3228
sg64
(lp3240
S':'
asbag57
(g78
g59
NtRp3241
(dp3242
g62
(dp3243
sg71
g3228
sg64
(lp3244
g57
(g58
g59
NtRp3245
(dp3246
g62
(dp3247
g70
I3
ssg71
g3241
sg64
(lp3248
g1775
asbasbasbag57
(g73
g59
NtRp3249
(dp3250
g62
(dp3251
sg71
g2825
sg64
(lp3252
g57
(g78
g59
NtRp3253
(dp3254
g62
(dp3255
g82
g83
ssg71
g3249
sg64
(lp3256
S'WEB2PY_ORIGINAL_URI'
p3257
asbag57
(g78
g59
NtRp3258
(dp3259
g62
(dp3260
g89
g90
ssg71
g3249
sg64
(lp3261
S':'
asbag57
(g78
g59
NtRp3262
(dp3263
g62
(dp3264
sg71
g3249
sg64
(lp3265
g57
(g58
g59
NtRp3266
(dp3267
g62
(dp3268
g70
I3
ssg71
g3262
sg64
(lp3269
g1797
asbasbasbag57
(g73
g59
NtRp3270
(dp3271
g62
(dp3272
sg71
g2825
sg64
(lp3273
g57
(g78
g59
NtRp3274
(dp3275
g62
(dp3276
g82
g83
ssg71
g3270
sg64
(lp3277
S'wsgi.errors'
p3278
asbag57
(g78
g59
NtRp3279
(dp3280
g62
(dp3281
g89
g90
ssg71
g3270
sg64
(lp3282
S':'
asbag57
(g78
g59
NtRp3283
(dp3284
g62
(dp3285
sg71
g3270
sg64
(lp3286
g57
(g58
g59
NtRp3287
(dp3288
g62
(dp3289
g70
I3
ssg71
g3283
sg64
(lp3290
S"<open file '<stderr>', mode 'w' at 0x7f678cc58270>"
p3291
asbasbasbag57
(g73
g59
NtRp3292
(dp3293
g62
(dp3294
sg71
g2825
sg64
(lp3295
g57
(g78
g59
NtRp3296
(dp3297
g62
(dp3298
g82
g83
ssg71
g3292
sg64
(lp3299
S'wsgi.file_wrapper'
p3300
asbag57
(g78
g59
NtRp3301
(dp3302
g62
(dp3303
g89
g90
ssg71
g3292
sg64
(lp3304
S':'
asbag57
(g78
g59
NtRp3305
(dp3306
g62
(dp3307
sg71
g3292
sg64
(lp3308
g57
(g58
g59
NtRp3309
(dp3310
g62
(dp3311
g70
I3
ssg71
g3305
sg64
(lp3312
S'<class wsgiref.util.FileWrapper at 0x31637a0>'
p3313
asbasbasbag57
(g73
g59
NtRp3314
(dp3315
g62
(dp3316
sg71
g2825
sg64
(lp3317
g57
(g78
g59
NtRp3318
(dp3319
g62
(dp3320
g82
g83
ssg71
g3314
sg64
(lp3321
S'wsgi.input'
p3322
asbag57
(g78
g59
NtRp3323
(dp3324
g62
(dp3325
g89
g90
ssg71
g3314
sg64
(lp3326
S':'
asbag57
(g78
g59
NtRp3327
(dp3328
g62
(dp3329
sg71
g3314
sg64
(lp3330
g57
(g58
g59
NtRp3331
(dp3332
g62
(dp3333
g70
I3
ssg71
g3327
sg64
(lp3334
S'<cStringIO.StringO object at 0x32c0618>'
p3335
asbasbasbag57
(g73
g59
NtRp3336
(dp3337
g62
(dp3338
sg71
g2825
sg64
(lp3339
g57
(g78
g59
NtRp3340
(dp3341
g62
(dp3342
g82
g83
ssg71
g3336
sg64
(lp3343
S'wsgi.multiprocess'
p3344
asbag57
(g78
g59
NtRp3345
(dp3346
g62
(dp3347
g89
g90
ssg71
g3336
sg64
(lp3348
S':'
asbag57
(g78
g59
NtRp3349
(dp3350
g62
(dp3351
sg71
g3336
sg64
(lp3352
g57
(g58
g59
NtRp3353
(dp3354
g62
(dp3355
g70
I3
ssg71
g3349
sg64
(lp3356
g100
asbasbasbag57
(g73
g59
NtRp3357
(dp3358
g62
(dp3359
sg71
g2825
sg64
(lp3360
g57
(g78
g59
NtRp3361
(dp3362
g62
(dp3363
g82
g83
ssg71
g3357
sg64
(lp3364
S'wsgi.multithread'
p3365
asbag57
(g78
g59
NtRp3366
(dp3367
g62
(dp3368
g89
g90
ssg71
g3357
sg64
(lp3369
S':'
asbag57
(g78
g59
NtRp3370
(dp3371
g62
(dp3372
sg71
g3357
sg64
(lp3373
g57
(g58
g59
NtRp3374
(dp3375
g62
(dp3376
g70
I3
ssg71
g3370
sg64
(lp3377
g2014
asbasbasbag57
(g73
g59
NtRp3378
(dp3379
g62
(dp3380
sg71
g2825
sg64
(lp3381
g57
(g78
g59
NtRp3382
(dp3383
g62
(dp3384
g82
g83
ssg71
g3378
sg64
(lp3385
S'wsgi.run_once'
p3386
asbag57
(g78
g59
NtRp3387
(dp3388
g62
(dp3389
g89
g90
ssg71
g3378
sg64
(lp3390
S':'
asbag57
(g78
g59
NtRp3391
(dp3392
g62
(dp3393
sg71
g3378
sg64
(lp3394
g57
(g58
g59
NtRp3395
(dp3396
g62
(dp3397
g70
I3
ssg71
g3391
sg64
(lp3398
g100
asbasbasbag57
(g73
g59
NtRp3399
(dp3400
g62
(dp3401
sg71
g2825
sg64
(lp3402
g57
(g78
g59
NtRp3403
(dp3404
g62
(dp3405
g82
g83
ssg71
g3399
sg64
(lp3406
S'wsgi.url_scheme'
p3407
asbag57
(g78
g59
NtRp3408
(dp3409
g62
(dp3410
g89
g90
ssg71
g3399
sg64
(lp3411
S':'
asbag57
(g78
g59
NtRp3412
(dp3413
g62
(dp3414
sg71
g3399
sg64
(lp3415
g57
(g58
g59
NtRp3416
(dp3417
g62
(dp3418
g70
I3
ssg71
g3412
sg64
(lp3419
g2057
asbasbasbag57
(g73
g59
NtRp3420
(dp3421
g62
(dp3422
sg71
g2825
sg64
(lp3423
g57
(g78
g59
NtRp3424
(dp3425
g62
(dp3426
g82
g83
ssg71
g3420
sg64
(lp3427
S'wsgi.version'
p3428
asbag57
(g78
g59
NtRp3429
(dp3430
g62
(dp3431
g89
g90
ssg71
g3420
sg64
(lp3432
S':'
asbag57
(g78
g59
NtRp3433
(dp3434
g62
(dp3435
sg71
g3420
sg64
(lp3436
g57
(g58
g59
NtRp3437
(dp3438
g62
(dp3439
g70
I3
ssg71
g3433
sg64
(lp3440
S'1'
asbasbasbasbasbasbasbasbasbasbasbasbasbsS'frames'
p3441
(lp3442
(dp3443
S'file'
p3444
S'/var/www/web2py_curso/gluon/restricted.py'
p3445
sS'dump'
p3446
(dp3447
S'environment'
p3448
S"{'A': <class 'gluon.html.A'>, 'Auth': <class 'gluon.tools.Auth'>, 'B': <class 'gluon.html.B'>, 'BEAUTIFY': <class 'gluon.html.BEAUTIFY'>, 'BODY': <class 'gluon.html.BODY'>, 'BR': <class 'gluon.html.BR'>, 'BUTTON': <class 'gluon.html.BUTTON'>, 'Blog': <Table blog (id,title,description)>, 'CAT': <class 'gluon.html.CAT'>, 'CENTER': <class 'gluon.html.CENTER'>, ...}"
p3449
sS'ccode'
p3450
S'<code object <module> at 0x7f67801eaab0, file "/...ications/projeto/controllers/initial.py", line 3>'
p3451
ssS'lnum'
p3452
I212
sS'lines'
p3453
(dp3454
I207
S'    try:'
p3455
sI208
S'        if isinstance(code, types.CodeType):'
p3456
sI209
S'            ccode = code'
p3457
sI210
S'        else:'
p3458
sI211
S'            ccode = compile2(code, layer)'
p3459
sI212
S'        exec ccode in environment'
p3460
sI213
S'    except HTTP:'
p3461
sI214
S'        raise'
p3462
sI215
S'    except RestrictedError:'
p3463
sI216
S'        # do not encapsulate (obfuscate) the original RestrictedError'
p3464
ssS'call'
p3465
S'(code=\'# coding: utf-8\\n\\ndef home():\\n\\tnome = "Fernando"\\n... x + y\\n\\n \\n\\nresponse._vars=response._caller(user)\\n\', environment={\'A\': <class \'gluon.html.A\'>, \'Auth\': <class \'gluon.tools.Auth\'>, \'B\': <class \'gluon.html.B\'>, \'BEAUTIFY\': <class \'gluon.html.BEAUTIFY\'>, \'BODY\': <class \'gluon.html.BODY\'>, \'BR\': <class \'gluon.html.BR\'>, \'BUTTON\': <class \'gluon.html.BUTTON\'>, \'Blog\': <Table blog (id,title,description)>, \'CAT\': <class \'gluon.html.CAT\'>, \'CENTER\': <class \'gluon.html.CENTER\'>, ...}, layer=\'/var/www/web2py_curso/applications/projeto/controllers/initial.py\')'
p3466
sS'func'
p3467
S'restricted'
p3468
sa(dp3469
g3444
S'/var/www/web2py_curso/applications/projeto/controllers/initial.py'
p3470
sg3446
(dp3471
sg3452
I65
sg3453
(dp3472
I54
S''
sI55
S'def teste2():'
p3473
sI56
S'\treturn "<form><label>Nome</label><input /></form><br><a href=\'http://www.w3schools.com\'>Visit W3Schools</a>"'
p3474
sI57
S'\t#return dict(nome="fernando")'
p3475
sI58
S'\t#return response.render("teste.html", dict(nome="fernando"))'
p3476
sI59
S''
sI60
S'def soma(x, y):'
p3477
sI61
S'\treturn x + y'
p3478
sI62
S''
sI63
S''
ssg3465
S'()'
p3479
sg3467
S'<module>'
p3480
sa(dp3481
g3444
S'/var/www/web2py_curso/gluon/globals.py'
p3482
sg3446
(dp3483
S'self'
p3484
S'undefined'
p3485
sS'f'
S'<function user>'
p3486
ssg3452
I193
sg3453
(dp3487
I192
S'        self._vars = None'
p3488
sI193
S'        self._caller = lambda f: f()'
p3489
sI194
S'        self._view_environment = None'
p3490
sI195
S'        self._custom_commit = None'
p3491
sI196
S'        self._custom_rollback = None'
p3492
sI197
S''
sI188
S'        self.menu = []             # used by the default view layout'
p3493
sI189
S'        self.files = []            # used by web2py_ajax.html'
p3494
sI190
S'        self.generic_patterns = []  # patterns to allow generic views'
p3495
sI191
S"        self.delimiters = ('{{', '}}')"
p3496
ssg3465
S'(f=<function user>)'
p3497
sg3467
S'<lambda>'
p3498
sa(dp3499
g3444
S'/var/www/web2py_curso/applications/projeto/controllers/initial.py'
p3500
sg3446
(dp3501
S'response.render'
p3502
S"<bound method Response.render of <Storage {'body...da> at 0x32b8ed8>, 'view': 'initial/user.html'}>>"
p3503
sS'global response'
p3504
S"<Storage {'body': <cStringIO.StringO object at 0...bda> at 0x32b8ed8>, 'view': 'initial/user.html'}>"
p3505
sS'global auth'
p3506
S'<gluon.tools.Auth object>'
p3507
ssg3452
I17
sg3453
(dp3508
I12
S'\treturn "sobre"'
p3509
sI13
S''
sI14
S'def user():'
p3510
sI15
S"\tif request.args(0) == 'register':"
p3511
sI16
S'        \tdb.auth_user.bio.writable = db.auth_user.bio.readable = False'
p3512
sI17
S'\treturn response.render ("initial/home.html", auth())'
p3513
sI18
S''
sI19
S'def register():'
p3514
sI20
S'\treturn auth.register()'
p3515
sI21
S''
ssg3465
S'()'
p3516
sg3467
S'user'
p3517
sa(dp3518
g3444
S'/var/www/web2py_curso/gluon/globals.py'
p3519
sg3446
(dp3520
S'self'
p3521
S"<Storage {'body': <cStringIO.StringO object at 0...bda> at 0x32b8ed8>, 'view': 'initial/user.html'}>"
p3522
sS'self._vars'
p3523
S'<gluon.sqlhtml.SQLFORM object>'
p3524
sS'self._vars.update'
p3525
S'<bound method SQLFORM.update of <gluon.sqlhtml.SQLFORM object>>'
p3526
sS'b'
g45
ssg3452
I219
sg3453
(dp3527
I214
S'            (view, self._vars) = (a[0], {})'
p3528
sI215
S'        elif len(a) == 1 and isinstance(a[0], dict):'
p3529
sI216
S'            (view, self._vars) = (None, a[0])'
p3530
sI217
S'        else:'
p3531
sI218
S'            (view, self._vars) = (None, {})'
p3532
sI219
S'        self._vars.update(b)'
p3533
sI220
S'        self._view_environment.update(self._vars)'
p3534
sI221
S'        if view:'
p3535
sI222
S'            import cStringIO'
p3536
sI223
S'            (obody, oview) = (self.body, self.view)'
p3537
ssg3465
S"(self=<Storage {'body': <cStringIO.StringO object at 0...bda> at 0x32b8ed8>, 'view': 'initial/user.html'}>, *a=('initial/home.html', <gluon.sqlhtml.SQLFORM object>), **b={})"
p3538
sg3467
S'render'
p3539
sasS'pyver'
p3540
S'Python 2.7.3: /usr/bin/python'
p3541
sS'session'
p3542
g57
(g58
g59
NtRp3543
(dp3544
g62
(dp3545
sg64
(lp3546
g57
(g66
g59
NtRp3547
(dp3548
g62
(dp3549
g70
I5
ssg71
Nsg64
(lp3550
sbasbsS'etype'
p3551
S"<type 'exceptions.TypeError'>"
p3552
sS'date'
p3553
S'Sat Jan 26 20:07:52 2013'
p3554
sS'response'
p3555
g57
(g58
g59
NtRp3556
(dp3557
g62
(dp3558
sg64
(lp3559
g57
(g66
g59
NtRp3560
(dp3561
g62
(dp3562
g70
I5
ssg71
Nsg64
(lp3563
g57
(g73
g59
NtRp3564
(dp3565
g62
(dp3566
sg71
g3560
sg64
(lp3567
g57
(g78
g59
NtRp3568
(dp3569
g62
(dp3570
g82
g83
ssg71
g3564
sg64
(lp3571
g168
asbag57
(g78
g59
NtRp3572
(dp3573
g62
(dp3574
g89
g90
ssg71
g3564
sg64
(lp3575
S':'
asbag57
(g78
g59
NtRp3576
(dp3577
g62
(dp3578
sg71
g3564
sg64
(lp3579
g57
(g58
g59
NtRp3580
(dp3581
g62
(dp3582
g70
I5
ssg71
g3576
sg64
(lp3583
S'<cStringIO.StringO object at 0x7f675c192618>'
p3584
asbasbasbag57
(g73
g59
NtRp3585
(dp3586
g62
(dp3587
sg71
g3560
sg64
(lp3588
g57
(g78
g59
NtRp3589
(dp3590
g62
(dp3591
g82
g83
ssg71
g3585
sg64
(lp3592
g256
asbag57
(g78
g59
NtRp3593
(dp3594
g62
(dp3595
g89
g90
ssg71
g3585
sg64
(lp3596
S':'
asbag57
(g78
g59
NtRp3597
(dp3598
g62
(dp3599
sg71
g3585
sg64
(lp3600
g57
(g58
g59
NtRp3601
(dp3602
g62
(dp3603
g70
I5
ssg71
g3597
sg64
(lp3604
g57
(g66
g59
NtRp3605
(dp3606
g62
(dp3607
g70
I4
ssg71
Nsg64
(lp3608
g57
(g73
g59
NtRp3609
(dp3610
g62
(dp3611
sg71
g3605
sg64
(lp3612
g57
(g78
g59
NtRp3613
(dp3614
g62
(dp3615
g82
g83
ssg71
g3609
sg64
(lp3616
S'session_id_projeto'
p3617
asbag57
(g78
g59
NtRp3618
(dp3619
g62
(dp3620
g89
g90
ssg71
g3609
sg64
(lp3621
S':'
asbag57
(g78
g59
NtRp3622
(dp3623
g62
(dp3624
sg71
g3609
sg64
(lp3625
g57
(g58
g59
NtRp3626
(dp3627
g62
(dp3628
g70
I4
ssg71
g3622
sg64
(lp3629
g488
ag57
(g66
g59
NtRp3630
(dp3631
g62
(dp3632
g70
I3
ssg71
Nsg64
(lp3633
g57
(g73
g59
NtRp3634
(dp3635
g62
(dp3636
sg71
g3630
sg64
(lp3637
g57
(g78
g59
NtRp3638
(dp3639
g62
(dp3640
g82
g83
ssg71
g3634
sg64
(lp3641
g307
asbag57
(g78
g59
NtRp3642
(dp3643
g62
(dp3644
g89
g90
ssg71
g3634
sg64
(lp3645
S':'
asbag57
(g78
g59
NtRp3646
(dp3647
g62
(dp3648
sg71
g3634
sg64
(lp3649
g57
(g58
g59
NtRp3650
(dp3651
g62
(dp3652
g70
I3
ssg71
g3646
sg64
(lp3653
S''
asbasbasbag57
(g73
g59
NtRp3654
(dp3655
g62
(dp3656
sg71
g3630
sg64
(lp3657
g57
(g78
g59
NtRp3658
(dp3659
g62
(dp3660
g82
g83
ssg71
g3654
sg64
(lp3661
g328
asbag57
(g78
g59
NtRp3662
(dp3663
g62
(dp3664
g89
g90
ssg71
g3654
sg64
(lp3665
S':'
asbag57
(g78
g59
NtRp3666
(dp3667
g62
(dp3668
sg71
g3654
sg64
(lp3669
g57
(g58
g59
NtRp3670
(dp3671
g62
(dp3672
g70
I3
ssg71
g3666
sg64
(lp3673
S''
asbasbasbag57
(g73
g59
NtRp3674
(dp3675
g62
(dp3676
sg71
g3630
sg64
(lp3677
g57
(g78
g59
NtRp3678
(dp3679
g62
(dp3680
g82
g83
ssg71
g3674
sg64
(lp3681
g349
asbag57
(g78
g59
NtRp3682
(dp3683
g62
(dp3684
g89
g90
ssg71
g3674
sg64
(lp3685
S':'
asbag57
(g78
g59
NtRp3686
(dp3687
g62
(dp3688
sg71
g3674
sg64
(lp3689
g57
(g58
g59
NtRp3690
(dp3691
g62
(dp3692
g70
I3
ssg71
g3686
sg64
(lp3693
S''
asbasbasbag57
(g73
g59
NtRp3694
(dp3695
g62
(dp3696
sg71
g3630
sg64
(lp3697
g57
(g78
g59
NtRp3698
(dp3699
g62
(dp3700
g82
g83
ssg71
g3694
sg64
(lp3701
g370
asbag57
(g78
g59
NtRp3702
(dp3703
g62
(dp3704
g89
g90
ssg71
g3694
sg64
(lp3705
S':'
asbag57
(g78
g59
NtRp3706
(dp3707
g62
(dp3708
sg71
g3694
sg64
(lp3709
g57
(g58
g59
NtRp3710
(dp3711
g62
(dp3712
g70
I3
ssg71
g3706
sg64
(lp3713
S''
asbasbasbag57
(g73
g59
NtRp3714
(dp3715
g62
(dp3716
sg71
g3630
sg64
(lp3717
g57
(g78
g59
NtRp3718
(dp3719
g62
(dp3720
g82
g83
ssg71
g3714
sg64
(lp3721
g391
asbag57
(g78
g59
NtRp3722
(dp3723
g62
(dp3724
g89
g90
ssg71
g3714
sg64
(lp3725
S':'
asbag57
(g78
g59
NtRp3726
(dp3727
g62
(dp3728
sg71
g3714
sg64
(lp3729
g57
(g58
g59
NtRp3730
(dp3731
g62
(dp3732
g70
I3
ssg71
g3726
sg64
(lp3733
S''
asbasbasbag57
(g73
g59
NtRp3734
(dp3735
g62
(dp3736
sg71
g3630
sg64
(lp3737
g57
(g78
g59
NtRp3738
(dp3739
g62
(dp3740
g82
g83
ssg71
g3734
sg64
(lp3741
g412
asbag57
(g78
g59
NtRp3742
(dp3743
g62
(dp3744
g89
g90
ssg71
g3734
sg64
(lp3745
S':'
asbag57
(g78
g59
NtRp3746
(dp3747
g62
(dp3748
sg71
g3734
sg64
(lp3749
g57
(g58
g59
NtRp3750
(dp3751
g62
(dp3752
g70
I3
ssg71
g3746
sg64
(lp3753
S'/'
asbasbasbag57
(g73
g59
NtRp3754
(dp3755
g62
(dp3756
sg71
g3630
sg64
(lp3757
g57
(g78
g59
NtRp3758
(dp3759
g62
(dp3760
g82
g83
ssg71
g3754
sg64
(lp3761
g433
asbag57
(g78
g59
NtRp3762
(dp3763
g62
(dp3764
g89
g90
ssg71
g3754
sg64
(lp3765
S':'
asbag57
(g78
g59
NtRp3766
(dp3767
g62
(dp3768
sg71
g3754
sg64
(lp3769
g57
(g58
g59
NtRp3770
(dp3771
g62
(dp3772
g70
I3
ssg71
g3766
sg64
(lp3773
S''
asbasbasbag57
(g73
g59
NtRp3774
(dp3775
g62
(dp3776
sg71
g3630
sg64
(lp3777
g57
(g78
g59
NtRp3778
(dp3779
g62
(dp3780
g82
g83
ssg71
g3774
sg64
(lp3781
g454
asbag57
(g78
g59
NtRp3782
(dp3783
g62
(dp3784
g89
g90
ssg71
g3774
sg64
(lp3785
S':'
asbag57
(g78
g59
NtRp3786
(dp3787
g62
(dp3788
sg71
g3774
sg64
(lp3789
g57
(g58
g59
NtRp3790
(dp3791
g62
(dp3792
g70
I3
ssg71
g3786
sg64
(lp3793
S''
asbasbasbasbasbasbasbasbasbasbasbag57
(g73
g59
NtRp3794
(dp3795
g62
(dp3796
sg71
g3560
sg64
(lp3797
g57
(g78
g59
NtRp3798
(dp3799
g62
(dp3800
g82
g83
ssg71
g3794
sg64
(lp3801
S'delimiters'
p3802
asbag57
(g78
g59
NtRp3803
(dp3804
g62
(dp3805
g89
g90
ssg71
g3794
sg64
(lp3806
S':'
asbag57
(g78
g59
NtRp3807
(dp3808
g62
(dp3809
sg71
g3794
sg64
(lp3810
g57
(g58
g59
NtRp3811
(dp3812
g62
(dp3813
g70
I5
ssg71
g3807
sg64
(lp3814
g57
(g66
g59
NtRp3815
(dp3816
g62
(dp3817
g70
I4
ssg71
Nsg64
(lp3818
g57
(g73
g59
NtRp3819
(dp3820
g62
(dp3821
sg71
g3815
sg64
(lp3822
g57
(g78
g59
NtRp3823
(dp3824
g62
(dp3825
sg71
g3819
sg64
(lp3826
g57
(g58
g59
NtRp3827
(dp3828
g62
(dp3829
g70
I4
ssg71
g3823
sg64
(lp3830
S'{{'
p3831
asbasbasbag57
(g73
g59
NtRp3832
(dp3833
g62
(dp3834
sg71
g3815
sg64
(lp3835
g57
(g78
g59
NtRp3836
(dp3837
g62
(dp3838
sg71
g3832
sg64
(lp3839
g57
(g58
g59
NtRp3840
(dp3841
g62
(dp3842
g70
I4
ssg71
g3836
sg64
(lp3843
S'}}'
p3844
asbasbasbasbasbasbasbag57
(g73
g59
NtRp3845
(dp3846
g62
(dp3847
sg71
g3560
sg64
(lp3848
g57
(g78
g59
NtRp3849
(dp3850
g62
(dp3851
g82
g83
ssg71
g3845
sg64
(lp3852
S'files'
p3853
asbag57
(g78
g59
NtRp3854
(dp3855
g62
(dp3856
g89
g90
ssg71
g3845
sg64
(lp3857
S':'
asbag57
(g78
g59
NtRp3858
(dp3859
g62
(dp3860
sg71
g3845
sg64
(lp3861
g57
(g58
g59
NtRp3862
(dp3863
g62
(dp3864
g70
I5
ssg71
g3858
sg64
(lp3865
g57
(g66
g59
NtRp3866
(dp3867
g62
(dp3868
g70
I4
ssg71
Nsg64
(lp3869
sbasbasbasbag57
(g73
g59
NtRp3870
(dp3871
g62
(dp3872
sg71
g3560
sg64
(lp3873
g57
(g78
g59
NtRp3874
(dp3875
g62
(dp3876
g82
g83
ssg71
g3870
sg64
(lp3877
S'flash'
p3878
asbag57
(g78
g59
NtRp3879
(dp3880
g62
(dp3881
g89
g90
ssg71
g3870
sg64
(lp3882
S':'
asbag57
(g78
g59
NtRp3883
(dp3884
g62
(dp3885
sg71
g3870
sg64
(lp3886
g57
(g58
g59
NtRp3887
(dp3888
g62
(dp3889
g70
I5
ssg71
g3883
sg64
(lp3890
S''
asbasbasbag57
(g73
g59
NtRp3891
(dp3892
g62
(dp3893
sg71
g3560
sg64
(lp3894
g57
(g78
g59
NtRp3895
(dp3896
g62
(dp3897
g82
g83
ssg71
g3891
sg64
(lp3898
S'generic_patterns'
p3899
asbag57
(g78
g59
NtRp3900
(dp3901
g62
(dp3902
g89
g90
ssg71
g3891
sg64
(lp3903
S':'
asbag57
(g78
g59
NtRp3904
(dp3905
g62
(dp3906
sg71
g3891
sg64
(lp3907
g57
(g58
g59
NtRp3908
(dp3909
g62
(dp3910
g70
I5
ssg71
g3904
sg64
(lp3911
g57
(g66
g59
NtRp3912
(dp3913
g62
(dp3914
g70
I4
ssg71
Nsg64
(lp3915
g57
(g73
g59
NtRp3916
(dp3917
g62
(dp3918
sg71
g3912
sg64
(lp3919
g57
(g78
g59
NtRp3920
(dp3921
g62
(dp3922
sg71
g3916
sg64
(lp3923
g57
(g58
g59
NtRp3924
(dp3925
g62
(dp3926
g70
I4
ssg71
g3920
sg64
(lp3927
S'*'
asbasbasbasbasbasbasbag57
(g73
g59
NtRp3928
(dp3929
g62
(dp3930
sg71
g3560
sg64
(lp3931
g57
(g78
g59
NtRp3932
(dp3933
g62
(dp3934
g82
g83
ssg71
g3928
sg64
(lp3935
S'headers'
p3936
asbag57
(g78
g59
NtRp3937
(dp3938
g62
(dp3939
g89
g90
ssg71
g3928
sg64
(lp3940
S':'
asbag57
(g78
g59
NtRp3941
(dp3942
g62
(dp3943
sg71
g3928
sg64
(lp3944
g57
(g58
g59
NtRp3945
(dp3946
g62
(dp3947
g70
I5
ssg71
g3941
sg64
(lp3948
g57
(g66
g59
NtRp3949
(dp3950
g62
(dp3951
g70
I4
ssg71
Nsg64
(lp3952
g57
(g73
g59
NtRp3953
(dp3954
g62
(dp3955
sg71
g3949
sg64
(lp3956
g57
(g78
g59
NtRp3957
(dp3958
g62
(dp3959
g82
g83
ssg71
g3953
sg64
(lp3960
S'X-Powered-By'
p3961
asbag57
(g78
g59
NtRp3962
(dp3963
g62
(dp3964
g89
g90
ssg71
g3953
sg64
(lp3965
S':'
asbag57
(g78
g59
NtRp3966
(dp3967
g62
(dp3968
sg71
g3953
sg64
(lp3969
g57
(g58
g59
NtRp3970
(dp3971
g62
(dp3972
g70
I4
ssg71
g3966
sg64
(lp3973
S'web2py'
p3974
asbasbasbasbasbasbasbag57
(g73
g59
NtRp3975
(dp3976
g62
(dp3977
sg71
g3560
sg64
(lp3978
g57
(g78
g59
NtRp3979
(dp3980
g62
(dp3981
g82
g83
ssg71
g3975
sg64
(lp3982
S'menu'
p3983
asbag57
(g78
g59
NtRp3984
(dp3985
g62
(dp3986
g89
g90
ssg71
g3975
sg64
(lp3987
S':'
asbag57
(g78
g59
NtRp3988
(dp3989
g62
(dp3990
sg71
g3975
sg64
(lp3991
g57
(g58
g59
NtRp3992
(dp3993
g62
(dp3994
g70
I5
ssg71
g3988
sg64
(lp3995
g57
(g66
g59
NtRp3996
(dp3997
g62
(dp3998
g70
I4
ssg71
Nsg64
(lp3999
sbasbasbasbag57
(g73
g59
NtRp4000
(dp4001
g62
(dp4002
sg71
g3560
sg64
(lp4003
g57
(g78
g59
NtRp4004
(dp4005
g62
(dp4006
g82
g83
ssg71
g4000
sg64
(lp4007
S'meta'
p4008
asbag57
(g78
g59
NtRp4009
(dp4010
g62
(dp4011
g89
g90
ssg71
g4000
sg64
(lp4012
S':'
asbag57
(g78
g59
NtRp4013
(dp4014
g62
(dp4015
sg71
g4000
sg64
(lp4016
g57
(g58
g59
NtRp4017
(dp4018
g62
(dp4019
g70
I5
ssg71
g4013
sg64
(lp4020
g57
(g66
g59
NtRp4021
(dp4022
g62
(dp4023
g70
I4
ssg71
Nsg64
(lp4024
g57
(g73
g59
NtRp4025
(dp4026
g62
(dp4027
sg71
g4021
sg64
(lp4028
g57
(g78
g59
NtRp4029
(dp4030
g62
(dp4031
g82
g83
ssg71
g4025
sg64
(lp4032
S'keywords'
p4033
asbag57
(g78
g59
NtRp4034
(dp4035
g62
(dp4036
g89
g90
ssg71
g4025
sg64
(lp4037
S':'
asbag57
(g78
g59
NtRp4038
(dp4039
g62
(dp4040
sg71
g4025
sg64
(lp4041
g57
(g58
g59
NtRp4042
(dp4043
g62
(dp4044
g70
I4
ssg71
g4038
sg64
(lp4045
S'chave, outra, e outra'
p4046
asbasbasbasbasbasbasbag57
(g73
g59
NtRp4047
(dp4048
g62
(dp4049
sg71
g3560
sg64
(lp4050
g57
(g78
g59
NtRp4051
(dp4052
g62
(dp4053
g82
g83
ssg71
g4047
sg64
(lp4054
S'models_to_run'
p4055
asbag57
(g78
g59
NtRp4056
(dp4057
g62
(dp4058
g89
g90
ssg71
g4047
sg64
(lp4059
S':'
asbag57
(g78
g59
NtRp4060
(dp4061
g62
(dp4062
sg71
g4047
sg64
(lp4063
g57
(g58
g59
NtRp4064
(dp4065
g62
(dp4066
g70
I5
ssg71
g4060
sg64
(lp4067
g57
(g66
g59
NtRp4068
(dp4069
g62
(dp4070
g70
I4
ssg71
Nsg64
(lp4071
g57
(g73
g59
NtRp4072
(dp4073
g62
(dp4074
sg71
g4068
sg64
(lp4075
g57
(g78
g59
NtRp4076
(dp4077
g62
(dp4078
sg71
g4072
sg64
(lp4079
g57
(g58
g59
NtRp4080
(dp4081
g62
(dp4082
g70
I4
ssg71
g4076
sg64
(lp4083
S'^\\w+\\.py$'
p4084
asbasbasbag57
(g73
g59
NtRp4085
(dp4086
g62
(dp4087
sg71
g4068
sg64
(lp4088
g57
(g78
g59
NtRp4089
(dp4090
g62
(dp4091
sg71
g4085
sg64
(lp4092
g57
(g58
g59
NtRp4093
(dp4094
g62
(dp4095
g70
I4
ssg71
g4089
sg64
(lp4096
S'^initial/\\w+\\.py$'
p4097
asbasbasbag57
(g73
g59
NtRp4098
(dp4099
g62
(dp4100
sg71
g4068
sg64
(lp4101
g57
(g78
g59
NtRp4102
(dp4103
g62
(dp4104
sg71
g4098
sg64
(lp4105
g57
(g58
g59
NtRp4106
(dp4107
g62
(dp4108
g70
I4
ssg71
g4102
sg64
(lp4109
S'^initial/user/\\w+\\.py$'
p4110
asbasbasbasbasbasbasbag57
(g73
g59
NtRp4111
(dp4112
g62
(dp4113
sg71
g3560
sg64
(lp4114
g57
(g78
g59
NtRp4115
(dp4116
g62
(dp4117
g82
g83
ssg71
g4111
sg64
(lp4118
S'postprocessing'
p4119
asbag57
(g78
g59
NtRp4120
(dp4121
g62
(dp4122
g89
g90
ssg71
g4111
sg64
(lp4123
S':'
asbag57
(g78
g59
NtRp4124
(dp4125
g62
(dp4126
sg71
g4111
sg64
(lp4127
g57
(g58
g59
NtRp4128
(dp4129
g62
(dp4130
g70
I5
ssg71
g4124
sg64
(lp4131
g57
(g66
g59
NtRp4132
(dp4133
g62
(dp4134
g70
I4
ssg71
Nsg64
(lp4135
sbasbasbasbag57
(g73
g59
NtRp4136
(dp4137
g62
(dp4138
sg71
g3560
sg64
(lp4139
g57
(g78
g59
NtRp4140
(dp4141
g62
(dp4142
g82
g83
ssg71
g4136
sg64
(lp4143
S'session_cookie_expires'
p4144
asbag57
(g78
g59
NtRp4145
(dp4146
g62
(dp4147
g89
g90
ssg71
g4136
sg64
(lp4148
S':'
asbag57
(g78
g59
NtRp4149
(dp4150
g62
(dp4151
sg71
g4136
sg64
(lp4152
g57
(g58
g59
NtRp4153
(dp4154
g62
(dp4155
g70
I5
ssg71
g4149
sg64
(lp4156
S'None'
p4157
asbasbasbag57
(g73
g59
NtRp4158
(dp4159
g62
(dp4160
sg71
g3560
sg64
(lp4161
g57
(g78
g59
NtRp4162
(dp4163
g62
(dp4164
g82
g83
ssg71
g4158
sg64
(lp4165
S'session_data_name'
p4166
asbag57
(g78
g59
NtRp4167
(dp4168
g62
(dp4169
g89
g90
ssg71
g4158
sg64
(lp4170
S':'
asbag57
(g78
g59
NtRp4171
(dp4172
g62
(dp4173
sg71
g4158
sg64
(lp4174
g57
(g58
g59
NtRp4175
(dp4176
g62
(dp4177
g70
I5
ssg71
g4171
sg64
(lp4178
S'session_data_projeto'
p4179
asbasbasbag57
(g73
g59
NtRp4180
(dp4181
g62
(dp4182
sg71
g3560
sg64
(lp4183
g57
(g78
g59
NtRp4184
(dp4185
g62
(dp4186
g82
g83
ssg71
g4180
sg64
(lp4187
S'session_file'
p4188
asbag57
(g78
g59
NtRp4189
(dp4190
g62
(dp4191
g89
g90
ssg71
g4180
sg64
(lp4192
S':'
asbag57
(g78
g59
NtRp4193
(dp4194
g62
(dp4195
sg71
g4180
sg64
(lp4196
g57
(g58
g59
NtRp4197
(dp4198
g62
(dp4199
g70
I5
ssg71
g4193
sg64
(lp4200
S"<open file '/var/www/web2py_curso/applications/projeto/sessions/127.0.0.1-b705e3e5-709a-4648-bd75-671bbf3eb083', mode 'rb+' at 0x7f675c197f60>"
p4201
asbasbasbag57
(g73
g59
NtRp4202
(dp4203
g62
(dp4204
sg71
g3560
sg64
(lp4205
g57
(g78
g59
NtRp4206
(dp4207
g62
(dp4208
g82
g83
ssg71
g4202
sg64
(lp4209
S'session_filename'
p4210
asbag57
(g78
g59
NtRp4211
(dp4212
g62
(dp4213
g89
g90
ssg71
g4202
sg64
(lp4214
S':'
asbag57
(g78
g59
NtRp4215
(dp4216
g62
(dp4217
sg71
g4202
sg64
(lp4218
g57
(g58
g59
NtRp4219
(dp4220
g62
(dp4221
g70
I5
ssg71
g4215
sg64
(lp4222
S'/var/www/web2py_curso/applications/projeto/sessions/127.0.0.1-b705e3e5-709a-4648-bd75-671bbf3eb083'
p4223
asbasbasbag57
(g73
g59
NtRp4224
(dp4225
g62
(dp4226
sg71
g3560
sg64
(lp4227
g57
(g78
g59
NtRp4228
(dp4229
g62
(dp4230
g82
g83
ssg71
g4224
sg64
(lp4231
S'session_id'
p4232
asbag57
(g78
g59
NtRp4233
(dp4234
g62
(dp4235
g89
g90
ssg71
g4224
sg64
(lp4236
S':'
asbag57
(g78
g59
NtRp4237
(dp4238
g62
(dp4239
sg71
g4224
sg64
(lp4240
g57
(g58
g59
NtRp4241
(dp4242
g62
(dp4243
g70
I5
ssg71
g4237
sg64
(lp4244
g488
asbasbasbag57
(g73
g59
NtRp4245
(dp4246
g62
(dp4247
sg71
g3560
sg64
(lp4248
g57
(g78
g59
NtRp4249
(dp4250
g62
(dp4251
g82
g83
ssg71
g4245
sg64
(lp4252
S'session_id_name'
p4253
asbag57
(g78
g59
NtRp4254
(dp4255
g62
(dp4256
g89
g90
ssg71
g4245
sg64
(lp4257
S':'
asbag57
(g78
g59
NtRp4258
(dp4259
g62
(dp4260
sg71
g4245
sg64
(lp4261
g57
(g58
g59
NtRp4262
(dp4263
g62
(dp4264
g70
I5
ssg71
g4258
sg64
(lp4265
g3617
asbasbasbag57
(g73
g59
NtRp4266
(dp4267
g62
(dp4268
sg71
g3560
sg64
(lp4269
g57
(g78
g59
NtRp4270
(dp4271
g62
(dp4272
g82
g83
ssg71
g4266
sg64
(lp4273
S'session_locked'
p4274
asbag57
(g78
g59
NtRp4275
(dp4276
g62
(dp4277
g89
g90
ssg71
g4266
sg64
(lp4278
S':'
asbag57
(g78
g59
NtRp4279
(dp4280
g62
(dp4281
sg71
g4266
sg64
(lp4282
g57
(g58
g59
NtRp4283
(dp4284
g62
(dp4285
g70
I5
ssg71
g4279
sg64
(lp4286
g2014
asbasbasbag57
(g73
g59
NtRp4287
(dp4288
g62
(dp4289
sg71
g3560
sg64
(lp4290
g57
(g78
g59
NtRp4291
(dp4292
g62
(dp4293
g82
g83
ssg71
g4287
sg64
(lp4294
S'session_new'
p4295
asbag57
(g78
g59
NtRp4296
(dp4297
g62
(dp4298
g89
g90
ssg71
g4287
sg64
(lp4299
S':'
asbag57
(g78
g59
NtRp4300
(dp4301
g62
(dp4302
sg71
g4287
sg64
(lp4303
g57
(g58
g59
NtRp4304
(dp4305
g62
(dp4306
g70
I5
ssg71
g4300
sg64
(lp4307
g100
asbasbasbag57
(g73
g59
NtRp4308
(dp4309
g62
(dp4310
sg71
g3560
sg64
(lp4311
g57
(g78
g59
NtRp4312
(dp4313
g62
(dp4314
g82
g83
ssg71
g4308
sg64
(lp4315
S'session_storage_type'
p4316
asbag57
(g78
g59
NtRp4317
(dp4318
g62
(dp4319
g89
g90
ssg71
g4308
sg64
(lp4320
S':'
asbag57
(g78
g59
NtRp4321
(dp4322
g62
(dp4323
sg71
g4308
sg64
(lp4324
g57
(g58
g59
NtRp4325
(dp4326
g62
(dp4327
g70
I5
ssg71
g4321
sg64
(lp4328
g3444
asbasbasbag57
(g73
g59
NtRp4329
(dp4330
g62
(dp4331
sg71
g3560
sg64
(lp4332
g57
(g78
g59
NtRp4333
(dp4334
g62
(dp4335
g82
g83
ssg71
g4329
sg64
(lp4336
S'status'
p4337
asbag57
(g78
g59
NtRp4338
(dp4339
g62
(dp4340
g89
g90
ssg71
g4329
sg64
(lp4341
S':'
asbag57
(g78
g59
NtRp4342
(dp4343
g62
(dp4344
sg71
g4329
sg64
(lp4345
g57
(g58
g59
NtRp4346
(dp4347
g62
(dp4348
g70
I5
ssg71
g4342
sg64
(lp4349
S'200'
p4350
asbasbasbag57
(g73
g59
NtRp4351
(dp4352
g62
(dp4353
sg71
g3560
sg64
(lp4354
g57
(g78
g59
NtRp4355
(dp4356
g62
(dp4357
g82
g83
ssg71
g4351
sg64
(lp4358
S'title'
p4359
asbag57
(g78
g59
NtRp4360
(dp4361
g62
(dp4362
g89
g90
ssg71
g4351
sg64
(lp4363
S':'
asbag57
(g78
g59
NtRp4364
(dp4365
g62
(dp4366
sg71
g4351
sg64
(lp4367
g57
(g58
g59
NtRp4368
(dp4369
g62
(dp4370
g70
I5
ssg71
g4364
sg64
(lp4371
S'titulo response'
p4372
asbasbasbag57
(g73
g59
NtRp4373
(dp4374
g62
(dp4375
sg71
g3560
sg64
(lp4376
g57
(g78
g59
NtRp4377
(dp4378
g62
(dp4379
g82
g83
ssg71
g4373
sg64
(lp4380
S'view'
p4381
asbag57
(g78
g59
NtRp4382
(dp4383
g62
(dp4384
g89
g90
ssg71
g4373
sg64
(lp4385
S':'
asbag57
(g78
g59
NtRp4386
(dp4387
g62
(dp4388
sg71
g4373
sg64
(lp4389
g57
(g58
g59
NtRp4390
(dp4391
g62
(dp4392
g70
I5
ssg71
g4386
sg64
(lp4393
S'initial/user.html'
p4394
asbasbasbasbasbsS'locals'
p4395
(dp4396
S'a'
S"('initial/home.html', <gluon.sqlhtml.SQLFORM object>)"
p4397
sS'self'
p4398
S"<Storage {'body': <cStringIO.StringO object at 0...bda> at 0x32b8ed8>, 'view': 'initial/user.html'}>"
p4399
sS'b'
g45
sS'run_view_in'
p4400
S'<function run_view_in>'
p4401
sg4381
S"'initial/home.html'"
p4402
sssS'traceback'
p4403
S'Traceback (most recent call last):\n  File "/var/www/web2py_curso/gluon/restricted.py", line 212, in restricted\n    exec ccode in environment\n  File "/var/www/web2py_curso/applications/projeto/controllers/initial.py", line 65, in <module>\n  File "/var/www/web2py_curso/gluon/globals.py", line 193, in <lambda>\n    self._caller = lambda f: f()\n  File "/var/www/web2py_curso/applications/projeto/controllers/initial.py", line 17, in user\n    return response.render ("initial/home.html", auth())\n  File "/var/www/web2py_curso/gluon/globals.py", line 219, in render\n    self._vars.update(b)\nTypeError: update() takes exactly 1 argument (2 given)\n'
p4404
s.