(dp1
S'output'
p2
S''
sS'layer'
p3
S'Framework'
p4
sS'code'
p5
S''
sS'snapshot'
p6
(dp7
S'exception'
p8
(dp9
S'__getslice__'
p10
S"<method-wrapper '__getslice__' of exceptions.IOError object>"
p11
sS'__str__'
p12
S"<method-wrapper '__str__' of exceptions.IOError object>"
p13
sS'__reduce__'
p14
S'<built-in method __reduce__ of exceptions.IOError object>'
p15
sS'__dict__'
p16
S'{}'
p17
sS'__sizeof__'
p18
S'<built-in method __sizeof__ of exceptions.IOError object>'
p19
sS'__init__'
p20
S"<method-wrapper '__init__' of exceptions.IOError object>"
p21
sS'__setattr__'
p22
S"<method-wrapper '__setattr__' of exceptions.IOError object>"
p23
sS'__reduce_ex__'
p24
S'<built-in method __reduce_ex__ of exceptions.IOError object>'
p25
sS'__new__'
p26
S'<built-in method __new__ of type object>'
p27
sS'errno'
p28
S'13'
p29
sS'__format__'
p30
S'<built-in method __format__ of exceptions.IOError object>'
p31
sS'__class__'
p32
S"<type 'exceptions.IOError'>"
p33
sS'filename'
p34
S"'/var/www/web2py_curso/applications/projeto/sessions/127.0.0.1-71851f1a-a738-4589-a6cd-6594e5094ab6'"
p35
sS'__doc__'
p36
S"'I/O operation failed.'"
p37
sS'__getitem__'
p38
S"<method-wrapper '__getitem__' of exceptions.IOError object>"
p39
sS'__setstate__'
p40
S'<built-in method __setstate__ of exceptions.IOError object>'
p41
sS'__getattribute__'
p42
S"<method-wrapper '__getattribute__' of exceptions.IOError object>"
p43
sS'args'
p44
S"(13, 'Permission denied')"
p45
sS'__subclasshook__'
p46
S'<built-in method __subclasshook__ of type object>'
p47
sS'__unicode__'
p48
S'<built-in method __unicode__ of exceptions.IOError object>'
p49
sS'strerror'
p50
S"'Permission denied'"
p51
sS'__delattr__'
p52
S"<method-wrapper '__delattr__' of exceptions.IOError object>"
p53
sS'__repr__'
p54
S"<method-wrapper '__repr__' of exceptions.IOError object>"
p55
sS'__hash__'
p56
S"<method-wrapper '__hash__' of exceptions.IOError object>"
p57
ssS'evalue'
p58
S"[Errno 13] Permission denied: '/var/www/web2py_curso/applications/projeto/sessions/127.0.0.1-71851f1a-a738-4589-a6cd-6594e5094ab6'"
p59
sS'request'
p60
ccopy_reg
_reconstructor
p61
(cgluon.html
BEAUTIFY
p62
c__builtin__
object
p63
NtRp64
(dp65
S'attributes'
p66
(dp67
sS'components'
p68
(lp69
g61
(cgluon.html
TABLE
p70
g63
NtRp71
(dp72
g66
(dp73
S'level'
p74
I5
ssS'parent'
p75
Nsg68
(lp76
g61
(cgluon.html
TR
p77
g63
NtRp78
(dp79
g66
(dp80
sg75
g71
sg68
(lp81
g61
(cgluon.html
TD
p82
g63
NtRp83
(dp84
g66
(dp85
S'_style'
p86
S'font-weight:bold;vertical-align:top'
p87
ssg75
g78
sg68
(lp88
S'ajax'
p89
asbag61
(g82
g63
NtRp90
(dp91
g66
(dp92
S'_valign'
p93
S'top'
p94
ssg75
g78
sg68
(lp95
S':'
asbag61
(g82
g63
NtRp96
(dp97
g66
(dp98
sg75
g78
sg68
(lp99
g61
(g62
g63
NtRp100
(dp101
g66
(dp102
g74
I5
ssg75
g96
sg68
(lp103
S'False'
p104
asbasbasbag61
(g77
g63
NtRp105
(dp106
g66
(dp107
sg75
g71
sg68
(lp108
g61
(g82
g63
NtRp109
(dp110
g66
(dp111
g86
g87
ssg75
g105
sg68
(lp112
S'application'
p113
asbag61
(g82
g63
NtRp114
(dp115
g66
(dp116
g93
g94
ssg75
g105
sg68
(lp117
S':'
asbag61
(g82
g63
NtRp118
(dp119
g66
(dp120
sg75
g105
sg68
(lp121
g61
(g62
g63
NtRp122
(dp123
g66
(dp124
g74
I5
ssg75
g118
sg68
(lp125
S'projeto'
p126
asbasbasbag61
(g77
g63
NtRp127
(dp128
g66
(dp129
sg75
g71
sg68
(lp130
g61
(g82
g63
NtRp131
(dp132
g66
(dp133
g86
g87
ssg75
g127
sg68
(lp134
g44
asbag61
(g82
g63
NtRp135
(dp136
g66
(dp137
g93
g94
ssg75
g127
sg68
(lp138
S':'
asbag61
(g82
g63
NtRp139
(dp140
g66
(dp141
sg75
g127
sg68
(lp142
g61
(g62
g63
NtRp143
(dp144
g66
(dp145
g74
I5
ssg75
g139
sg68
(lp146
g61
(g70
g63
NtRp147
(dp148
g66
(dp149
g74
I4
ssg75
Nsg68
(lp150
g61
(g77
g63
NtRp151
(dp152
g66
(dp153
sg75
g147
sg68
(lp154
g61
(g82
g63
NtRp155
(dp156
g66
(dp157
sg75
g151
sg68
(lp158
g61
(g62
g63
NtRp159
(dp160
g66
(dp161
g74
I4
ssg75
g155
sg68
(lp162
S'login'
p163
asbasbasbasbasbasbasbag61
(g77
g63
NtRp164
(dp165
g66
(dp166
sg75
g71
sg68
(lp167
g61
(g82
g63
NtRp168
(dp169
g66
(dp170
g86
g87
ssg75
g164
sg68
(lp171
S'body'
p172
asbag61
(g82
g63
NtRp173
(dp174
g66
(dp175
g93
g94
ssg75
g164
sg68
(lp176
S':'
asbag61
(g82
g63
NtRp177
(dp178
g66
(dp179
sg75
g164
sg68
(lp180
g61
(g62
g63
NtRp181
(dp182
g66
(dp183
g74
I5
ssg75
g177
sg68
(lp184
S'<cStringIO.StringO object at 0x7f3fcc54cdf8>'
p185
asbasbasbag61
(g77
g63
NtRp186
(dp187
g66
(dp188
sg75
g71
sg68
(lp189
g61
(g82
g63
NtRp190
(dp191
g66
(dp192
g86
g87
ssg75
g186
sg68
(lp193
S'cid'
p194
asbag61
(g82
g63
NtRp195
(dp196
g66
(dp197
g93
g94
ssg75
g186
sg68
(lp198
S':'
asbag61
(g82
g63
NtRp199
(dp200
g66
(dp201
sg75
g186
sg68
(lp202
g61
(g62
g63
NtRp203
(dp204
g66
(dp205
g74
I5
ssg75
g199
sg68
(lp206
S'None'
p207
asbasbasbag61
(g77
g63
NtRp208
(dp209
g66
(dp210
sg75
g71
sg68
(lp211
g61
(g82
g63
NtRp212
(dp213
g66
(dp214
g86
g87
ssg75
g208
sg68
(lp215
S'client'
p216
asbag61
(g82
g63
NtRp217
(dp218
g66
(dp219
g93
g94
ssg75
g208
sg68
(lp220
S':'
asbag61
(g82
g63
NtRp221
(dp222
g66
(dp223
sg75
g208
sg68
(lp224
g61
(g62
g63
NtRp225
(dp226
g66
(dp227
g74
I5
ssg75
g221
sg68
(lp228
S'127.0.0.1'
p229
asbasbasbag61
(g77
g63
NtRp230
(dp231
g66
(dp232
sg75
g71
sg68
(lp233
g61
(g82
g63
NtRp234
(dp235
g66
(dp236
g86
g87
ssg75
g230
sg68
(lp237
S'controller'
p238
asbag61
(g82
g63
NtRp239
(dp240
g66
(dp241
g93
g94
ssg75
g230
sg68
(lp242
S':'
asbag61
(g82
g63
NtRp243
(dp244
g66
(dp245
sg75
g230
sg68
(lp246
g61
(g62
g63
NtRp247
(dp248
g66
(dp249
g74
I5
ssg75
g243
sg68
(lp250
S'initial'
p251
asbasbasbag61
(g77
g63
NtRp252
(dp253
g66
(dp254
sg75
g71
sg68
(lp255
g61
(g82
g63
NtRp256
(dp257
g66
(dp258
g86
g87
ssg75
g252
sg68
(lp259
S'cookies'
p260
asbag61
(g82
g63
NtRp261
(dp262
g66
(dp263
g93
g94
ssg75
g252
sg68
(lp264
S':'
asbag61
(g82
g63
NtRp265
(dp266
g66
(dp267
sg75
g252
sg68
(lp268
g61
(g62
g63
NtRp269
(dp270
g66
(dp271
g74
I5
ssg75
g265
sg68
(lp272
g61
(g70
g63
NtRp273
(dp274
g66
(dp275
g74
I4
ssg75
Nsg68
(lp276
g61
(g77
g63
NtRp277
(dp278
g66
(dp279
sg75
g273
sg68
(lp280
g61
(g82
g63
NtRp281
(dp282
g66
(dp283
g86
g87
ssg75
g277
sg68
(lp284
S'session_id_admin'
p285
asbag61
(g82
g63
NtRp286
(dp287
g66
(dp288
g93
g94
ssg75
g277
sg68
(lp289
S':'
asbag61
(g82
g63
NtRp290
(dp291
g66
(dp292
sg75
g277
sg68
(lp293
g61
(g62
g63
NtRp294
(dp295
g66
(dp296
g74
I4
ssg75
g290
sg68
(lp297
S'127.0.0.1-9640a29f-86a5-4471-9025-77da26554f56'
p298
ag61
(g70
g63
NtRp299
(dp300
g66
(dp301
g74
I3
ssg75
Nsg68
(lp302
g61
(g77
g63
NtRp303
(dp304
g66
(dp305
sg75
g299
sg68
(lp306
g61
(g82
g63
NtRp307
(dp308
g66
(dp309
g86
g87
ssg75
g303
sg68
(lp310
S'comment'
p311
asbag61
(g82
g63
NtRp312
(dp313
g66
(dp314
g93
g94
ssg75
g303
sg68
(lp315
S':'
asbag61
(g82
g63
NtRp316
(dp317
g66
(dp318
sg75
g303
sg68
(lp319
g61
(g62
g63
NtRp320
(dp321
g66
(dp322
g74
I3
ssg75
g316
sg68
(lp323
S''
asbasbasbag61
(g77
g63
NtRp324
(dp325
g66
(dp326
sg75
g299
sg68
(lp327
g61
(g82
g63
NtRp328
(dp329
g66
(dp330
g86
g87
ssg75
g324
sg68
(lp331
S'domain'
p332
asbag61
(g82
g63
NtRp333
(dp334
g66
(dp335
g93
g94
ssg75
g324
sg68
(lp336
S':'
asbag61
(g82
g63
NtRp337
(dp338
g66
(dp339
sg75
g324
sg68
(lp340
g61
(g62
g63
NtRp341
(dp342
g66
(dp343
g74
I3
ssg75
g337
sg68
(lp344
S''
asbasbasbag61
(g77
g63
NtRp345
(dp346
g66
(dp347
sg75
g299
sg68
(lp348
g61
(g82
g63
NtRp349
(dp350
g66
(dp351
g86
g87
ssg75
g345
sg68
(lp352
S'expires'
p353
asbag61
(g82
g63
NtRp354
(dp355
g66
(dp356
g93
g94
ssg75
g345
sg68
(lp357
S':'
asbag61
(g82
g63
NtRp358
(dp359
g66
(dp360
sg75
g345
sg68
(lp361
g61
(g62
g63
NtRp362
(dp363
g66
(dp364
g74
I3
ssg75
g358
sg68
(lp365
S''
asbasbasbag61
(g77
g63
NtRp366
(dp367
g66
(dp368
sg75
g299
sg68
(lp369
g61
(g82
g63
NtRp370
(dp371
g66
(dp372
g86
g87
ssg75
g366
sg68
(lp373
S'httponly'
p374
asbag61
(g82
g63
NtRp375
(dp376
g66
(dp377
g93
g94
ssg75
g366
sg68
(lp378
S':'
asbag61
(g82
g63
NtRp379
(dp380
g66
(dp381
sg75
g366
sg68
(lp382
g61
(g62
g63
NtRp383
(dp384
g66
(dp385
g74
I3
ssg75
g379
sg68
(lp386
S''
asbasbasbag61
(g77
g63
NtRp387
(dp388
g66
(dp389
sg75
g299
sg68
(lp390
g61
(g82
g63
NtRp391
(dp392
g66
(dp393
g86
g87
ssg75
g387
sg68
(lp394
S'max-age'
p395
asbag61
(g82
g63
NtRp396
(dp397
g66
(dp398
g93
g94
ssg75
g387
sg68
(lp399
S':'
asbag61
(g82
g63
NtRp400
(dp401
g66
(dp402
sg75
g387
sg68
(lp403
g61
(g62
g63
NtRp404
(dp405
g66
(dp406
g74
I3
ssg75
g400
sg68
(lp407
S''
asbasbasbag61
(g77
g63
NtRp408
(dp409
g66
(dp410
sg75
g299
sg68
(lp411
g61
(g82
g63
NtRp412
(dp413
g66
(dp414
g86
g87
ssg75
g408
sg68
(lp415
S'path'
p416
asbag61
(g82
g63
NtRp417
(dp418
g66
(dp419
g93
g94
ssg75
g408
sg68
(lp420
S':'
asbag61
(g82
g63
NtRp421
(dp422
g66
(dp423
sg75
g408
sg68
(lp424
g61
(g62
g63
NtRp425
(dp426
g66
(dp427
g74
I3
ssg75
g421
sg68
(lp428
S''
asbasbasbag61
(g77
g63
NtRp429
(dp430
g66
(dp431
sg75
g299
sg68
(lp432
g61
(g82
g63
NtRp433
(dp434
g66
(dp435
g86
g87
ssg75
g429
sg68
(lp436
S'secure'
p437
asbag61
(g82
g63
NtRp438
(dp439
g66
(dp440
g93
g94
ssg75
g429
sg68
(lp441
S':'
asbag61
(g82
g63
NtRp442
(dp443
g66
(dp444
sg75
g429
sg68
(lp445
g61
(g62
g63
NtRp446
(dp447
g66
(dp448
g74
I3
ssg75
g442
sg68
(lp449
S''
asbasbasbag61
(g77
g63
NtRp450
(dp451
g66
(dp452
sg75
g299
sg68
(lp453
g61
(g82
g63
NtRp454
(dp455
g66
(dp456
g86
g87
ssg75
g450
sg68
(lp457
S'version'
p458
asbag61
(g82
g63
NtRp459
(dp460
g66
(dp461
g93
g94
ssg75
g450
sg68
(lp462
S':'
asbag61
(g82
g63
NtRp463
(dp464
g66
(dp465
sg75
g450
sg68
(lp466
g61
(g62
g63
NtRp467
(dp468
g66
(dp469
g74
I3
ssg75
g463
sg68
(lp470
S''
asbasbasbasbasbasbasbag61
(g77
g63
NtRp471
(dp472
g66
(dp473
sg75
g273
sg68
(lp474
g61
(g82
g63
NtRp475
(dp476
g66
(dp477
g86
g87
ssg75
g471
sg68
(lp478
S'session_id_projeto'
p479
asbag61
(g82
g63
NtRp480
(dp481
g66
(dp482
g93
g94
ssg75
g471
sg68
(lp483
S':'
asbag61
(g82
g63
NtRp484
(dp485
g66
(dp486
sg75
g471
sg68
(lp487
g61
(g62
g63
NtRp488
(dp489
g66
(dp490
g74
I4
ssg75
g484
sg68
(lp491
S'127.0.0.1-71851f1a-a738-4589-a6cd-6594e5094ab6'
p492
ag61
(g70
g63
NtRp493
(dp494
g66
(dp495
g74
I3
ssg75
Nsg68
(lp496
g61
(g77
g63
NtRp497
(dp498
g66
(dp499
sg75
g493
sg68
(lp500
g61
(g82
g63
NtRp501
(dp502
g66
(dp503
g86
g87
ssg75
g497
sg68
(lp504
g311
asbag61
(g82
g63
NtRp505
(dp506
g66
(dp507
g93
g94
ssg75
g497
sg68
(lp508
S':'
asbag61
(g82
g63
NtRp509
(dp510
g66
(dp511
sg75
g497
sg68
(lp512
g61
(g62
g63
NtRp513
(dp514
g66
(dp515
g74
I3
ssg75
g509
sg68
(lp516
S''
asbasbasbag61
(g77
g63
NtRp517
(dp518
g66
(dp519
sg75
g493
sg68
(lp520
g61
(g82
g63
NtRp521
(dp522
g66
(dp523
g86
g87
ssg75
g517
sg68
(lp524
g332
asbag61
(g82
g63
NtRp525
(dp526
g66
(dp527
g93
g94
ssg75
g517
sg68
(lp528
S':'
asbag61
(g82
g63
NtRp529
(dp530
g66
(dp531
sg75
g517
sg68
(lp532
g61
(g62
g63
NtRp533
(dp534
g66
(dp535
g74
I3
ssg75
g529
sg68
(lp536
S''
asbasbasbag61
(g77
g63
NtRp537
(dp538
g66
(dp539
sg75
g493
sg68
(lp540
g61
(g82
g63
NtRp541
(dp542
g66
(dp543
g86
g87
ssg75
g537
sg68
(lp544
g353
asbag61
(g82
g63
NtRp545
(dp546
g66
(dp547
g93
g94
ssg75
g537
sg68
(lp548
S':'
asbag61
(g82
g63
NtRp549
(dp550
g66
(dp551
sg75
g537
sg68
(lp552
g61
(g62
g63
NtRp553
(dp554
g66
(dp555
g74
I3
ssg75
g549
sg68
(lp556
S''
asbasbasbag61
(g77
g63
NtRp557
(dp558
g66
(dp559
sg75
g493
sg68
(lp560
g61
(g82
g63
NtRp561
(dp562
g66
(dp563
g86
g87
ssg75
g557
sg68
(lp564
g374
asbag61
(g82
g63
NtRp565
(dp566
g66
(dp567
g93
g94
ssg75
g557
sg68
(lp568
S':'
asbag61
(g82
g63
NtRp569
(dp570
g66
(dp571
sg75
g557
sg68
(lp572
g61
(g62
g63
NtRp573
(dp574
g66
(dp575
g74
I3
ssg75
g569
sg68
(lp576
S''
asbasbasbag61
(g77
g63
NtRp577
(dp578
g66
(dp579
sg75
g493
sg68
(lp580
g61
(g82
g63
NtRp581
(dp582
g66
(dp583
g86
g87
ssg75
g577
sg68
(lp584
g395
asbag61
(g82
g63
NtRp585
(dp586
g66
(dp587
g93
g94
ssg75
g577
sg68
(lp588
S':'
asbag61
(g82
g63
NtRp589
(dp590
g66
(dp591
sg75
g577
sg68
(lp592
g61
(g62
g63
NtRp593
(dp594
g66
(dp595
g74
I3
ssg75
g589
sg68
(lp596
S''
asbasbasbag61
(g77
g63
NtRp597
(dp598
g66
(dp599
sg75
g493
sg68
(lp600
g61
(g82
g63
NtRp601
(dp602
g66
(dp603
g86
g87
ssg75
g597
sg68
(lp604
g416
asbag61
(g82
g63
NtRp605
(dp606
g66
(dp607
g93
g94
ssg75
g597
sg68
(lp608
S':'
asbag61
(g82
g63
NtRp609
(dp610
g66
(dp611
sg75
g597
sg68
(lp612
g61
(g62
g63
NtRp613
(dp614
g66
(dp615
g74
I3
ssg75
g609
sg68
(lp616
S''
asbasbasbag61
(g77
g63
NtRp617
(dp618
g66
(dp619
sg75
g493
sg68
(lp620
g61
(g82
g63
NtRp621
(dp622
g66
(dp623
g86
g87
ssg75
g617
sg68
(lp624
g437
asbag61
(g82
g63
NtRp625
(dp626
g66
(dp627
g93
g94
ssg75
g617
sg68
(lp628
S':'
asbag61
(g82
g63
NtRp629
(dp630
g66
(dp631
sg75
g617
sg68
(lp632
g61
(g62
g63
NtRp633
(dp634
g66
(dp635
g74
I3
ssg75
g629
sg68
(lp636
S''
asbasbasbag61
(g77
g63
NtRp637
(dp638
g66
(dp639
sg75
g493
sg68
(lp640
g61
(g82
g63
NtRp641
(dp642
g66
(dp643
g86
g87
ssg75
g637
sg68
(lp644
g458
asbag61
(g82
g63
NtRp645
(dp646
g66
(dp647
g93
g94
ssg75
g637
sg68
(lp648
S':'
asbag61
(g82
g63
NtRp649
(dp650
g66
(dp651
sg75
g637
sg68
(lp652
g61
(g62
g63
NtRp653
(dp654
g66
(dp655
g74
I3
ssg75
g649
sg68
(lp656
S''
asbasbasbasbasbasbasbasbasbasbasbag61
(g77
g63
NtRp657
(dp658
g66
(dp659
sg75
g71
sg68
(lp660
g61
(g82
g63
NtRp661
(dp662
g66
(dp663
g86
g87
ssg75
g657
sg68
(lp664
S'env'
p665
asbag61
(g82
g63
NtRp666
(dp667
g66
(dp668
g93
g94
ssg75
g657
sg68
(lp669
S':'
asbag61
(g82
g63
NtRp670
(dp671
g66
(dp672
sg75
g657
sg68
(lp673
g61
(g62
g63
NtRp674
(dp675
g66
(dp676
g74
I5
ssg75
g670
sg68
(lp677
g61
(g70
g63
NtRp678
(dp679
g66
(dp680
g74
I4
ssg75
Nsg68
(lp681
g61
(g77
g63
NtRp682
(dp683
g66
(dp684
sg75
g678
sg68
(lp685
g61
(g82
g63
NtRp686
(dp687
g66
(dp688
g86
g87
ssg75
g682
sg68
(lp689
S'app_folders'
p690
asbag61
(g82
g63
NtRp691
(dp692
g66
(dp693
g93
g94
ssg75
g682
sg68
(lp694
S':'
asbag61
(g82
g63
NtRp695
(dp696
g66
(dp697
sg75
g682
sg68
(lp698
g61
(g62
g63
NtRp699
(dp700
g66
(dp701
g74
I4
ssg75
g695
sg68
(lp702
S"set(['/var/www/web2py_curso/applications/admin/', '/var/www/web2py_curso/applications/projeto/'])"
p703
asbasbasbag61
(g77
g63
NtRp704
(dp705
g66
(dp706
sg75
g678
sg68
(lp707
g61
(g82
g63
NtRp708
(dp709
g66
(dp710
g86
g87
ssg75
g704
sg68
(lp711
S'applications_parent'
p712
asbag61
(g82
g63
NtRp713
(dp714
g66
(dp715
g93
g94
ssg75
g704
sg68
(lp716
S':'
asbag61
(g82
g63
NtRp717
(dp718
g66
(dp719
sg75
g704
sg68
(lp720
g61
(g62
g63
NtRp721
(dp722
g66
(dp723
g74
I4
ssg75
g717
sg68
(lp724
S'/var/www/web2py_curso'
p725
asbasbasbag61
(g77
g63
NtRp726
(dp727
g66
(dp728
sg75
g678
sg68
(lp729
g61
(g82
g63
NtRp730
(dp731
g66
(dp732
g86
g87
ssg75
g726
sg68
(lp733
S'cmd_args'
p734
asbag61
(g82
g63
NtRp735
(dp736
g66
(dp737
g93
g94
ssg75
g726
sg68
(lp738
S':'
asbag61
(g82
g63
NtRp739
(dp740
g66
(dp741
sg75
g726
sg68
(lp742
g61
(g62
g63
NtRp743
(dp744
g66
(dp745
g74
I4
ssg75
g739
sg68
(lp746
g61
(g70
g63
NtRp747
(dp748
g66
(dp749
g74
I3
ssg75
Nsg68
(lp750
sbasbasbasbag61
(g77
g63
NtRp751
(dp752
g66
(dp753
sg75
g678
sg68
(lp754
g61
(g82
g63
NtRp755
(dp756
g66
(dp757
g86
g87
ssg75
g751
sg68
(lp758
S'cmd_options'
p759
asbag61
(g82
g63
NtRp760
(dp761
g66
(dp762
g93
g94
ssg75
g751
sg68
(lp763
S':'
asbag61
(g82
g63
NtRp764
(dp765
g66
(dp766
sg75
g751
sg68
(lp767
g61
(g62
g63
NtRp768
(dp769
g66
(dp770
g74
I4
ssg75
g764
sg68
(lp771
S"<Values at 0x1701a28: {'verbose': False, 'ip': '127.0.0.1', 'with_scheduler': False, 'ips': [], 'shutdown_timeout': 5, 'taskbar': False, 'port': 8000, 'maxthreads': None, 'softcron': False, 'server_name': 'fernando-pc', 'bpython': False, 'nogui': False, 'pid_filename': 'httpserver.pid', 'extcron': False, 'runcron': False, 'run_system_tests': False, 'test': None, 'folder': '/var/www/web2py_curso', 'config': '', 'minthreads': None, 'winservice': '', 'shell': None, 'run': '', 'log_filename': 'httpserver.log', 'debuglevel': 30, 'args': [''], 'socket_timeout': 5, 'ssl_ca_certificate': None, 'scheduler': None, 'profiler_filename': None, 'ssl_private_key': '', 'scheduler_groups': None, 'password': '123456', 'request_queue_size': 5, 'ssl_certificate': '', 'cronjob': False, 'numthreads': None, 'quiet': False, 'interfaces': None, 'import_models': False, 'timeout': 10, 'plain': False, 'nobanner': False}>"
p772
asbasbasbag61
(g77
g63
NtRp773
(dp774
g66
(dp775
sg75
g678
sg68
(lp776
g61
(g82
g63
NtRp777
(dp778
g66
(dp779
g86
g87
ssg75
g773
sg68
(lp780
S'db_sessions'
p781
asbag61
(g82
g63
NtRp782
(dp783
g66
(dp784
g93
g94
ssg75
g773
sg68
(lp785
S':'
asbag61
(g82
g63
NtRp786
(dp787
g66
(dp788
sg75
g773
sg68
(lp789
g61
(g62
g63
NtRp790
(dp791
g66
(dp792
g74
I4
ssg75
g786
sg68
(lp793
S'set([])'
p794
asbasbasbag61
(g77
g63
NtRp795
(dp796
g66
(dp797
sg75
g678
sg68
(lp798
g61
(g82
g63
NtRp799
(dp800
g66
(dp801
g86
g87
ssg75
g795
sg68
(lp802
S'debugging'
p803
asbag61
(g82
g63
NtRp804
(dp805
g66
(dp806
g93
g94
ssg75
g795
sg68
(lp807
S':'
asbag61
(g82
g63
NtRp808
(dp809
g66
(dp810
sg75
g795
sg68
(lp811
g61
(g62
g63
NtRp812
(dp813
g66
(dp814
g74
I4
ssg75
g808
sg68
(lp815
g104
asbasbasbag61
(g77
g63
NtRp816
(dp817
g66
(dp818
sg75
g678
sg68
(lp819
g61
(g82
g63
NtRp820
(dp821
g66
(dp822
g86
g87
ssg75
g816
sg68
(lp823
S'gluon_parent'
p824
asbag61
(g82
g63
NtRp825
(dp826
g66
(dp827
g93
g94
ssg75
g816
sg68
(lp828
S':'
asbag61
(g82
g63
NtRp829
(dp830
g66
(dp831
sg75
g816
sg68
(lp832
g61
(g62
g63
NtRp833
(dp834
g66
(dp835
g74
I4
ssg75
g829
sg68
(lp836
S'/var/www/web2py_curso'
p837
asbasbasbag61
(g77
g63
NtRp838
(dp839
g66
(dp840
sg75
g678
sg68
(lp841
g61
(g82
g63
NtRp842
(dp843
g66
(dp844
g86
g87
ssg75
g838
sg68
(lp845
S'http_accept'
p846
asbag61
(g82
g63
NtRp847
(dp848
g66
(dp849
g93
g94
ssg75
g838
sg68
(lp850
S':'
asbag61
(g82
g63
NtRp851
(dp852
g66
(dp853
sg75
g838
sg68
(lp854
g61
(g62
g63
NtRp855
(dp856
g66
(dp857
g74
I4
ssg75
g851
sg68
(lp858
S'text/html,application/xhtml+xml,application/xml;q=0.9,*/*;q=0.8'
p859
asbasbasbag61
(g77
g63
NtRp860
(dp861
g66
(dp862
sg75
g678
sg68
(lp863
g61
(g82
g63
NtRp864
(dp865
g66
(dp866
g86
g87
ssg75
g860
sg68
(lp867
S'http_accept_charset'
p868
asbag61
(g82
g63
NtRp869
(dp870
g66
(dp871
g93
g94
ssg75
g860
sg68
(lp872
S':'
asbag61
(g82
g63
NtRp873
(dp874
g66
(dp875
sg75
g860
sg68
(lp876
g61
(g62
g63
NtRp877
(dp878
g66
(dp879
g74
I4
ssg75
g873
sg68
(lp880
S'ISO-8859-1,utf-8;q=0.7,*;q=0.3'
p881
asbasbasbag61
(g77
g63
NtRp882
(dp883
g66
(dp884
sg75
g678
sg68
(lp885
g61
(g82
g63
NtRp886
(dp887
g66
(dp888
g86
g87
ssg75
g882
sg68
(lp889
S'http_accept_encoding'
p890
asbag61
(g82
g63
NtRp891
(dp892
g66
(dp893
g93
g94
ssg75
g882
sg68
(lp894
S':'
asbag61
(g82
g63
NtRp895
(dp896
g66
(dp897
sg75
g882
sg68
(lp898
g61
(g62
g63
NtRp899
(dp900
g66
(dp901
g74
I4
ssg75
g895
sg68
(lp902
S'gzip,deflate,sdch'
p903
asbasbasbag61
(g77
g63
NtRp904
(dp905
g66
(dp906
sg75
g678
sg68
(lp907
g61
(g82
g63
NtRp908
(dp909
g66
(dp910
g86
g87
ssg75
g904
sg68
(lp911
S'http_accept_language'
p912
asbag61
(g82
g63
NtRp913
(dp914
g66
(dp915
g93
g94
ssg75
g904
sg68
(lp916
S':'
asbag61
(g82
g63
NtRp917
(dp918
g66
(dp919
sg75
g904
sg68
(lp920
g61
(g62
g63
NtRp921
(dp922
g66
(dp923
g74
I4
ssg75
g917
sg68
(lp924
S'pt-BR,pt;q=0.8,en-US;q=0.6,en;q=0.4'
p925
asbasbasbag61
(g77
g63
NtRp926
(dp927
g66
(dp928
sg75
g678
sg68
(lp929
g61
(g82
g63
NtRp930
(dp931
g66
(dp932
g86
g87
ssg75
g926
sg68
(lp933
S'http_connection'
p934
asbag61
(g82
g63
NtRp935
(dp936
g66
(dp937
g93
g94
ssg75
g926
sg68
(lp938
S':'
asbag61
(g82
g63
NtRp939
(dp940
g66
(dp941
sg75
g926
sg68
(lp942
g61
(g62
g63
NtRp943
(dp944
g66
(dp945
g74
I4
ssg75
g939
sg68
(lp946
S'keep-alive'
p947
asbasbasbag61
(g77
g63
NtRp948
(dp949
g66
(dp950
sg75
g678
sg68
(lp951
g61
(g82
g63
NtRp952
(dp953
g66
(dp954
g86
g87
ssg75
g948
sg68
(lp955
S'http_cookie'
p956
asbag61
(g82
g63
NtRp957
(dp958
g66
(dp959
g93
g94
ssg75
g948
sg68
(lp960
S':'
asbag61
(g82
g63
NtRp961
(dp962
g66
(dp963
sg75
g948
sg68
(lp964
g61
(g62
g63
NtRp965
(dp966
g66
(dp967
g74
I4
ssg75
g961
sg68
(lp968
S'session_id_admin=127.0.0.1-9640a29f-86a5-4471-9025-77da26554f56; session_id_projeto=127.0.0.1-71851f1a-a738-4589-a6cd-6594e5094ab6'
p969
asbasbasbag61
(g77
g63
NtRp970
(dp971
g66
(dp972
sg75
g678
sg68
(lp973
g61
(g82
g63
NtRp974
(dp975
g66
(dp976
g86
g87
ssg75
g970
sg68
(lp977
S'http_host'
p978
asbag61
(g82
g63
NtRp979
(dp980
g66
(dp981
g93
g94
ssg75
g970
sg68
(lp982
S':'
asbag61
(g82
g63
NtRp983
(dp984
g66
(dp985
sg75
g970
sg68
(lp986
g61
(g62
g63
NtRp987
(dp988
g66
(dp989
g74
I4
ssg75
g983
sg68
(lp990
S'127.0.0.1:8000'
p991
asbasbasbag61
(g77
g63
NtRp992
(dp993
g66
(dp994
sg75
g678
sg68
(lp995
g61
(g82
g63
NtRp996
(dp997
g66
(dp998
g86
g87
ssg75
g992
sg68
(lp999
S'http_user_agent'
p1000
asbag61
(g82
g63
NtRp1001
(dp1002
g66
(dp1003
g93
g94
ssg75
g992
sg68
(lp1004
S':'
asbag61
(g82
g63
NtRp1005
(dp1006
g66
(dp1007
sg75
g992
sg68
(lp1008
g61
(g62
g63
NtRp1009
(dp1010
g66
(dp1011
g74
I4
ssg75
g1005
sg68
(lp1012
S'Mozilla/5.0 (X11; Linux x86_64) AppleWebKit/536.11 (KHTML, like Gecko) Ubuntu/12.04 Chromium/20.0.1132.47 Chrome/20.0.1132.47 Safari/536.11'
p1013
asbasbasbag61
(g77
g63
NtRp1014
(dp1015
g66
(dp1016
sg75
g678
sg68
(lp1017
g61
(g82
g63
NtRp1018
(dp1019
g66
(dp1020
g86
g87
ssg75
g1014
sg68
(lp1021
S'is_jython'
p1022
asbag61
(g82
g63
NtRp1023
(dp1024
g66
(dp1025
g93
g94
ssg75
g1014
sg68
(lp1026
S':'
asbag61
(g82
g63
NtRp1027
(dp1028
g66
(dp1029
sg75
g1014
sg68
(lp1030
g61
(g62
g63
NtRp1031
(dp1032
g66
(dp1033
g74
I4
ssg75
g1027
sg68
(lp1034
g104
asbasbasbag61
(g77
g63
NtRp1035
(dp1036
g66
(dp1037
sg75
g678
sg68
(lp1038
g61
(g82
g63
NtRp1039
(dp1040
g66
(dp1041
g86
g87
ssg75
g1035
sg68
(lp1042
S'is_pypy'
p1043
asbag61
(g82
g63
NtRp1044
(dp1045
g66
(dp1046
g93
g94
ssg75
g1035
sg68
(lp1047
S':'
asbag61
(g82
g63
NtRp1048
(dp1049
g66
(dp1050
sg75
g1035
sg68
(lp1051
g61
(g62
g63
NtRp1052
(dp1053
g66
(dp1054
g74
I4
ssg75
g1048
sg68
(lp1055
g104
asbasbasbag61
(g77
g63
NtRp1056
(dp1057
g66
(dp1058
sg75
g678
sg68
(lp1059
g61
(g82
g63
NtRp1060
(dp1061
g66
(dp1062
g86
g87
ssg75
g1056
sg68
(lp1063
S'local_hosts'
p1064
asbag61
(g82
g63
NtRp1065
(dp1066
g66
(dp1067
g93
g94
ssg75
g1056
sg68
(lp1068
S':'
asbag61
(g82
g63
NtRp1069
(dp1070
g66
(dp1071
sg75
g1056
sg68
(lp1072
g61
(g62
g63
NtRp1073
(dp1074
g66
(dp1075
g74
I4
ssg75
g1069
sg68
(lp1076
g61
(g70
g63
NtRp1077
(dp1078
g66
(dp1079
g74
I3
ssg75
Nsg68
(lp1080
g61
(g77
g63
NtRp1081
(dp1082
g66
(dp1083
sg75
g1077
sg68
(lp1084
g61
(g82
g63
NtRp1085
(dp1086
g66
(dp1087
sg75
g1081
sg68
(lp1088
g61
(g62
g63
NtRp1089
(dp1090
g66
(dp1091
g74
I3
ssg75
g1085
sg68
(lp1092
S'::1'
p1093
asbasbasbag61
(g77
g63
NtRp1094
(dp1095
g66
(dp1096
sg75
g1077
sg68
(lp1097
g61
(g82
g63
NtRp1098
(dp1099
g66
(dp1100
sg75
g1094
sg68
(lp1101
g61
(g62
g63
NtRp1102
(dp1103
g66
(dp1104
g74
I3
ssg75
g1098
sg68
(lp1105
S'127.0.1.1'
p1106
asbasbasbag61
(g77
g63
NtRp1107
(dp1108
g66
(dp1109
sg75
g1077
sg68
(lp1110
g61
(g82
g63
NtRp1111
(dp1112
g66
(dp1113
sg75
g1107
sg68
(lp1114
g61
(g62
g63
NtRp1115
(dp1116
g66
(dp1117
g74
I3
ssg75
g1111
sg68
(lp1118
S'fernando-pc'
p1119
asbasbasbag61
(g77
g63
NtRp1120
(dp1121
g66
(dp1122
sg75
g1077
sg68
(lp1123
g61
(g82
g63
NtRp1124
(dp1125
g66
(dp1126
sg75
g1120
sg68
(lp1127
g61
(g62
g63
NtRp1128
(dp1129
g66
(dp1130
g74
I3
ssg75
g1124
sg68
(lp1131
S'::ffff:127.0.0.1'
p1132
asbasbasbag61
(g77
g63
NtRp1133
(dp1134
g66
(dp1135
sg75
g1077
sg68
(lp1136
g61
(g82
g63
NtRp1137
(dp1138
g66
(dp1139
sg75
g1133
sg68
(lp1140
g61
(g62
g63
NtRp1141
(dp1142
g66
(dp1143
g74
I3
ssg75
g1137
sg68
(lp1144
S'127.0.0.1'
p1145
asbasbasbasbasbasbasbag61
(g77
g63
NtRp1146
(dp1147
g66
(dp1148
sg75
g678
sg68
(lp1149
g61
(g82
g63
NtRp1150
(dp1151
g66
(dp1152
g86
g87
ssg75
g1146
sg68
(lp1153
S'path_info'
p1154
asbag61
(g82
g63
NtRp1155
(dp1156
g66
(dp1157
g93
g94
ssg75
g1146
sg68
(lp1158
S':'
asbag61
(g82
g63
NtRp1159
(dp1160
g66
(dp1161
sg75
g1146
sg68
(lp1162
g61
(g62
g63
NtRp1163
(dp1164
g66
(dp1165
g74
I4
ssg75
g1159
sg68
(lp1166
S'/user/login'
p1167
asbasbasbag61
(g77
g63
NtRp1168
(dp1169
g66
(dp1170
sg75
g678
sg68
(lp1171
g61
(g82
g63
NtRp1172
(dp1173
g66
(dp1174
g86
g87
ssg75
g1168
sg68
(lp1175
S'query_string'
p1176
asbag61
(g82
g63
NtRp1177
(dp1178
g66
(dp1179
g93
g94
ssg75
g1168
sg68
(lp1180
S':'
asbag61
(g82
g63
NtRp1181
(dp1182
g66
(dp1183
sg75
g1168
sg68
(lp1184
g61
(g62
g63
NtRp1185
(dp1186
g66
(dp1187
g74
I4
ssg75
g1181
sg68
(lp1188
S''
asbasbasbag61
(g77
g63
NtRp1189
(dp1190
g66
(dp1191
sg75
g678
sg68
(lp1192
g61
(g82
g63
NtRp1193
(dp1194
g66
(dp1195
g86
g87
ssg75
g1189
sg68
(lp1196
S'remote_addr'
p1197
asbag61
(g82
g63
NtRp1198
(dp1199
g66
(dp1200
g93
g94
ssg75
g1189
sg68
(lp1201
S':'
asbag61
(g82
g63
NtRp1202
(dp1203
g66
(dp1204
sg75
g1189
sg68
(lp1205
g61
(g62
g63
NtRp1206
(dp1207
g66
(dp1208
g74
I4
ssg75
g1202
sg68
(lp1209
g229
asbasbasbag61
(g77
g63
NtRp1210
(dp1211
g66
(dp1212
sg75
g678
sg68
(lp1213
g61
(g82
g63
NtRp1214
(dp1215
g66
(dp1216
g86
g87
ssg75
g1210
sg68
(lp1217
S'remote_port'
p1218
asbag61
(g82
g63
NtRp1219
(dp1220
g66
(dp1221
g93
g94
ssg75
g1210
sg68
(lp1222
S':'
asbag61
(g82
g63
NtRp1223
(dp1224
g66
(dp1225
sg75
g1210
sg68
(lp1226
g61
(g62
g63
NtRp1227
(dp1228
g66
(dp1229
g74
I4
ssg75
g1223
sg68
(lp1230
S'46908'
p1231
asbasbasbag61
(g77
g63
NtRp1232
(dp1233
g66
(dp1234
sg75
g678
sg68
(lp1235
g61
(g82
g63
NtRp1236
(dp1237
g66
(dp1238
g86
g87
ssg75
g1232
sg68
(lp1239
S'request_method'
p1240
asbag61
(g82
g63
NtRp1241
(dp1242
g66
(dp1243
g93
g94
ssg75
g1232
sg68
(lp1244
S':'
asbag61
(g82
g63
NtRp1245
(dp1246
g66
(dp1247
sg75
g1232
sg68
(lp1248
g61
(g62
g63
NtRp1249
(dp1250
g66
(dp1251
g74
I4
ssg75
g1245
sg68
(lp1252
S'GET'
p1253
asbasbasbag61
(g77
g63
NtRp1254
(dp1255
g66
(dp1256
sg75
g678
sg68
(lp1257
g61
(g82
g63
NtRp1258
(dp1259
g66
(dp1260
g86
g87
ssg75
g1254
sg68
(lp1261
S'request_uri'
p1262
asbag61
(g82
g63
NtRp1263
(dp1264
g66
(dp1265
g93
g94
ssg75
g1254
sg68
(lp1266
S':'
asbag61
(g82
g63
NtRp1267
(dp1268
g66
(dp1269
sg75
g1254
sg68
(lp1270
g61
(g62
g63
NtRp1271
(dp1272
g66
(dp1273
g74
I4
ssg75
g1267
sg68
(lp1274
S'/projeto/initial/user/login'
p1275
asbasbasbag61
(g77
g63
NtRp1276
(dp1277
g66
(dp1278
sg75
g678
sg68
(lp1279
g61
(g82
g63
NtRp1280
(dp1281
g66
(dp1282
g86
g87
ssg75
g1276
sg68
(lp1283
S'script_name'
p1284
asbag61
(g82
g63
NtRp1285
(dp1286
g66
(dp1287
g93
g94
ssg75
g1276
sg68
(lp1288
S':'
asbag61
(g82
g63
NtRp1289
(dp1290
g66
(dp1291
sg75
g1276
sg68
(lp1292
g61
(g62
g63
NtRp1293
(dp1294
g66
(dp1295
g74
I4
ssg75
g1289
sg68
(lp1296
S''
asbasbasbag61
(g77
g63
NtRp1297
(dp1298
g66
(dp1299
sg75
g678
sg68
(lp1300
g61
(g82
g63
NtRp1301
(dp1302
g66
(dp1303
g86
g87
ssg75
g1297
sg68
(lp1304
S'server_name'
p1305
asbag61
(g82
g63
NtRp1306
(dp1307
g66
(dp1308
g93
g94
ssg75
g1297
sg68
(lp1309
S':'
asbag61
(g82
g63
NtRp1310
(dp1311
g66
(dp1312
sg75
g1297
sg68
(lp1313
g61
(g62
g63
NtRp1314
(dp1315
g66
(dp1316
g74
I4
ssg75
g1310
sg68
(lp1317
S'fernando-pc'
p1318
asbasbasbag61
(g77
g63
NtRp1319
(dp1320
g66
(dp1321
sg75
g678
sg68
(lp1322
g61
(g82
g63
NtRp1323
(dp1324
g66
(dp1325
g86
g87
ssg75
g1319
sg68
(lp1326
S'server_port'
p1327
asbag61
(g82
g63
NtRp1328
(dp1329
g66
(dp1330
g93
g94
ssg75
g1319
sg68
(lp1331
S':'
asbag61
(g82
g63
NtRp1332
(dp1333
g66
(dp1334
sg75
g1319
sg68
(lp1335
g61
(g62
g63
NtRp1336
(dp1337
g66
(dp1338
g74
I4
ssg75
g1332
sg68
(lp1339
S'8000'
p1340
asbasbasbag61
(g77
g63
NtRp1341
(dp1342
g66
(dp1343
sg75
g678
sg68
(lp1344
g61
(g82
g63
NtRp1345
(dp1346
g66
(dp1347
g86
g87
ssg75
g1341
sg68
(lp1348
S'server_protocol'
p1349
asbag61
(g82
g63
NtRp1350
(dp1351
g66
(dp1352
g93
g94
ssg75
g1341
sg68
(lp1353
S':'
asbag61
(g82
g63
NtRp1354
(dp1355
g66
(dp1356
sg75
g1341
sg68
(lp1357
g61
(g62
g63
NtRp1358
(dp1359
g66
(dp1360
g74
I4
ssg75
g1354
sg68
(lp1361
S'HTTP/1.1'
p1362
asbasbasbag61
(g77
g63
NtRp1363
(dp1364
g66
(dp1365
sg75
g678
sg68
(lp1366
g61
(g82
g63
NtRp1367
(dp1368
g66
(dp1369
g86
g87
ssg75
g1363
sg68
(lp1370
S'server_software'
p1371
asbag61
(g82
g63
NtRp1372
(dp1373
g66
(dp1374
g93
g94
ssg75
g1363
sg68
(lp1375
S':'
asbag61
(g82
g63
NtRp1376
(dp1377
g66
(dp1378
sg75
g1363
sg68
(lp1379
g61
(g62
g63
NtRp1380
(dp1381
g66
(dp1382
g74
I4
ssg75
g1376
sg68
(lp1383
S'Rocket 1.2.6'
p1384
asbasbasbag61
(g77
g63
NtRp1385
(dp1386
g66
(dp1387
sg75
g678
sg68
(lp1388
g61
(g82
g63
NtRp1389
(dp1390
g66
(dp1391
g86
g87
ssg75
g1385
sg68
(lp1392
S'web2py_original_uri'
p1393
asbag61
(g82
g63
NtRp1394
(dp1395
g66
(dp1396
g93
g94
ssg75
g1385
sg68
(lp1397
S':'
asbag61
(g82
g63
NtRp1398
(dp1399
g66
(dp1400
sg75
g1385
sg68
(lp1401
g61
(g62
g63
NtRp1402
(dp1403
g66
(dp1404
g74
I4
ssg75
g1398
sg68
(lp1405
g1167
asbasbasbag61
(g77
g63
NtRp1406
(dp1407
g66
(dp1408
sg75
g678
sg68
(lp1409
g61
(g82
g63
NtRp1410
(dp1411
g66
(dp1412
g86
g87
ssg75
g1406
sg68
(lp1413
S'web2py_path'
p1414
asbag61
(g82
g63
NtRp1415
(dp1416
g66
(dp1417
g93
g94
ssg75
g1406
sg68
(lp1418
S':'
asbag61
(g82
g63
NtRp1419
(dp1420
g66
(dp1421
sg75
g1406
sg68
(lp1422
g61
(g62
g63
NtRp1423
(dp1424
g66
(dp1425
g74
I4
ssg75
g1419
sg68
(lp1426
g725
asbasbasbag61
(g77
g63
NtRp1427
(dp1428
g66
(dp1429
sg75
g678
sg68
(lp1430
g61
(g82
g63
NtRp1431
(dp1432
g66
(dp1433
g86
g87
ssg75
g1427
sg68
(lp1434
S'web2py_version'
p1435
asbag61
(g82
g63
NtRp1436
(dp1437
g66
(dp1438
g93
g94
ssg75
g1427
sg68
(lp1439
S':'
asbag61
(g82
g63
NtRp1440
(dp1441
g66
(dp1442
sg75
g1427
sg68
(lp1443
g61
(g62
g63
NtRp1444
(dp1445
g66
(dp1446
g74
I4
ssg75
g1440
sg68
(lp1447
g61
(g70
g63
NtRp1448
(dp1449
g66
(dp1450
g74
I3
ssg75
Nsg68
(lp1451
g61
(g77
g63
NtRp1452
(dp1453
g66
(dp1454
sg75
g1448
sg68
(lp1455
g61
(g82
g63
NtRp1456
(dp1457
g66
(dp1458
sg75
g1452
sg68
(lp1459
g61
(g62
g63
NtRp1460
(dp1461
g66
(dp1462
g74
I3
ssg75
g1456
sg68
(lp1463
S'2'
asbasbasbag61
(g77
g63
NtRp1464
(dp1465
g66
(dp1466
sg75
g1448
sg68
(lp1467
g61
(g82
g63
NtRp1468
(dp1469
g66
(dp1470
sg75
g1464
sg68
(lp1471
g61
(g62
g63
NtRp1472
(dp1473
g66
(dp1474
g74
I3
ssg75
g1468
sg68
(lp1475
S'3'
asbasbasbag61
(g77
g63
NtRp1476
(dp1477
g66
(dp1478
sg75
g1448
sg68
(lp1479
g61
(g82
g63
NtRp1480
(dp1481
g66
(dp1482
sg75
g1476
sg68
(lp1483
g61
(g62
g63
NtRp1484
(dp1485
g66
(dp1486
g74
I3
ssg75
g1480
sg68
(lp1487
S'2'
asbasbasbag61
(g77
g63
NtRp1488
(dp1489
g66
(dp1490
sg75
g1448
sg68
(lp1491
g61
(g82
g63
NtRp1492
(dp1493
g66
(dp1494
sg75
g1488
sg68
(lp1495
g61
(g62
g63
NtRp1496
(dp1497
g66
(dp1498
g74
I3
ssg75
g1492
sg68
(lp1499
S'datetime.datetime(2012, 12, 17, 15, 3, 30)'
p1500
asbasbasbag61
(g77
g63
NtRp1501
(dp1502
g66
(dp1503
sg75
g1448
sg68
(lp1504
g61
(g82
g63
NtRp1505
(dp1506
g66
(dp1507
sg75
g1501
sg68
(lp1508
g61
(g62
g63
NtRp1509
(dp1510
g66
(dp1511
g74
I3
ssg75
g1505
sg68
(lp1512
S'stable'
p1513
asbasbasbasbasbasbasbag61
(g77
g63
NtRp1514
(dp1515
g66
(dp1516
sg75
g678
sg68
(lp1517
g61
(g82
g63
NtRp1518
(dp1519
g66
(dp1520
g86
g87
ssg75
g1514
sg68
(lp1521
S'wsgi_errors'
p1522
asbag61
(g82
g63
NtRp1523
(dp1524
g66
(dp1525
g93
g94
ssg75
g1514
sg68
(lp1526
S':'
asbag61
(g82
g63
NtRp1527
(dp1528
g66
(dp1529
sg75
g1514
sg68
(lp1530
g61
(g62
g63
NtRp1531
(dp1532
g66
(dp1533
g74
I4
ssg75
g1527
sg68
(lp1534
S"<open file '<stderr>', mode 'w' at 0x7f3fde94f270>"
p1535
asbasbasbag61
(g77
g63
NtRp1536
(dp1537
g66
(dp1538
sg75
g678
sg68
(lp1539
g61
(g82
g63
NtRp1540
(dp1541
g66
(dp1542
g86
g87
ssg75
g1536
sg68
(lp1543
S'wsgi_file_wrapper'
p1544
asbag61
(g82
g63
NtRp1545
(dp1546
g66
(dp1547
g93
g94
ssg75
g1536
sg68
(lp1548
S':'
asbag61
(g82
g63
NtRp1549
(dp1550
g66
(dp1551
sg75
g1536
sg68
(lp1552
g61
(g62
g63
NtRp1553
(dp1554
g66
(dp1555
g74
I4
ssg75
g1549
sg68
(lp1556
S'<class wsgiref.util.FileWrapper at 0x164f808>'
p1557
asbasbasbag61
(g77
g63
NtRp1558
(dp1559
g66
(dp1560
sg75
g678
sg68
(lp1561
g61
(g82
g63
NtRp1562
(dp1563
g66
(dp1564
g86
g87
ssg75
g1558
sg68
(lp1565
S'wsgi_input'
p1566
asbag61
(g82
g63
NtRp1567
(dp1568
g66
(dp1569
g93
g94
ssg75
g1558
sg68
(lp1570
S':'
asbag61
(g82
g63
NtRp1571
(dp1572
g66
(dp1573
sg75
g1558
sg68
(lp1574
g61
(g62
g63
NtRp1575
(dp1576
g66
(dp1577
g74
I4
ssg75
g1571
sg68
(lp1578
S'<socket._fileobject object at 0x7f3fbc1515d0>'
p1579
asbasbasbag61
(g77
g63
NtRp1580
(dp1581
g66
(dp1582
sg75
g678
sg68
(lp1583
g61
(g82
g63
NtRp1584
(dp1585
g66
(dp1586
g86
g87
ssg75
g1580
sg68
(lp1587
S'wsgi_multiprocess'
p1588
asbag61
(g82
g63
NtRp1589
(dp1590
g66
(dp1591
g93
g94
ssg75
g1580
sg68
(lp1592
S':'
asbag61
(g82
g63
NtRp1593
(dp1594
g66
(dp1595
sg75
g1580
sg68
(lp1596
g61
(g62
g63
NtRp1597
(dp1598
g66
(dp1599
g74
I4
ssg75
g1593
sg68
(lp1600
g104
asbasbasbag61
(g77
g63
NtRp1601
(dp1602
g66
(dp1603
sg75
g678
sg68
(lp1604
g61
(g82
g63
NtRp1605
(dp1606
g66
(dp1607
g86
g87
ssg75
g1601
sg68
(lp1608
S'wsgi_multithread'
p1609
asbag61
(g82
g63
NtRp1610
(dp1611
g66
(dp1612
g93
g94
ssg75
g1601
sg68
(lp1613
S':'
asbag61
(g82
g63
NtRp1614
(dp1615
g66
(dp1616
sg75
g1601
sg68
(lp1617
g61
(g62
g63
NtRp1618
(dp1619
g66
(dp1620
g74
I4
ssg75
g1614
sg68
(lp1621
S'True'
p1622
asbasbasbag61
(g77
g63
NtRp1623
(dp1624
g66
(dp1625
sg75
g678
sg68
(lp1626
g61
(g82
g63
NtRp1627
(dp1628
g66
(dp1629
g86
g87
ssg75
g1623
sg68
(lp1630
S'wsgi_run_once'
p1631
asbag61
(g82
g63
NtRp1632
(dp1633
g66
(dp1634
g93
g94
ssg75
g1623
sg68
(lp1635
S':'
asbag61
(g82
g63
NtRp1636
(dp1637
g66
(dp1638
sg75
g1623
sg68
(lp1639
g61
(g62
g63
NtRp1640
(dp1641
g66
(dp1642
g74
I4
ssg75
g1636
sg68
(lp1643
g104
asbasbasbag61
(g77
g63
NtRp1644
(dp1645
g66
(dp1646
sg75
g678
sg68
(lp1647
g61
(g82
g63
NtRp1648
(dp1649
g66
(dp1650
g86
g87
ssg75
g1644
sg68
(lp1651
S'wsgi_url_scheme'
p1652
asbag61
(g82
g63
NtRp1653
(dp1654
g66
(dp1655
g93
g94
ssg75
g1644
sg68
(lp1656
S':'
asbag61
(g82
g63
NtRp1657
(dp1658
g66
(dp1659
sg75
g1644
sg68
(lp1660
g61
(g62
g63
NtRp1661
(dp1662
g66
(dp1663
g74
I4
ssg75
g1657
sg68
(lp1664
S'http'
p1665
asbasbasbag61
(g77
g63
NtRp1666
(dp1667
g66
(dp1668
sg75
g678
sg68
(lp1669
g61
(g82
g63
NtRp1670
(dp1671
g66
(dp1672
g86
g87
ssg75
g1666
sg68
(lp1673
S'wsgi_version'
p1674
asbag61
(g82
g63
NtRp1675
(dp1676
g66
(dp1677
g93
g94
ssg75
g1666
sg68
(lp1678
S':'
asbag61
(g82
g63
NtRp1679
(dp1680
g66
(dp1681
sg75
g1666
sg68
(lp1682
g61
(g62
g63
NtRp1683
(dp1684
g66
(dp1685
g74
I4
ssg75
g1679
sg68
(lp1686
g61
(g70
g63
NtRp1687
(dp1688
g66
(dp1689
g74
I3
ssg75
Nsg68
(lp1690
g61
(g77
g63
NtRp1691
(dp1692
g66
(dp1693
sg75
g1687
sg68
(lp1694
g61
(g82
g63
NtRp1695
(dp1696
g66
(dp1697
sg75
g1691
sg68
(lp1698
g61
(g62
g63
NtRp1699
(dp1700
g66
(dp1701
g74
I3
ssg75
g1695
sg68
(lp1702
S'1'
asbasbasbag61
(g77
g63
NtRp1703
(dp1704
g66
(dp1705
sg75
g1687
sg68
(lp1706
g61
(g82
g63
NtRp1707
(dp1708
g66
(dp1709
sg75
g1703
sg68
(lp1710
g61
(g62
g63
NtRp1711
(dp1712
g66
(dp1713
g74
I3
ssg75
g1707
sg68
(lp1714
S'0'
asbasbasbasbasbasbasbasbasbasbasbag61
(g77
g63
NtRp1715
(dp1716
g66
(dp1717
sg75
g71
sg68
(lp1718
g61
(g82
g63
NtRp1719
(dp1720
g66
(dp1721
g86
g87
ssg75
g1715
sg68
(lp1722
S'extension'
p1723
asbag61
(g82
g63
NtRp1724
(dp1725
g66
(dp1726
g93
g94
ssg75
g1715
sg68
(lp1727
S':'
asbag61
(g82
g63
NtRp1728
(dp1729
g66
(dp1730
sg75
g1715
sg68
(lp1731
g61
(g62
g63
NtRp1732
(dp1733
g66
(dp1734
g74
I5
ssg75
g1728
sg68
(lp1735
S'html'
p1736
asbasbasbag61
(g77
g63
NtRp1737
(dp1738
g66
(dp1739
sg75
g71
sg68
(lp1740
g61
(g82
g63
NtRp1741
(dp1742
g66
(dp1743
g86
g87
ssg75
g1737
sg68
(lp1744
S'folder'
p1745
asbag61
(g82
g63
NtRp1746
(dp1747
g66
(dp1748
g93
g94
ssg75
g1737
sg68
(lp1749
S':'
asbag61
(g82
g63
NtRp1750
(dp1751
g66
(dp1752
sg75
g1737
sg68
(lp1753
g61
(g62
g63
NtRp1754
(dp1755
g66
(dp1756
g74
I5
ssg75
g1750
sg68
(lp1757
S'/var/www/web2py_curso/applications/projeto/'
p1758
asbasbasbag61
(g77
g63
NtRp1759
(dp1760
g66
(dp1761
sg75
g71
sg68
(lp1762
g61
(g82
g63
NtRp1763
(dp1764
g66
(dp1765
g86
g87
ssg75
g1759
sg68
(lp1766
S'function'
p1767
asbag61
(g82
g63
NtRp1768
(dp1769
g66
(dp1770
g93
g94
ssg75
g1759
sg68
(lp1771
S':'
asbag61
(g82
g63
NtRp1772
(dp1773
g66
(dp1774
sg75
g1759
sg68
(lp1775
g61
(g62
g63
NtRp1776
(dp1777
g66
(dp1778
g74
I5
ssg75
g1772
sg68
(lp1779
S'user'
p1780
asbasbasbag61
(g77
g63
NtRp1781
(dp1782
g66
(dp1783
sg75
g71
sg68
(lp1784
g61
(g82
g63
NtRp1785
(dp1786
g66
(dp1787
g86
g87
ssg75
g1781
sg68
(lp1788
S'get_vars'
p1789
asbag61
(g82
g63
NtRp1790
(dp1791
g66
(dp1792
g93
g94
ssg75
g1781
sg68
(lp1793
S':'
asbag61
(g82
g63
NtRp1794
(dp1795
g66
(dp1796
sg75
g1781
sg68
(lp1797
g61
(g62
g63
NtRp1798
(dp1799
g66
(dp1800
g74
I5
ssg75
g1794
sg68
(lp1801
g61
(g70
g63
NtRp1802
(dp1803
g66
(dp1804
g74
I4
ssg75
Nsg68
(lp1805
sbasbasbasbag61
(g77
g63
NtRp1806
(dp1807
g66
(dp1808
sg75
g71
sg68
(lp1809
g61
(g82
g63
NtRp1810
(dp1811
g66
(dp1812
g86
g87
ssg75
g1806
sg68
(lp1813
S'global_settings'
p1814
asbag61
(g82
g63
NtRp1815
(dp1816
g66
(dp1817
g93
g94
ssg75
g1806
sg68
(lp1818
S':'
asbag61
(g82
g63
NtRp1819
(dp1820
g66
(dp1821
sg75
g1806
sg68
(lp1822
g61
(g62
g63
NtRp1823
(dp1824
g66
(dp1825
g74
I5
ssg75
g1819
sg68
(lp1826
g61
(g70
g63
NtRp1827
(dp1828
g66
(dp1829
g74
I4
ssg75
Nsg68
(lp1830
g61
(g77
g63
NtRp1831
(dp1832
g66
(dp1833
sg75
g1827
sg68
(lp1834
g61
(g82
g63
NtRp1835
(dp1836
g66
(dp1837
g86
g87
ssg75
g1831
sg68
(lp1838
g690
asbag61
(g82
g63
NtRp1839
(dp1840
g66
(dp1841
g93
g94
ssg75
g1831
sg68
(lp1842
S':'
asbag61
(g82
g63
NtRp1843
(dp1844
g66
(dp1845
sg75
g1831
sg68
(lp1846
g61
(g62
g63
NtRp1847
(dp1848
g66
(dp1849
g74
I4
ssg75
g1843
sg68
(lp1850
S"set(['/var/www/web2py_curso/applications/admin/', '/var/www/web2py_curso/applications/projeto/'])"
p1851
asbasbasbag61
(g77
g63
NtRp1852
(dp1853
g66
(dp1854
sg75
g1827
sg68
(lp1855
g61
(g82
g63
NtRp1856
(dp1857
g66
(dp1858
g86
g87
ssg75
g1852
sg68
(lp1859
g712
asbag61
(g82
g63
NtRp1860
(dp1861
g66
(dp1862
g93
g94
ssg75
g1852
sg68
(lp1863
S':'
asbag61
(g82
g63
NtRp1864
(dp1865
g66
(dp1866
sg75
g1852
sg68
(lp1867
g61
(g62
g63
NtRp1868
(dp1869
g66
(dp1870
g74
I4
ssg75
g1864
sg68
(lp1871
g725
asbasbasbag61
(g77
g63
NtRp1872
(dp1873
g66
(dp1874
sg75
g1827
sg68
(lp1875
g61
(g82
g63
NtRp1876
(dp1877
g66
(dp1878
g86
g87
ssg75
g1872
sg68
(lp1879
g734
asbag61
(g82
g63
NtRp1880
(dp1881
g66
(dp1882
g93
g94
ssg75
g1872
sg68
(lp1883
S':'
asbag61
(g82
g63
NtRp1884
(dp1885
g66
(dp1886
sg75
g1872
sg68
(lp1887
g61
(g62
g63
NtRp1888
(dp1889
g66
(dp1890
g74
I4
ssg75
g1884
sg68
(lp1891
g61
(g70
g63
NtRp1892
(dp1893
g66
(dp1894
g74
I3
ssg75
Nsg68
(lp1895
sbasbasbasbag61
(g77
g63
NtRp1896
(dp1897
g66
(dp1898
sg75
g1827
sg68
(lp1899
g61
(g82
g63
NtRp1900
(dp1901
g66
(dp1902
g86
g87
ssg75
g1896
sg68
(lp1903
g759
asbag61
(g82
g63
NtRp1904
(dp1905
g66
(dp1906
g93
g94
ssg75
g1896
sg68
(lp1907
S':'
asbag61
(g82
g63
NtRp1908
(dp1909
g66
(dp1910
sg75
g1896
sg68
(lp1911
g61
(g62
g63
NtRp1912
(dp1913
g66
(dp1914
g74
I4
ssg75
g1908
sg68
(lp1915
S"<Values at 0x1701a28: {'verbose': False, 'ip': '127.0.0.1', 'with_scheduler': False, 'ips': [], 'shutdown_timeout': 5, 'taskbar': False, 'port': 8000, 'maxthreads': None, 'softcron': False, 'server_name': 'fernando-pc', 'bpython': False, 'nogui': False, 'pid_filename': 'httpserver.pid', 'extcron': False, 'runcron': False, 'run_system_tests': False, 'test': None, 'folder': '/var/www/web2py_curso', 'config': '', 'minthreads': None, 'winservice': '', 'shell': None, 'run': '', 'log_filename': 'httpserver.log', 'debuglevel': 30, 'args': [''], 'socket_timeout': 5, 'ssl_ca_certificate': None, 'scheduler': None, 'profiler_filename': None, 'ssl_private_key': '', 'scheduler_groups': None, 'password': '123456', 'request_queue_size': 5, 'ssl_certificate': '', 'cronjob': False, 'numthreads': None, 'quiet': False, 'interfaces': None, 'import_models': False, 'timeout': 10, 'plain': False, 'nobanner': False}>"
p1916
asbasbasbag61
(g77
g63
NtRp1917
(dp1918
g66
(dp1919
sg75
g1827
sg68
(lp1920
g61
(g82
g63
NtRp1921
(dp1922
g66
(dp1923
g86
g87
ssg75
g1917
sg68
(lp1924
g781
asbag61
(g82
g63
NtRp1925
(dp1926
g66
(dp1927
g93
g94
ssg75
g1917
sg68
(lp1928
S':'
asbag61
(g82
g63
NtRp1929
(dp1930
g66
(dp1931
sg75
g1917
sg68
(lp1932
g61
(g62
g63
NtRp1933
(dp1934
g66
(dp1935
g74
I4
ssg75
g1929
sg68
(lp1936
S'set([])'
p1937
asbasbasbag61
(g77
g63
NtRp1938
(dp1939
g66
(dp1940
sg75
g1827
sg68
(lp1941
g61
(g82
g63
NtRp1942
(dp1943
g66
(dp1944
g86
g87
ssg75
g1938
sg68
(lp1945
g803
asbag61
(g82
g63
NtRp1946
(dp1947
g66
(dp1948
g93
g94
ssg75
g1938
sg68
(lp1949
S':'
asbag61
(g82
g63
NtRp1950
(dp1951
g66
(dp1952
sg75
g1938
sg68
(lp1953
g61
(g62
g63
NtRp1954
(dp1955
g66
(dp1956
g74
I4
ssg75
g1950
sg68
(lp1957
g104
asbasbasbag61
(g77
g63
NtRp1958
(dp1959
g66
(dp1960
sg75
g1827
sg68
(lp1961
g61
(g82
g63
NtRp1962
(dp1963
g66
(dp1964
g86
g87
ssg75
g1958
sg68
(lp1965
g824
asbag61
(g82
g63
NtRp1966
(dp1967
g66
(dp1968
g93
g94
ssg75
g1958
sg68
(lp1969
S':'
asbag61
(g82
g63
NtRp1970
(dp1971
g66
(dp1972
sg75
g1958
sg68
(lp1973
g61
(g62
g63
NtRp1974
(dp1975
g66
(dp1976
g74
I4
ssg75
g1970
sg68
(lp1977
g837
asbasbasbag61
(g77
g63
NtRp1978
(dp1979
g66
(dp1980
sg75
g1827
sg68
(lp1981
g61
(g82
g63
NtRp1982
(dp1983
g66
(dp1984
g86
g87
ssg75
g1978
sg68
(lp1985
g1022
asbag61
(g82
g63
NtRp1986
(dp1987
g66
(dp1988
g93
g94
ssg75
g1978
sg68
(lp1989
S':'
asbag61
(g82
g63
NtRp1990
(dp1991
g66
(dp1992
sg75
g1978
sg68
(lp1993
g61
(g62
g63
NtRp1994
(dp1995
g66
(dp1996
g74
I4
ssg75
g1990
sg68
(lp1997
g104
asbasbasbag61
(g77
g63
NtRp1998
(dp1999
g66
(dp2000
sg75
g1827
sg68
(lp2001
g61
(g82
g63
NtRp2002
(dp2003
g66
(dp2004
g86
g87
ssg75
g1998
sg68
(lp2005
g1043
asbag61
(g82
g63
NtRp2006
(dp2007
g66
(dp2008
g93
g94
ssg75
g1998
sg68
(lp2009
S':'
asbag61
(g82
g63
NtRp2010
(dp2011
g66
(dp2012
sg75
g1998
sg68
(lp2013
g61
(g62
g63
NtRp2014
(dp2015
g66
(dp2016
g74
I4
ssg75
g2010
sg68
(lp2017
g104
asbasbasbag61
(g77
g63
NtRp2018
(dp2019
g66
(dp2020
sg75
g1827
sg68
(lp2021
g61
(g82
g63
NtRp2022
(dp2023
g66
(dp2024
g86
g87
ssg75
g2018
sg68
(lp2025
g1064
asbag61
(g82
g63
NtRp2026
(dp2027
g66
(dp2028
g93
g94
ssg75
g2018
sg68
(lp2029
S':'
asbag61
(g82
g63
NtRp2030
(dp2031
g66
(dp2032
sg75
g2018
sg68
(lp2033
g61
(g62
g63
NtRp2034
(dp2035
g66
(dp2036
g74
I4
ssg75
g2030
sg68
(lp2037
g61
(g70
g63
NtRp2038
(dp2039
g66
(dp2040
g74
I3
ssg75
Nsg68
(lp2041
g61
(g77
g63
NtRp2042
(dp2043
g66
(dp2044
sg75
g2038
sg68
(lp2045
g61
(g82
g63
NtRp2046
(dp2047
g66
(dp2048
sg75
g2042
sg68
(lp2049
g61
(g62
g63
NtRp2050
(dp2051
g66
(dp2052
g74
I3
ssg75
g2046
sg68
(lp2053
g1093
asbasbasbag61
(g77
g63
NtRp2054
(dp2055
g66
(dp2056
sg75
g2038
sg68
(lp2057
g61
(g82
g63
NtRp2058
(dp2059
g66
(dp2060
sg75
g2054
sg68
(lp2061
g61
(g62
g63
NtRp2062
(dp2063
g66
(dp2064
g74
I3
ssg75
g2058
sg68
(lp2065
g1106
asbasbasbag61
(g77
g63
NtRp2066
(dp2067
g66
(dp2068
sg75
g2038
sg68
(lp2069
g61
(g82
g63
NtRp2070
(dp2071
g66
(dp2072
sg75
g2066
sg68
(lp2073
g61
(g62
g63
NtRp2074
(dp2075
g66
(dp2076
g74
I3
ssg75
g2070
sg68
(lp2077
g1119
asbasbasbag61
(g77
g63
NtRp2078
(dp2079
g66
(dp2080
sg75
g2038
sg68
(lp2081
g61
(g82
g63
NtRp2082
(dp2083
g66
(dp2084
sg75
g2078
sg68
(lp2085
g61
(g62
g63
NtRp2086
(dp2087
g66
(dp2088
g74
I3
ssg75
g2082
sg68
(lp2089
g1132
asbasbasbag61
(g77
g63
NtRp2090
(dp2091
g66
(dp2092
sg75
g2038
sg68
(lp2093
g61
(g82
g63
NtRp2094
(dp2095
g66
(dp2096
sg75
g2090
sg68
(lp2097
g61
(g62
g63
NtRp2098
(dp2099
g66
(dp2100
g74
I3
ssg75
g2094
sg68
(lp2101
g1145
asbasbasbasbasbasbasbag61
(g77
g63
NtRp2102
(dp2103
g66
(dp2104
sg75
g1827
sg68
(lp2105
g61
(g82
g63
NtRp2106
(dp2107
g66
(dp2108
g86
g87
ssg75
g2102
sg68
(lp2109
g1435
asbag61
(g82
g63
NtRp2110
(dp2111
g66
(dp2112
g93
g94
ssg75
g2102
sg68
(lp2113
S':'
asbag61
(g82
g63
NtRp2114
(dp2115
g66
(dp2116
sg75
g2102
sg68
(lp2117
g61
(g62
g63
NtRp2118
(dp2119
g66
(dp2120
g74
I4
ssg75
g2114
sg68
(lp2121
g61
(g70
g63
NtRp2122
(dp2123
g66
(dp2124
g74
I3
ssg75
Nsg68
(lp2125
g61
(g77
g63
NtRp2126
(dp2127
g66
(dp2128
sg75
g2122
sg68
(lp2129
g61
(g82
g63
NtRp2130
(dp2131
g66
(dp2132
sg75
g2126
sg68
(lp2133
g61
(g62
g63
NtRp2134
(dp2135
g66
(dp2136
g74
I3
ssg75
g2130
sg68
(lp2137
S'2'
asbasbasbag61
(g77
g63
NtRp2138
(dp2139
g66
(dp2140
sg75
g2122
sg68
(lp2141
g61
(g82
g63
NtRp2142
(dp2143
g66
(dp2144
sg75
g2138
sg68
(lp2145
g61
(g62
g63
NtRp2146
(dp2147
g66
(dp2148
g74
I3
ssg75
g2142
sg68
(lp2149
S'3'
asbasbasbag61
(g77
g63
NtRp2150
(dp2151
g66
(dp2152
sg75
g2122
sg68
(lp2153
g61
(g82
g63
NtRp2154
(dp2155
g66
(dp2156
sg75
g2150
sg68
(lp2157
g61
(g62
g63
NtRp2158
(dp2159
g66
(dp2160
g74
I3
ssg75
g2154
sg68
(lp2161
S'2'
asbasbasbag61
(g77
g63
NtRp2162
(dp2163
g66
(dp2164
sg75
g2122
sg68
(lp2165
g61
(g82
g63
NtRp2166
(dp2167
g66
(dp2168
sg75
g2162
sg68
(lp2169
g61
(g62
g63
NtRp2170
(dp2171
g66
(dp2172
g74
I3
ssg75
g2166
sg68
(lp2173
S'datetime.datetime(2012, 12, 17, 15, 3, 30)'
p2174
asbasbasbag61
(g77
g63
NtRp2175
(dp2176
g66
(dp2177
sg75
g2122
sg68
(lp2178
g61
(g82
g63
NtRp2179
(dp2180
g66
(dp2181
sg75
g2175
sg68
(lp2182
g61
(g62
g63
NtRp2183
(dp2184
g66
(dp2185
g74
I3
ssg75
g2179
sg68
(lp2186
g1513
asbasbasbasbasbasbasbasbasbasbasbag61
(g77
g63
NtRp2187
(dp2188
g66
(dp2189
sg75
g71
sg68
(lp2190
g61
(g82
g63
NtRp2191
(dp2192
g66
(dp2193
g86
g87
ssg75
g2187
sg68
(lp2194
S'is_https'
p2195
asbag61
(g82
g63
NtRp2196
(dp2197
g66
(dp2198
g93
g94
ssg75
g2187
sg68
(lp2199
S':'
asbag61
(g82
g63
NtRp2200
(dp2201
g66
(dp2202
sg75
g2187
sg68
(lp2203
g61
(g62
g63
NtRp2204
(dp2205
g66
(dp2206
g74
I5
ssg75
g2200
sg68
(lp2207
g104
asbasbasbag61
(g77
g63
NtRp2208
(dp2209
g66
(dp2210
sg75
g71
sg68
(lp2211
g61
(g82
g63
NtRp2212
(dp2213
g66
(dp2214
g86
g87
ssg75
g2208
sg68
(lp2215
S'is_local'
p2216
asbag61
(g82
g63
NtRp2217
(dp2218
g66
(dp2219
g93
g94
ssg75
g2208
sg68
(lp2220
S':'
asbag61
(g82
g63
NtRp2221
(dp2222
g66
(dp2223
sg75
g2208
sg68
(lp2224
g61
(g62
g63
NtRp2225
(dp2226
g66
(dp2227
g74
I5
ssg75
g2221
sg68
(lp2228
g1622
asbasbasbag61
(g77
g63
NtRp2229
(dp2230
g66
(dp2231
sg75
g71
sg68
(lp2232
g61
(g82
g63
NtRp2233
(dp2234
g66
(dp2235
g86
g87
ssg75
g2229
sg68
(lp2236
S'is_restful'
p2237
asbag61
(g82
g63
NtRp2238
(dp2239
g66
(dp2240
g93
g94
ssg75
g2229
sg68
(lp2241
S':'
asbag61
(g82
g63
NtRp2242
(dp2243
g66
(dp2244
sg75
g2229
sg68
(lp2245
g61
(g62
g63
NtRp2246
(dp2247
g66
(dp2248
g74
I5
ssg75
g2242
sg68
(lp2249
g104
asbasbasbag61
(g77
g63
NtRp2250
(dp2251
g66
(dp2252
sg75
g71
sg68
(lp2253
g61
(g82
g63
NtRp2254
(dp2255
g66
(dp2256
g86
g87
ssg75
g2250
sg68
(lp2257
S'now'
p2258
asbag61
(g82
g63
NtRp2259
(dp2260
g66
(dp2261
g93
g94
ssg75
g2250
sg68
(lp2262
S':'
asbag61
(g82
g63
NtRp2263
(dp2264
g66
(dp2265
sg75
g2250
sg68
(lp2266
g61
(g62
g63
NtRp2267
(dp2268
g66
(dp2269
g74
I5
ssg75
g2263
sg68
(lp2270
S'datetime.datetime(2013, 2, 2, 21, 42, 56, 693254)'
p2271
asbasbasbag61
(g77
g63
NtRp2272
(dp2273
g66
(dp2274
sg75
g71
sg68
(lp2275
g61
(g82
g63
NtRp2276
(dp2277
g66
(dp2278
g86
g87
ssg75
g2272
sg68
(lp2279
S'post_vars'
p2280
asbag61
(g82
g63
NtRp2281
(dp2282
g66
(dp2283
g93
g94
ssg75
g2272
sg68
(lp2284
S':'
asbag61
(g82
g63
NtRp2285
(dp2286
g66
(dp2287
sg75
g2272
sg68
(lp2288
g61
(g62
g63
NtRp2289
(dp2290
g66
(dp2291
g74
I5
ssg75
g2285
sg68
(lp2292
g61
(g70
g63
NtRp2293
(dp2294
g66
(dp2295
g74
I4
ssg75
Nsg68
(lp2296
sbasbasbasbag61
(g77
g63
NtRp2297
(dp2298
g66
(dp2299
sg75
g71
sg68
(lp2300
g61
(g82
g63
NtRp2301
(dp2302
g66
(dp2303
g86
g87
ssg75
g2297
sg68
(lp2304
S'url'
p2305
asbag61
(g82
g63
NtRp2306
(dp2307
g66
(dp2308
g93
g94
ssg75
g2297
sg68
(lp2309
S':'
asbag61
(g82
g63
NtRp2310
(dp2311
g66
(dp2312
sg75
g2297
sg68
(lp2313
g61
(g62
g63
NtRp2314
(dp2315
g66
(dp2316
g74
I5
ssg75
g2310
sg68
(lp2317
g1167
asbasbasbag61
(g77
g63
NtRp2318
(dp2319
g66
(dp2320
sg75
g71
sg68
(lp2321
g61
(g82
g63
NtRp2322
(dp2323
g66
(dp2324
g86
g87
ssg75
g2318
sg68
(lp2325
S'utcnow'
p2326
asbag61
(g82
g63
NtRp2327
(dp2328
g66
(dp2329
g93
g94
ssg75
g2318
sg68
(lp2330
S':'
asbag61
(g82
g63
NtRp2331
(dp2332
g66
(dp2333
sg75
g2318
sg68
(lp2334
g61
(g62
g63
NtRp2335
(dp2336
g66
(dp2337
g74
I5
ssg75
g2331
sg68
(lp2338
S'datetime.datetime(2013, 2, 2, 23, 42, 56, 693274)'
p2339
asbasbasbag61
(g77
g63
NtRp2340
(dp2341
g66
(dp2342
sg75
g71
sg68
(lp2343
g61
(g82
g63
NtRp2344
(dp2345
g66
(dp2346
g86
g87
ssg75
g2340
sg68
(lp2347
S'uuid'
p2348
asbag61
(g82
g63
NtRp2349
(dp2350
g66
(dp2351
g93
g94
ssg75
g2340
sg68
(lp2352
S':'
asbag61
(g82
g63
NtRp2353
(dp2354
g66
(dp2355
sg75
g2340
sg68
(lp2356
g61
(g62
g63
NtRp2357
(dp2358
g66
(dp2359
g74
I5
ssg75
g2353
sg68
(lp2360
S'projeto/127.0.0.1.2013-02-02.21-42-56.c3485a0a-c87e-448c-a6d1-92b375955a7d'
p2361
asbasbasbag61
(g77
g63
NtRp2362
(dp2363
g66
(dp2364
sg75
g71
sg68
(lp2365
g61
(g82
g63
NtRp2366
(dp2367
g66
(dp2368
g86
g87
ssg75
g2362
sg68
(lp2369
S'vars'
p2370
asbag61
(g82
g63
NtRp2371
(dp2372
g66
(dp2373
g93
g94
ssg75
g2362
sg68
(lp2374
S':'
asbag61
(g82
g63
NtRp2375
(dp2376
g66
(dp2377
sg75
g2362
sg68
(lp2378
g61
(g62
g63
NtRp2379
(dp2380
g66
(dp2381
g74
I5
ssg75
g2375
sg68
(lp2382
g61
(g70
g63
NtRp2383
(dp2384
g66
(dp2385
g74
I4
ssg75
Nsg68
(lp2386
sbasbasbasbag61
(g77
g63
NtRp2387
(dp2388
g66
(dp2389
sg75
g71
sg68
(lp2390
g61
(g82
g63
NtRp2391
(dp2392
g66
(dp2393
g86
g87
ssg75
g2387
sg68
(lp2394
S'wsgi'
p2395
asbag61
(g82
g63
NtRp2396
(dp2397
g66
(dp2398
g93
g94
ssg75
g2387
sg68
(lp2399
S':'
asbag61
(g82
g63
NtRp2400
(dp2401
g66
(dp2402
sg75
g2387
sg68
(lp2403
g61
(g62
g63
NtRp2404
(dp2405
g66
(dp2406
g74
I5
ssg75
g2400
sg68
(lp2407
g61
(g70
g63
NtRp2408
(dp2409
g66
(dp2410
g74
I4
ssg75
Nsg68
(lp2411
g61
(g77
g63
NtRp2412
(dp2413
g66
(dp2414
sg75
g2408
sg68
(lp2415
g61
(g82
g63
NtRp2416
(dp2417
g66
(dp2418
g86
g87
ssg75
g2412
sg68
(lp2419
S'environ'
p2420
asbag61
(g82
g63
NtRp2421
(dp2422
g66
(dp2423
g93
g94
ssg75
g2412
sg68
(lp2424
S':'
asbag61
(g82
g63
NtRp2425
(dp2426
g66
(dp2427
sg75
g2412
sg68
(lp2428
g61
(g62
g63
NtRp2429
(dp2430
g66
(dp2431
g74
I4
ssg75
g2425
sg68
(lp2432
g61
(g70
g63
NtRp2433
(dp2434
g66
(dp2435
g74
I3
ssg75
Nsg68
(lp2436
g61
(g77
g63
NtRp2437
(dp2438
g66
(dp2439
sg75
g2433
sg68
(lp2440
g61
(g82
g63
NtRp2441
(dp2442
g66
(dp2443
g86
g87
ssg75
g2437
sg68
(lp2444
S'HTTP_ACCEPT'
p2445
asbag61
(g82
g63
NtRp2446
(dp2447
g66
(dp2448
g93
g94
ssg75
g2437
sg68
(lp2449
S':'
asbag61
(g82
g63
NtRp2450
(dp2451
g66
(dp2452
sg75
g2437
sg68
(lp2453
g61
(g62
g63
NtRp2454
(dp2455
g66
(dp2456
g74
I3
ssg75
g2450
sg68
(lp2457
g859
asbasbasbag61
(g77
g63
NtRp2458
(dp2459
g66
(dp2460
sg75
g2433
sg68
(lp2461
g61
(g82
g63
NtRp2462
(dp2463
g66
(dp2464
g86
g87
ssg75
g2458
sg68
(lp2465
S'HTTP_ACCEPT_CHARSET'
p2466
asbag61
(g82
g63
NtRp2467
(dp2468
g66
(dp2469
g93
g94
ssg75
g2458
sg68
(lp2470
S':'
asbag61
(g82
g63
NtRp2471
(dp2472
g66
(dp2473
sg75
g2458
sg68
(lp2474
g61
(g62
g63
NtRp2475
(dp2476
g66
(dp2477
g74
I3
ssg75
g2471
sg68
(lp2478
g881
asbasbasbag61
(g77
g63
NtRp2479
(dp2480
g66
(dp2481
sg75
g2433
sg68
(lp2482
g61
(g82
g63
NtRp2483
(dp2484
g66
(dp2485
g86
g87
ssg75
g2479
sg68
(lp2486
S'HTTP_ACCEPT_ENCODING'
p2487
asbag61
(g82
g63
NtRp2488
(dp2489
g66
(dp2490
g93
g94
ssg75
g2479
sg68
(lp2491
S':'
asbag61
(g82
g63
NtRp2492
(dp2493
g66
(dp2494
sg75
g2479
sg68
(lp2495
g61
(g62
g63
NtRp2496
(dp2497
g66
(dp2498
g74
I3
ssg75
g2492
sg68
(lp2499
g903
asbasbasbag61
(g77
g63
NtRp2500
(dp2501
g66
(dp2502
sg75
g2433
sg68
(lp2503
g61
(g82
g63
NtRp2504
(dp2505
g66
(dp2506
g86
g87
ssg75
g2500
sg68
(lp2507
S'HTTP_ACCEPT_LANGUAGE'
p2508
asbag61
(g82
g63
NtRp2509
(dp2510
g66
(dp2511
g93
g94
ssg75
g2500
sg68
(lp2512
S':'
asbag61
(g82
g63
NtRp2513
(dp2514
g66
(dp2515
sg75
g2500
sg68
(lp2516
g61
(g62
g63
NtRp2517
(dp2518
g66
(dp2519
g74
I3
ssg75
g2513
sg68
(lp2520
g925
asbasbasbag61
(g77
g63
NtRp2521
(dp2522
g66
(dp2523
sg75
g2433
sg68
(lp2524
g61
(g82
g63
NtRp2525
(dp2526
g66
(dp2527
g86
g87
ssg75
g2521
sg68
(lp2528
S'HTTP_CONNECTION'
p2529
asbag61
(g82
g63
NtRp2530
(dp2531
g66
(dp2532
g93
g94
ssg75
g2521
sg68
(lp2533
S':'
asbag61
(g82
g63
NtRp2534
(dp2535
g66
(dp2536
sg75
g2521
sg68
(lp2537
g61
(g62
g63
NtRp2538
(dp2539
g66
(dp2540
g74
I3
ssg75
g2534
sg68
(lp2541
g947
asbasbasbag61
(g77
g63
NtRp2542
(dp2543
g66
(dp2544
sg75
g2433
sg68
(lp2545
g61
(g82
g63
NtRp2546
(dp2547
g66
(dp2548
g86
g87
ssg75
g2542
sg68
(lp2549
S'HTTP_COOKIE'
p2550
asbag61
(g82
g63
NtRp2551
(dp2552
g66
(dp2553
g93
g94
ssg75
g2542
sg68
(lp2554
S':'
asbag61
(g82
g63
NtRp2555
(dp2556
g66
(dp2557
sg75
g2542
sg68
(lp2558
g61
(g62
g63
NtRp2559
(dp2560
g66
(dp2561
g74
I3
ssg75
g2555
sg68
(lp2562
g969
asbasbasbag61
(g77
g63
NtRp2563
(dp2564
g66
(dp2565
sg75
g2433
sg68
(lp2566
g61
(g82
g63
NtRp2567
(dp2568
g66
(dp2569
g86
g87
ssg75
g2563
sg68
(lp2570
S'HTTP_HOST'
p2571
asbag61
(g82
g63
NtRp2572
(dp2573
g66
(dp2574
g93
g94
ssg75
g2563
sg68
(lp2575
S':'
asbag61
(g82
g63
NtRp2576
(dp2577
g66
(dp2578
sg75
g2563
sg68
(lp2579
g61
(g62
g63
NtRp2580
(dp2581
g66
(dp2582
g74
I3
ssg75
g2576
sg68
(lp2583
g991
asbasbasbag61
(g77
g63
NtRp2584
(dp2585
g66
(dp2586
sg75
g2433
sg68
(lp2587
g61
(g82
g63
NtRp2588
(dp2589
g66
(dp2590
g86
g87
ssg75
g2584
sg68
(lp2591
S'HTTP_USER_AGENT'
p2592
asbag61
(g82
g63
NtRp2593
(dp2594
g66
(dp2595
g93
g94
ssg75
g2584
sg68
(lp2596
S':'
asbag61
(g82
g63
NtRp2597
(dp2598
g66
(dp2599
sg75
g2584
sg68
(lp2600
g61
(g62
g63
NtRp2601
(dp2602
g66
(dp2603
g74
I3
ssg75
g2597
sg68
(lp2604
g1013
asbasbasbag61
(g77
g63
NtRp2605
(dp2606
g66
(dp2607
sg75
g2433
sg68
(lp2608
g61
(g82
g63
NtRp2609
(dp2610
g66
(dp2611
g86
g87
ssg75
g2605
sg68
(lp2612
S'PATH_INFO'
p2613
asbag61
(g82
g63
NtRp2614
(dp2615
g66
(dp2616
g93
g94
ssg75
g2605
sg68
(lp2617
S':'
asbag61
(g82
g63
NtRp2618
(dp2619
g66
(dp2620
sg75
g2605
sg68
(lp2621
g61
(g62
g63
NtRp2622
(dp2623
g66
(dp2624
g74
I3
ssg75
g2618
sg68
(lp2625
g1167
asbasbasbag61
(g77
g63
NtRp2626
(dp2627
g66
(dp2628
sg75
g2433
sg68
(lp2629
g61
(g82
g63
NtRp2630
(dp2631
g66
(dp2632
g86
g87
ssg75
g2626
sg68
(lp2633
S'QUERY_STRING'
p2634
asbag61
(g82
g63
NtRp2635
(dp2636
g66
(dp2637
g93
g94
ssg75
g2626
sg68
(lp2638
S':'
asbag61
(g82
g63
NtRp2639
(dp2640
g66
(dp2641
sg75
g2626
sg68
(lp2642
g61
(g62
g63
NtRp2643
(dp2644
g66
(dp2645
g74
I3
ssg75
g2639
sg68
(lp2646
S''
asbasbasbag61
(g77
g63
NtRp2647
(dp2648
g66
(dp2649
sg75
g2433
sg68
(lp2650
g61
(g82
g63
NtRp2651
(dp2652
g66
(dp2653
g86
g87
ssg75
g2647
sg68
(lp2654
S'REMOTE_ADDR'
p2655
asbag61
(g82
g63
NtRp2656
(dp2657
g66
(dp2658
g93
g94
ssg75
g2647
sg68
(lp2659
S':'
asbag61
(g82
g63
NtRp2660
(dp2661
g66
(dp2662
sg75
g2647
sg68
(lp2663
g61
(g62
g63
NtRp2664
(dp2665
g66
(dp2666
g74
I3
ssg75
g2660
sg68
(lp2667
g229
asbasbasbag61
(g77
g63
NtRp2668
(dp2669
g66
(dp2670
sg75
g2433
sg68
(lp2671
g61
(g82
g63
NtRp2672
(dp2673
g66
(dp2674
g86
g87
ssg75
g2668
sg68
(lp2675
S'REMOTE_PORT'
p2676
asbag61
(g82
g63
NtRp2677
(dp2678
g66
(dp2679
g93
g94
ssg75
g2668
sg68
(lp2680
S':'
asbag61
(g82
g63
NtRp2681
(dp2682
g66
(dp2683
sg75
g2668
sg68
(lp2684
g61
(g62
g63
NtRp2685
(dp2686
g66
(dp2687
g74
I3
ssg75
g2681
sg68
(lp2688
g1231
asbasbasbag61
(g77
g63
NtRp2689
(dp2690
g66
(dp2691
sg75
g2433
sg68
(lp2692
g61
(g82
g63
NtRp2693
(dp2694
g66
(dp2695
g86
g87
ssg75
g2689
sg68
(lp2696
S'REQUEST_METHOD'
p2697
asbag61
(g82
g63
NtRp2698
(dp2699
g66
(dp2700
g93
g94
ssg75
g2689
sg68
(lp2701
S':'
asbag61
(g82
g63
NtRp2702
(dp2703
g66
(dp2704
sg75
g2689
sg68
(lp2705
g61
(g62
g63
NtRp2706
(dp2707
g66
(dp2708
g74
I3
ssg75
g2702
sg68
(lp2709
g1253
asbasbasbag61
(g77
g63
NtRp2710
(dp2711
g66
(dp2712
sg75
g2433
sg68
(lp2713
g61
(g82
g63
NtRp2714
(dp2715
g66
(dp2716
g86
g87
ssg75
g2710
sg68
(lp2717
S'REQUEST_URI'
p2718
asbag61
(g82
g63
NtRp2719
(dp2720
g66
(dp2721
g93
g94
ssg75
g2710
sg68
(lp2722
S':'
asbag61
(g82
g63
NtRp2723
(dp2724
g66
(dp2725
sg75
g2710
sg68
(lp2726
g61
(g62
g63
NtRp2727
(dp2728
g66
(dp2729
g74
I3
ssg75
g2723
sg68
(lp2730
g1275
asbasbasbag61
(g77
g63
NtRp2731
(dp2732
g66
(dp2733
sg75
g2433
sg68
(lp2734
g61
(g82
g63
NtRp2735
(dp2736
g66
(dp2737
g86
g87
ssg75
g2731
sg68
(lp2738
S'SCRIPT_NAME'
p2739
asbag61
(g82
g63
NtRp2740
(dp2741
g66
(dp2742
g93
g94
ssg75
g2731
sg68
(lp2743
S':'
asbag61
(g82
g63
NtRp2744
(dp2745
g66
(dp2746
sg75
g2731
sg68
(lp2747
g61
(g62
g63
NtRp2748
(dp2749
g66
(dp2750
g74
I3
ssg75
g2744
sg68
(lp2751
S''
asbasbasbag61
(g77
g63
NtRp2752
(dp2753
g66
(dp2754
sg75
g2433
sg68
(lp2755
g61
(g82
g63
NtRp2756
(dp2757
g66
(dp2758
g86
g87
ssg75
g2752
sg68
(lp2759
S'SERVER_NAME'
p2760
asbag61
(g82
g63
NtRp2761
(dp2762
g66
(dp2763
g93
g94
ssg75
g2752
sg68
(lp2764
S':'
asbag61
(g82
g63
NtRp2765
(dp2766
g66
(dp2767
sg75
g2752
sg68
(lp2768
g61
(g62
g63
NtRp2769
(dp2770
g66
(dp2771
g74
I3
ssg75
g2765
sg68
(lp2772
g1318
asbasbasbag61
(g77
g63
NtRp2773
(dp2774
g66
(dp2775
sg75
g2433
sg68
(lp2776
g61
(g82
g63
NtRp2777
(dp2778
g66
(dp2779
g86
g87
ssg75
g2773
sg68
(lp2780
S'SERVER_PORT'
p2781
asbag61
(g82
g63
NtRp2782
(dp2783
g66
(dp2784
g93
g94
ssg75
g2773
sg68
(lp2785
S':'
asbag61
(g82
g63
NtRp2786
(dp2787
g66
(dp2788
sg75
g2773
sg68
(lp2789
g61
(g62
g63
NtRp2790
(dp2791
g66
(dp2792
g74
I3
ssg75
g2786
sg68
(lp2793
g1340
asbasbasbag61
(g77
g63
NtRp2794
(dp2795
g66
(dp2796
sg75
g2433
sg68
(lp2797
g61
(g82
g63
NtRp2798
(dp2799
g66
(dp2800
g86
g87
ssg75
g2794
sg68
(lp2801
S'SERVER_PROTOCOL'
p2802
asbag61
(g82
g63
NtRp2803
(dp2804
g66
(dp2805
g93
g94
ssg75
g2794
sg68
(lp2806
S':'
asbag61
(g82
g63
NtRp2807
(dp2808
g66
(dp2809
sg75
g2794
sg68
(lp2810
g61
(g62
g63
NtRp2811
(dp2812
g66
(dp2813
g74
I3
ssg75
g2807
sg68
(lp2814
g1362
asbasbasbag61
(g77
g63
NtRp2815
(dp2816
g66
(dp2817
sg75
g2433
sg68
(lp2818
g61
(g82
g63
NtRp2819
(dp2820
g66
(dp2821
g86
g87
ssg75
g2815
sg68
(lp2822
S'SERVER_SOFTWARE'
p2823
asbag61
(g82
g63
NtRp2824
(dp2825
g66
(dp2826
g93
g94
ssg75
g2815
sg68
(lp2827
S':'
asbag61
(g82
g63
NtRp2828
(dp2829
g66
(dp2830
sg75
g2815
sg68
(lp2831
g61
(g62
g63
NtRp2832
(dp2833
g66
(dp2834
g74
I3
ssg75
g2828
sg68
(lp2835
g1384
asbasbasbag61
(g77
g63
NtRp2836
(dp2837
g66
(dp2838
sg75
g2433
sg68
(lp2839
g61
(g82
g63
NtRp2840
(dp2841
g66
(dp2842
g86
g87
ssg75
g2836
sg68
(lp2843
S'WEB2PY_ORIGINAL_URI'
p2844
asbag61
(g82
g63
NtRp2845
(dp2846
g66
(dp2847
g93
g94
ssg75
g2836
sg68
(lp2848
S':'
asbag61
(g82
g63
NtRp2849
(dp2850
g66
(dp2851
sg75
g2836
sg68
(lp2852
g61
(g62
g63
NtRp2853
(dp2854
g66
(dp2855
g74
I3
ssg75
g2849
sg68
(lp2856
g1167
asbasbasbag61
(g77
g63
NtRp2857
(dp2858
g66
(dp2859
sg75
g2433
sg68
(lp2860
g61
(g82
g63
NtRp2861
(dp2862
g66
(dp2863
g86
g87
ssg75
g2857
sg68
(lp2864
S'wsgi.errors'
p2865
asbag61
(g82
g63
NtRp2866
(dp2867
g66
(dp2868
g93
g94
ssg75
g2857
sg68
(lp2869
S':'
asbag61
(g82
g63
NtRp2870
(dp2871
g66
(dp2872
sg75
g2857
sg68
(lp2873
g61
(g62
g63
NtRp2874
(dp2875
g66
(dp2876
g74
I3
ssg75
g2870
sg68
(lp2877
S"<open file '<stderr>', mode 'w' at 0x7f3fde94f270>"
p2878
asbasbasbag61
(g77
g63
NtRp2879
(dp2880
g66
(dp2881
sg75
g2433
sg68
(lp2882
g61
(g82
g63
NtRp2883
(dp2884
g66
(dp2885
g86
g87
ssg75
g2879
sg68
(lp2886
S'wsgi.file_wrapper'
p2887
asbag61
(g82
g63
NtRp2888
(dp2889
g66
(dp2890
g93
g94
ssg75
g2879
sg68
(lp2891
S':'
asbag61
(g82
g63
NtRp2892
(dp2893
g66
(dp2894
sg75
g2879
sg68
(lp2895
g61
(g62
g63
NtRp2896
(dp2897
g66
(dp2898
g74
I3
ssg75
g2892
sg68
(lp2899
S'<class wsgiref.util.FileWrapper at 0x164f808>'
p2900
asbasbasbag61
(g77
g63
NtRp2901
(dp2902
g66
(dp2903
sg75
g2433
sg68
(lp2904
g61
(g82
g63
NtRp2905
(dp2906
g66
(dp2907
g86
g87
ssg75
g2901
sg68
(lp2908
S'wsgi.input'
p2909
asbag61
(g82
g63
NtRp2910
(dp2911
g66
(dp2912
g93
g94
ssg75
g2901
sg68
(lp2913
S':'
asbag61
(g82
g63
NtRp2914
(dp2915
g66
(dp2916
sg75
g2901
sg68
(lp2917
g61
(g62
g63
NtRp2918
(dp2919
g66
(dp2920
g74
I3
ssg75
g2914
sg68
(lp2921
S'<cStringIO.StringO object at 0x7f3fcc54cdf8>'
p2922
asbasbasbag61
(g77
g63
NtRp2923
(dp2924
g66
(dp2925
sg75
g2433
sg68
(lp2926
g61
(g82
g63
NtRp2927
(dp2928
g66
(dp2929
g86
g87
ssg75
g2923
sg68
(lp2930
S'wsgi.multiprocess'
p2931
asbag61
(g82
g63
NtRp2932
(dp2933
g66
(dp2934
g93
g94
ssg75
g2923
sg68
(lp2935
S':'
asbag61
(g82
g63
NtRp2936
(dp2937
g66
(dp2938
sg75
g2923
sg68
(lp2939
g61
(g62
g63
NtRp2940
(dp2941
g66
(dp2942
g74
I3
ssg75
g2936
sg68
(lp2943
g104
asbasbasbag61
(g77
g63
NtRp2944
(dp2945
g66
(dp2946
sg75
g2433
sg68
(lp2947
g61
(g82
g63
NtRp2948
(dp2949
g66
(dp2950
g86
g87
ssg75
g2944
sg68
(lp2951
S'wsgi.multithread'
p2952
asbag61
(g82
g63
NtRp2953
(dp2954
g66
(dp2955
g93
g94
ssg75
g2944
sg68
(lp2956
S':'
asbag61
(g82
g63
NtRp2957
(dp2958
g66
(dp2959
sg75
g2944
sg68
(lp2960
g61
(g62
g63
NtRp2961
(dp2962
g66
(dp2963
g74
I3
ssg75
g2957
sg68
(lp2964
g1622
asbasbasbag61
(g77
g63
NtRp2965
(dp2966
g66
(dp2967
sg75
g2433
sg68
(lp2968
g61
(g82
g63
NtRp2969
(dp2970
g66
(dp2971
g86
g87
ssg75
g2965
sg68
(lp2972
S'wsgi.run_once'
p2973
asbag61
(g82
g63
NtRp2974
(dp2975
g66
(dp2976
g93
g94
ssg75
g2965
sg68
(lp2977
S':'
asbag61
(g82
g63
NtRp2978
(dp2979
g66
(dp2980
sg75
g2965
sg68
(lp2981
g61
(g62
g63
NtRp2982
(dp2983
g66
(dp2984
g74
I3
ssg75
g2978
sg68
(lp2985
g104
asbasbasbag61
(g77
g63
NtRp2986
(dp2987
g66
(dp2988
sg75
g2433
sg68
(lp2989
g61
(g82
g63
NtRp2990
(dp2991
g66
(dp2992
g86
g87
ssg75
g2986
sg68
(lp2993
S'wsgi.url_scheme'
p2994
asbag61
(g82
g63
NtRp2995
(dp2996
g66
(dp2997
g93
g94
ssg75
g2986
sg68
(lp2998
S':'
asbag61
(g82
g63
NtRp2999
(dp3000
g66
(dp3001
sg75
g2986
sg68
(lp3002
g61
(g62
g63
NtRp3003
(dp3004
g66
(dp3005
g74
I3
ssg75
g2999
sg68
(lp3006
g1665
asbasbasbag61
(g77
g63
NtRp3007
(dp3008
g66
(dp3009
sg75
g2433
sg68
(lp3010
g61
(g82
g63
NtRp3011
(dp3012
g66
(dp3013
g86
g87
ssg75
g3007
sg68
(lp3014
S'wsgi.version'
p3015
asbag61
(g82
g63
NtRp3016
(dp3017
g66
(dp3018
g93
g94
ssg75
g3007
sg68
(lp3019
S':'
asbag61
(g82
g63
NtRp3020
(dp3021
g66
(dp3022
sg75
g3007
sg68
(lp3023
g61
(g62
g63
NtRp3024
(dp3025
g66
(dp3026
g74
I3
ssg75
g3020
sg68
(lp3027
S'1'
asbasbasbasbasbasbasbasbasbasbasbasbasbsS'frames'
p3028
(lp3029
(dp3030
S'file'
p3031
S'/var/www/web2py_curso/gluon/main.py'
p3032
sS'dump'
p3033
(dp3034
S'session._try_store_in_cookie_or_file'
p3035
S"<bound method Session._try_store_in_cookie_or_fi...{'version': '20.0.1132.47', 'name': 'Chrome'}}}>>"
p3036
sS'session'
p3037
S"<Storage {'_session_hash': 'd78dbff059fa1dbc3edf... {'version': '20.0.1132.47', 'name': 'Chrome'}}}>"
p3038
sS'request'
p3039
S"<Storage {'function': 'user', 'body': <cStringIO...plications/projeto/', 'post_vars': <Storage {}>}>"
p3040
sS'response'
p3041
S"<Storage {'body': <cStringIO.StringO object at 0...at 0x7f3fa80a6aa0>, 'view': 'initial/user.html'}>"
p3042
ssS'lnum'
p3043
I576
sS'lines'
p3044
(dp3045
I576
S'                session._try_store_in_cookie_or_file(request, response)'
p3046
sI577
S''
sI578
S'                if request.cid:'
p3047
sI579
S'                    if response.flash:'
p3048
sI580
S"                        http_response.headers['web2py-component-flash'] = \\"
p3049
sI571
S'                # ##################################################'
p3050
sI572
S'                # if session not in db try store session on filesystem'
p3051
sI573
S'                # this must be done after trying to commit database!'
p3052
sI574
S'                # ##################################################'
p3053
sI575
S''
ssS'call'
p3054
S"(environ={'HTTP_ACCEPT': 'text/html,application/xhtml+xml,application/xml;q=0.9,*/*;q=0.8', 'HTTP_ACCEPT_CHARSET': 'ISO-8859-1,utf-8;q=0.7,*;q=0.3', 'HTTP_ACCEPT_ENCODING': 'gzip,deflate,sdch', 'HTTP_ACCEPT_LANGUAGE': 'pt-BR,pt;q=0.8,en-US;q=0.6,en;q=0.4', 'HTTP_CONNECTION': 'keep-alive', 'HTTP_COOKIE': 'session_id_admin=127.0.0.1-9640a29f-86a5-4471-90...to=127.0.0.1-71851f1a-a738-4589-a6cd-6594e5094ab6', 'HTTP_HOST': '127.0.0.1:8000', 'HTTP_USER_AGENT': 'Mozilla/5.0 (X11; Linux x86_64) AppleWebKit/536....um/20.0.1132.47 Chrome/20.0.1132.47 Safari/536.11', 'PATH_INFO': '/user/login', 'QUERY_STRING': '', ...}, responder=<function responder2>)"
p3055
sS'func'
p3056
S'wsgibase'
p3057
sa(dp3058
g3031
S'/var/www/web2py_curso/gluon/globals.py'
p3059
sg3033
(dp3060
S'self._try_store_in_file'
p3061
S"<bound method Session._try_store_in_file of <Sto...{'version': '20.0.1132.47', 'name': 'Chrome'}}}>>"
p3062
sS'self'
p3063
S"<Storage {'_session_hash': 'd78dbff059fa1dbc3edf... {'version': '20.0.1132.47', 'name': 'Chrome'}}}>"
p3064
sS'request'
p3065
S"<Storage {'function': 'user', 'body': <cStringIO...plications/projeto/', 'post_vars': <Storage {}>}>"
p3066
sS'response'
p3067
S"<Storage {'body': <cStringIO.StringO object at 0...at 0x7f3fa80a6aa0>, 'view': 'initial/user.html'}>"
p3068
ssg3043
I749
sg3044
(dp3069
I744
S'        return True'
p3070
sI745
S''
sI746
S'    def _try_store_in_cookie_or_file(self, request, response):'
p3071
sI747
S'        return \\'
p3072
sI748
S'            self._try_store_in_cookie(request, response) or \\'
p3073
sI749
S'            self._try_store_in_file(request, response)'
p3074
sI750
S''
sI751
S'    def _try_store_in_file(self, request, response):'
p3075
sI752
S"        if response.session_storage_type != 'file':"
p3076
sI753
S'            return False'
p3077
ssg3054
S"(self=<Storage {'_session_hash': 'd78dbff059fa1dbc3edf... {'version': '20.0.1132.47', 'name': 'Chrome'}}}>, request=<Storage {'function': 'user', 'body': <cStringIO...plications/projeto/', 'post_vars': <Storage {}>}>, response=<Storage {'body': <cStringIO.StringO object at 0...at 0x7f3fa80a6aa0>, 'view': 'initial/user.html'}>)"
p3078
sg3056
S'_try_store_in_cookie_or_file'
p3079
sa(dp3080
g3031
S'/var/www/web2py_curso/gluon/globals.py'
p3081
sg3033
(dp3082
S'response.session_filename'
p3083
S"'/var/www/web2py_curso/applications/projeto/sessions/127.0.0.1-71851f1a-a738-4589-a6cd-6594e5094ab6'"
p3084
sS'builtinopen'
p3085
S'<built-in function open>'
p3086
sS'response'
p3087
S"<Storage {'body': <cStringIO.StringO object at 0...at 0x7f3fa80a6aa0>, 'view': 'initial/user.html'}>"
p3088
sS'response.session_file'
p3089
S'None'
p3090
ssg3043
I762
sg3044
(dp3091
I757
S'            if response.session_new or not response.session_file:'
p3092
sI758
S'                # Tests if the session sub-folder exists, if not, create it'
p3093
sI759
S'                session_folder = os.path.dirname(response.session_filename)'
p3094
sI760
S'                if not os.path.exists(session_folder):'
p3095
sI761
S'                    os.mkdir(session_folder)'
p3096
sI762
S"                response.session_file = open(response.session_filename, 'wb')"
p3097
sI763
S'                portalocker.lock(response.session_file, portalocker.LOCK_EX)'
p3098
sI764
S'                response.session_locked = True'
p3099
sI765
S''
sI766
S'            if response.session_file:'
p3100
ssg3054
S"(self=<Storage {'_session_hash': 'd78dbff059fa1dbc3edf... {'version': '20.0.1132.47', 'name': 'Chrome'}}}>, request=<Storage {'function': 'user', 'body': <cStringIO...plications/projeto/', 'post_vars': <Storage {}>}>, response=<Storage {'body': <cStringIO.StringO object at 0...at 0x7f3fa80a6aa0>, 'view': 'initial/user.html'}>)"
p3101
sg3056
S'_try_store_in_file'
p3102
sasS'pyver'
p3103
S'Python 2.7.3: /usr/bin/python'
p3104
sS'session'
p3105
g61
(g62
g63
NtRp3106
(dp3107
g66
(dp3108
sg68
(lp3109
g61
(g70
g63
NtRp3110
(dp3111
g66
(dp3112
g74
I5
ssg75
Nsg68
(lp3113
sbasbsS'etype'
p3114
S"<type 'exceptions.IOError'>"
p3115
sS'date'
p3116
S'Sat Feb  2 21:42:56 2013'
p3117
sS'response'
p3118
g61
(g62
g63
NtRp3119
(dp3120
g66
(dp3121
sg68
(lp3122
g61
(g70
g63
NtRp3123
(dp3124
g66
(dp3125
g74
I5
ssg75
Nsg68
(lp3126
g61
(g77
g63
NtRp3127
(dp3128
g66
(dp3129
sg75
g3123
sg68
(lp3130
g61
(g82
g63
NtRp3131
(dp3132
g66
(dp3133
g86
g87
ssg75
g3127
sg68
(lp3134
g172
asbag61
(g82
g63
NtRp3135
(dp3136
g66
(dp3137
g93
g94
ssg75
g3127
sg68
(lp3138
S':'
asbag61
(g82
g63
NtRp3139
(dp3140
g66
(dp3141
sg75
g3127
sg68
(lp3142
g61
(g62
g63
NtRp3143
(dp3144
g66
(dp3145
g74
I5
ssg75
g3139
sg68
(lp3146
S'<cStringIO.StringO object at 0x7f3fcc54ca78>'
p3147
asbasbasbag61
(g77
g63
NtRp3148
(dp3149
g66
(dp3150
sg75
g3123
sg68
(lp3151
g61
(g82
g63
NtRp3152
(dp3153
g66
(dp3154
g86
g87
ssg75
g3148
sg68
(lp3155
g260
asbag61
(g82
g63
NtRp3156
(dp3157
g66
(dp3158
g93
g94
ssg75
g3148
sg68
(lp3159
S':'
asbag61
(g82
g63
NtRp3160
(dp3161
g66
(dp3162
sg75
g3148
sg68
(lp3163
g61
(g62
g63
NtRp3164
(dp3165
g66
(dp3166
g74
I5
ssg75
g3160
sg68
(lp3167
g61
(g70
g63
NtRp3168
(dp3169
g66
(dp3170
g74
I4
ssg75
Nsg68
(lp3171
g61
(g77
g63
NtRp3172
(dp3173
g66
(dp3174
sg75
g3168
sg68
(lp3175
g61
(g82
g63
NtRp3176
(dp3177
g66
(dp3178
g86
g87
ssg75
g3172
sg68
(lp3179
S'session_id_projeto'
p3180
asbag61
(g82
g63
NtRp3181
(dp3182
g66
(dp3183
g93
g94
ssg75
g3172
sg68
(lp3184
S':'
asbag61
(g82
g63
NtRp3185
(dp3186
g66
(dp3187
sg75
g3172
sg68
(lp3188
g61
(g62
g63
NtRp3189
(dp3190
g66
(dp3191
g74
I4
ssg75
g3185
sg68
(lp3192
g492
ag61
(g70
g63
NtRp3193
(dp3194
g66
(dp3195
g74
I3
ssg75
Nsg68
(lp3196
g61
(g77
g63
NtRp3197
(dp3198
g66
(dp3199
sg75
g3193
sg68
(lp3200
g61
(g82
g63
NtRp3201
(dp3202
g66
(dp3203
g86
g87
ssg75
g3197
sg68
(lp3204
g311
asbag61
(g82
g63
NtRp3205
(dp3206
g66
(dp3207
g93
g94
ssg75
g3197
sg68
(lp3208
S':'
asbag61
(g82
g63
NtRp3209
(dp3210
g66
(dp3211
sg75
g3197
sg68
(lp3212
g61
(g62
g63
NtRp3213
(dp3214
g66
(dp3215
g74
I3
ssg75
g3209
sg68
(lp3216
S''
asbasbasbag61
(g77
g63
NtRp3217
(dp3218
g66
(dp3219
sg75
g3193
sg68
(lp3220
g61
(g82
g63
NtRp3221
(dp3222
g66
(dp3223
g86
g87
ssg75
g3217
sg68
(lp3224
g332
asbag61
(g82
g63
NtRp3225
(dp3226
g66
(dp3227
g93
g94
ssg75
g3217
sg68
(lp3228
S':'
asbag61
(g82
g63
NtRp3229
(dp3230
g66
(dp3231
sg75
g3217
sg68
(lp3232
g61
(g62
g63
NtRp3233
(dp3234
g66
(dp3235
g74
I3
ssg75
g3229
sg68
(lp3236
S''
asbasbasbag61
(g77
g63
NtRp3237
(dp3238
g66
(dp3239
sg75
g3193
sg68
(lp3240
g61
(g82
g63
NtRp3241
(dp3242
g66
(dp3243
g86
g87
ssg75
g3237
sg68
(lp3244
g353
asbag61
(g82
g63
NtRp3245
(dp3246
g66
(dp3247
g93
g94
ssg75
g3237
sg68
(lp3248
S':'
asbag61
(g82
g63
NtRp3249
(dp3250
g66
(dp3251
sg75
g3237
sg68
(lp3252
g61
(g62
g63
NtRp3253
(dp3254
g66
(dp3255
g74
I3
ssg75
g3249
sg68
(lp3256
S''
asbasbasbag61
(g77
g63
NtRp3257
(dp3258
g66
(dp3259
sg75
g3193
sg68
(lp3260
g61
(g82
g63
NtRp3261
(dp3262
g66
(dp3263
g86
g87
ssg75
g3257
sg68
(lp3264
g374
asbag61
(g82
g63
NtRp3265
(dp3266
g66
(dp3267
g93
g94
ssg75
g3257
sg68
(lp3268
S':'
asbag61
(g82
g63
NtRp3269
(dp3270
g66
(dp3271
sg75
g3257
sg68
(lp3272
g61
(g62
g63
NtRp3273
(dp3274
g66
(dp3275
g74
I3
ssg75
g3269
sg68
(lp3276
S''
asbasbasbag61
(g77
g63
NtRp3277
(dp3278
g66
(dp3279
sg75
g3193
sg68
(lp3280
g61
(g82
g63
NtRp3281
(dp3282
g66
(dp3283
g86
g87
ssg75
g3277
sg68
(lp3284
g395
asbag61
(g82
g63
NtRp3285
(dp3286
g66
(dp3287
g93
g94
ssg75
g3277
sg68
(lp3288
S':'
asbag61
(g82
g63
NtRp3289
(dp3290
g66
(dp3291
sg75
g3277
sg68
(lp3292
g61
(g62
g63
NtRp3293
(dp3294
g66
(dp3295
g74
I3
ssg75
g3289
sg68
(lp3296
S''
asbasbasbag61
(g77
g63
NtRp3297
(dp3298
g66
(dp3299
sg75
g3193
sg68
(lp3300
g61
(g82
g63
NtRp3301
(dp3302
g66
(dp3303
g86
g87
ssg75
g3297
sg68
(lp3304
g416
asbag61
(g82
g63
NtRp3305
(dp3306
g66
(dp3307
g93
g94
ssg75
g3297
sg68
(lp3308
S':'
asbag61
(g82
g63
NtRp3309
(dp3310
g66
(dp3311
sg75
g3297
sg68
(lp3312
g61
(g62
g63
NtRp3313
(dp3314
g66
(dp3315
g74
I3
ssg75
g3309
sg68
(lp3316
S'/'
asbasbasbag61
(g77
g63
NtRp3317
(dp3318
g66
(dp3319
sg75
g3193
sg68
(lp3320
g61
(g82
g63
NtRp3321
(dp3322
g66
(dp3323
g86
g87
ssg75
g3317
sg68
(lp3324
g437
asbag61
(g82
g63
NtRp3325
(dp3326
g66
(dp3327
g93
g94
ssg75
g3317
sg68
(lp3328
S':'
asbag61
(g82
g63
NtRp3329
(dp3330
g66
(dp3331
sg75
g3317
sg68
(lp3332
g61
(g62
g63
NtRp3333
(dp3334
g66
(dp3335
g74
I3
ssg75
g3329
sg68
(lp3336
S''
asbasbasbag61
(g77
g63
NtRp3337
(dp3338
g66
(dp3339
sg75
g3193
sg68
(lp3340
g61
(g82
g63
NtRp3341
(dp3342
g66
(dp3343
g86
g87
ssg75
g3337
sg68
(lp3344
g458
asbag61
(g82
g63
NtRp3345
(dp3346
g66
(dp3347
g93
g94
ssg75
g3337
sg68
(lp3348
S':'
asbag61
(g82
g63
NtRp3349
(dp3350
g66
(dp3351
sg75
g3337
sg68
(lp3352
g61
(g62
g63
NtRp3353
(dp3354
g66
(dp3355
g74
I3
ssg75
g3349
sg68
(lp3356
S''
asbasbasbasbasbasbasbasbasbasbasbag61
(g77
g63
NtRp3357
(dp3358
g66
(dp3359
sg75
g3123
sg68
(lp3360
g61
(g82
g63
NtRp3361
(dp3362
g66
(dp3363
g86
g87
ssg75
g3357
sg68
(lp3364
S'delimiters'
p3365
asbag61
(g82
g63
NtRp3366
(dp3367
g66
(dp3368
g93
g94
ssg75
g3357
sg68
(lp3369
S':'
asbag61
(g82
g63
NtRp3370
(dp3371
g66
(dp3372
sg75
g3357
sg68
(lp3373
g61
(g62
g63
NtRp3374
(dp3375
g66
(dp3376
g74
I5
ssg75
g3370
sg68
(lp3377
g61
(g70
g63
NtRp3378
(dp3379
g66
(dp3380
g74
I4
ssg75
Nsg68
(lp3381
g61
(g77
g63
NtRp3382
(dp3383
g66
(dp3384
sg75
g3378
sg68
(lp3385
g61
(g82
g63
NtRp3386
(dp3387
g66
(dp3388
sg75
g3382
sg68
(lp3389
g61
(g62
g63
NtRp3390
(dp3391
g66
(dp3392
g74
I4
ssg75
g3386
sg68
(lp3393
S'{{'
p3394
asbasbasbag61
(g77
g63
NtRp3395
(dp3396
g66
(dp3397
sg75
g3378
sg68
(lp3398
g61
(g82
g63
NtRp3399
(dp3400
g66
(dp3401
sg75
g3395
sg68
(lp3402
g61
(g62
g63
NtRp3403
(dp3404
g66
(dp3405
g74
I4
ssg75
g3399
sg68
(lp3406
S'}}'
p3407
asbasbasbasbasbasbasbag61
(g77
g63
NtRp3408
(dp3409
g66
(dp3410
sg75
g3123
sg68
(lp3411
g61
(g82
g63
NtRp3412
(dp3413
g66
(dp3414
g86
g87
ssg75
g3408
sg68
(lp3415
S'files'
p3416
asbag61
(g82
g63
NtRp3417
(dp3418
g66
(dp3419
g93
g94
ssg75
g3408
sg68
(lp3420
S':'
asbag61
(g82
g63
NtRp3421
(dp3422
g66
(dp3423
sg75
g3408
sg68
(lp3424
g61
(g62
g63
NtRp3425
(dp3426
g66
(dp3427
g74
I5
ssg75
g3421
sg68
(lp3428
g61
(g70
g63
NtRp3429
(dp3430
g66
(dp3431
g74
I4
ssg75
Nsg68
(lp3432
g61
(g77
g63
NtRp3433
(dp3434
g66
(dp3435
sg75
g3429
sg68
(lp3436
g61
(g82
g63
NtRp3437
(dp3438
g66
(dp3439
sg75
g3433
sg68
(lp3440
g61
(g62
g63
NtRp3441
(dp3442
g66
(dp3443
g74
I4
ssg75
g3437
sg68
(lp3444
S'/projeto/static/js/jquery.js'
p3445
asbasbasbag61
(g77
g63
NtRp3446
(dp3447
g66
(dp3448
sg75
g3429
sg68
(lp3449
g61
(g82
g63
NtRp3450
(dp3451
g66
(dp3452
sg75
g3446
sg68
(lp3453
g61
(g62
g63
NtRp3454
(dp3455
g66
(dp3456
g74
I4
ssg75
g3450
sg68
(lp3457
S'/projeto/static/css/calendar.css'
p3458
asbasbasbag61
(g77
g63
NtRp3459
(dp3460
g66
(dp3461
sg75
g3429
sg68
(lp3462
g61
(g82
g63
NtRp3463
(dp3464
g66
(dp3465
sg75
g3459
sg68
(lp3466
g61
(g62
g63
NtRp3467
(dp3468
g66
(dp3469
g74
I4
ssg75
g3463
sg68
(lp3470
S'/projeto/static/js/calendar.js'
p3471
asbasbasbag61
(g77
g63
NtRp3472
(dp3473
g66
(dp3474
sg75
g3429
sg68
(lp3475
g61
(g82
g63
NtRp3476
(dp3477
g66
(dp3478
sg75
g3472
sg68
(lp3479
g61
(g62
g63
NtRp3480
(dp3481
g66
(dp3482
g74
I4
ssg75
g3476
sg68
(lp3483
S'/projeto/static/js/web2py.js'
p3484
asbasbasbag61
(g77
g63
NtRp3485
(dp3486
g66
(dp3487
sg75
g3429
sg68
(lp3488
g61
(g82
g63
NtRp3489
(dp3490
g66
(dp3491
sg75
g3485
sg68
(lp3492
g61
(g62
g63
NtRp3493
(dp3494
g66
(dp3495
g74
I4
ssg75
g3489
sg68
(lp3496
S'/projeto/static/css/web2py.css'
p3497
asbasbasbag61
(g77
g63
NtRp3498
(dp3499
g66
(dp3500
sg75
g3429
sg68
(lp3501
g61
(g82
g63
NtRp3502
(dp3503
g66
(dp3504
sg75
g3498
sg68
(lp3505
g61
(g62
g63
NtRp3506
(dp3507
g66
(dp3508
g74
I4
ssg75
g3502
sg68
(lp3509
S'/projeto/static/css/bootstrap.min.css'
p3510
asbasbasbag61
(g77
g63
NtRp3511
(dp3512
g66
(dp3513
sg75
g3429
sg68
(lp3514
g61
(g82
g63
NtRp3515
(dp3516
g66
(dp3517
sg75
g3511
sg68
(lp3518
g61
(g62
g63
NtRp3519
(dp3520
g66
(dp3521
g74
I4
ssg75
g3515
sg68
(lp3522
S'/projeto/static/css/bootstrap-responsive.min.css'
p3523
asbasbasbag61
(g77
g63
NtRp3524
(dp3525
g66
(dp3526
sg75
g3429
sg68
(lp3527
g61
(g82
g63
NtRp3528
(dp3529
g66
(dp3530
sg75
g3524
sg68
(lp3531
g61
(g62
g63
NtRp3532
(dp3533
g66
(dp3534
g74
I4
ssg75
g3528
sg68
(lp3535
S'/projeto/static/css/web2py_bootstrap.css'
p3536
asbasbasbasbasbasbasbag61
(g77
g63
NtRp3537
(dp3538
g66
(dp3539
sg75
g3123
sg68
(lp3540
g61
(g82
g63
NtRp3541
(dp3542
g66
(dp3543
g86
g87
ssg75
g3537
sg68
(lp3544
S'flash'
p3545
asbag61
(g82
g63
NtRp3546
(dp3547
g66
(dp3548
g93
g94
ssg75
g3537
sg68
(lp3549
S':'
asbag61
(g82
g63
NtRp3550
(dp3551
g66
(dp3552
sg75
g3537
sg68
(lp3553
g61
(g62
g63
NtRp3554
(dp3555
g66
(dp3556
g74
I5
ssg75
g3550
sg68
(lp3557
S''
asbasbasbag61
(g77
g63
NtRp3558
(dp3559
g66
(dp3560
sg75
g3123
sg68
(lp3561
g61
(g82
g63
NtRp3562
(dp3563
g66
(dp3564
g86
g87
ssg75
g3558
sg68
(lp3565
S'generic_patterns'
p3566
asbag61
(g82
g63
NtRp3567
(dp3568
g66
(dp3569
g93
g94
ssg75
g3558
sg68
(lp3570
S':'
asbag61
(g82
g63
NtRp3571
(dp3572
g66
(dp3573
sg75
g3558
sg68
(lp3574
g61
(g62
g63
NtRp3575
(dp3576
g66
(dp3577
g74
I5
ssg75
g3571
sg68
(lp3578
g61
(g70
g63
NtRp3579
(dp3580
g66
(dp3581
g74
I4
ssg75
Nsg68
(lp3582
g61
(g77
g63
NtRp3583
(dp3584
g66
(dp3585
sg75
g3579
sg68
(lp3586
g61
(g82
g63
NtRp3587
(dp3588
g66
(dp3589
sg75
g3583
sg68
(lp3590
g61
(g62
g63
NtRp3591
(dp3592
g66
(dp3593
g74
I4
ssg75
g3587
sg68
(lp3594
S'*'
asbasbasbasbasbasbasbag61
(g77
g63
NtRp3595
(dp3596
g66
(dp3597
sg75
g3123
sg68
(lp3598
g61
(g82
g63
NtRp3599
(dp3600
g66
(dp3601
g86
g87
ssg75
g3595
sg68
(lp3602
S'headers'
p3603
asbag61
(g82
g63
NtRp3604
(dp3605
g66
(dp3606
g93
g94
ssg75
g3595
sg68
(lp3607
S':'
asbag61
(g82
g63
NtRp3608
(dp3609
g66
(dp3610
sg75
g3595
sg68
(lp3611
g61
(g62
g63
NtRp3612
(dp3613
g66
(dp3614
g74
I5
ssg75
g3608
sg68
(lp3615
g61
(g70
g63
NtRp3616
(dp3617
g66
(dp3618
g74
I4
ssg75
Nsg68
(lp3619
g61
(g77
g63
NtRp3620
(dp3621
g66
(dp3622
sg75
g3616
sg68
(lp3623
g61
(g82
g63
NtRp3624
(dp3625
g66
(dp3626
g86
g87
ssg75
g3620
sg68
(lp3627
S'Cache-Control'
p3628
asbag61
(g82
g63
NtRp3629
(dp3630
g66
(dp3631
g93
g94
ssg75
g3620
sg68
(lp3632
S':'
asbag61
(g82
g63
NtRp3633
(dp3634
g66
(dp3635
sg75
g3620
sg68
(lp3636
g61
(g62
g63
NtRp3637
(dp3638
g66
(dp3639
g74
I4
ssg75
g3633
sg68
(lp3640
S'no-store, no-cache, must-revalidate, post-check=0, pre-check=0'
p3641
asbasbasbag61
(g77
g63
NtRp3642
(dp3643
g66
(dp3644
sg75
g3616
sg68
(lp3645
g61
(g82
g63
NtRp3646
(dp3647
g66
(dp3648
g86
g87
ssg75
g3642
sg68
(lp3649
S'Content-Type'
p3650
asbag61
(g82
g63
NtRp3651
(dp3652
g66
(dp3653
g93
g94
ssg75
g3642
sg68
(lp3654
S':'
asbag61
(g82
g63
NtRp3655
(dp3656
g66
(dp3657
sg75
g3642
sg68
(lp3658
g61
(g62
g63
NtRp3659
(dp3660
g66
(dp3661
g74
I4
ssg75
g3655
sg68
(lp3662
S'text/html; charset=utf-8'
p3663
asbasbasbag61
(g77
g63
NtRp3664
(dp3665
g66
(dp3666
sg75
g3616
sg68
(lp3667
g61
(g82
g63
NtRp3668
(dp3669
g66
(dp3670
g86
g87
ssg75
g3664
sg68
(lp3671
S'Expires'
p3672
asbag61
(g82
g63
NtRp3673
(dp3674
g66
(dp3675
g93
g94
ssg75
g3664
sg68
(lp3676
S':'
asbag61
(g82
g63
NtRp3677
(dp3678
g66
(dp3679
sg75
g3664
sg68
(lp3680
g61
(g62
g63
NtRp3681
(dp3682
g66
(dp3683
g74
I4
ssg75
g3677
sg68
(lp3684
S'Sat, 02 Feb 2013 23:42:56 GMT'
p3685
asbasbasbag61
(g77
g63
NtRp3686
(dp3687
g66
(dp3688
sg75
g3616
sg68
(lp3689
g61
(g82
g63
NtRp3690
(dp3691
g66
(dp3692
g86
g87
ssg75
g3686
sg68
(lp3693
S'Pragma'
p3694
asbag61
(g82
g63
NtRp3695
(dp3696
g66
(dp3697
g93
g94
ssg75
g3686
sg68
(lp3698
S':'
asbag61
(g82
g63
NtRp3699
(dp3700
g66
(dp3701
sg75
g3686
sg68
(lp3702
g61
(g62
g63
NtRp3703
(dp3704
g66
(dp3705
g74
I4
ssg75
g3699
sg68
(lp3706
S'no-cache'
p3707
asbasbasbag61
(g77
g63
NtRp3708
(dp3709
g66
(dp3710
sg75
g3616
sg68
(lp3711
g61
(g82
g63
NtRp3712
(dp3713
g66
(dp3714
g86
g87
ssg75
g3708
sg68
(lp3715
S'X-Powered-By'
p3716
asbag61
(g82
g63
NtRp3717
(dp3718
g66
(dp3719
g93
g94
ssg75
g3708
sg68
(lp3720
S':'
asbag61
(g82
g63
NtRp3721
(dp3722
g66
(dp3723
sg75
g3708
sg68
(lp3724
g61
(g62
g63
NtRp3725
(dp3726
g66
(dp3727
g74
I4
ssg75
g3721
sg68
(lp3728
S'web2py'
p3729
asbasbasbasbasbasbasbag61
(g77
g63
NtRp3730
(dp3731
g66
(dp3732
sg75
g3123
sg68
(lp3733
g61
(g82
g63
NtRp3734
(dp3735
g66
(dp3736
g86
g87
ssg75
g3730
sg68
(lp3737
S'menu'
p3738
asbag61
(g82
g63
NtRp3739
(dp3740
g66
(dp3741
g93
g94
ssg75
g3730
sg68
(lp3742
S':'
asbag61
(g82
g63
NtRp3743
(dp3744
g66
(dp3745
sg75
g3730
sg68
(lp3746
g61
(g62
g63
NtRp3747
(dp3748
g66
(dp3749
g74
I5
ssg75
g3743
sg68
(lp3750
g61
(g70
g63
NtRp3751
(dp3752
g66
(dp3753
g74
I4
ssg75
Nsg68
(lp3754
sbasbasbasbag61
(g77
g63
NtRp3755
(dp3756
g66
(dp3757
sg75
g3123
sg68
(lp3758
g61
(g82
g63
NtRp3759
(dp3760
g66
(dp3761
g86
g87
ssg75
g3755
sg68
(lp3762
S'meta'
p3763
asbag61
(g82
g63
NtRp3764
(dp3765
g66
(dp3766
g93
g94
ssg75
g3755
sg68
(lp3767
S':'
asbag61
(g82
g63
NtRp3768
(dp3769
g66
(dp3770
sg75
g3755
sg68
(lp3771
g61
(g62
g63
NtRp3772
(dp3773
g66
(dp3774
g74
I5
ssg75
g3768
sg68
(lp3775
g61
(g70
g63
NtRp3776
(dp3777
g66
(dp3778
g74
I4
ssg75
Nsg68
(lp3779
g61
(g77
g63
NtRp3780
(dp3781
g66
(dp3782
sg75
g3776
sg68
(lp3783
g61
(g82
g63
NtRp3784
(dp3785
g66
(dp3786
g86
g87
ssg75
g3780
sg68
(lp3787
S'description'
p3788
asbag61
(g82
g63
NtRp3789
(dp3790
g66
(dp3791
g93
g94
ssg75
g3780
sg68
(lp3792
S':'
asbag61
(g82
g63
NtRp3793
(dp3794
g66
(dp3795
sg75
g3780
sg68
(lp3796
g61
(g62
g63
NtRp3797
(dp3798
g66
(dp3799
g74
I4
ssg75
g3793
sg68
(lp3800
S'blog do shedon'
p3801
asbasbasbag61
(g77
g63
NtRp3802
(dp3803
g66
(dp3804
sg75
g3776
sg68
(lp3805
g61
(g82
g63
NtRp3806
(dp3807
g66
(dp3808
g86
g87
ssg75
g3802
sg68
(lp3809
S'keywords'
p3810
asbag61
(g82
g63
NtRp3811
(dp3812
g66
(dp3813
g93
g94
ssg75
g3802
sg68
(lp3814
S':'
asbag61
(g82
g63
NtRp3815
(dp3816
g66
(dp3817
sg75
g3802
sg68
(lp3818
g61
(g62
g63
NtRp3819
(dp3820
g66
(dp3821
g74
I4
ssg75
g3815
sg68
(lp3822
S'chave, outra, e utra'
p3823
asbasbasbasbasbasbasbag61
(g77
g63
NtRp3824
(dp3825
g66
(dp3826
sg75
g3123
sg68
(lp3827
g61
(g82
g63
NtRp3828
(dp3829
g66
(dp3830
g86
g87
ssg75
g3824
sg68
(lp3831
S'models_to_run'
p3832
asbag61
(g82
g63
NtRp3833
(dp3834
g66
(dp3835
g93
g94
ssg75
g3824
sg68
(lp3836
S':'
asbag61
(g82
g63
NtRp3837
(dp3838
g66
(dp3839
sg75
g3824
sg68
(lp3840
g61
(g62
g63
NtRp3841
(dp3842
g66
(dp3843
g74
I5
ssg75
g3837
sg68
(lp3844
g61
(g70
g63
NtRp3845
(dp3846
g66
(dp3847
g74
I4
ssg75
Nsg68
(lp3848
g61
(g77
g63
NtRp3849
(dp3850
g66
(dp3851
sg75
g3845
sg68
(lp3852
g61
(g82
g63
NtRp3853
(dp3854
g66
(dp3855
sg75
g3849
sg68
(lp3856
g61
(g62
g63
NtRp3857
(dp3858
g66
(dp3859
g74
I4
ssg75
g3853
sg68
(lp3860
S'^\\w+\\.py$'
p3861
asbasbasbag61
(g77
g63
NtRp3862
(dp3863
g66
(dp3864
sg75
g3845
sg68
(lp3865
g61
(g82
g63
NtRp3866
(dp3867
g66
(dp3868
sg75
g3862
sg68
(lp3869
g61
(g62
g63
NtRp3870
(dp3871
g66
(dp3872
g74
I4
ssg75
g3866
sg68
(lp3873
S'^initial/\\w+\\.py$'
p3874
asbasbasbag61
(g77
g63
NtRp3875
(dp3876
g66
(dp3877
sg75
g3845
sg68
(lp3878
g61
(g82
g63
NtRp3879
(dp3880
g66
(dp3881
sg75
g3875
sg68
(lp3882
g61
(g62
g63
NtRp3883
(dp3884
g66
(dp3885
g74
I4
ssg75
g3879
sg68
(lp3886
S'^initial/user/\\w+\\.py$'
p3887
asbasbasbasbasbasbasbag61
(g77
g63
NtRp3888
(dp3889
g66
(dp3890
sg75
g3123
sg68
(lp3891
g61
(g82
g63
NtRp3892
(dp3893
g66
(dp3894
g86
g87
ssg75
g3888
sg68
(lp3895
S'postprocessing'
p3896
asbag61
(g82
g63
NtRp3897
(dp3898
g66
(dp3899
g93
g94
ssg75
g3888
sg68
(lp3900
S':'
asbag61
(g82
g63
NtRp3901
(dp3902
g66
(dp3903
sg75
g3888
sg68
(lp3904
g61
(g62
g63
NtRp3905
(dp3906
g66
(dp3907
g74
I5
ssg75
g3901
sg68
(lp3908
g61
(g70
g63
NtRp3909
(dp3910
g66
(dp3911
g74
I4
ssg75
Nsg68
(lp3912
sbasbasbasbag61
(g77
g63
NtRp3913
(dp3914
g66
(dp3915
sg75
g3123
sg68
(lp3916
g61
(g82
g63
NtRp3917
(dp3918
g66
(dp3919
g86
g87
ssg75
g3913
sg68
(lp3920
S'session_cookie_expires'
p3921
asbag61
(g82
g63
NtRp3922
(dp3923
g66
(dp3924
g93
g94
ssg75
g3913
sg68
(lp3925
S':'
asbag61
(g82
g63
NtRp3926
(dp3927
g66
(dp3928
sg75
g3913
sg68
(lp3929
g61
(g62
g63
NtRp3930
(dp3931
g66
(dp3932
g74
I5
ssg75
g3926
sg68
(lp3933
S'None'
p3934
asbasbasbag61
(g77
g63
NtRp3935
(dp3936
g66
(dp3937
sg75
g3123
sg68
(lp3938
g61
(g82
g63
NtRp3939
(dp3940
g66
(dp3941
g86
g87
ssg75
g3935
sg68
(lp3942
S'session_data_name'
p3943
asbag61
(g82
g63
NtRp3944
(dp3945
g66
(dp3946
g93
g94
ssg75
g3935
sg68
(lp3947
S':'
asbag61
(g82
g63
NtRp3948
(dp3949
g66
(dp3950
sg75
g3935
sg68
(lp3951
g61
(g62
g63
NtRp3952
(dp3953
g66
(dp3954
g74
I5
ssg75
g3948
sg68
(lp3955
S'session_data_projeto'
p3956
asbasbasbag61
(g77
g63
NtRp3957
(dp3958
g66
(dp3959
sg75
g3123
sg68
(lp3960
g61
(g82
g63
NtRp3961
(dp3962
g66
(dp3963
g86
g87
ssg75
g3957
sg68
(lp3964
S'session_file'
p3965
asbag61
(g82
g63
NtRp3966
(dp3967
g66
(dp3968
g93
g94
ssg75
g3957
sg68
(lp3969
S':'
asbag61
(g82
g63
NtRp3970
(dp3971
g66
(dp3972
sg75
g3957
sg68
(lp3973
g61
(g62
g63
NtRp3974
(dp3975
g66
(dp3976
g74
I5
ssg75
g3970
sg68
(lp3977
S'None'
p3978
asbasbasbag61
(g77
g63
NtRp3979
(dp3980
g66
(dp3981
sg75
g3123
sg68
(lp3982
g61
(g82
g63
NtRp3983
(dp3984
g66
(dp3985
g86
g87
ssg75
g3979
sg68
(lp3986
S'session_filename'
p3987
asbag61
(g82
g63
NtRp3988
(dp3989
g66
(dp3990
g93
g94
ssg75
g3979
sg68
(lp3991
S':'
asbag61
(g82
g63
NtRp3992
(dp3993
g66
(dp3994
sg75
g3979
sg68
(lp3995
g61
(g62
g63
NtRp3996
(dp3997
g66
(dp3998
g74
I5
ssg75
g3992
sg68
(lp3999
S'/var/www/web2py_curso/applications/projeto/sessions/127.0.0.1-71851f1a-a738-4589-a6cd-6594e5094ab6'
p4000
asbasbasbag61
(g77
g63
NtRp4001
(dp4002
g66
(dp4003
sg75
g3123
sg68
(lp4004
g61
(g82
g63
NtRp4005
(dp4006
g66
(dp4007
g86
g87
ssg75
g4001
sg68
(lp4008
S'session_id'
p4009
asbag61
(g82
g63
NtRp4010
(dp4011
g66
(dp4012
g93
g94
ssg75
g4001
sg68
(lp4013
S':'
asbag61
(g82
g63
NtRp4014
(dp4015
g66
(dp4016
sg75
g4001
sg68
(lp4017
g61
(g62
g63
NtRp4018
(dp4019
g66
(dp4020
g74
I5
ssg75
g4014
sg68
(lp4021
g492
asbasbasbag61
(g77
g63
NtRp4022
(dp4023
g66
(dp4024
sg75
g3123
sg68
(lp4025
g61
(g82
g63
NtRp4026
(dp4027
g66
(dp4028
g86
g87
ssg75
g4022
sg68
(lp4029
S'session_id_name'
p4030
asbag61
(g82
g63
NtRp4031
(dp4032
g66
(dp4033
g93
g94
ssg75
g4022
sg68
(lp4034
S':'
asbag61
(g82
g63
NtRp4035
(dp4036
g66
(dp4037
sg75
g4022
sg68
(lp4038
g61
(g62
g63
NtRp4039
(dp4040
g66
(dp4041
g74
I5
ssg75
g4035
sg68
(lp4042
g3180
asbasbasbag61
(g77
g63
NtRp4043
(dp4044
g66
(dp4045
sg75
g3123
sg68
(lp4046
g61
(g82
g63
NtRp4047
(dp4048
g66
(dp4049
g86
g87
ssg75
g4043
sg68
(lp4050
S'session_new'
p4051
asbag61
(g82
g63
NtRp4052
(dp4053
g66
(dp4054
g93
g94
ssg75
g4043
sg68
(lp4055
S':'
asbag61
(g82
g63
NtRp4056
(dp4057
g66
(dp4058
sg75
g4043
sg68
(lp4059
g61
(g62
g63
NtRp4060
(dp4061
g66
(dp4062
g74
I5
ssg75
g4056
sg68
(lp4063
g104
asbasbasbag61
(g77
g63
NtRp4064
(dp4065
g66
(dp4066
sg75
g3123
sg68
(lp4067
g61
(g82
g63
NtRp4068
(dp4069
g66
(dp4070
g86
g87
ssg75
g4064
sg68
(lp4071
S'session_storage_type'
p4072
asbag61
(g82
g63
NtRp4073
(dp4074
g66
(dp4075
g93
g94
ssg75
g4064
sg68
(lp4076
S':'
asbag61
(g82
g63
NtRp4077
(dp4078
g66
(dp4079
sg75
g4064
sg68
(lp4080
g61
(g62
g63
NtRp4081
(dp4082
g66
(dp4083
g74
I5
ssg75
g4077
sg68
(lp4084
g3031
asbasbasbag61
(g77
g63
NtRp4085
(dp4086
g66
(dp4087
sg75
g3123
sg68
(lp4088
g61
(g82
g63
NtRp4089
(dp4090
g66
(dp4091
g86
g87
ssg75
g4085
sg68
(lp4092
S'status'
p4093
asbag61
(g82
g63
NtRp4094
(dp4095
g66
(dp4096
g93
g94
ssg75
g4085
sg68
(lp4097
S':'
asbag61
(g82
g63
NtRp4098
(dp4099
g66
(dp4100
sg75
g4085
sg68
(lp4101
g61
(g62
g63
NtRp4102
(dp4103
g66
(dp4104
g74
I5
ssg75
g4098
sg68
(lp4105
S'200'
p4106
asbasbasbag61
(g77
g63
NtRp4107
(dp4108
g66
(dp4109
sg75
g3123
sg68
(lp4110
g61
(g82
g63
NtRp4111
(dp4112
g66
(dp4113
g86
g87
ssg75
g4107
sg68
(lp4114
S'subtitle'
p4115
asbag61
(g82
g63
NtRp4116
(dp4117
g66
(dp4118
g93
g94
ssg75
g4107
sg68
(lp4119
S':'
asbag61
(g82
g63
NtRp4120
(dp4121
g66
(dp4122
sg75
g4107
sg68
(lp4123
g61
(g62
g63
NtRp4124
(dp4125
g66
(dp4126
g74
I5
ssg75
g4120
sg68
(lp4127
S'O blog do sheldon'
p4128
asbasbasbag61
(g77
g63
NtRp4129
(dp4130
g66
(dp4131
sg75
g3123
sg68
(lp4132
g61
(g82
g63
NtRp4133
(dp4134
g66
(dp4135
g86
g87
ssg75
g4129
sg68
(lp4136
S'title'
p4137
asbag61
(g82
g63
NtRp4138
(dp4139
g66
(dp4140
g93
g94
ssg75
g4129
sg68
(lp4141
S':'
asbag61
(g82
g63
NtRp4142
(dp4143
g66
(dp4144
sg75
g4129
sg68
(lp4145
g61
(g62
g63
NtRp4146
(dp4147
g66
(dp4148
g74
I5
ssg75
g4142
sg68
(lp4149
S'Meu site magnifico'
p4150
asbasbasbag61
(g77
g63
NtRp4151
(dp4152
g66
(dp4153
sg75
g3123
sg68
(lp4154
g61
(g82
g63
NtRp4155
(dp4156
g66
(dp4157
g86
g87
ssg75
g4151
sg68
(lp4158
S'view'
p4159
asbag61
(g82
g63
NtRp4160
(dp4161
g66
(dp4162
g93
g94
ssg75
g4151
sg68
(lp4163
S':'
asbag61
(g82
g63
NtRp4164
(dp4165
g66
(dp4166
sg75
g4151
sg68
(lp4167
g61
(g62
g63
NtRp4168
(dp4169
g66
(dp4170
g74
I5
ssg75
g4164
sg68
(lp4171
S'initial/user.html'
p4172
asbasbasbasbasbsS'locals'
p4173
(dp4174
S'self'
p4175
S"<Storage {'_session_hash': 'd78dbff059fa1dbc3edf... {'version': '20.0.1132.47', 'name': 'Chrome'}}}>"
p4176
sg60
S"<Storage {'function': 'user', 'body': <cStringIO...plications/projeto/', 'post_vars': <Storage {}>}>"
p4177
sS'session_folder'
p4178
S"'/var/www/web2py_curso/applications/projeto/sessions'"
p4179
sg3118
S"<Storage {'body': <cStringIO.StringO object at 0...at 0x7f3fa80a6aa0>, 'view': 'initial/user.html'}>"
p4180
sssS'traceback'
p4181
S'Traceback (most recent call last):\n  File "/var/www/web2py_curso/gluon/main.py", line 576, in wsgibase\n    session._try_store_in_cookie_or_file(request, response)\n  File "/var/www/web2py_curso/gluon/globals.py", line 749, in _try_store_in_cookie_or_file\n    self._try_store_in_file(request, response)\n  File "/var/www/web2py_curso/gluon/globals.py", line 762, in _try_store_in_file\n    response.session_file = open(response.session_filename, \'wb\')\nIOError: [Errno 13] Permission denied: \'/var/www/web2py_curso/applications/projeto/sessions/127.0.0.1-71851f1a-a738-4589-a6cd-6594e5094ab6\'\n'
p4182
s.