(dp1
S'output'
p2
S"<type 'exceptions.SyntaxError'> Object exists and cannot be redefined: created_by"
p3
sS'layer'
p4
S'/var/www/web2py_curso/applications/projeto/models/validators.py'
p5
sS'code'
p6
S'\nPost.blog.requires = IS_IN_DB(db, \'blog.id\', "%(title)s")\nPost.title.requires = [IS_NOT_EMPTY(error_message=T("Esta vazio!")),\n                       IS_NOT_IN_DB(db, \'post.title\', error_message=T("title already exists"))]\nPost.category.requires = IS_IN_DB(db, \'category.id\', "%(name)s", multiple=True)\n#Post.category.widget = SQLFORM.widgets.checkboxes.widget\nPost.slug.compute = lambda registro: IS_SLUG()(registro.title)[1]\n\nPost.created_by = IS_IN_DB(db, \'auth_user.id\', "%(first_name)s")\n'
p7
sS'snapshot'
p8
(dp9
S'exception'
p10
(dp11
S'__getslice__'
p12
S"<method-wrapper '__getslice__' of exceptions.SyntaxError object>"
p13
sS'text'
p14
S'None'
p15
sS'__str__'
p16
S"<method-wrapper '__str__' of exceptions.SyntaxError object>"
p17
sS'__reduce__'
p18
S'<built-in method __reduce__ of exceptions.SyntaxError object>'
p19
sS'__dict__'
p20
S'{}'
p21
sS'__sizeof__'
p22
S'<built-in method __sizeof__ of exceptions.SyntaxError object>'
p23
sS'__init__'
p24
S"<method-wrapper '__init__' of exceptions.SyntaxError object>"
p25
sS'__setattr__'
p26
S"<method-wrapper '__setattr__' of exceptions.SyntaxError object>"
p27
sS'__reduce_ex__'
p28
S'<built-in method __reduce_ex__ of exceptions.SyntaxError object>'
p29
sS'__new__'
p30
S'<built-in method __new__ of type object>'
p31
sS'__format__'
p32
S'<built-in method __format__ of exceptions.SyntaxError object>'
p33
sS'__class__'
p34
S"<type 'exceptions.SyntaxError'>"
p35
sS'filename'
p36
S'None'
p37
sS'lineno'
p38
S'None'
p39
sS'msg'
p40
S"'Object exists and cannot be redefined: created_by'"
p41
sS'__doc__'
p42
S"'Invalid syntax.'"
p43
sS'__getitem__'
p44
S"<method-wrapper '__getitem__' of exceptions.SyntaxError object>"
p45
sS'__setstate__'
p46
S'<built-in method __setstate__ of exceptions.SyntaxError object>'
p47
sS'__getattribute__'
p48
S"<method-wrapper '__getattribute__' of exceptions.SyntaxError object>"
p49
sS'print_file_and_line'
p50
S'None'
p51
sS'args'
p52
S"('Object exists and cannot be redefined: created_by',)"
p53
sS'__subclasshook__'
p54
S'<built-in method __subclasshook__ of type object>'
p55
sS'offset'
p56
S'None'
p57
sS'__unicode__'
p58
S'<built-in method __unicode__ of exceptions.SyntaxError object>'
p59
sS'__delattr__'
p60
S"<method-wrapper '__delattr__' of exceptions.SyntaxError object>"
p61
sS'__repr__'
p62
S"<method-wrapper '__repr__' of exceptions.SyntaxError object>"
p63
sS'__hash__'
p64
S"<method-wrapper '__hash__' of exceptions.SyntaxError object>"
p65
ssS'evalue'
p66
S'Object exists and cannot be redefined: created_by'
p67
sS'request'
p68
ccopy_reg
_reconstructor
p69
(cgluon.html
BEAUTIFY
p70
c__builtin__
object
p71
NtRp72
(dp73
S'attributes'
p74
(dp75
sS'components'
p76
(lp77
g69
(cgluon.html
TABLE
p78
g71
NtRp79
(dp80
g74
(dp81
S'level'
p82
I5
ssS'parent'
p83
Nsg76
(lp84
g69
(cgluon.html
TR
p85
g71
NtRp86
(dp87
g74
(dp88
sg83
g79
sg76
(lp89
g69
(cgluon.html
TD
p90
g71
NtRp91
(dp92
g74
(dp93
S'_style'
p94
S'font-weight:bold;vertical-align:top'
p95
ssg83
g86
sg76
(lp96
S'ajax'
p97
asbag69
(g90
g71
NtRp98
(dp99
g74
(dp100
S'_valign'
p101
S'top'
p102
ssg83
g86
sg76
(lp103
S':'
asbag69
(g90
g71
NtRp104
(dp105
g74
(dp106
sg83
g86
sg76
(lp107
g69
(g70
g71
NtRp108
(dp109
g74
(dp110
g82
I5
ssg83
g104
sg76
(lp111
S'False'
p112
asbasbasbag69
(g85
g71
NtRp113
(dp114
g74
(dp115
sg83
g79
sg76
(lp116
g69
(g90
g71
NtRp117
(dp118
g74
(dp119
g94
g95
ssg83
g113
sg76
(lp120
S'application'
p121
asbag69
(g90
g71
NtRp122
(dp123
g74
(dp124
g101
g102
ssg83
g113
sg76
(lp125
S':'
asbag69
(g90
g71
NtRp126
(dp127
g74
(dp128
sg83
g113
sg76
(lp129
g69
(g70
g71
NtRp130
(dp131
g74
(dp132
g82
I5
ssg83
g126
sg76
(lp133
S'projeto'
p134
asbasbasbag69
(g85
g71
NtRp135
(dp136
g74
(dp137
sg83
g79
sg76
(lp138
g69
(g90
g71
NtRp139
(dp140
g74
(dp141
g94
g95
ssg83
g135
sg76
(lp142
g52
asbag69
(g90
g71
NtRp143
(dp144
g74
(dp145
g101
g102
ssg83
g135
sg76
(lp146
S':'
asbag69
(g90
g71
NtRp147
(dp148
g74
(dp149
sg83
g135
sg76
(lp150
g69
(g70
g71
NtRp151
(dp152
g74
(dp153
g82
I5
ssg83
g147
sg76
(lp154
g69
(g78
g71
NtRp155
(dp156
g74
(dp157
g82
I4
ssg83
Nsg76
(lp158
sbasbasbasbag69
(g85
g71
NtRp159
(dp160
g74
(dp161
sg83
g79
sg76
(lp162
g69
(g90
g71
NtRp163
(dp164
g74
(dp165
g94
g95
ssg83
g159
sg76
(lp166
S'body'
p167
asbag69
(g90
g71
NtRp168
(dp169
g74
(dp170
g101
g102
ssg83
g159
sg76
(lp171
S':'
asbag69
(g90
g71
NtRp172
(dp173
g74
(dp174
sg83
g159
sg76
(lp175
g69
(g70
g71
NtRp176
(dp177
g74
(dp178
g82
I5
ssg83
g172
sg76
(lp179
S'<cStringIO.StringO object at 0x7fb4b42def80>'
p180
asbasbasbag69
(g85
g71
NtRp181
(dp182
g74
(dp183
sg83
g79
sg76
(lp184
g69
(g90
g71
NtRp185
(dp186
g74
(dp187
g94
g95
ssg83
g181
sg76
(lp188
S'cid'
p189
asbag69
(g90
g71
NtRp190
(dp191
g74
(dp192
g101
g102
ssg83
g181
sg76
(lp193
S':'
asbag69
(g90
g71
NtRp194
(dp195
g74
(dp196
sg83
g181
sg76
(lp197
g69
(g70
g71
NtRp198
(dp199
g74
(dp200
g82
I5
ssg83
g194
sg76
(lp201
S'None'
p202
asbasbasbag69
(g85
g71
NtRp203
(dp204
g74
(dp205
sg83
g79
sg76
(lp206
g69
(g90
g71
NtRp207
(dp208
g74
(dp209
g94
g95
ssg83
g203
sg76
(lp210
S'client'
p211
asbag69
(g90
g71
NtRp212
(dp213
g74
(dp214
g101
g102
ssg83
g203
sg76
(lp215
S':'
asbag69
(g90
g71
NtRp216
(dp217
g74
(dp218
sg83
g203
sg76
(lp219
g69
(g70
g71
NtRp220
(dp221
g74
(dp222
g82
I5
ssg83
g216
sg76
(lp223
S'127.0.0.1'
p224
asbasbasbag69
(g85
g71
NtRp225
(dp226
g74
(dp227
sg83
g79
sg76
(lp228
g69
(g90
g71
NtRp229
(dp230
g74
(dp231
g94
g95
ssg83
g225
sg76
(lp232
S'controller'
p233
asbag69
(g90
g71
NtRp234
(dp235
g74
(dp236
g101
g102
ssg83
g225
sg76
(lp237
S':'
asbag69
(g90
g71
NtRp238
(dp239
g74
(dp240
sg83
g225
sg76
(lp241
g69
(g70
g71
NtRp242
(dp243
g74
(dp244
g82
I5
ssg83
g238
sg76
(lp245
S'initial'
p246
asbasbasbag69
(g85
g71
NtRp247
(dp248
g74
(dp249
sg83
g79
sg76
(lp250
g69
(g90
g71
NtRp251
(dp252
g74
(dp253
g94
g95
ssg83
g247
sg76
(lp254
S'cookies'
p255
asbag69
(g90
g71
NtRp256
(dp257
g74
(dp258
g101
g102
ssg83
g247
sg76
(lp259
S':'
asbag69
(g90
g71
NtRp260
(dp261
g74
(dp262
sg83
g247
sg76
(lp263
g69
(g70
g71
NtRp264
(dp265
g74
(dp266
g82
I5
ssg83
g260
sg76
(lp267
g69
(g78
g71
NtRp268
(dp269
g74
(dp270
g82
I4
ssg83
Nsg76
(lp271
g69
(g85
g71
NtRp272
(dp273
g74
(dp274
sg83
g268
sg76
(lp275
g69
(g90
g71
NtRp276
(dp277
g74
(dp278
g94
g95
ssg83
g272
sg76
(lp279
S'admin'
p280
asbag69
(g90
g71
NtRp281
(dp282
g74
(dp283
g101
g102
ssg83
g272
sg76
(lp284
S':'
asbag69
(g90
g71
NtRp285
(dp286
g74
(dp287
sg83
g272
sg76
(lp288
g69
(g70
g71
NtRp289
(dp290
g74
(dp291
g82
I4
ssg83
g285
sg76
(lp292
S'admin'
p293
ag69
(g78
g71
NtRp294
(dp295
g74
(dp296
g82
I3
ssg83
Nsg76
(lp297
g69
(g85
g71
NtRp298
(dp299
g74
(dp300
sg83
g294
sg76
(lp301
g69
(g90
g71
NtRp302
(dp303
g74
(dp304
g94
g95
ssg83
g298
sg76
(lp305
S'comment'
p306
asbag69
(g90
g71
NtRp307
(dp308
g74
(dp309
g101
g102
ssg83
g298
sg76
(lp310
S':'
asbag69
(g90
g71
NtRp311
(dp312
g74
(dp313
sg83
g298
sg76
(lp314
g69
(g70
g71
NtRp315
(dp316
g74
(dp317
g82
I3
ssg83
g311
sg76
(lp318
S''
asbasbasbag69
(g85
g71
NtRp319
(dp320
g74
(dp321
sg83
g294
sg76
(lp322
g69
(g90
g71
NtRp323
(dp324
g74
(dp325
g94
g95
ssg83
g319
sg76
(lp326
S'domain'
p327
asbag69
(g90
g71
NtRp328
(dp329
g74
(dp330
g101
g102
ssg83
g319
sg76
(lp331
S':'
asbag69
(g90
g71
NtRp332
(dp333
g74
(dp334
sg83
g319
sg76
(lp335
g69
(g70
g71
NtRp336
(dp337
g74
(dp338
g82
I3
ssg83
g332
sg76
(lp339
S''
asbasbasbag69
(g85
g71
NtRp340
(dp341
g74
(dp342
sg83
g294
sg76
(lp343
g69
(g90
g71
NtRp344
(dp345
g74
(dp346
g94
g95
ssg83
g340
sg76
(lp347
S'expires'
p348
asbag69
(g90
g71
NtRp349
(dp350
g74
(dp351
g101
g102
ssg83
g340
sg76
(lp352
S':'
asbag69
(g90
g71
NtRp353
(dp354
g74
(dp355
sg83
g340
sg76
(lp356
g69
(g70
g71
NtRp357
(dp358
g74
(dp359
g82
I3
ssg83
g353
sg76
(lp360
S''
asbasbasbag69
(g85
g71
NtRp361
(dp362
g74
(dp363
sg83
g294
sg76
(lp364
g69
(g90
g71
NtRp365
(dp366
g74
(dp367
g94
g95
ssg83
g361
sg76
(lp368
S'httponly'
p369
asbag69
(g90
g71
NtRp370
(dp371
g74
(dp372
g101
g102
ssg83
g361
sg76
(lp373
S':'
asbag69
(g90
g71
NtRp374
(dp375
g74
(dp376
sg83
g361
sg76
(lp377
g69
(g70
g71
NtRp378
(dp379
g74
(dp380
g82
I3
ssg83
g374
sg76
(lp381
S''
asbasbasbag69
(g85
g71
NtRp382
(dp383
g74
(dp384
sg83
g294
sg76
(lp385
g69
(g90
g71
NtRp386
(dp387
g74
(dp388
g94
g95
ssg83
g382
sg76
(lp389
S'max-age'
p390
asbag69
(g90
g71
NtRp391
(dp392
g74
(dp393
g101
g102
ssg83
g382
sg76
(lp394
S':'
asbag69
(g90
g71
NtRp395
(dp396
g74
(dp397
sg83
g382
sg76
(lp398
g69
(g70
g71
NtRp399
(dp400
g74
(dp401
g82
I3
ssg83
g395
sg76
(lp402
S''
asbasbasbag69
(g85
g71
NtRp403
(dp404
g74
(dp405
sg83
g294
sg76
(lp406
g69
(g90
g71
NtRp407
(dp408
g74
(dp409
g94
g95
ssg83
g403
sg76
(lp410
S'path'
p411
asbag69
(g90
g71
NtRp412
(dp413
g74
(dp414
g101
g102
ssg83
g403
sg76
(lp415
S':'
asbag69
(g90
g71
NtRp416
(dp417
g74
(dp418
sg83
g403
sg76
(lp419
g69
(g70
g71
NtRp420
(dp421
g74
(dp422
g82
I3
ssg83
g416
sg76
(lp423
S''
asbasbasbag69
(g85
g71
NtRp424
(dp425
g74
(dp426
sg83
g294
sg76
(lp427
g69
(g90
g71
NtRp428
(dp429
g74
(dp430
g94
g95
ssg83
g424
sg76
(lp431
S'secure'
p432
asbag69
(g90
g71
NtRp433
(dp434
g74
(dp435
g101
g102
ssg83
g424
sg76
(lp436
S':'
asbag69
(g90
g71
NtRp437
(dp438
g74
(dp439
sg83
g424
sg76
(lp440
g69
(g70
g71
NtRp441
(dp442
g74
(dp443
g82
I3
ssg83
g437
sg76
(lp444
S''
asbasbasbag69
(g85
g71
NtRp445
(dp446
g74
(dp447
sg83
g294
sg76
(lp448
g69
(g90
g71
NtRp449
(dp450
g74
(dp451
g94
g95
ssg83
g445
sg76
(lp452
S'version'
p453
asbag69
(g90
g71
NtRp454
(dp455
g74
(dp456
g101
g102
ssg83
g445
sg76
(lp457
S':'
asbag69
(g90
g71
NtRp458
(dp459
g74
(dp460
sg83
g445
sg76
(lp461
g69
(g70
g71
NtRp462
(dp463
g74
(dp464
g82
I3
ssg83
g458
sg76
(lp465
S''
asbasbasbasbasbasbasbag69
(g85
g71
NtRp466
(dp467
g74
(dp468
sg83
g268
sg76
(lp469
g69
(g90
g71
NtRp470
(dp471
g74
(dp472
g94
g95
ssg83
g466
sg76
(lp473
S'cookie'
p474
asbag69
(g90
g71
NtRp475
(dp476
g74
(dp477
g101
g102
ssg83
g466
sg76
(lp478
S':'
asbag69
(g90
g71
NtRp479
(dp480
g74
(dp481
sg83
g466
sg76
(lp482
g69
(g70
g71
NtRp483
(dp484
g74
(dp485
g82
I4
ssg83
g479
sg76
(lp486
S'1649423593'
p487
ag69
(g78
g71
NtRp488
(dp489
g74
(dp490
g82
I3
ssg83
Nsg76
(lp491
g69
(g85
g71
NtRp492
(dp493
g74
(dp494
sg83
g488
sg76
(lp495
g69
(g90
g71
NtRp496
(dp497
g74
(dp498
g94
g95
ssg83
g492
sg76
(lp499
g306
asbag69
(g90
g71
NtRp500
(dp501
g74
(dp502
g101
g102
ssg83
g492
sg76
(lp503
S':'
asbag69
(g90
g71
NtRp504
(dp505
g74
(dp506
sg83
g492
sg76
(lp507
g69
(g70
g71
NtRp508
(dp509
g74
(dp510
g82
I3
ssg83
g504
sg76
(lp511
S''
asbasbasbag69
(g85
g71
NtRp512
(dp513
g74
(dp514
sg83
g488
sg76
(lp515
g69
(g90
g71
NtRp516
(dp517
g74
(dp518
g94
g95
ssg83
g512
sg76
(lp519
g327
asbag69
(g90
g71
NtRp520
(dp521
g74
(dp522
g101
g102
ssg83
g512
sg76
(lp523
S':'
asbag69
(g90
g71
NtRp524
(dp525
g74
(dp526
sg83
g512
sg76
(lp527
g69
(g70
g71
NtRp528
(dp529
g74
(dp530
g82
I3
ssg83
g524
sg76
(lp531
S''
asbasbasbag69
(g85
g71
NtRp532
(dp533
g74
(dp534
sg83
g488
sg76
(lp535
g69
(g90
g71
NtRp536
(dp537
g74
(dp538
g94
g95
ssg83
g532
sg76
(lp539
g348
asbag69
(g90
g71
NtRp540
(dp541
g74
(dp542
g101
g102
ssg83
g532
sg76
(lp543
S':'
asbag69
(g90
g71
NtRp544
(dp545
g74
(dp546
sg83
g532
sg76
(lp547
g69
(g70
g71
NtRp548
(dp549
g74
(dp550
g82
I3
ssg83
g544
sg76
(lp551
S''
asbasbasbag69
(g85
g71
NtRp552
(dp553
g74
(dp554
sg83
g488
sg76
(lp555
g69
(g90
g71
NtRp556
(dp557
g74
(dp558
g94
g95
ssg83
g552
sg76
(lp559
g369
asbag69
(g90
g71
NtRp560
(dp561
g74
(dp562
g101
g102
ssg83
g552
sg76
(lp563
S':'
asbag69
(g90
g71
NtRp564
(dp565
g74
(dp566
sg83
g552
sg76
(lp567
g69
(g70
g71
NtRp568
(dp569
g74
(dp570
g82
I3
ssg83
g564
sg76
(lp571
S''
asbasbasbag69
(g85
g71
NtRp572
(dp573
g74
(dp574
sg83
g488
sg76
(lp575
g69
(g90
g71
NtRp576
(dp577
g74
(dp578
g94
g95
ssg83
g572
sg76
(lp579
g390
asbag69
(g90
g71
NtRp580
(dp581
g74
(dp582
g101
g102
ssg83
g572
sg76
(lp583
S':'
asbag69
(g90
g71
NtRp584
(dp585
g74
(dp586
sg83
g572
sg76
(lp587
g69
(g70
g71
NtRp588
(dp589
g74
(dp590
g82
I3
ssg83
g584
sg76
(lp591
S''
asbasbasbag69
(g85
g71
NtRp592
(dp593
g74
(dp594
sg83
g488
sg76
(lp595
g69
(g90
g71
NtRp596
(dp597
g74
(dp598
g94
g95
ssg83
g592
sg76
(lp599
g411
asbag69
(g90
g71
NtRp600
(dp601
g74
(dp602
g101
g102
ssg83
g592
sg76
(lp603
S':'
asbag69
(g90
g71
NtRp604
(dp605
g74
(dp606
sg83
g592
sg76
(lp607
g69
(g70
g71
NtRp608
(dp609
g74
(dp610
g82
I3
ssg83
g604
sg76
(lp611
S''
asbasbasbag69
(g85
g71
NtRp612
(dp613
g74
(dp614
sg83
g488
sg76
(lp615
g69
(g90
g71
NtRp616
(dp617
g74
(dp618
g94
g95
ssg83
g612
sg76
(lp619
g432
asbag69
(g90
g71
NtRp620
(dp621
g74
(dp622
g101
g102
ssg83
g612
sg76
(lp623
S':'
asbag69
(g90
g71
NtRp624
(dp625
g74
(dp626
sg83
g612
sg76
(lp627
g69
(g70
g71
NtRp628
(dp629
g74
(dp630
g82
I3
ssg83
g624
sg76
(lp631
S''
asbasbasbag69
(g85
g71
NtRp632
(dp633
g74
(dp634
sg83
g488
sg76
(lp635
g69
(g90
g71
NtRp636
(dp637
g74
(dp638
g94
g95
ssg83
g632
sg76
(lp639
g453
asbag69
(g90
g71
NtRp640
(dp641
g74
(dp642
g101
g102
ssg83
g632
sg76
(lp643
S':'
asbag69
(g90
g71
NtRp644
(dp645
g74
(dp646
sg83
g632
sg76
(lp647
g69
(g70
g71
NtRp648
(dp649
g74
(dp650
g82
I3
ssg83
g644
sg76
(lp651
S''
asbasbasbasbasbasbasbag69
(g85
g71
NtRp652
(dp653
g74
(dp654
sg83
g268
sg76
(lp655
g69
(g90
g71
NtRp656
(dp657
g74
(dp658
g94
g95
ssg83
g652
sg76
(lp659
S'hw_type'
p660
asbag69
(g90
g71
NtRp661
(dp662
g74
(dp663
g101
g102
ssg83
g652
sg76
(lp664
S':'
asbag69
(g90
g71
NtRp665
(dp666
g74
(dp667
sg83
g652
sg76
(lp668
g69
(g70
g71
NtRp669
(dp670
g74
(dp671
g82
I4
ssg83
g665
sg76
(lp672
S'MX60'
p673
ag69
(g78
g71
NtRp674
(dp675
g74
(dp676
g82
I3
ssg83
Nsg76
(lp677
g69
(g85
g71
NtRp678
(dp679
g74
(dp680
sg83
g674
sg76
(lp681
g69
(g90
g71
NtRp682
(dp683
g74
(dp684
g94
g95
ssg83
g678
sg76
(lp685
g306
asbag69
(g90
g71
NtRp686
(dp687
g74
(dp688
g101
g102
ssg83
g678
sg76
(lp689
S':'
asbag69
(g90
g71
NtRp690
(dp691
g74
(dp692
sg83
g678
sg76
(lp693
g69
(g70
g71
NtRp694
(dp695
g74
(dp696
g82
I3
ssg83
g690
sg76
(lp697
S''
asbasbasbag69
(g85
g71
NtRp698
(dp699
g74
(dp700
sg83
g674
sg76
(lp701
g69
(g90
g71
NtRp702
(dp703
g74
(dp704
g94
g95
ssg83
g698
sg76
(lp705
g327
asbag69
(g90
g71
NtRp706
(dp707
g74
(dp708
g101
g102
ssg83
g698
sg76
(lp709
S':'
asbag69
(g90
g71
NtRp710
(dp711
g74
(dp712
sg83
g698
sg76
(lp713
g69
(g70
g71
NtRp714
(dp715
g74
(dp716
g82
I3
ssg83
g710
sg76
(lp717
S''
asbasbasbag69
(g85
g71
NtRp718
(dp719
g74
(dp720
sg83
g674
sg76
(lp721
g69
(g90
g71
NtRp722
(dp723
g74
(dp724
g94
g95
ssg83
g718
sg76
(lp725
g348
asbag69
(g90
g71
NtRp726
(dp727
g74
(dp728
g101
g102
ssg83
g718
sg76
(lp729
S':'
asbag69
(g90
g71
NtRp730
(dp731
g74
(dp732
sg83
g718
sg76
(lp733
g69
(g70
g71
NtRp734
(dp735
g74
(dp736
g82
I3
ssg83
g730
sg76
(lp737
S''
asbasbasbag69
(g85
g71
NtRp738
(dp739
g74
(dp740
sg83
g674
sg76
(lp741
g69
(g90
g71
NtRp742
(dp743
g74
(dp744
g94
g95
ssg83
g738
sg76
(lp745
g369
asbag69
(g90
g71
NtRp746
(dp747
g74
(dp748
g101
g102
ssg83
g738
sg76
(lp749
S':'
asbag69
(g90
g71
NtRp750
(dp751
g74
(dp752
sg83
g738
sg76
(lp753
g69
(g70
g71
NtRp754
(dp755
g74
(dp756
g82
I3
ssg83
g750
sg76
(lp757
S''
asbasbasbag69
(g85
g71
NtRp758
(dp759
g74
(dp760
sg83
g674
sg76
(lp761
g69
(g90
g71
NtRp762
(dp763
g74
(dp764
g94
g95
ssg83
g758
sg76
(lp765
g390
asbag69
(g90
g71
NtRp766
(dp767
g74
(dp768
g101
g102
ssg83
g758
sg76
(lp769
S':'
asbag69
(g90
g71
NtRp770
(dp771
g74
(dp772
sg83
g758
sg76
(lp773
g69
(g70
g71
NtRp774
(dp775
g74
(dp776
g82
I3
ssg83
g770
sg76
(lp777
S''
asbasbasbag69
(g85
g71
NtRp778
(dp779
g74
(dp780
sg83
g674
sg76
(lp781
g69
(g90
g71
NtRp782
(dp783
g74
(dp784
g94
g95
ssg83
g778
sg76
(lp785
g411
asbag69
(g90
g71
NtRp786
(dp787
g74
(dp788
g101
g102
ssg83
g778
sg76
(lp789
S':'
asbag69
(g90
g71
NtRp790
(dp791
g74
(dp792
sg83
g778
sg76
(lp793
g69
(g70
g71
NtRp794
(dp795
g74
(dp796
g82
I3
ssg83
g790
sg76
(lp797
S''
asbasbasbag69
(g85
g71
NtRp798
(dp799
g74
(dp800
sg83
g674
sg76
(lp801
g69
(g90
g71
NtRp802
(dp803
g74
(dp804
g94
g95
ssg83
g798
sg76
(lp805
g432
asbag69
(g90
g71
NtRp806
(dp807
g74
(dp808
g101
g102
ssg83
g798
sg76
(lp809
S':'
asbag69
(g90
g71
NtRp810
(dp811
g74
(dp812
sg83
g798
sg76
(lp813
g69
(g70
g71
NtRp814
(dp815
g74
(dp816
g82
I3
ssg83
g810
sg76
(lp817
S''
asbasbasbag69
(g85
g71
NtRp818
(dp819
g74
(dp820
sg83
g674
sg76
(lp821
g69
(g90
g71
NtRp822
(dp823
g74
(dp824
g94
g95
ssg83
g818
sg76
(lp825
g453
asbag69
(g90
g71
NtRp826
(dp827
g74
(dp828
g101
g102
ssg83
g818
sg76
(lp829
S':'
asbag69
(g90
g71
NtRp830
(dp831
g74
(dp832
sg83
g818
sg76
(lp833
g69
(g70
g71
NtRp834
(dp835
g74
(dp836
g82
I3
ssg83
g830
sg76
(lp837
S''
asbasbasbasbasbasbasbag69
(g85
g71
NtRp838
(dp839
g74
(dp840
sg83
g268
sg76
(lp841
g69
(g90
g71
NtRp842
(dp843
g74
(dp844
g94
g95
ssg83
g838
sg76
(lp845
S'hw_version'
p846
asbag69
(g90
g71
NtRp847
(dp848
g74
(dp849
g101
g102
ssg83
g838
sg76
(lp850
S':'
asbag69
(g90
g71
NtRp851
(dp852
g74
(dp853
sg83
g838
sg76
(lp854
g69
(g70
g71
NtRp855
(dp856
g74
(dp857
g82
I4
ssg83
g851
sg76
(lp858
S'Rev%201.9.82.316'
p859
ag69
(g78
g71
NtRp860
(dp861
g74
(dp862
g82
I3
ssg83
Nsg76
(lp863
g69
(g85
g71
NtRp864
(dp865
g74
(dp866
sg83
g860
sg76
(lp867
g69
(g90
g71
NtRp868
(dp869
g74
(dp870
g94
g95
ssg83
g864
sg76
(lp871
g306
asbag69
(g90
g71
NtRp872
(dp873
g74
(dp874
g101
g102
ssg83
g864
sg76
(lp875
S':'
asbag69
(g90
g71
NtRp876
(dp877
g74
(dp878
sg83
g864
sg76
(lp879
g69
(g70
g71
NtRp880
(dp881
g74
(dp882
g82
I3
ssg83
g876
sg76
(lp883
S''
asbasbasbag69
(g85
g71
NtRp884
(dp885
g74
(dp886
sg83
g860
sg76
(lp887
g69
(g90
g71
NtRp888
(dp889
g74
(dp890
g94
g95
ssg83
g884
sg76
(lp891
g327
asbag69
(g90
g71
NtRp892
(dp893
g74
(dp894
g101
g102
ssg83
g884
sg76
(lp895
S':'
asbag69
(g90
g71
NtRp896
(dp897
g74
(dp898
sg83
g884
sg76
(lp899
g69
(g70
g71
NtRp900
(dp901
g74
(dp902
g82
I3
ssg83
g896
sg76
(lp903
S''
asbasbasbag69
(g85
g71
NtRp904
(dp905
g74
(dp906
sg83
g860
sg76
(lp907
g69
(g90
g71
NtRp908
(dp909
g74
(dp910
g94
g95
ssg83
g904
sg76
(lp911
g348
asbag69
(g90
g71
NtRp912
(dp913
g74
(dp914
g101
g102
ssg83
g904
sg76
(lp915
S':'
asbag69
(g90
g71
NtRp916
(dp917
g74
(dp918
sg83
g904
sg76
(lp919
g69
(g70
g71
NtRp920
(dp921
g74
(dp922
g82
I3
ssg83
g916
sg76
(lp923
S''
asbasbasbag69
(g85
g71
NtRp924
(dp925
g74
(dp926
sg83
g860
sg76
(lp927
g69
(g90
g71
NtRp928
(dp929
g74
(dp930
g94
g95
ssg83
g924
sg76
(lp931
g369
asbag69
(g90
g71
NtRp932
(dp933
g74
(dp934
g101
g102
ssg83
g924
sg76
(lp935
S':'
asbag69
(g90
g71
NtRp936
(dp937
g74
(dp938
sg83
g924
sg76
(lp939
g69
(g70
g71
NtRp940
(dp941
g74
(dp942
g82
I3
ssg83
g936
sg76
(lp943
S''
asbasbasbag69
(g85
g71
NtRp944
(dp945
g74
(dp946
sg83
g860
sg76
(lp947
g69
(g90
g71
NtRp948
(dp949
g74
(dp950
g94
g95
ssg83
g944
sg76
(lp951
g390
asbag69
(g90
g71
NtRp952
(dp953
g74
(dp954
g101
g102
ssg83
g944
sg76
(lp955
S':'
asbag69
(g90
g71
NtRp956
(dp957
g74
(dp958
sg83
g944
sg76
(lp959
g69
(g70
g71
NtRp960
(dp961
g74
(dp962
g82
I3
ssg83
g956
sg76
(lp963
S''
asbasbasbag69
(g85
g71
NtRp964
(dp965
g74
(dp966
sg83
g860
sg76
(lp967
g69
(g90
g71
NtRp968
(dp969
g74
(dp970
g94
g95
ssg83
g964
sg76
(lp971
g411
asbag69
(g90
g71
NtRp972
(dp973
g74
(dp974
g101
g102
ssg83
g964
sg76
(lp975
S':'
asbag69
(g90
g71
NtRp976
(dp977
g74
(dp978
sg83
g964
sg76
(lp979
g69
(g70
g71
NtRp980
(dp981
g74
(dp982
g82
I3
ssg83
g976
sg76
(lp983
S''
asbasbasbag69
(g85
g71
NtRp984
(dp985
g74
(dp986
sg83
g860
sg76
(lp987
g69
(g90
g71
NtRp988
(dp989
g74
(dp990
g94
g95
ssg83
g984
sg76
(lp991
g432
asbag69
(g90
g71
NtRp992
(dp993
g74
(dp994
g101
g102
ssg83
g984
sg76
(lp995
S':'
asbag69
(g90
g71
NtRp996
(dp997
g74
(dp998
sg83
g984
sg76
(lp999
g69
(g70
g71
NtRp1000
(dp1001
g74
(dp1002
g82
I3
ssg83
g996
sg76
(lp1003
S''
asbasbasbag69
(g85
g71
NtRp1004
(dp1005
g74
(dp1006
sg83
g860
sg76
(lp1007
g69
(g90
g71
NtRp1008
(dp1009
g74
(dp1010
g94
g95
ssg83
g1004
sg76
(lp1011
g453
asbag69
(g90
g71
NtRp1012
(dp1013
g74
(dp1014
g101
g102
ssg83
g1004
sg76
(lp1015
S':'
asbag69
(g90
g71
NtRp1016
(dp1017
g74
(dp1018
sg83
g1004
sg76
(lp1019
g69
(g70
g71
NtRp1020
(dp1021
g74
(dp1022
g82
I3
ssg83
g1016
sg76
(lp1023
S''
asbasbasbasbasbasbasbag69
(g85
g71
NtRp1024
(dp1025
g74
(dp1026
sg83
g268
sg76
(lp1027
g69
(g90
g71
NtRp1028
(dp1029
g74
(dp1030
g94
g95
ssg83
g1024
sg76
(lp1031
S'language'
p1032
asbag69
(g90
g71
NtRp1033
(dp1034
g74
(dp1035
g101
g102
ssg83
g1024
sg76
(lp1036
S':'
asbag69
(g90
g71
NtRp1037
(dp1038
g74
(dp1039
sg83
g1024
sg76
(lp1040
g69
(g70
g71
NtRp1041
(dp1042
g74
(dp1043
g82
I4
ssg83
g1037
sg76
(lp1044
S'1'
ag69
(g78
g71
NtRp1045
(dp1046
g74
(dp1047
g82
I3
ssg83
Nsg76
(lp1048
g69
(g85
g71
NtRp1049
(dp1050
g74
(dp1051
sg83
g1045
sg76
(lp1052
g69
(g90
g71
NtRp1053
(dp1054
g74
(dp1055
g94
g95
ssg83
g1049
sg76
(lp1056
g306
asbag69
(g90
g71
NtRp1057
(dp1058
g74
(dp1059
g101
g102
ssg83
g1049
sg76
(lp1060
S':'
asbag69
(g90
g71
NtRp1061
(dp1062
g74
(dp1063
sg83
g1049
sg76
(lp1064
g69
(g70
g71
NtRp1065
(dp1066
g74
(dp1067
g82
I3
ssg83
g1061
sg76
(lp1068
S''
asbasbasbag69
(g85
g71
NtRp1069
(dp1070
g74
(dp1071
sg83
g1045
sg76
(lp1072
g69
(g90
g71
NtRp1073
(dp1074
g74
(dp1075
g94
g95
ssg83
g1069
sg76
(lp1076
g327
asbag69
(g90
g71
NtRp1077
(dp1078
g74
(dp1079
g101
g102
ssg83
g1069
sg76
(lp1080
S':'
asbag69
(g90
g71
NtRp1081
(dp1082
g74
(dp1083
sg83
g1069
sg76
(lp1084
g69
(g70
g71
NtRp1085
(dp1086
g74
(dp1087
g82
I3
ssg83
g1081
sg76
(lp1088
S''
asbasbasbag69
(g85
g71
NtRp1089
(dp1090
g74
(dp1091
sg83
g1045
sg76
(lp1092
g69
(g90
g71
NtRp1093
(dp1094
g74
(dp1095
g94
g95
ssg83
g1089
sg76
(lp1096
g348
asbag69
(g90
g71
NtRp1097
(dp1098
g74
(dp1099
g101
g102
ssg83
g1089
sg76
(lp1100
S':'
asbag69
(g90
g71
NtRp1101
(dp1102
g74
(dp1103
sg83
g1089
sg76
(lp1104
g69
(g70
g71
NtRp1105
(dp1106
g74
(dp1107
g82
I3
ssg83
g1101
sg76
(lp1108
S''
asbasbasbag69
(g85
g71
NtRp1109
(dp1110
g74
(dp1111
sg83
g1045
sg76
(lp1112
g69
(g90
g71
NtRp1113
(dp1114
g74
(dp1115
g94
g95
ssg83
g1109
sg76
(lp1116
g369
asbag69
(g90
g71
NtRp1117
(dp1118
g74
(dp1119
g101
g102
ssg83
g1109
sg76
(lp1120
S':'
asbag69
(g90
g71
NtRp1121
(dp1122
g74
(dp1123
sg83
g1109
sg76
(lp1124
g69
(g70
g71
NtRp1125
(dp1126
g74
(dp1127
g82
I3
ssg83
g1121
sg76
(lp1128
S''
asbasbasbag69
(g85
g71
NtRp1129
(dp1130
g74
(dp1131
sg83
g1045
sg76
(lp1132
g69
(g90
g71
NtRp1133
(dp1134
g74
(dp1135
g94
g95
ssg83
g1129
sg76
(lp1136
g390
asbag69
(g90
g71
NtRp1137
(dp1138
g74
(dp1139
g101
g102
ssg83
g1129
sg76
(lp1140
S':'
asbag69
(g90
g71
NtRp1141
(dp1142
g74
(dp1143
sg83
g1129
sg76
(lp1144
g69
(g70
g71
NtRp1145
(dp1146
g74
(dp1147
g82
I3
ssg83
g1141
sg76
(lp1148
S''
asbasbasbag69
(g85
g71
NtRp1149
(dp1150
g74
(dp1151
sg83
g1045
sg76
(lp1152
g69
(g90
g71
NtRp1153
(dp1154
g74
(dp1155
g94
g95
ssg83
g1149
sg76
(lp1156
g411
asbag69
(g90
g71
NtRp1157
(dp1158
g74
(dp1159
g101
g102
ssg83
g1149
sg76
(lp1160
S':'
asbag69
(g90
g71
NtRp1161
(dp1162
g74
(dp1163
sg83
g1149
sg76
(lp1164
g69
(g70
g71
NtRp1165
(dp1166
g74
(dp1167
g82
I3
ssg83
g1161
sg76
(lp1168
S''
asbasbasbag69
(g85
g71
NtRp1169
(dp1170
g74
(dp1171
sg83
g1045
sg76
(lp1172
g69
(g90
g71
NtRp1173
(dp1174
g74
(dp1175
g94
g95
ssg83
g1169
sg76
(lp1176
g432
asbag69
(g90
g71
NtRp1177
(dp1178
g74
(dp1179
g101
g102
ssg83
g1169
sg76
(lp1180
S':'
asbag69
(g90
g71
NtRp1181
(dp1182
g74
(dp1183
sg83
g1169
sg76
(lp1184
g69
(g70
g71
NtRp1185
(dp1186
g74
(dp1187
g82
I3
ssg83
g1181
sg76
(lp1188
S''
asbasbasbag69
(g85
g71
NtRp1189
(dp1190
g74
(dp1191
sg83
g1045
sg76
(lp1192
g69
(g90
g71
NtRp1193
(dp1194
g74
(dp1195
g94
g95
ssg83
g1189
sg76
(lp1196
g453
asbag69
(g90
g71
NtRp1197
(dp1198
g74
(dp1199
g101
g102
ssg83
g1189
sg76
(lp1200
S':'
asbag69
(g90
g71
NtRp1201
(dp1202
g74
(dp1203
sg83
g1189
sg76
(lp1204
g69
(g70
g71
NtRp1205
(dp1206
g74
(dp1207
g82
I3
ssg83
g1201
sg76
(lp1208
S''
asbasbasbasbasbasbasbag69
(g85
g71
NtRp1209
(dp1210
g74
(dp1211
sg83
g268
sg76
(lp1212
g69
(g90
g71
NtRp1213
(dp1214
g74
(dp1215
g94
g95
ssg83
g1209
sg76
(lp1216
S'model'
p1217
asbag69
(g90
g71
NtRp1218
(dp1219
g74
(dp1220
g101
g102
ssg83
g1209
sg76
(lp1221
S':'
asbag69
(g90
g71
NtRp1222
(dp1223
g74
(dp1224
sg83
g1209
sg76
(lp1225
g69
(g70
g71
NtRp1226
(dp1227
g74
(dp1228
g82
I4
ssg83
g1222
sg76
(lp1229
S'MX'
p1230
ag69
(g78
g71
NtRp1231
(dp1232
g74
(dp1233
g82
I3
ssg83
Nsg76
(lp1234
g69
(g85
g71
NtRp1235
(dp1236
g74
(dp1237
sg83
g1231
sg76
(lp1238
g69
(g90
g71
NtRp1239
(dp1240
g74
(dp1241
g94
g95
ssg83
g1235
sg76
(lp1242
g306
asbag69
(g90
g71
NtRp1243
(dp1244
g74
(dp1245
g101
g102
ssg83
g1235
sg76
(lp1246
S':'
asbag69
(g90
g71
NtRp1247
(dp1248
g74
(dp1249
sg83
g1235
sg76
(lp1250
g69
(g70
g71
NtRp1251
(dp1252
g74
(dp1253
g82
I3
ssg83
g1247
sg76
(lp1254
S''
asbasbasbag69
(g85
g71
NtRp1255
(dp1256
g74
(dp1257
sg83
g1231
sg76
(lp1258
g69
(g90
g71
NtRp1259
(dp1260
g74
(dp1261
g94
g95
ssg83
g1255
sg76
(lp1262
g327
asbag69
(g90
g71
NtRp1263
(dp1264
g74
(dp1265
g101
g102
ssg83
g1255
sg76
(lp1266
S':'
asbag69
(g90
g71
NtRp1267
(dp1268
g74
(dp1269
sg83
g1255
sg76
(lp1270
g69
(g70
g71
NtRp1271
(dp1272
g74
(dp1273
g82
I3
ssg83
g1267
sg76
(lp1274
S''
asbasbasbag69
(g85
g71
NtRp1275
(dp1276
g74
(dp1277
sg83
g1231
sg76
(lp1278
g69
(g90
g71
NtRp1279
(dp1280
g74
(dp1281
g94
g95
ssg83
g1275
sg76
(lp1282
g348
asbag69
(g90
g71
NtRp1283
(dp1284
g74
(dp1285
g101
g102
ssg83
g1275
sg76
(lp1286
S':'
asbag69
(g90
g71
NtRp1287
(dp1288
g74
(dp1289
sg83
g1275
sg76
(lp1290
g69
(g70
g71
NtRp1291
(dp1292
g74
(dp1293
g82
I3
ssg83
g1287
sg76
(lp1294
S''
asbasbasbag69
(g85
g71
NtRp1295
(dp1296
g74
(dp1297
sg83
g1231
sg76
(lp1298
g69
(g90
g71
NtRp1299
(dp1300
g74
(dp1301
g94
g95
ssg83
g1295
sg76
(lp1302
g369
asbag69
(g90
g71
NtRp1303
(dp1304
g74
(dp1305
g101
g102
ssg83
g1295
sg76
(lp1306
S':'
asbag69
(g90
g71
NtRp1307
(dp1308
g74
(dp1309
sg83
g1295
sg76
(lp1310
g69
(g70
g71
NtRp1311
(dp1312
g74
(dp1313
g82
I3
ssg83
g1307
sg76
(lp1314
S''
asbasbasbag69
(g85
g71
NtRp1315
(dp1316
g74
(dp1317
sg83
g1231
sg76
(lp1318
g69
(g90
g71
NtRp1319
(dp1320
g74
(dp1321
g94
g95
ssg83
g1315
sg76
(lp1322
g390
asbag69
(g90
g71
NtRp1323
(dp1324
g74
(dp1325
g101
g102
ssg83
g1315
sg76
(lp1326
S':'
asbag69
(g90
g71
NtRp1327
(dp1328
g74
(dp1329
sg83
g1315
sg76
(lp1330
g69
(g70
g71
NtRp1331
(dp1332
g74
(dp1333
g82
I3
ssg83
g1327
sg76
(lp1334
S''
asbasbasbag69
(g85
g71
NtRp1335
(dp1336
g74
(dp1337
sg83
g1231
sg76
(lp1338
g69
(g90
g71
NtRp1339
(dp1340
g74
(dp1341
g94
g95
ssg83
g1335
sg76
(lp1342
g411
asbag69
(g90
g71
NtRp1343
(dp1344
g74
(dp1345
g101
g102
ssg83
g1335
sg76
(lp1346
S':'
asbag69
(g90
g71
NtRp1347
(dp1348
g74
(dp1349
sg83
g1335
sg76
(lp1350
g69
(g70
g71
NtRp1351
(dp1352
g74
(dp1353
g82
I3
ssg83
g1347
sg76
(lp1354
S''
asbasbasbag69
(g85
g71
NtRp1355
(dp1356
g74
(dp1357
sg83
g1231
sg76
(lp1358
g69
(g90
g71
NtRp1359
(dp1360
g74
(dp1361
g94
g95
ssg83
g1355
sg76
(lp1362
g432
asbag69
(g90
g71
NtRp1363
(dp1364
g74
(dp1365
g101
g102
ssg83
g1355
sg76
(lp1366
S':'
asbag69
(g90
g71
NtRp1367
(dp1368
g74
(dp1369
sg83
g1355
sg76
(lp1370
g69
(g70
g71
NtRp1371
(dp1372
g74
(dp1373
g82
I3
ssg83
g1367
sg76
(lp1374
S''
asbasbasbag69
(g85
g71
NtRp1375
(dp1376
g74
(dp1377
sg83
g1231
sg76
(lp1378
g69
(g90
g71
NtRp1379
(dp1380
g74
(dp1381
g94
g95
ssg83
g1375
sg76
(lp1382
g453
asbag69
(g90
g71
NtRp1383
(dp1384
g74
(dp1385
g101
g102
ssg83
g1375
sg76
(lp1386
S':'
asbag69
(g90
g71
NtRp1387
(dp1388
g74
(dp1389
sg83
g1375
sg76
(lp1390
g69
(g70
g71
NtRp1391
(dp1392
g74
(dp1393
g82
I3
ssg83
g1387
sg76
(lp1394
S''
asbasbasbasbasbasbasbag69
(g85
g71
NtRp1395
(dp1396
g74
(dp1397
sg83
g268
sg76
(lp1398
g69
(g90
g71
NtRp1399
(dp1400
g74
(dp1401
g94
g95
ssg83
g1395
sg76
(lp1402
S'nr'
p1403
asbag69
(g90
g71
NtRp1404
(dp1405
g74
(dp1406
g101
g102
ssg83
g1395
sg76
(lp1407
S':'
asbag69
(g90
g71
NtRp1408
(dp1409
g74
(dp1410
sg83
g1395
sg76
(lp1411
g69
(g70
g71
NtRp1412
(dp1413
g74
(dp1414
g82
I4
ssg83
g1408
sg76
(lp1415
S'1'
ag69
(g78
g71
NtRp1416
(dp1417
g74
(dp1418
g82
I3
ssg83
Nsg76
(lp1419
g69
(g85
g71
NtRp1420
(dp1421
g74
(dp1422
sg83
g1416
sg76
(lp1423
g69
(g90
g71
NtRp1424
(dp1425
g74
(dp1426
g94
g95
ssg83
g1420
sg76
(lp1427
g306
asbag69
(g90
g71
NtRp1428
(dp1429
g74
(dp1430
g101
g102
ssg83
g1420
sg76
(lp1431
S':'
asbag69
(g90
g71
NtRp1432
(dp1433
g74
(dp1434
sg83
g1420
sg76
(lp1435
g69
(g70
g71
NtRp1436
(dp1437
g74
(dp1438
g82
I3
ssg83
g1432
sg76
(lp1439
S''
asbasbasbag69
(g85
g71
NtRp1440
(dp1441
g74
(dp1442
sg83
g1416
sg76
(lp1443
g69
(g90
g71
NtRp1444
(dp1445
g74
(dp1446
g94
g95
ssg83
g1440
sg76
(lp1447
g327
asbag69
(g90
g71
NtRp1448
(dp1449
g74
(dp1450
g101
g102
ssg83
g1440
sg76
(lp1451
S':'
asbag69
(g90
g71
NtRp1452
(dp1453
g74
(dp1454
sg83
g1440
sg76
(lp1455
g69
(g70
g71
NtRp1456
(dp1457
g74
(dp1458
g82
I3
ssg83
g1452
sg76
(lp1459
S''
asbasbasbag69
(g85
g71
NtRp1460
(dp1461
g74
(dp1462
sg83
g1416
sg76
(lp1463
g69
(g90
g71
NtRp1464
(dp1465
g74
(dp1466
g94
g95
ssg83
g1460
sg76
(lp1467
g348
asbag69
(g90
g71
NtRp1468
(dp1469
g74
(dp1470
g101
g102
ssg83
g1460
sg76
(lp1471
S':'
asbag69
(g90
g71
NtRp1472
(dp1473
g74
(dp1474
sg83
g1460
sg76
(lp1475
g69
(g70
g71
NtRp1476
(dp1477
g74
(dp1478
g82
I3
ssg83
g1472
sg76
(lp1479
S''
asbasbasbag69
(g85
g71
NtRp1480
(dp1481
g74
(dp1482
sg83
g1416
sg76
(lp1483
g69
(g90
g71
NtRp1484
(dp1485
g74
(dp1486
g94
g95
ssg83
g1480
sg76
(lp1487
g369
asbag69
(g90
g71
NtRp1488
(dp1489
g74
(dp1490
g101
g102
ssg83
g1480
sg76
(lp1491
S':'
asbag69
(g90
g71
NtRp1492
(dp1493
g74
(dp1494
sg83
g1480
sg76
(lp1495
g69
(g70
g71
NtRp1496
(dp1497
g74
(dp1498
g82
I3
ssg83
g1492
sg76
(lp1499
S''
asbasbasbag69
(g85
g71
NtRp1500
(dp1501
g74
(dp1502
sg83
g1416
sg76
(lp1503
g69
(g90
g71
NtRp1504
(dp1505
g74
(dp1506
g94
g95
ssg83
g1500
sg76
(lp1507
g390
asbag69
(g90
g71
NtRp1508
(dp1509
g74
(dp1510
g101
g102
ssg83
g1500
sg76
(lp1511
S':'
asbag69
(g90
g71
NtRp1512
(dp1513
g74
(dp1514
sg83
g1500
sg76
(lp1515
g69
(g70
g71
NtRp1516
(dp1517
g74
(dp1518
g82
I3
ssg83
g1512
sg76
(lp1519
S''
asbasbasbag69
(g85
g71
NtRp1520
(dp1521
g74
(dp1522
sg83
g1416
sg76
(lp1523
g69
(g90
g71
NtRp1524
(dp1525
g74
(dp1526
g94
g95
ssg83
g1520
sg76
(lp1527
g411
asbag69
(g90
g71
NtRp1528
(dp1529
g74
(dp1530
g101
g102
ssg83
g1520
sg76
(lp1531
S':'
asbag69
(g90
g71
NtRp1532
(dp1533
g74
(dp1534
sg83
g1520
sg76
(lp1535
g69
(g70
g71
NtRp1536
(dp1537
g74
(dp1538
g82
I3
ssg83
g1532
sg76
(lp1539
S''
asbasbasbag69
(g85
g71
NtRp1540
(dp1541
g74
(dp1542
sg83
g1416
sg76
(lp1543
g69
(g90
g71
NtRp1544
(dp1545
g74
(dp1546
g94
g95
ssg83
g1540
sg76
(lp1547
g432
asbag69
(g90
g71
NtRp1548
(dp1549
g74
(dp1550
g101
g102
ssg83
g1540
sg76
(lp1551
S':'
asbag69
(g90
g71
NtRp1552
(dp1553
g74
(dp1554
sg83
g1540
sg76
(lp1555
g69
(g70
g71
NtRp1556
(dp1557
g74
(dp1558
g82
I3
ssg83
g1552
sg76
(lp1559
S''
asbasbasbag69
(g85
g71
NtRp1560
(dp1561
g74
(dp1562
sg83
g1416
sg76
(lp1563
g69
(g90
g71
NtRp1564
(dp1565
g74
(dp1566
g94
g95
ssg83
g1560
sg76
(lp1567
g453
asbag69
(g90
g71
NtRp1568
(dp1569
g74
(dp1570
g101
g102
ssg83
g1560
sg76
(lp1571
S':'
asbag69
(g90
g71
NtRp1572
(dp1573
g74
(dp1574
sg83
g1560
sg76
(lp1575
g69
(g70
g71
NtRp1576
(dp1577
g74
(dp1578
g82
I3
ssg83
g1572
sg76
(lp1579
S''
asbasbasbasbasbasbasbag69
(g85
g71
NtRp1580
(dp1581
g74
(dp1582
sg83
g268
sg76
(lp1583
g69
(g90
g71
NtRp1584
(dp1585
g74
(dp1586
g94
g95
ssg83
g1580
sg76
(lp1587
S'session_id_admin'
p1588
asbag69
(g90
g71
NtRp1589
(dp1590
g74
(dp1591
g101
g102
ssg83
g1580
sg76
(lp1592
S':'
asbag69
(g90
g71
NtRp1593
(dp1594
g74
(dp1595
sg83
g1580
sg76
(lp1596
g69
(g70
g71
NtRp1597
(dp1598
g74
(dp1599
g82
I4
ssg83
g1593
sg76
(lp1600
S'127.0.0.1-2137e5fc-73b0-4fcd-be7b-d2f46e1918b1'
p1601
ag69
(g78
g71
NtRp1602
(dp1603
g74
(dp1604
g82
I3
ssg83
Nsg76
(lp1605
g69
(g85
g71
NtRp1606
(dp1607
g74
(dp1608
sg83
g1602
sg76
(lp1609
g69
(g90
g71
NtRp1610
(dp1611
g74
(dp1612
g94
g95
ssg83
g1606
sg76
(lp1613
g306
asbag69
(g90
g71
NtRp1614
(dp1615
g74
(dp1616
g101
g102
ssg83
g1606
sg76
(lp1617
S':'
asbag69
(g90
g71
NtRp1618
(dp1619
g74
(dp1620
sg83
g1606
sg76
(lp1621
g69
(g70
g71
NtRp1622
(dp1623
g74
(dp1624
g82
I3
ssg83
g1618
sg76
(lp1625
S''
asbasbasbag69
(g85
g71
NtRp1626
(dp1627
g74
(dp1628
sg83
g1602
sg76
(lp1629
g69
(g90
g71
NtRp1630
(dp1631
g74
(dp1632
g94
g95
ssg83
g1626
sg76
(lp1633
g327
asbag69
(g90
g71
NtRp1634
(dp1635
g74
(dp1636
g101
g102
ssg83
g1626
sg76
(lp1637
S':'
asbag69
(g90
g71
NtRp1638
(dp1639
g74
(dp1640
sg83
g1626
sg76
(lp1641
g69
(g70
g71
NtRp1642
(dp1643
g74
(dp1644
g82
I3
ssg83
g1638
sg76
(lp1645
S''
asbasbasbag69
(g85
g71
NtRp1646
(dp1647
g74
(dp1648
sg83
g1602
sg76
(lp1649
g69
(g90
g71
NtRp1650
(dp1651
g74
(dp1652
g94
g95
ssg83
g1646
sg76
(lp1653
g348
asbag69
(g90
g71
NtRp1654
(dp1655
g74
(dp1656
g101
g102
ssg83
g1646
sg76
(lp1657
S':'
asbag69
(g90
g71
NtRp1658
(dp1659
g74
(dp1660
sg83
g1646
sg76
(lp1661
g69
(g70
g71
NtRp1662
(dp1663
g74
(dp1664
g82
I3
ssg83
g1658
sg76
(lp1665
S''
asbasbasbag69
(g85
g71
NtRp1666
(dp1667
g74
(dp1668
sg83
g1602
sg76
(lp1669
g69
(g90
g71
NtRp1670
(dp1671
g74
(dp1672
g94
g95
ssg83
g1666
sg76
(lp1673
g369
asbag69
(g90
g71
NtRp1674
(dp1675
g74
(dp1676
g101
g102
ssg83
g1666
sg76
(lp1677
S':'
asbag69
(g90
g71
NtRp1678
(dp1679
g74
(dp1680
sg83
g1666
sg76
(lp1681
g69
(g70
g71
NtRp1682
(dp1683
g74
(dp1684
g82
I3
ssg83
g1678
sg76
(lp1685
S''
asbasbasbag69
(g85
g71
NtRp1686
(dp1687
g74
(dp1688
sg83
g1602
sg76
(lp1689
g69
(g90
g71
NtRp1690
(dp1691
g74
(dp1692
g94
g95
ssg83
g1686
sg76
(lp1693
g390
asbag69
(g90
g71
NtRp1694
(dp1695
g74
(dp1696
g101
g102
ssg83
g1686
sg76
(lp1697
S':'
asbag69
(g90
g71
NtRp1698
(dp1699
g74
(dp1700
sg83
g1686
sg76
(lp1701
g69
(g70
g71
NtRp1702
(dp1703
g74
(dp1704
g82
I3
ssg83
g1698
sg76
(lp1705
S''
asbasbasbag69
(g85
g71
NtRp1706
(dp1707
g74
(dp1708
sg83
g1602
sg76
(lp1709
g69
(g90
g71
NtRp1710
(dp1711
g74
(dp1712
g94
g95
ssg83
g1706
sg76
(lp1713
g411
asbag69
(g90
g71
NtRp1714
(dp1715
g74
(dp1716
g101
g102
ssg83
g1706
sg76
(lp1717
S':'
asbag69
(g90
g71
NtRp1718
(dp1719
g74
(dp1720
sg83
g1706
sg76
(lp1721
g69
(g70
g71
NtRp1722
(dp1723
g74
(dp1724
g82
I3
ssg83
g1718
sg76
(lp1725
S''
asbasbasbag69
(g85
g71
NtRp1726
(dp1727
g74
(dp1728
sg83
g1602
sg76
(lp1729
g69
(g90
g71
NtRp1730
(dp1731
g74
(dp1732
g94
g95
ssg83
g1726
sg76
(lp1733
g432
asbag69
(g90
g71
NtRp1734
(dp1735
g74
(dp1736
g101
g102
ssg83
g1726
sg76
(lp1737
S':'
asbag69
(g90
g71
NtRp1738
(dp1739
g74
(dp1740
sg83
g1726
sg76
(lp1741
g69
(g70
g71
NtRp1742
(dp1743
g74
(dp1744
g82
I3
ssg83
g1738
sg76
(lp1745
S''
asbasbasbag69
(g85
g71
NtRp1746
(dp1747
g74
(dp1748
sg83
g1602
sg76
(lp1749
g69
(g90
g71
NtRp1750
(dp1751
g74
(dp1752
g94
g95
ssg83
g1746
sg76
(lp1753
g453
asbag69
(g90
g71
NtRp1754
(dp1755
g74
(dp1756
g101
g102
ssg83
g1746
sg76
(lp1757
S':'
asbag69
(g90
g71
NtRp1758
(dp1759
g74
(dp1760
sg83
g1746
sg76
(lp1761
g69
(g70
g71
NtRp1762
(dp1763
g74
(dp1764
g82
I3
ssg83
g1758
sg76
(lp1765
S''
asbasbasbasbasbasbasbag69
(g85
g71
NtRp1766
(dp1767
g74
(dp1768
sg83
g268
sg76
(lp1769
g69
(g90
g71
NtRp1770
(dp1771
g74
(dp1772
g94
g95
ssg83
g1766
sg76
(lp1773
S'session_id_projeto'
p1774
asbag69
(g90
g71
NtRp1775
(dp1776
g74
(dp1777
g101
g102
ssg83
g1766
sg76
(lp1778
S':'
asbag69
(g90
g71
NtRp1779
(dp1780
g74
(dp1781
sg83
g1766
sg76
(lp1782
g69
(g70
g71
NtRp1783
(dp1784
g74
(dp1785
g82
I4
ssg83
g1779
sg76
(lp1786
S'127.0.0.1-b8c6a9b4-3ce7-4a48-b40d-12b6c8d18d0a'
p1787
ag69
(g78
g71
NtRp1788
(dp1789
g74
(dp1790
g82
I3
ssg83
Nsg76
(lp1791
g69
(g85
g71
NtRp1792
(dp1793
g74
(dp1794
sg83
g1788
sg76
(lp1795
g69
(g90
g71
NtRp1796
(dp1797
g74
(dp1798
g94
g95
ssg83
g1792
sg76
(lp1799
g306
asbag69
(g90
g71
NtRp1800
(dp1801
g74
(dp1802
g101
g102
ssg83
g1792
sg76
(lp1803
S':'
asbag69
(g90
g71
NtRp1804
(dp1805
g74
(dp1806
sg83
g1792
sg76
(lp1807
g69
(g70
g71
NtRp1808
(dp1809
g74
(dp1810
g82
I3
ssg83
g1804
sg76
(lp1811
S''
asbasbasbag69
(g85
g71
NtRp1812
(dp1813
g74
(dp1814
sg83
g1788
sg76
(lp1815
g69
(g90
g71
NtRp1816
(dp1817
g74
(dp1818
g94
g95
ssg83
g1812
sg76
(lp1819
g327
asbag69
(g90
g71
NtRp1820
(dp1821
g74
(dp1822
g101
g102
ssg83
g1812
sg76
(lp1823
S':'
asbag69
(g90
g71
NtRp1824
(dp1825
g74
(dp1826
sg83
g1812
sg76
(lp1827
g69
(g70
g71
NtRp1828
(dp1829
g74
(dp1830
g82
I3
ssg83
g1824
sg76
(lp1831
S''
asbasbasbag69
(g85
g71
NtRp1832
(dp1833
g74
(dp1834
sg83
g1788
sg76
(lp1835
g69
(g90
g71
NtRp1836
(dp1837
g74
(dp1838
g94
g95
ssg83
g1832
sg76
(lp1839
g348
asbag69
(g90
g71
NtRp1840
(dp1841
g74
(dp1842
g101
g102
ssg83
g1832
sg76
(lp1843
S':'
asbag69
(g90
g71
NtRp1844
(dp1845
g74
(dp1846
sg83
g1832
sg76
(lp1847
g69
(g70
g71
NtRp1848
(dp1849
g74
(dp1850
g82
I3
ssg83
g1844
sg76
(lp1851
S''
asbasbasbag69
(g85
g71
NtRp1852
(dp1853
g74
(dp1854
sg83
g1788
sg76
(lp1855
g69
(g90
g71
NtRp1856
(dp1857
g74
(dp1858
g94
g95
ssg83
g1852
sg76
(lp1859
g369
asbag69
(g90
g71
NtRp1860
(dp1861
g74
(dp1862
g101
g102
ssg83
g1852
sg76
(lp1863
S':'
asbag69
(g90
g71
NtRp1864
(dp1865
g74
(dp1866
sg83
g1852
sg76
(lp1867
g69
(g70
g71
NtRp1868
(dp1869
g74
(dp1870
g82
I3
ssg83
g1864
sg76
(lp1871
S''
asbasbasbag69
(g85
g71
NtRp1872
(dp1873
g74
(dp1874
sg83
g1788
sg76
(lp1875
g69
(g90
g71
NtRp1876
(dp1877
g74
(dp1878
g94
g95
ssg83
g1872
sg76
(lp1879
g390
asbag69
(g90
g71
NtRp1880
(dp1881
g74
(dp1882
g101
g102
ssg83
g1872
sg76
(lp1883
S':'
asbag69
(g90
g71
NtRp1884
(dp1885
g74
(dp1886
sg83
g1872
sg76
(lp1887
g69
(g70
g71
NtRp1888
(dp1889
g74
(dp1890
g82
I3
ssg83
g1884
sg76
(lp1891
S''
asbasbasbag69
(g85
g71
NtRp1892
(dp1893
g74
(dp1894
sg83
g1788
sg76
(lp1895
g69
(g90
g71
NtRp1896
(dp1897
g74
(dp1898
g94
g95
ssg83
g1892
sg76
(lp1899
g411
asbag69
(g90
g71
NtRp1900
(dp1901
g74
(dp1902
g101
g102
ssg83
g1892
sg76
(lp1903
S':'
asbag69
(g90
g71
NtRp1904
(dp1905
g74
(dp1906
sg83
g1892
sg76
(lp1907
g69
(g70
g71
NtRp1908
(dp1909
g74
(dp1910
g82
I3
ssg83
g1904
sg76
(lp1911
S''
asbasbasbag69
(g85
g71
NtRp1912
(dp1913
g74
(dp1914
sg83
g1788
sg76
(lp1915
g69
(g90
g71
NtRp1916
(dp1917
g74
(dp1918
g94
g95
ssg83
g1912
sg76
(lp1919
g432
asbag69
(g90
g71
NtRp1920
(dp1921
g74
(dp1922
g101
g102
ssg83
g1912
sg76
(lp1923
S':'
asbag69
(g90
g71
NtRp1924
(dp1925
g74
(dp1926
sg83
g1912
sg76
(lp1927
g69
(g70
g71
NtRp1928
(dp1929
g74
(dp1930
g82
I3
ssg83
g1924
sg76
(lp1931
S''
asbasbasbag69
(g85
g71
NtRp1932
(dp1933
g74
(dp1934
sg83
g1788
sg76
(lp1935
g69
(g90
g71
NtRp1936
(dp1937
g74
(dp1938
g94
g95
ssg83
g1932
sg76
(lp1939
g453
asbag69
(g90
g71
NtRp1940
(dp1941
g74
(dp1942
g101
g102
ssg83
g1932
sg76
(lp1943
S':'
asbag69
(g90
g71
NtRp1944
(dp1945
g74
(dp1946
sg83
g1932
sg76
(lp1947
g69
(g70
g71
NtRp1948
(dp1949
g74
(dp1950
g82
I3
ssg83
g1944
sg76
(lp1951
S''
asbasbasbasbasbasbasbag69
(g85
g71
NtRp1952
(dp1953
g74
(dp1954
sg83
g268
sg76
(lp1955
g69
(g90
g71
NtRp1956
(dp1957
g74
(dp1958
g94
g95
ssg83
g1952
sg76
(lp1959
S'types'
p1960
asbag69
(g90
g71
NtRp1961
(dp1962
g74
(dp1963
g101
g102
ssg83
g1952
sg76
(lp1964
S':'
asbag69
(g90
g71
NtRp1965
(dp1966
g74
(dp1967
sg83
g1952
sg76
(lp1968
g69
(g70
g71
NtRp1969
(dp1970
g74
(dp1971
g82
I4
ssg83
g1965
sg76
(lp1972
S'Rev%201.0.1%20MX60-32S%20%20Kernel%201.0.11%20%28F%29'
p1973
ag69
(g78
g71
NtRp1974
(dp1975
g74
(dp1976
g82
I3
ssg83
Nsg76
(lp1977
g69
(g85
g71
NtRp1978
(dp1979
g74
(dp1980
sg83
g1974
sg76
(lp1981
g69
(g90
g71
NtRp1982
(dp1983
g74
(dp1984
g94
g95
ssg83
g1978
sg76
(lp1985
g306
asbag69
(g90
g71
NtRp1986
(dp1987
g74
(dp1988
g101
g102
ssg83
g1978
sg76
(lp1989
S':'
asbag69
(g90
g71
NtRp1990
(dp1991
g74
(dp1992
sg83
g1978
sg76
(lp1993
g69
(g70
g71
NtRp1994
(dp1995
g74
(dp1996
g82
I3
ssg83
g1990
sg76
(lp1997
S''
asbasbasbag69
(g85
g71
NtRp1998
(dp1999
g74
(dp2000
sg83
g1974
sg76
(lp2001
g69
(g90
g71
NtRp2002
(dp2003
g74
(dp2004
g94
g95
ssg83
g1998
sg76
(lp2005
g327
asbag69
(g90
g71
NtRp2006
(dp2007
g74
(dp2008
g101
g102
ssg83
g1998
sg76
(lp2009
S':'
asbag69
(g90
g71
NtRp2010
(dp2011
g74
(dp2012
sg83
g1998
sg76
(lp2013
g69
(g70
g71
NtRp2014
(dp2015
g74
(dp2016
g82
I3
ssg83
g2010
sg76
(lp2017
S''
asbasbasbag69
(g85
g71
NtRp2018
(dp2019
g74
(dp2020
sg83
g1974
sg76
(lp2021
g69
(g90
g71
NtRp2022
(dp2023
g74
(dp2024
g94
g95
ssg83
g2018
sg76
(lp2025
g348
asbag69
(g90
g71
NtRp2026
(dp2027
g74
(dp2028
g101
g102
ssg83
g2018
sg76
(lp2029
S':'
asbag69
(g90
g71
NtRp2030
(dp2031
g74
(dp2032
sg83
g2018
sg76
(lp2033
g69
(g70
g71
NtRp2034
(dp2035
g74
(dp2036
g82
I3
ssg83
g2030
sg76
(lp2037
S''
asbasbasbag69
(g85
g71
NtRp2038
(dp2039
g74
(dp2040
sg83
g1974
sg76
(lp2041
g69
(g90
g71
NtRp2042
(dp2043
g74
(dp2044
g94
g95
ssg83
g2038
sg76
(lp2045
g369
asbag69
(g90
g71
NtRp2046
(dp2047
g74
(dp2048
g101
g102
ssg83
g2038
sg76
(lp2049
S':'
asbag69
(g90
g71
NtRp2050
(dp2051
g74
(dp2052
sg83
g2038
sg76
(lp2053
g69
(g70
g71
NtRp2054
(dp2055
g74
(dp2056
g82
I3
ssg83
g2050
sg76
(lp2057
S''
asbasbasbag69
(g85
g71
NtRp2058
(dp2059
g74
(dp2060
sg83
g1974
sg76
(lp2061
g69
(g90
g71
NtRp2062
(dp2063
g74
(dp2064
g94
g95
ssg83
g2058
sg76
(lp2065
g390
asbag69
(g90
g71
NtRp2066
(dp2067
g74
(dp2068
g101
g102
ssg83
g2058
sg76
(lp2069
S':'
asbag69
(g90
g71
NtRp2070
(dp2071
g74
(dp2072
sg83
g2058
sg76
(lp2073
g69
(g70
g71
NtRp2074
(dp2075
g74
(dp2076
g82
I3
ssg83
g2070
sg76
(lp2077
S''
asbasbasbag69
(g85
g71
NtRp2078
(dp2079
g74
(dp2080
sg83
g1974
sg76
(lp2081
g69
(g90
g71
NtRp2082
(dp2083
g74
(dp2084
g94
g95
ssg83
g2078
sg76
(lp2085
g411
asbag69
(g90
g71
NtRp2086
(dp2087
g74
(dp2088
g101
g102
ssg83
g2078
sg76
(lp2089
S':'
asbag69
(g90
g71
NtRp2090
(dp2091
g74
(dp2092
sg83
g2078
sg76
(lp2093
g69
(g70
g71
NtRp2094
(dp2095
g74
(dp2096
g82
I3
ssg83
g2090
sg76
(lp2097
S''
asbasbasbag69
(g85
g71
NtRp2098
(dp2099
g74
(dp2100
sg83
g1974
sg76
(lp2101
g69
(g90
g71
NtRp2102
(dp2103
g74
(dp2104
g94
g95
ssg83
g2098
sg76
(lp2105
g432
asbag69
(g90
g71
NtRp2106
(dp2107
g74
(dp2108
g101
g102
ssg83
g2098
sg76
(lp2109
S':'
asbag69
(g90
g71
NtRp2110
(dp2111
g74
(dp2112
sg83
g2098
sg76
(lp2113
g69
(g70
g71
NtRp2114
(dp2115
g74
(dp2116
g82
I3
ssg83
g2110
sg76
(lp2117
S''
asbasbasbag69
(g85
g71
NtRp2118
(dp2119
g74
(dp2120
sg83
g1974
sg76
(lp2121
g69
(g90
g71
NtRp2122
(dp2123
g74
(dp2124
g94
g95
ssg83
g2118
sg76
(lp2125
g453
asbag69
(g90
g71
NtRp2126
(dp2127
g74
(dp2128
g101
g102
ssg83
g2118
sg76
(lp2129
S':'
asbag69
(g90
g71
NtRp2130
(dp2131
g74
(dp2132
sg83
g2118
sg76
(lp2133
g69
(g70
g71
NtRp2134
(dp2135
g74
(dp2136
g82
I3
ssg83
g2130
sg76
(lp2137
S''
asbasbasbasbasbasbasbasbasbasbasbag69
(g85
g71
NtRp2138
(dp2139
g74
(dp2140
sg83
g79
sg76
(lp2141
g69
(g90
g71
NtRp2142
(dp2143
g74
(dp2144
g94
g95
ssg83
g2138
sg76
(lp2145
S'env'
p2146
asbag69
(g90
g71
NtRp2147
(dp2148
g74
(dp2149
g101
g102
ssg83
g2138
sg76
(lp2150
S':'
asbag69
(g90
g71
NtRp2151
(dp2152
g74
(dp2153
sg83
g2138
sg76
(lp2154
g69
(g70
g71
NtRp2155
(dp2156
g74
(dp2157
g82
I5
ssg83
g2151
sg76
(lp2158
g69
(g78
g71
NtRp2159
(dp2160
g74
(dp2161
g82
I4
ssg83
Nsg76
(lp2162
g69
(g85
g71
NtRp2163
(dp2164
g74
(dp2165
sg83
g2159
sg76
(lp2166
g69
(g90
g71
NtRp2167
(dp2168
g74
(dp2169
g94
g95
ssg83
g2163
sg76
(lp2170
S'app_folders'
p2171
asbag69
(g90
g71
NtRp2172
(dp2173
g74
(dp2174
g101
g102
ssg83
g2163
sg76
(lp2175
S':'
asbag69
(g90
g71
NtRp2176
(dp2177
g74
(dp2178
sg83
g2163
sg76
(lp2179
g69
(g70
g71
NtRp2180
(dp2181
g74
(dp2182
g82
I4
ssg83
g2176
sg76
(lp2183
S"set(['/var/www/web2py_curso/applications/admin/', '/var/www/web2py_curso/applications/projeto/'])"
p2184
asbasbasbag69
(g85
g71
NtRp2185
(dp2186
g74
(dp2187
sg83
g2159
sg76
(lp2188
g69
(g90
g71
NtRp2189
(dp2190
g74
(dp2191
g94
g95
ssg83
g2185
sg76
(lp2192
S'applications_parent'
p2193
asbag69
(g90
g71
NtRp2194
(dp2195
g74
(dp2196
g101
g102
ssg83
g2185
sg76
(lp2197
S':'
asbag69
(g90
g71
NtRp2198
(dp2199
g74
(dp2200
sg83
g2185
sg76
(lp2201
g69
(g70
g71
NtRp2202
(dp2203
g74
(dp2204
g82
I4
ssg83
g2198
sg76
(lp2205
S'/var/www/web2py_curso'
p2206
asbasbasbag69
(g85
g71
NtRp2207
(dp2208
g74
(dp2209
sg83
g2159
sg76
(lp2210
g69
(g90
g71
NtRp2211
(dp2212
g74
(dp2213
g94
g95
ssg83
g2207
sg76
(lp2214
S'cmd_args'
p2215
asbag69
(g90
g71
NtRp2216
(dp2217
g74
(dp2218
g101
g102
ssg83
g2207
sg76
(lp2219
S':'
asbag69
(g90
g71
NtRp2220
(dp2221
g74
(dp2222
sg83
g2207
sg76
(lp2223
g69
(g70
g71
NtRp2224
(dp2225
g74
(dp2226
g82
I4
ssg83
g2220
sg76
(lp2227
g69
(g78
g71
NtRp2228
(dp2229
g74
(dp2230
g82
I3
ssg83
Nsg76
(lp2231
sbasbasbasbag69
(g85
g71
NtRp2232
(dp2233
g74
(dp2234
sg83
g2159
sg76
(lp2235
g69
(g90
g71
NtRp2236
(dp2237
g74
(dp2238
g94
g95
ssg83
g2232
sg76
(lp2239
S'cmd_options'
p2240
asbag69
(g90
g71
NtRp2241
(dp2242
g74
(dp2243
g101
g102
ssg83
g2232
sg76
(lp2244
S':'
asbag69
(g90
g71
NtRp2245
(dp2246
g74
(dp2247
sg83
g2232
sg76
(lp2248
g69
(g70
g71
NtRp2249
(dp2250
g74
(dp2251
g82
I4
ssg83
g2245
sg76
(lp2252
S"<Values at 0x335a1b8: {'verbose': False, 'ip': '127.0.0.1', 'with_scheduler': False, 'ips': [], 'shutdown_timeout': 5, 'taskbar': False, 'port': 8000, 'maxthreads': None, 'softcron': False, 'server_name': 'fernado-desktop', 'bpython': False, 'nogui': False, 'pid_filename': 'httpserver.pid', 'extcron': False, 'runcron': False, 'run_system_tests': False, 'test': None, 'folder': '/var/www/web2py_curso', 'config': '', 'minthreads': None, 'winservice': '', 'shell': None, 'run': '', 'log_filename': 'httpserver.log', 'debuglevel': 30, 'args': [''], 'socket_timeout': 5, 'ssl_ca_certificate': None, 'scheduler': None, 'profiler_filename': None, 'ssl_private_key': '', 'scheduler_groups': None, 'password': '123456', 'request_queue_size': 5, 'ssl_certificate': '', 'cronjob': False, 'numthreads': None, 'quiet': False, 'interfaces': None, 'import_models': False, 'timeout': 10, 'plain': False, 'nobanner': False}>"
p2253
asbasbasbag69
(g85
g71
NtRp2254
(dp2255
g74
(dp2256
sg83
g2159
sg76
(lp2257
g69
(g90
g71
NtRp2258
(dp2259
g74
(dp2260
g94
g95
ssg83
g2254
sg76
(lp2261
S'db_sessions'
p2262
asbag69
(g90
g71
NtRp2263
(dp2264
g74
(dp2265
g101
g102
ssg83
g2254
sg76
(lp2266
S':'
asbag69
(g90
g71
NtRp2267
(dp2268
g74
(dp2269
sg83
g2254
sg76
(lp2270
g69
(g70
g71
NtRp2271
(dp2272
g74
(dp2273
g82
I4
ssg83
g2267
sg76
(lp2274
S'set([])'
p2275
asbasbasbag69
(g85
g71
NtRp2276
(dp2277
g74
(dp2278
sg83
g2159
sg76
(lp2279
g69
(g90
g71
NtRp2280
(dp2281
g74
(dp2282
g94
g95
ssg83
g2276
sg76
(lp2283
S'debugging'
p2284
asbag69
(g90
g71
NtRp2285
(dp2286
g74
(dp2287
g101
g102
ssg83
g2276
sg76
(lp2288
S':'
asbag69
(g90
g71
NtRp2289
(dp2290
g74
(dp2291
sg83
g2276
sg76
(lp2292
g69
(g70
g71
NtRp2293
(dp2294
g74
(dp2295
g82
I4
ssg83
g2289
sg76
(lp2296
g112
asbasbasbag69
(g85
g71
NtRp2297
(dp2298
g74
(dp2299
sg83
g2159
sg76
(lp2300
g69
(g90
g71
NtRp2301
(dp2302
g74
(dp2303
g94
g95
ssg83
g2297
sg76
(lp2304
S'gluon_parent'
p2305
asbag69
(g90
g71
NtRp2306
(dp2307
g74
(dp2308
g101
g102
ssg83
g2297
sg76
(lp2309
S':'
asbag69
(g90
g71
NtRp2310
(dp2311
g74
(dp2312
sg83
g2297
sg76
(lp2313
g69
(g70
g71
NtRp2314
(dp2315
g74
(dp2316
g82
I4
ssg83
g2310
sg76
(lp2317
S'/var/www/web2py_curso'
p2318
asbasbasbag69
(g85
g71
NtRp2319
(dp2320
g74
(dp2321
sg83
g2159
sg76
(lp2322
g69
(g90
g71
NtRp2323
(dp2324
g74
(dp2325
g94
g95
ssg83
g2319
sg76
(lp2326
S'http_accept'
p2327
asbag69
(g90
g71
NtRp2328
(dp2329
g74
(dp2330
g101
g102
ssg83
g2319
sg76
(lp2331
S':'
asbag69
(g90
g71
NtRp2332
(dp2333
g74
(dp2334
sg83
g2319
sg76
(lp2335
g69
(g70
g71
NtRp2336
(dp2337
g74
(dp2338
g82
I4
ssg83
g2332
sg76
(lp2339
S'text/html,application/xhtml+xml,application/xml;q=0.9,*/*;q=0.8'
p2340
asbasbasbag69
(g85
g71
NtRp2341
(dp2342
g74
(dp2343
sg83
g2159
sg76
(lp2344
g69
(g90
g71
NtRp2345
(dp2346
g74
(dp2347
g94
g95
ssg83
g2341
sg76
(lp2348
S'http_accept_charset'
p2349
asbag69
(g90
g71
NtRp2350
(dp2351
g74
(dp2352
g101
g102
ssg83
g2341
sg76
(lp2353
S':'
asbag69
(g90
g71
NtRp2354
(dp2355
g74
(dp2356
sg83
g2341
sg76
(lp2357
g69
(g70
g71
NtRp2358
(dp2359
g74
(dp2360
g82
I4
ssg83
g2354
sg76
(lp2361
S'ISO-8859-1,utf-8;q=0.7,*;q=0.3'
p2362
asbasbasbag69
(g85
g71
NtRp2363
(dp2364
g74
(dp2365
sg83
g2159
sg76
(lp2366
g69
(g90
g71
NtRp2367
(dp2368
g74
(dp2369
g94
g95
ssg83
g2363
sg76
(lp2370
S'http_accept_encoding'
p2371
asbag69
(g90
g71
NtRp2372
(dp2373
g74
(dp2374
g101
g102
ssg83
g2363
sg76
(lp2375
S':'
asbag69
(g90
g71
NtRp2376
(dp2377
g74
(dp2378
sg83
g2363
sg76
(lp2379
g69
(g70
g71
NtRp2380
(dp2381
g74
(dp2382
g82
I4
ssg83
g2376
sg76
(lp2383
S'gzip,deflate,sdch'
p2384
asbasbasbag69
(g85
g71
NtRp2385
(dp2386
g74
(dp2387
sg83
g2159
sg76
(lp2388
g69
(g90
g71
NtRp2389
(dp2390
g74
(dp2391
g94
g95
ssg83
g2385
sg76
(lp2392
S'http_accept_language'
p2393
asbag69
(g90
g71
NtRp2394
(dp2395
g74
(dp2396
g101
g102
ssg83
g2385
sg76
(lp2397
S':'
asbag69
(g90
g71
NtRp2398
(dp2399
g74
(dp2400
sg83
g2385
sg76
(lp2401
g69
(g70
g71
NtRp2402
(dp2403
g74
(dp2404
g82
I4
ssg83
g2398
sg76
(lp2405
S'pt-BR,pt;q=0.8,en-US;q=0.6,en;q=0.4'
p2406
asbasbasbag69
(g85
g71
NtRp2407
(dp2408
g74
(dp2409
sg83
g2159
sg76
(lp2410
g69
(g90
g71
NtRp2411
(dp2412
g74
(dp2413
g94
g95
ssg83
g2407
sg76
(lp2414
S'http_cache_control'
p2415
asbag69
(g90
g71
NtRp2416
(dp2417
g74
(dp2418
g101
g102
ssg83
g2407
sg76
(lp2419
S':'
asbag69
(g90
g71
NtRp2420
(dp2421
g74
(dp2422
sg83
g2407
sg76
(lp2423
g69
(g70
g71
NtRp2424
(dp2425
g74
(dp2426
g82
I4
ssg83
g2420
sg76
(lp2427
S'max-age=0'
p2428
asbasbasbag69
(g85
g71
NtRp2429
(dp2430
g74
(dp2431
sg83
g2159
sg76
(lp2432
g69
(g90
g71
NtRp2433
(dp2434
g74
(dp2435
g94
g95
ssg83
g2429
sg76
(lp2436
S'http_connection'
p2437
asbag69
(g90
g71
NtRp2438
(dp2439
g74
(dp2440
g101
g102
ssg83
g2429
sg76
(lp2441
S':'
asbag69
(g90
g71
NtRp2442
(dp2443
g74
(dp2444
sg83
g2429
sg76
(lp2445
g69
(g70
g71
NtRp2446
(dp2447
g74
(dp2448
g82
I4
ssg83
g2442
sg76
(lp2449
S'keep-alive'
p2450
asbasbasbag69
(g85
g71
NtRp2451
(dp2452
g74
(dp2453
sg83
g2159
sg76
(lp2454
g69
(g90
g71
NtRp2455
(dp2456
g74
(dp2457
g94
g95
ssg83
g2451
sg76
(lp2458
S'http_cookie'
p2459
asbag69
(g90
g71
NtRp2460
(dp2461
g74
(dp2462
g101
g102
ssg83
g2451
sg76
(lp2463
S':'
asbag69
(g90
g71
NtRp2464
(dp2465
g74
(dp2466
sg83
g2451
sg76
(lp2467
g69
(g70
g71
NtRp2468
(dp2469
g74
(dp2470
g82
I4
ssg83
g2464
sg76
(lp2471
S'hw_type=MX60; hw_version=Rev%201.9.82.316; types=Rev%201.0.1%20MX60-32S%20%20Kernel%201.0.11%20%28F%29; admin=admin; cookie=1649423593; model=MX; nr=1; language=1; session_id_admin=127.0.0.1-2137e5fc-73b0-4fcd-be7b-d2f46e1918b1; session_id_projeto=127.0.0.1-b8c6a9b4-3ce7-4a48-b40d-12b6c8d18d0a'
p2472
asbasbasbag69
(g85
g71
NtRp2473
(dp2474
g74
(dp2475
sg83
g2159
sg76
(lp2476
g69
(g90
g71
NtRp2477
(dp2478
g74
(dp2479
g94
g95
ssg83
g2473
sg76
(lp2480
S'http_host'
p2481
asbag69
(g90
g71
NtRp2482
(dp2483
g74
(dp2484
g101
g102
ssg83
g2473
sg76
(lp2485
S':'
asbag69
(g90
g71
NtRp2486
(dp2487
g74
(dp2488
sg83
g2473
sg76
(lp2489
g69
(g70
g71
NtRp2490
(dp2491
g74
(dp2492
g82
I4
ssg83
g2486
sg76
(lp2493
S'127.0.0.1:8000'
p2494
asbasbasbag69
(g85
g71
NtRp2495
(dp2496
g74
(dp2497
sg83
g2159
sg76
(lp2498
g69
(g90
g71
NtRp2499
(dp2500
g74
(dp2501
g94
g95
ssg83
g2495
sg76
(lp2502
S'http_user_agent'
p2503
asbag69
(g90
g71
NtRp2504
(dp2505
g74
(dp2506
g101
g102
ssg83
g2495
sg76
(lp2507
S':'
asbag69
(g90
g71
NtRp2508
(dp2509
g74
(dp2510
sg83
g2495
sg76
(lp2511
g69
(g70
g71
NtRp2512
(dp2513
g74
(dp2514
g82
I4
ssg83
g2508
sg76
(lp2515
S'Mozilla/5.0 (X11; Linux x86_64) AppleWebKit/537.4 (KHTML, like Gecko) Ubuntu/12.10 Chromium/22.0.1229.94 Chrome/22.0.1229.94 Safari/537.4'
p2516
asbasbasbag69
(g85
g71
NtRp2517
(dp2518
g74
(dp2519
sg83
g2159
sg76
(lp2520
g69
(g90
g71
NtRp2521
(dp2522
g74
(dp2523
g94
g95
ssg83
g2517
sg76
(lp2524
S'is_jython'
p2525
asbag69
(g90
g71
NtRp2526
(dp2527
g74
(dp2528
g101
g102
ssg83
g2517
sg76
(lp2529
S':'
asbag69
(g90
g71
NtRp2530
(dp2531
g74
(dp2532
sg83
g2517
sg76
(lp2533
g69
(g70
g71
NtRp2534
(dp2535
g74
(dp2536
g82
I4
ssg83
g2530
sg76
(lp2537
g112
asbasbasbag69
(g85
g71
NtRp2538
(dp2539
g74
(dp2540
sg83
g2159
sg76
(lp2541
g69
(g90
g71
NtRp2542
(dp2543
g74
(dp2544
g94
g95
ssg83
g2538
sg76
(lp2545
S'is_pypy'
p2546
asbag69
(g90
g71
NtRp2547
(dp2548
g74
(dp2549
g101
g102
ssg83
g2538
sg76
(lp2550
S':'
asbag69
(g90
g71
NtRp2551
(dp2552
g74
(dp2553
sg83
g2538
sg76
(lp2554
g69
(g70
g71
NtRp2555
(dp2556
g74
(dp2557
g82
I4
ssg83
g2551
sg76
(lp2558
g112
asbasbasbag69
(g85
g71
NtRp2559
(dp2560
g74
(dp2561
sg83
g2159
sg76
(lp2562
g69
(g90
g71
NtRp2563
(dp2564
g74
(dp2565
g94
g95
ssg83
g2559
sg76
(lp2566
S'local_hosts'
p2567
asbag69
(g90
g71
NtRp2568
(dp2569
g74
(dp2570
g101
g102
ssg83
g2559
sg76
(lp2571
S':'
asbag69
(g90
g71
NtRp2572
(dp2573
g74
(dp2574
sg83
g2559
sg76
(lp2575
g69
(g70
g71
NtRp2576
(dp2577
g74
(dp2578
g82
I4
ssg83
g2572
sg76
(lp2579
g69
(g78
g71
NtRp2580
(dp2581
g74
(dp2582
g82
I3
ssg83
Nsg76
(lp2583
g69
(g85
g71
NtRp2584
(dp2585
g74
(dp2586
sg83
g2580
sg76
(lp2587
g69
(g90
g71
NtRp2588
(dp2589
g74
(dp2590
sg83
g2584
sg76
(lp2591
g69
(g70
g71
NtRp2592
(dp2593
g74
(dp2594
g82
I3
ssg83
g2588
sg76
(lp2595
S'127.0.1.1'
p2596
asbasbasbag69
(g85
g71
NtRp2597
(dp2598
g74
(dp2599
sg83
g2580
sg76
(lp2600
g69
(g90
g71
NtRp2601
(dp2602
g74
(dp2603
sg83
g2597
sg76
(lp2604
g69
(g70
g71
NtRp2605
(dp2606
g74
(dp2607
g82
I3
ssg83
g2601
sg76
(lp2608
S'::1'
p2609
asbasbasbag69
(g85
g71
NtRp2610
(dp2611
g74
(dp2612
sg83
g2580
sg76
(lp2613
g69
(g90
g71
NtRp2614
(dp2615
g74
(dp2616
sg83
g2610
sg76
(lp2617
g69
(g70
g71
NtRp2618
(dp2619
g74
(dp2620
g82
I3
ssg83
g2614
sg76
(lp2621
S'fernado-desktop'
p2622
asbasbasbag69
(g85
g71
NtRp2623
(dp2624
g74
(dp2625
sg83
g2580
sg76
(lp2626
g69
(g90
g71
NtRp2627
(dp2628
g74
(dp2629
sg83
g2623
sg76
(lp2630
g69
(g70
g71
NtRp2631
(dp2632
g74
(dp2633
g82
I3
ssg83
g2627
sg76
(lp2634
S'::ffff:127.0.0.1'
p2635
asbasbasbag69
(g85
g71
NtRp2636
(dp2637
g74
(dp2638
sg83
g2580
sg76
(lp2639
g69
(g90
g71
NtRp2640
(dp2641
g74
(dp2642
sg83
g2636
sg76
(lp2643
g69
(g70
g71
NtRp2644
(dp2645
g74
(dp2646
g82
I3
ssg83
g2640
sg76
(lp2647
S'127.0.0.1'
p2648
asbasbasbasbasbasbasbag69
(g85
g71
NtRp2649
(dp2650
g74
(dp2651
sg83
g2159
sg76
(lp2652
g69
(g90
g71
NtRp2653
(dp2654
g74
(dp2655
g94
g95
ssg83
g2649
sg76
(lp2656
S'path_info'
p2657
asbag69
(g90
g71
NtRp2658
(dp2659
g74
(dp2660
g101
g102
ssg83
g2649
sg76
(lp2661
S':'
asbag69
(g90
g71
NtRp2662
(dp2663
g74
(dp2664
sg83
g2649
sg76
(lp2665
g69
(g70
g71
NtRp2666
(dp2667
g74
(dp2668
g82
I4
ssg83
g2662
sg76
(lp2669
S'/'
asbasbasbag69
(g85
g71
NtRp2670
(dp2671
g74
(dp2672
sg83
g2159
sg76
(lp2673
g69
(g90
g71
NtRp2674
(dp2675
g74
(dp2676
g94
g95
ssg83
g2670
sg76
(lp2677
S'query_string'
p2678
asbag69
(g90
g71
NtRp2679
(dp2680
g74
(dp2681
g101
g102
ssg83
g2670
sg76
(lp2682
S':'
asbag69
(g90
g71
NtRp2683
(dp2684
g74
(dp2685
sg83
g2670
sg76
(lp2686
g69
(g70
g71
NtRp2687
(dp2688
g74
(dp2689
g82
I4
ssg83
g2683
sg76
(lp2690
S''
asbasbasbag69
(g85
g71
NtRp2691
(dp2692
g74
(dp2693
sg83
g2159
sg76
(lp2694
g69
(g90
g71
NtRp2695
(dp2696
g74
(dp2697
g94
g95
ssg83
g2691
sg76
(lp2698
S'remote_addr'
p2699
asbag69
(g90
g71
NtRp2700
(dp2701
g74
(dp2702
g101
g102
ssg83
g2691
sg76
(lp2703
S':'
asbag69
(g90
g71
NtRp2704
(dp2705
g74
(dp2706
sg83
g2691
sg76
(lp2707
g69
(g70
g71
NtRp2708
(dp2709
g74
(dp2710
g82
I4
ssg83
g2704
sg76
(lp2711
g224
asbasbasbag69
(g85
g71
NtRp2712
(dp2713
g74
(dp2714
sg83
g2159
sg76
(lp2715
g69
(g90
g71
NtRp2716
(dp2717
g74
(dp2718
g94
g95
ssg83
g2712
sg76
(lp2719
S'remote_port'
p2720
asbag69
(g90
g71
NtRp2721
(dp2722
g74
(dp2723
g101
g102
ssg83
g2712
sg76
(lp2724
S':'
asbag69
(g90
g71
NtRp2725
(dp2726
g74
(dp2727
sg83
g2712
sg76
(lp2728
g69
(g70
g71
NtRp2729
(dp2730
g74
(dp2731
g82
I4
ssg83
g2725
sg76
(lp2732
S'37609'
p2733
asbasbasbag69
(g85
g71
NtRp2734
(dp2735
g74
(dp2736
sg83
g2159
sg76
(lp2737
g69
(g90
g71
NtRp2738
(dp2739
g74
(dp2740
g94
g95
ssg83
g2734
sg76
(lp2741
S'request_method'
p2742
asbag69
(g90
g71
NtRp2743
(dp2744
g74
(dp2745
g101
g102
ssg83
g2734
sg76
(lp2746
S':'
asbag69
(g90
g71
NtRp2747
(dp2748
g74
(dp2749
sg83
g2734
sg76
(lp2750
g69
(g70
g71
NtRp2751
(dp2752
g74
(dp2753
g82
I4
ssg83
g2747
sg76
(lp2754
S'GET'
p2755
asbasbasbag69
(g85
g71
NtRp2756
(dp2757
g74
(dp2758
sg83
g2159
sg76
(lp2759
g69
(g90
g71
NtRp2760
(dp2761
g74
(dp2762
g94
g95
ssg83
g2756
sg76
(lp2763
S'request_uri'
p2764
asbag69
(g90
g71
NtRp2765
(dp2766
g74
(dp2767
g101
g102
ssg83
g2756
sg76
(lp2768
S':'
asbag69
(g90
g71
NtRp2769
(dp2770
g74
(dp2771
sg83
g2756
sg76
(lp2772
g69
(g70
g71
NtRp2773
(dp2774
g74
(dp2775
g82
I4
ssg83
g2769
sg76
(lp2776
S'/projeto/initial/home'
p2777
asbasbasbag69
(g85
g71
NtRp2778
(dp2779
g74
(dp2780
sg83
g2159
sg76
(lp2781
g69
(g90
g71
NtRp2782
(dp2783
g74
(dp2784
g94
g95
ssg83
g2778
sg76
(lp2785
S'script_name'
p2786
asbag69
(g90
g71
NtRp2787
(dp2788
g74
(dp2789
g101
g102
ssg83
g2778
sg76
(lp2790
S':'
asbag69
(g90
g71
NtRp2791
(dp2792
g74
(dp2793
sg83
g2778
sg76
(lp2794
g69
(g70
g71
NtRp2795
(dp2796
g74
(dp2797
g82
I4
ssg83
g2791
sg76
(lp2798
S''
asbasbasbag69
(g85
g71
NtRp2799
(dp2800
g74
(dp2801
sg83
g2159
sg76
(lp2802
g69
(g90
g71
NtRp2803
(dp2804
g74
(dp2805
g94
g95
ssg83
g2799
sg76
(lp2806
S'server_name'
p2807
asbag69
(g90
g71
NtRp2808
(dp2809
g74
(dp2810
g101
g102
ssg83
g2799
sg76
(lp2811
S':'
asbag69
(g90
g71
NtRp2812
(dp2813
g74
(dp2814
sg83
g2799
sg76
(lp2815
g69
(g70
g71
NtRp2816
(dp2817
g74
(dp2818
g82
I4
ssg83
g2812
sg76
(lp2819
S'fernado-desktop'
p2820
asbasbasbag69
(g85
g71
NtRp2821
(dp2822
g74
(dp2823
sg83
g2159
sg76
(lp2824
g69
(g90
g71
NtRp2825
(dp2826
g74
(dp2827
g94
g95
ssg83
g2821
sg76
(lp2828
S'server_port'
p2829
asbag69
(g90
g71
NtRp2830
(dp2831
g74
(dp2832
g101
g102
ssg83
g2821
sg76
(lp2833
S':'
asbag69
(g90
g71
NtRp2834
(dp2835
g74
(dp2836
sg83
g2821
sg76
(lp2837
g69
(g70
g71
NtRp2838
(dp2839
g74
(dp2840
g82
I4
ssg83
g2834
sg76
(lp2841
S'8000'
p2842
asbasbasbag69
(g85
g71
NtRp2843
(dp2844
g74
(dp2845
sg83
g2159
sg76
(lp2846
g69
(g90
g71
NtRp2847
(dp2848
g74
(dp2849
g94
g95
ssg83
g2843
sg76
(lp2850
S'server_protocol'
p2851
asbag69
(g90
g71
NtRp2852
(dp2853
g74
(dp2854
g101
g102
ssg83
g2843
sg76
(lp2855
S':'
asbag69
(g90
g71
NtRp2856
(dp2857
g74
(dp2858
sg83
g2843
sg76
(lp2859
g69
(g70
g71
NtRp2860
(dp2861
g74
(dp2862
g82
I4
ssg83
g2856
sg76
(lp2863
S'HTTP/1.1'
p2864
asbasbasbag69
(g85
g71
NtRp2865
(dp2866
g74
(dp2867
sg83
g2159
sg76
(lp2868
g69
(g90
g71
NtRp2869
(dp2870
g74
(dp2871
g94
g95
ssg83
g2865
sg76
(lp2872
S'server_software'
p2873
asbag69
(g90
g71
NtRp2874
(dp2875
g74
(dp2876
g101
g102
ssg83
g2865
sg76
(lp2877
S':'
asbag69
(g90
g71
NtRp2878
(dp2879
g74
(dp2880
sg83
g2865
sg76
(lp2881
g69
(g70
g71
NtRp2882
(dp2883
g74
(dp2884
g82
I4
ssg83
g2878
sg76
(lp2885
S'Rocket 1.2.6'
p2886
asbasbasbag69
(g85
g71
NtRp2887
(dp2888
g74
(dp2889
sg83
g2159
sg76
(lp2890
g69
(g90
g71
NtRp2891
(dp2892
g74
(dp2893
g94
g95
ssg83
g2887
sg76
(lp2894
S'web2py_original_uri'
p2895
asbag69
(g90
g71
NtRp2896
(dp2897
g74
(dp2898
g101
g102
ssg83
g2887
sg76
(lp2899
S':'
asbag69
(g90
g71
NtRp2900
(dp2901
g74
(dp2902
sg83
g2887
sg76
(lp2903
g69
(g70
g71
NtRp2904
(dp2905
g74
(dp2906
g82
I4
ssg83
g2900
sg76
(lp2907
S'/'
asbasbasbag69
(g85
g71
NtRp2908
(dp2909
g74
(dp2910
sg83
g2159
sg76
(lp2911
g69
(g90
g71
NtRp2912
(dp2913
g74
(dp2914
g94
g95
ssg83
g2908
sg76
(lp2915
S'web2py_path'
p2916
asbag69
(g90
g71
NtRp2917
(dp2918
g74
(dp2919
g101
g102
ssg83
g2908
sg76
(lp2920
S':'
asbag69
(g90
g71
NtRp2921
(dp2922
g74
(dp2923
sg83
g2908
sg76
(lp2924
g69
(g70
g71
NtRp2925
(dp2926
g74
(dp2927
g82
I4
ssg83
g2921
sg76
(lp2928
g2206
asbasbasbag69
(g85
g71
NtRp2929
(dp2930
g74
(dp2931
sg83
g2159
sg76
(lp2932
g69
(g90
g71
NtRp2933
(dp2934
g74
(dp2935
g94
g95
ssg83
g2929
sg76
(lp2936
S'web2py_version'
p2937
asbag69
(g90
g71
NtRp2938
(dp2939
g74
(dp2940
g101
g102
ssg83
g2929
sg76
(lp2941
S':'
asbag69
(g90
g71
NtRp2942
(dp2943
g74
(dp2944
sg83
g2929
sg76
(lp2945
g69
(g70
g71
NtRp2946
(dp2947
g74
(dp2948
g82
I4
ssg83
g2942
sg76
(lp2949
g69
(g78
g71
NtRp2950
(dp2951
g74
(dp2952
g82
I3
ssg83
Nsg76
(lp2953
g69
(g85
g71
NtRp2954
(dp2955
g74
(dp2956
sg83
g2950
sg76
(lp2957
g69
(g90
g71
NtRp2958
(dp2959
g74
(dp2960
sg83
g2954
sg76
(lp2961
g69
(g70
g71
NtRp2962
(dp2963
g74
(dp2964
g82
I3
ssg83
g2958
sg76
(lp2965
S'2'
asbasbasbag69
(g85
g71
NtRp2966
(dp2967
g74
(dp2968
sg83
g2950
sg76
(lp2969
g69
(g90
g71
NtRp2970
(dp2971
g74
(dp2972
sg83
g2966
sg76
(lp2973
g69
(g70
g71
NtRp2974
(dp2975
g74
(dp2976
g82
I3
ssg83
g2970
sg76
(lp2977
S'3'
asbasbasbag69
(g85
g71
NtRp2978
(dp2979
g74
(dp2980
sg83
g2950
sg76
(lp2981
g69
(g90
g71
NtRp2982
(dp2983
g74
(dp2984
sg83
g2978
sg76
(lp2985
g69
(g70
g71
NtRp2986
(dp2987
g74
(dp2988
g82
I3
ssg83
g2982
sg76
(lp2989
S'2'
asbasbasbag69
(g85
g71
NtRp2990
(dp2991
g74
(dp2992
sg83
g2950
sg76
(lp2993
g69
(g90
g71
NtRp2994
(dp2995
g74
(dp2996
sg83
g2990
sg76
(lp2997
g69
(g70
g71
NtRp2998
(dp2999
g74
(dp3000
g82
I3
ssg83
g2994
sg76
(lp3001
S'datetime.datetime(2012, 12, 17, 15, 3, 30)'
p3002
asbasbasbag69
(g85
g71
NtRp3003
(dp3004
g74
(dp3005
sg83
g2950
sg76
(lp3006
g69
(g90
g71
NtRp3007
(dp3008
g74
(dp3009
sg83
g3003
sg76
(lp3010
g69
(g70
g71
NtRp3011
(dp3012
g74
(dp3013
g82
I3
ssg83
g3007
sg76
(lp3014
S'stable'
p3015
asbasbasbasbasbasbasbag69
(g85
g71
NtRp3016
(dp3017
g74
(dp3018
sg83
g2159
sg76
(lp3019
g69
(g90
g71
NtRp3020
(dp3021
g74
(dp3022
g94
g95
ssg83
g3016
sg76
(lp3023
S'wsgi_errors'
p3024
asbag69
(g90
g71
NtRp3025
(dp3026
g74
(dp3027
g101
g102
ssg83
g3016
sg76
(lp3028
S':'
asbag69
(g90
g71
NtRp3029
(dp3030
g74
(dp3031
sg83
g3016
sg76
(lp3032
g69
(g70
g71
NtRp3033
(dp3034
g74
(dp3035
g82
I4
ssg83
g3029
sg76
(lp3036
S"<open file '<stderr>', mode 'w' at 0x7fb4dd175270>"
p3037
asbasbasbag69
(g85
g71
NtRp3038
(dp3039
g74
(dp3040
sg83
g2159
sg76
(lp3041
g69
(g90
g71
NtRp3042
(dp3043
g74
(dp3044
g94
g95
ssg83
g3038
sg76
(lp3045
S'wsgi_file_wrapper'
p3046
asbag69
(g90
g71
NtRp3047
(dp3048
g74
(dp3049
g101
g102
ssg83
g3038
sg76
(lp3050
S':'
asbag69
(g90
g71
NtRp3051
(dp3052
g74
(dp3053
sg83
g3038
sg76
(lp3054
g69
(g70
g71
NtRp3055
(dp3056
g74
(dp3057
g82
I4
ssg83
g3051
sg76
(lp3058
S'<class wsgiref.util.FileWrapper at 0x37136d0>'
p3059
asbasbasbag69
(g85
g71
NtRp3060
(dp3061
g74
(dp3062
sg83
g2159
sg76
(lp3063
g69
(g90
g71
NtRp3064
(dp3065
g74
(dp3066
g94
g95
ssg83
g3060
sg76
(lp3067
S'wsgi_input'
p3068
asbag69
(g90
g71
NtRp3069
(dp3070
g74
(dp3071
g101
g102
ssg83
g3060
sg76
(lp3072
S':'
asbag69
(g90
g71
NtRp3073
(dp3074
g74
(dp3075
sg83
g3060
sg76
(lp3076
g69
(g70
g71
NtRp3077
(dp3078
g74
(dp3079
g82
I4
ssg83
g3073
sg76
(lp3080
S'<socket._fileobject object at 0x7fb4cc33fed0>'
p3081
asbasbasbag69
(g85
g71
NtRp3082
(dp3083
g74
(dp3084
sg83
g2159
sg76
(lp3085
g69
(g90
g71
NtRp3086
(dp3087
g74
(dp3088
g94
g95
ssg83
g3082
sg76
(lp3089
S'wsgi_multiprocess'
p3090
asbag69
(g90
g71
NtRp3091
(dp3092
g74
(dp3093
g101
g102
ssg83
g3082
sg76
(lp3094
S':'
asbag69
(g90
g71
NtRp3095
(dp3096
g74
(dp3097
sg83
g3082
sg76
(lp3098
g69
(g70
g71
NtRp3099
(dp3100
g74
(dp3101
g82
I4
ssg83
g3095
sg76
(lp3102
g112
asbasbasbag69
(g85
g71
NtRp3103
(dp3104
g74
(dp3105
sg83
g2159
sg76
(lp3106
g69
(g90
g71
NtRp3107
(dp3108
g74
(dp3109
g94
g95
ssg83
g3103
sg76
(lp3110
S'wsgi_multithread'
p3111
asbag69
(g90
g71
NtRp3112
(dp3113
g74
(dp3114
g101
g102
ssg83
g3103
sg76
(lp3115
S':'
asbag69
(g90
g71
NtRp3116
(dp3117
g74
(dp3118
sg83
g3103
sg76
(lp3119
g69
(g70
g71
NtRp3120
(dp3121
g74
(dp3122
g82
I4
ssg83
g3116
sg76
(lp3123
S'True'
p3124
asbasbasbag69
(g85
g71
NtRp3125
(dp3126
g74
(dp3127
sg83
g2159
sg76
(lp3128
g69
(g90
g71
NtRp3129
(dp3130
g74
(dp3131
g94
g95
ssg83
g3125
sg76
(lp3132
S'wsgi_run_once'
p3133
asbag69
(g90
g71
NtRp3134
(dp3135
g74
(dp3136
g101
g102
ssg83
g3125
sg76
(lp3137
S':'
asbag69
(g90
g71
NtRp3138
(dp3139
g74
(dp3140
sg83
g3125
sg76
(lp3141
g69
(g70
g71
NtRp3142
(dp3143
g74
(dp3144
g82
I4
ssg83
g3138
sg76
(lp3145
g112
asbasbasbag69
(g85
g71
NtRp3146
(dp3147
g74
(dp3148
sg83
g2159
sg76
(lp3149
g69
(g90
g71
NtRp3150
(dp3151
g74
(dp3152
g94
g95
ssg83
g3146
sg76
(lp3153
S'wsgi_url_scheme'
p3154
asbag69
(g90
g71
NtRp3155
(dp3156
g74
(dp3157
g101
g102
ssg83
g3146
sg76
(lp3158
S':'
asbag69
(g90
g71
NtRp3159
(dp3160
g74
(dp3161
sg83
g3146
sg76
(lp3162
g69
(g70
g71
NtRp3163
(dp3164
g74
(dp3165
g82
I4
ssg83
g3159
sg76
(lp3166
S'http'
p3167
asbasbasbag69
(g85
g71
NtRp3168
(dp3169
g74
(dp3170
sg83
g2159
sg76
(lp3171
g69
(g90
g71
NtRp3172
(dp3173
g74
(dp3174
g94
g95
ssg83
g3168
sg76
(lp3175
S'wsgi_version'
p3176
asbag69
(g90
g71
NtRp3177
(dp3178
g74
(dp3179
g101
g102
ssg83
g3168
sg76
(lp3180
S':'
asbag69
(g90
g71
NtRp3181
(dp3182
g74
(dp3183
sg83
g3168
sg76
(lp3184
g69
(g70
g71
NtRp3185
(dp3186
g74
(dp3187
g82
I4
ssg83
g3181
sg76
(lp3188
g69
(g78
g71
NtRp3189
(dp3190
g74
(dp3191
g82
I3
ssg83
Nsg76
(lp3192
g69
(g85
g71
NtRp3193
(dp3194
g74
(dp3195
sg83
g3189
sg76
(lp3196
g69
(g90
g71
NtRp3197
(dp3198
g74
(dp3199
sg83
g3193
sg76
(lp3200
g69
(g70
g71
NtRp3201
(dp3202
g74
(dp3203
g82
I3
ssg83
g3197
sg76
(lp3204
S'1'
asbasbasbag69
(g85
g71
NtRp3205
(dp3206
g74
(dp3207
sg83
g3189
sg76
(lp3208
g69
(g90
g71
NtRp3209
(dp3210
g74
(dp3211
sg83
g3205
sg76
(lp3212
g69
(g70
g71
NtRp3213
(dp3214
g74
(dp3215
g82
I3
ssg83
g3209
sg76
(lp3216
S'0'
asbasbasbasbasbasbasbasbasbasbasbag69
(g85
g71
NtRp3217
(dp3218
g74
(dp3219
sg83
g79
sg76
(lp3220
g69
(g90
g71
NtRp3221
(dp3222
g74
(dp3223
g94
g95
ssg83
g3217
sg76
(lp3224
S'extension'
p3225
asbag69
(g90
g71
NtRp3226
(dp3227
g74
(dp3228
g101
g102
ssg83
g3217
sg76
(lp3229
S':'
asbag69
(g90
g71
NtRp3230
(dp3231
g74
(dp3232
sg83
g3217
sg76
(lp3233
g69
(g70
g71
NtRp3234
(dp3235
g74
(dp3236
g82
I5
ssg83
g3230
sg76
(lp3237
S'html'
p3238
asbasbasbag69
(g85
g71
NtRp3239
(dp3240
g74
(dp3241
sg83
g79
sg76
(lp3242
g69
(g90
g71
NtRp3243
(dp3244
g74
(dp3245
g94
g95
ssg83
g3239
sg76
(lp3246
S'folder'
p3247
asbag69
(g90
g71
NtRp3248
(dp3249
g74
(dp3250
g101
g102
ssg83
g3239
sg76
(lp3251
S':'
asbag69
(g90
g71
NtRp3252
(dp3253
g74
(dp3254
sg83
g3239
sg76
(lp3255
g69
(g70
g71
NtRp3256
(dp3257
g74
(dp3258
g82
I5
ssg83
g3252
sg76
(lp3259
S'/var/www/web2py_curso/applications/projeto/'
p3260
asbasbasbag69
(g85
g71
NtRp3261
(dp3262
g74
(dp3263
sg83
g79
sg76
(lp3264
g69
(g90
g71
NtRp3265
(dp3266
g74
(dp3267
g94
g95
ssg83
g3261
sg76
(lp3268
S'function'
p3269
asbag69
(g90
g71
NtRp3270
(dp3271
g74
(dp3272
g101
g102
ssg83
g3261
sg76
(lp3273
S':'
asbag69
(g90
g71
NtRp3274
(dp3275
g74
(dp3276
sg83
g3261
sg76
(lp3277
g69
(g70
g71
NtRp3278
(dp3279
g74
(dp3280
g82
I5
ssg83
g3274
sg76
(lp3281
S'home'
p3282
asbasbasbag69
(g85
g71
NtRp3283
(dp3284
g74
(dp3285
sg83
g79
sg76
(lp3286
g69
(g90
g71
NtRp3287
(dp3288
g74
(dp3289
g94
g95
ssg83
g3283
sg76
(lp3290
S'get_vars'
p3291
asbag69
(g90
g71
NtRp3292
(dp3293
g74
(dp3294
g101
g102
ssg83
g3283
sg76
(lp3295
S':'
asbag69
(g90
g71
NtRp3296
(dp3297
g74
(dp3298
sg83
g3283
sg76
(lp3299
g69
(g70
g71
NtRp3300
(dp3301
g74
(dp3302
g82
I5
ssg83
g3296
sg76
(lp3303
g69
(g78
g71
NtRp3304
(dp3305
g74
(dp3306
g82
I4
ssg83
Nsg76
(lp3307
sbasbasbasbag69
(g85
g71
NtRp3308
(dp3309
g74
(dp3310
sg83
g79
sg76
(lp3311
g69
(g90
g71
NtRp3312
(dp3313
g74
(dp3314
g94
g95
ssg83
g3308
sg76
(lp3315
S'global_settings'
p3316
asbag69
(g90
g71
NtRp3317
(dp3318
g74
(dp3319
g101
g102
ssg83
g3308
sg76
(lp3320
S':'
asbag69
(g90
g71
NtRp3321
(dp3322
g74
(dp3323
sg83
g3308
sg76
(lp3324
g69
(g70
g71
NtRp3325
(dp3326
g74
(dp3327
g82
I5
ssg83
g3321
sg76
(lp3328
g69
(g78
g71
NtRp3329
(dp3330
g74
(dp3331
g82
I4
ssg83
Nsg76
(lp3332
g69
(g85
g71
NtRp3333
(dp3334
g74
(dp3335
sg83
g3329
sg76
(lp3336
g69
(g90
g71
NtRp3337
(dp3338
g74
(dp3339
g94
g95
ssg83
g3333
sg76
(lp3340
g2171
asbag69
(g90
g71
NtRp3341
(dp3342
g74
(dp3343
g101
g102
ssg83
g3333
sg76
(lp3344
S':'
asbag69
(g90
g71
NtRp3345
(dp3346
g74
(dp3347
sg83
g3333
sg76
(lp3348
g69
(g70
g71
NtRp3349
(dp3350
g74
(dp3351
g82
I4
ssg83
g3345
sg76
(lp3352
S"set(['/var/www/web2py_curso/applications/admin/', '/var/www/web2py_curso/applications/projeto/'])"
p3353
asbasbasbag69
(g85
g71
NtRp3354
(dp3355
g74
(dp3356
sg83
g3329
sg76
(lp3357
g69
(g90
g71
NtRp3358
(dp3359
g74
(dp3360
g94
g95
ssg83
g3354
sg76
(lp3361
g2193
asbag69
(g90
g71
NtRp3362
(dp3363
g74
(dp3364
g101
g102
ssg83
g3354
sg76
(lp3365
S':'
asbag69
(g90
g71
NtRp3366
(dp3367
g74
(dp3368
sg83
g3354
sg76
(lp3369
g69
(g70
g71
NtRp3370
(dp3371
g74
(dp3372
g82
I4
ssg83
g3366
sg76
(lp3373
g2206
asbasbasbag69
(g85
g71
NtRp3374
(dp3375
g74
(dp3376
sg83
g3329
sg76
(lp3377
g69
(g90
g71
NtRp3378
(dp3379
g74
(dp3380
g94
g95
ssg83
g3374
sg76
(lp3381
g2215
asbag69
(g90
g71
NtRp3382
(dp3383
g74
(dp3384
g101
g102
ssg83
g3374
sg76
(lp3385
S':'
asbag69
(g90
g71
NtRp3386
(dp3387
g74
(dp3388
sg83
g3374
sg76
(lp3389
g69
(g70
g71
NtRp3390
(dp3391
g74
(dp3392
g82
I4
ssg83
g3386
sg76
(lp3393
g69
(g78
g71
NtRp3394
(dp3395
g74
(dp3396
g82
I3
ssg83
Nsg76
(lp3397
sbasbasbasbag69
(g85
g71
NtRp3398
(dp3399
g74
(dp3400
sg83
g3329
sg76
(lp3401
g69
(g90
g71
NtRp3402
(dp3403
g74
(dp3404
g94
g95
ssg83
g3398
sg76
(lp3405
g2240
asbag69
(g90
g71
NtRp3406
(dp3407
g74
(dp3408
g101
g102
ssg83
g3398
sg76
(lp3409
S':'
asbag69
(g90
g71
NtRp3410
(dp3411
g74
(dp3412
sg83
g3398
sg76
(lp3413
g69
(g70
g71
NtRp3414
(dp3415
g74
(dp3416
g82
I4
ssg83
g3410
sg76
(lp3417
S"<Values at 0x335a1b8: {'verbose': False, 'ip': '127.0.0.1', 'with_scheduler': False, 'ips': [], 'shutdown_timeout': 5, 'taskbar': False, 'port': 8000, 'maxthreads': None, 'softcron': False, 'server_name': 'fernado-desktop', 'bpython': False, 'nogui': False, 'pid_filename': 'httpserver.pid', 'extcron': False, 'runcron': False, 'run_system_tests': False, 'test': None, 'folder': '/var/www/web2py_curso', 'config': '', 'minthreads': None, 'winservice': '', 'shell': None, 'run': '', 'log_filename': 'httpserver.log', 'debuglevel': 30, 'args': [''], 'socket_timeout': 5, 'ssl_ca_certificate': None, 'scheduler': None, 'profiler_filename': None, 'ssl_private_key': '', 'scheduler_groups': None, 'password': '123456', 'request_queue_size': 5, 'ssl_certificate': '', 'cronjob': False, 'numthreads': None, 'quiet': False, 'interfaces': None, 'import_models': False, 'timeout': 10, 'plain': False, 'nobanner': False}>"
p3418
asbasbasbag69
(g85
g71
NtRp3419
(dp3420
g74
(dp3421
sg83
g3329
sg76
(lp3422
g69
(g90
g71
NtRp3423
(dp3424
g74
(dp3425
g94
g95
ssg83
g3419
sg76
(lp3426
g2262
asbag69
(g90
g71
NtRp3427
(dp3428
g74
(dp3429
g101
g102
ssg83
g3419
sg76
(lp3430
S':'
asbag69
(g90
g71
NtRp3431
(dp3432
g74
(dp3433
sg83
g3419
sg76
(lp3434
g69
(g70
g71
NtRp3435
(dp3436
g74
(dp3437
g82
I4
ssg83
g3431
sg76
(lp3438
S'set([])'
p3439
asbasbasbag69
(g85
g71
NtRp3440
(dp3441
g74
(dp3442
sg83
g3329
sg76
(lp3443
g69
(g90
g71
NtRp3444
(dp3445
g74
(dp3446
g94
g95
ssg83
g3440
sg76
(lp3447
g2284
asbag69
(g90
g71
NtRp3448
(dp3449
g74
(dp3450
g101
g102
ssg83
g3440
sg76
(lp3451
S':'
asbag69
(g90
g71
NtRp3452
(dp3453
g74
(dp3454
sg83
g3440
sg76
(lp3455
g69
(g70
g71
NtRp3456
(dp3457
g74
(dp3458
g82
I4
ssg83
g3452
sg76
(lp3459
g112
asbasbasbag69
(g85
g71
NtRp3460
(dp3461
g74
(dp3462
sg83
g3329
sg76
(lp3463
g69
(g90
g71
NtRp3464
(dp3465
g74
(dp3466
g94
g95
ssg83
g3460
sg76
(lp3467
g2305
asbag69
(g90
g71
NtRp3468
(dp3469
g74
(dp3470
g101
g102
ssg83
g3460
sg76
(lp3471
S':'
asbag69
(g90
g71
NtRp3472
(dp3473
g74
(dp3474
sg83
g3460
sg76
(lp3475
g69
(g70
g71
NtRp3476
(dp3477
g74
(dp3478
g82
I4
ssg83
g3472
sg76
(lp3479
g2318
asbasbasbag69
(g85
g71
NtRp3480
(dp3481
g74
(dp3482
sg83
g3329
sg76
(lp3483
g69
(g90
g71
NtRp3484
(dp3485
g74
(dp3486
g94
g95
ssg83
g3480
sg76
(lp3487
g2525
asbag69
(g90
g71
NtRp3488
(dp3489
g74
(dp3490
g101
g102
ssg83
g3480
sg76
(lp3491
S':'
asbag69
(g90
g71
NtRp3492
(dp3493
g74
(dp3494
sg83
g3480
sg76
(lp3495
g69
(g70
g71
NtRp3496
(dp3497
g74
(dp3498
g82
I4
ssg83
g3492
sg76
(lp3499
g112
asbasbasbag69
(g85
g71
NtRp3500
(dp3501
g74
(dp3502
sg83
g3329
sg76
(lp3503
g69
(g90
g71
NtRp3504
(dp3505
g74
(dp3506
g94
g95
ssg83
g3500
sg76
(lp3507
g2546
asbag69
(g90
g71
NtRp3508
(dp3509
g74
(dp3510
g101
g102
ssg83
g3500
sg76
(lp3511
S':'
asbag69
(g90
g71
NtRp3512
(dp3513
g74
(dp3514
sg83
g3500
sg76
(lp3515
g69
(g70
g71
NtRp3516
(dp3517
g74
(dp3518
g82
I4
ssg83
g3512
sg76
(lp3519
g112
asbasbasbag69
(g85
g71
NtRp3520
(dp3521
g74
(dp3522
sg83
g3329
sg76
(lp3523
g69
(g90
g71
NtRp3524
(dp3525
g74
(dp3526
g94
g95
ssg83
g3520
sg76
(lp3527
g2567
asbag69
(g90
g71
NtRp3528
(dp3529
g74
(dp3530
g101
g102
ssg83
g3520
sg76
(lp3531
S':'
asbag69
(g90
g71
NtRp3532
(dp3533
g74
(dp3534
sg83
g3520
sg76
(lp3535
g69
(g70
g71
NtRp3536
(dp3537
g74
(dp3538
g82
I4
ssg83
g3532
sg76
(lp3539
g69
(g78
g71
NtRp3540
(dp3541
g74
(dp3542
g82
I3
ssg83
Nsg76
(lp3543
g69
(g85
g71
NtRp3544
(dp3545
g74
(dp3546
sg83
g3540
sg76
(lp3547
g69
(g90
g71
NtRp3548
(dp3549
g74
(dp3550
sg83
g3544
sg76
(lp3551
g69
(g70
g71
NtRp3552
(dp3553
g74
(dp3554
g82
I3
ssg83
g3548
sg76
(lp3555
g2596
asbasbasbag69
(g85
g71
NtRp3556
(dp3557
g74
(dp3558
sg83
g3540
sg76
(lp3559
g69
(g90
g71
NtRp3560
(dp3561
g74
(dp3562
sg83
g3556
sg76
(lp3563
g69
(g70
g71
NtRp3564
(dp3565
g74
(dp3566
g82
I3
ssg83
g3560
sg76
(lp3567
g2609
asbasbasbag69
(g85
g71
NtRp3568
(dp3569
g74
(dp3570
sg83
g3540
sg76
(lp3571
g69
(g90
g71
NtRp3572
(dp3573
g74
(dp3574
sg83
g3568
sg76
(lp3575
g69
(g70
g71
NtRp3576
(dp3577
g74
(dp3578
g82
I3
ssg83
g3572
sg76
(lp3579
g2622
asbasbasbag69
(g85
g71
NtRp3580
(dp3581
g74
(dp3582
sg83
g3540
sg76
(lp3583
g69
(g90
g71
NtRp3584
(dp3585
g74
(dp3586
sg83
g3580
sg76
(lp3587
g69
(g70
g71
NtRp3588
(dp3589
g74
(dp3590
g82
I3
ssg83
g3584
sg76
(lp3591
g2635
asbasbasbag69
(g85
g71
NtRp3592
(dp3593
g74
(dp3594
sg83
g3540
sg76
(lp3595
g69
(g90
g71
NtRp3596
(dp3597
g74
(dp3598
sg83
g3592
sg76
(lp3599
g69
(g70
g71
NtRp3600
(dp3601
g74
(dp3602
g82
I3
ssg83
g3596
sg76
(lp3603
g2648
asbasbasbasbasbasbasbag69
(g85
g71
NtRp3604
(dp3605
g74
(dp3606
sg83
g3329
sg76
(lp3607
g69
(g90
g71
NtRp3608
(dp3609
g74
(dp3610
g94
g95
ssg83
g3604
sg76
(lp3611
g2937
asbag69
(g90
g71
NtRp3612
(dp3613
g74
(dp3614
g101
g102
ssg83
g3604
sg76
(lp3615
S':'
asbag69
(g90
g71
NtRp3616
(dp3617
g74
(dp3618
sg83
g3604
sg76
(lp3619
g69
(g70
g71
NtRp3620
(dp3621
g74
(dp3622
g82
I4
ssg83
g3616
sg76
(lp3623
g69
(g78
g71
NtRp3624
(dp3625
g74
(dp3626
g82
I3
ssg83
Nsg76
(lp3627
g69
(g85
g71
NtRp3628
(dp3629
g74
(dp3630
sg83
g3624
sg76
(lp3631
g69
(g90
g71
NtRp3632
(dp3633
g74
(dp3634
sg83
g3628
sg76
(lp3635
g69
(g70
g71
NtRp3636
(dp3637
g74
(dp3638
g82
I3
ssg83
g3632
sg76
(lp3639
S'2'
asbasbasbag69
(g85
g71
NtRp3640
(dp3641
g74
(dp3642
sg83
g3624
sg76
(lp3643
g69
(g90
g71
NtRp3644
(dp3645
g74
(dp3646
sg83
g3640
sg76
(lp3647
g69
(g70
g71
NtRp3648
(dp3649
g74
(dp3650
g82
I3
ssg83
g3644
sg76
(lp3651
S'3'
asbasbasbag69
(g85
g71
NtRp3652
(dp3653
g74
(dp3654
sg83
g3624
sg76
(lp3655
g69
(g90
g71
NtRp3656
(dp3657
g74
(dp3658
sg83
g3652
sg76
(lp3659
g69
(g70
g71
NtRp3660
(dp3661
g74
(dp3662
g82
I3
ssg83
g3656
sg76
(lp3663
S'2'
asbasbasbag69
(g85
g71
NtRp3664
(dp3665
g74
(dp3666
sg83
g3624
sg76
(lp3667
g69
(g90
g71
NtRp3668
(dp3669
g74
(dp3670
sg83
g3664
sg76
(lp3671
g69
(g70
g71
NtRp3672
(dp3673
g74
(dp3674
g82
I3
ssg83
g3668
sg76
(lp3675
S'datetime.datetime(2012, 12, 17, 15, 3, 30)'
p3676
asbasbasbag69
(g85
g71
NtRp3677
(dp3678
g74
(dp3679
sg83
g3624
sg76
(lp3680
g69
(g90
g71
NtRp3681
(dp3682
g74
(dp3683
sg83
g3677
sg76
(lp3684
g69
(g70
g71
NtRp3685
(dp3686
g74
(dp3687
g82
I3
ssg83
g3681
sg76
(lp3688
g3015
asbasbasbasbasbasbasbasbasbasbasbag69
(g85
g71
NtRp3689
(dp3690
g74
(dp3691
sg83
g79
sg76
(lp3692
g69
(g90
g71
NtRp3693
(dp3694
g74
(dp3695
g94
g95
ssg83
g3689
sg76
(lp3696
S'is_https'
p3697
asbag69
(g90
g71
NtRp3698
(dp3699
g74
(dp3700
g101
g102
ssg83
g3689
sg76
(lp3701
S':'
asbag69
(g90
g71
NtRp3702
(dp3703
g74
(dp3704
sg83
g3689
sg76
(lp3705
g69
(g70
g71
NtRp3706
(dp3707
g74
(dp3708
g82
I5
ssg83
g3702
sg76
(lp3709
g112
asbasbasbag69
(g85
g71
NtRp3710
(dp3711
g74
(dp3712
sg83
g79
sg76
(lp3713
g69
(g90
g71
NtRp3714
(dp3715
g74
(dp3716
g94
g95
ssg83
g3710
sg76
(lp3717
S'is_local'
p3718
asbag69
(g90
g71
NtRp3719
(dp3720
g74
(dp3721
g101
g102
ssg83
g3710
sg76
(lp3722
S':'
asbag69
(g90
g71
NtRp3723
(dp3724
g74
(dp3725
sg83
g3710
sg76
(lp3726
g69
(g70
g71
NtRp3727
(dp3728
g74
(dp3729
g82
I5
ssg83
g3723
sg76
(lp3730
g3124
asbasbasbag69
(g85
g71
NtRp3731
(dp3732
g74
(dp3733
sg83
g79
sg76
(lp3734
g69
(g90
g71
NtRp3735
(dp3736
g74
(dp3737
g94
g95
ssg83
g3731
sg76
(lp3738
S'is_restful'
p3739
asbag69
(g90
g71
NtRp3740
(dp3741
g74
(dp3742
g101
g102
ssg83
g3731
sg76
(lp3743
S':'
asbag69
(g90
g71
NtRp3744
(dp3745
g74
(dp3746
sg83
g3731
sg76
(lp3747
g69
(g70
g71
NtRp3748
(dp3749
g74
(dp3750
g82
I5
ssg83
g3744
sg76
(lp3751
g112
asbasbasbag69
(g85
g71
NtRp3752
(dp3753
g74
(dp3754
sg83
g79
sg76
(lp3755
g69
(g90
g71
NtRp3756
(dp3757
g74
(dp3758
g94
g95
ssg83
g3752
sg76
(lp3759
S'now'
p3760
asbag69
(g90
g71
NtRp3761
(dp3762
g74
(dp3763
g101
g102
ssg83
g3752
sg76
(lp3764
S':'
asbag69
(g90
g71
NtRp3765
(dp3766
g74
(dp3767
sg83
g3752
sg76
(lp3768
g69
(g70
g71
NtRp3769
(dp3770
g74
(dp3771
g82
I5
ssg83
g3765
sg76
(lp3772
S'datetime.datetime(2013, 2, 4, 11, 54, 46, 651438)'
p3773
asbasbasbag69
(g85
g71
NtRp3774
(dp3775
g74
(dp3776
sg83
g79
sg76
(lp3777
g69
(g90
g71
NtRp3778
(dp3779
g74
(dp3780
g94
g95
ssg83
g3774
sg76
(lp3781
S'post_vars'
p3782
asbag69
(g90
g71
NtRp3783
(dp3784
g74
(dp3785
g101
g102
ssg83
g3774
sg76
(lp3786
S':'
asbag69
(g90
g71
NtRp3787
(dp3788
g74
(dp3789
sg83
g3774
sg76
(lp3790
g69
(g70
g71
NtRp3791
(dp3792
g74
(dp3793
g82
I5
ssg83
g3787
sg76
(lp3794
g69
(g78
g71
NtRp3795
(dp3796
g74
(dp3797
g82
I4
ssg83
Nsg76
(lp3798
sbasbasbasbag69
(g85
g71
NtRp3799
(dp3800
g74
(dp3801
sg83
g79
sg76
(lp3802
g69
(g90
g71
NtRp3803
(dp3804
g74
(dp3805
g94
g95
ssg83
g3799
sg76
(lp3806
S'url'
p3807
asbag69
(g90
g71
NtRp3808
(dp3809
g74
(dp3810
g101
g102
ssg83
g3799
sg76
(lp3811
S':'
asbag69
(g90
g71
NtRp3812
(dp3813
g74
(dp3814
sg83
g3799
sg76
(lp3815
g69
(g70
g71
NtRp3816
(dp3817
g74
(dp3818
g82
I5
ssg83
g3812
sg76
(lp3819
S'/'
asbasbasbag69
(g85
g71
NtRp3820
(dp3821
g74
(dp3822
sg83
g79
sg76
(lp3823
g69
(g90
g71
NtRp3824
(dp3825
g74
(dp3826
g94
g95
ssg83
g3820
sg76
(lp3827
S'utcnow'
p3828
asbag69
(g90
g71
NtRp3829
(dp3830
g74
(dp3831
g101
g102
ssg83
g3820
sg76
(lp3832
S':'
asbag69
(g90
g71
NtRp3833
(dp3834
g74
(dp3835
sg83
g3820
sg76
(lp3836
g69
(g70
g71
NtRp3837
(dp3838
g74
(dp3839
g82
I5
ssg83
g3833
sg76
(lp3840
S'datetime.datetime(2013, 2, 4, 13, 54, 46, 651485)'
p3841
asbasbasbag69
(g85
g71
NtRp3842
(dp3843
g74
(dp3844
sg83
g79
sg76
(lp3845
g69
(g90
g71
NtRp3846
(dp3847
g74
(dp3848
g94
g95
ssg83
g3842
sg76
(lp3849
S'uuid'
p3850
asbag69
(g90
g71
NtRp3851
(dp3852
g74
(dp3853
g101
g102
ssg83
g3842
sg76
(lp3854
S':'
asbag69
(g90
g71
NtRp3855
(dp3856
g74
(dp3857
sg83
g3842
sg76
(lp3858
g69
(g70
g71
NtRp3859
(dp3860
g74
(dp3861
g82
I5
ssg83
g3855
sg76
(lp3862
S'projeto/127.0.0.1.2013-02-04.11-54-46.78770be5-c631-47a7-b404-6bf29de634fb'
p3863
asbasbasbag69
(g85
g71
NtRp3864
(dp3865
g74
(dp3866
sg83
g79
sg76
(lp3867
g69
(g90
g71
NtRp3868
(dp3869
g74
(dp3870
g94
g95
ssg83
g3864
sg76
(lp3871
S'vars'
p3872
asbag69
(g90
g71
NtRp3873
(dp3874
g74
(dp3875
g101
g102
ssg83
g3864
sg76
(lp3876
S':'
asbag69
(g90
g71
NtRp3877
(dp3878
g74
(dp3879
sg83
g3864
sg76
(lp3880
g69
(g70
g71
NtRp3881
(dp3882
g74
(dp3883
g82
I5
ssg83
g3877
sg76
(lp3884
g69
(g78
g71
NtRp3885
(dp3886
g74
(dp3887
g82
I4
ssg83
Nsg76
(lp3888
sbasbasbasbag69
(g85
g71
NtRp3889
(dp3890
g74
(dp3891
sg83
g79
sg76
(lp3892
g69
(g90
g71
NtRp3893
(dp3894
g74
(dp3895
g94
g95
ssg83
g3889
sg76
(lp3896
S'wsgi'
p3897
asbag69
(g90
g71
NtRp3898
(dp3899
g74
(dp3900
g101
g102
ssg83
g3889
sg76
(lp3901
S':'
asbag69
(g90
g71
NtRp3902
(dp3903
g74
(dp3904
sg83
g3889
sg76
(lp3905
g69
(g70
g71
NtRp3906
(dp3907
g74
(dp3908
g82
I5
ssg83
g3902
sg76
(lp3909
g69
(g78
g71
NtRp3910
(dp3911
g74
(dp3912
g82
I4
ssg83
Nsg76
(lp3913
g69
(g85
g71
NtRp3914
(dp3915
g74
(dp3916
sg83
g3910
sg76
(lp3917
g69
(g90
g71
NtRp3918
(dp3919
g74
(dp3920
g94
g95
ssg83
g3914
sg76
(lp3921
S'environ'
p3922
asbag69
(g90
g71
NtRp3923
(dp3924
g74
(dp3925
g101
g102
ssg83
g3914
sg76
(lp3926
S':'
asbag69
(g90
g71
NtRp3927
(dp3928
g74
(dp3929
sg83
g3914
sg76
(lp3930
g69
(g70
g71
NtRp3931
(dp3932
g74
(dp3933
g82
I4
ssg83
g3927
sg76
(lp3934
g69
(g78
g71
NtRp3935
(dp3936
g74
(dp3937
g82
I3
ssg83
Nsg76
(lp3938
g69
(g85
g71
NtRp3939
(dp3940
g74
(dp3941
sg83
g3935
sg76
(lp3942
g69
(g90
g71
NtRp3943
(dp3944
g74
(dp3945
g94
g95
ssg83
g3939
sg76
(lp3946
S'HTTP_ACCEPT'
p3947
asbag69
(g90
g71
NtRp3948
(dp3949
g74
(dp3950
g101
g102
ssg83
g3939
sg76
(lp3951
S':'
asbag69
(g90
g71
NtRp3952
(dp3953
g74
(dp3954
sg83
g3939
sg76
(lp3955
g69
(g70
g71
NtRp3956
(dp3957
g74
(dp3958
g82
I3
ssg83
g3952
sg76
(lp3959
g2340
asbasbasbag69
(g85
g71
NtRp3960
(dp3961
g74
(dp3962
sg83
g3935
sg76
(lp3963
g69
(g90
g71
NtRp3964
(dp3965
g74
(dp3966
g94
g95
ssg83
g3960
sg76
(lp3967
S'HTTP_ACCEPT_CHARSET'
p3968
asbag69
(g90
g71
NtRp3969
(dp3970
g74
(dp3971
g101
g102
ssg83
g3960
sg76
(lp3972
S':'
asbag69
(g90
g71
NtRp3973
(dp3974
g74
(dp3975
sg83
g3960
sg76
(lp3976
g69
(g70
g71
NtRp3977
(dp3978
g74
(dp3979
g82
I3
ssg83
g3973
sg76
(lp3980
g2362
asbasbasbag69
(g85
g71
NtRp3981
(dp3982
g74
(dp3983
sg83
g3935
sg76
(lp3984
g69
(g90
g71
NtRp3985
(dp3986
g74
(dp3987
g94
g95
ssg83
g3981
sg76
(lp3988
S'HTTP_ACCEPT_ENCODING'
p3989
asbag69
(g90
g71
NtRp3990
(dp3991
g74
(dp3992
g101
g102
ssg83
g3981
sg76
(lp3993
S':'
asbag69
(g90
g71
NtRp3994
(dp3995
g74
(dp3996
sg83
g3981
sg76
(lp3997
g69
(g70
g71
NtRp3998
(dp3999
g74
(dp4000
g82
I3
ssg83
g3994
sg76
(lp4001
g2384
asbasbasbag69
(g85
g71
NtRp4002
(dp4003
g74
(dp4004
sg83
g3935
sg76
(lp4005
g69
(g90
g71
NtRp4006
(dp4007
g74
(dp4008
g94
g95
ssg83
g4002
sg76
(lp4009
S'HTTP_ACCEPT_LANGUAGE'
p4010
asbag69
(g90
g71
NtRp4011
(dp4012
g74
(dp4013
g101
g102
ssg83
g4002
sg76
(lp4014
S':'
asbag69
(g90
g71
NtRp4015
(dp4016
g74
(dp4017
sg83
g4002
sg76
(lp4018
g69
(g70
g71
NtRp4019
(dp4020
g74
(dp4021
g82
I3
ssg83
g4015
sg76
(lp4022
g2406
asbasbasbag69
(g85
g71
NtRp4023
(dp4024
g74
(dp4025
sg83
g3935
sg76
(lp4026
g69
(g90
g71
NtRp4027
(dp4028
g74
(dp4029
g94
g95
ssg83
g4023
sg76
(lp4030
S'HTTP_CACHE_CONTROL'
p4031
asbag69
(g90
g71
NtRp4032
(dp4033
g74
(dp4034
g101
g102
ssg83
g4023
sg76
(lp4035
S':'
asbag69
(g90
g71
NtRp4036
(dp4037
g74
(dp4038
sg83
g4023
sg76
(lp4039
g69
(g70
g71
NtRp4040
(dp4041
g74
(dp4042
g82
I3
ssg83
g4036
sg76
(lp4043
g2428
asbasbasbag69
(g85
g71
NtRp4044
(dp4045
g74
(dp4046
sg83
g3935
sg76
(lp4047
g69
(g90
g71
NtRp4048
(dp4049
g74
(dp4050
g94
g95
ssg83
g4044
sg76
(lp4051
S'HTTP_CONNECTION'
p4052
asbag69
(g90
g71
NtRp4053
(dp4054
g74
(dp4055
g101
g102
ssg83
g4044
sg76
(lp4056
S':'
asbag69
(g90
g71
NtRp4057
(dp4058
g74
(dp4059
sg83
g4044
sg76
(lp4060
g69
(g70
g71
NtRp4061
(dp4062
g74
(dp4063
g82
I3
ssg83
g4057
sg76
(lp4064
g2450
asbasbasbag69
(g85
g71
NtRp4065
(dp4066
g74
(dp4067
sg83
g3935
sg76
(lp4068
g69
(g90
g71
NtRp4069
(dp4070
g74
(dp4071
g94
g95
ssg83
g4065
sg76
(lp4072
S'HTTP_COOKIE'
p4073
asbag69
(g90
g71
NtRp4074
(dp4075
g74
(dp4076
g101
g102
ssg83
g4065
sg76
(lp4077
S':'
asbag69
(g90
g71
NtRp4078
(dp4079
g74
(dp4080
sg83
g4065
sg76
(lp4081
g69
(g70
g71
NtRp4082
(dp4083
g74
(dp4084
g82
I3
ssg83
g4078
sg76
(lp4085
g2472
asbasbasbag69
(g85
g71
NtRp4086
(dp4087
g74
(dp4088
sg83
g3935
sg76
(lp4089
g69
(g90
g71
NtRp4090
(dp4091
g74
(dp4092
g94
g95
ssg83
g4086
sg76
(lp4093
S'HTTP_HOST'
p4094
asbag69
(g90
g71
NtRp4095
(dp4096
g74
(dp4097
g101
g102
ssg83
g4086
sg76
(lp4098
S':'
asbag69
(g90
g71
NtRp4099
(dp4100
g74
(dp4101
sg83
g4086
sg76
(lp4102
g69
(g70
g71
NtRp4103
(dp4104
g74
(dp4105
g82
I3
ssg83
g4099
sg76
(lp4106
g2494
asbasbasbag69
(g85
g71
NtRp4107
(dp4108
g74
(dp4109
sg83
g3935
sg76
(lp4110
g69
(g90
g71
NtRp4111
(dp4112
g74
(dp4113
g94
g95
ssg83
g4107
sg76
(lp4114
S'HTTP_USER_AGENT'
p4115
asbag69
(g90
g71
NtRp4116
(dp4117
g74
(dp4118
g101
g102
ssg83
g4107
sg76
(lp4119
S':'
asbag69
(g90
g71
NtRp4120
(dp4121
g74
(dp4122
sg83
g4107
sg76
(lp4123
g69
(g70
g71
NtRp4124
(dp4125
g74
(dp4126
g82
I3
ssg83
g4120
sg76
(lp4127
g2516
asbasbasbag69
(g85
g71
NtRp4128
(dp4129
g74
(dp4130
sg83
g3935
sg76
(lp4131
g69
(g90
g71
NtRp4132
(dp4133
g74
(dp4134
g94
g95
ssg83
g4128
sg76
(lp4135
S'PATH_INFO'
p4136
asbag69
(g90
g71
NtRp4137
(dp4138
g74
(dp4139
g101
g102
ssg83
g4128
sg76
(lp4140
S':'
asbag69
(g90
g71
NtRp4141
(dp4142
g74
(dp4143
sg83
g4128
sg76
(lp4144
g69
(g70
g71
NtRp4145
(dp4146
g74
(dp4147
g82
I3
ssg83
g4141
sg76
(lp4148
S'/'
asbasbasbag69
(g85
g71
NtRp4149
(dp4150
g74
(dp4151
sg83
g3935
sg76
(lp4152
g69
(g90
g71
NtRp4153
(dp4154
g74
(dp4155
g94
g95
ssg83
g4149
sg76
(lp4156
S'QUERY_STRING'
p4157
asbag69
(g90
g71
NtRp4158
(dp4159
g74
(dp4160
g101
g102
ssg83
g4149
sg76
(lp4161
S':'
asbag69
(g90
g71
NtRp4162
(dp4163
g74
(dp4164
sg83
g4149
sg76
(lp4165
g69
(g70
g71
NtRp4166
(dp4167
g74
(dp4168
g82
I3
ssg83
g4162
sg76
(lp4169
S''
asbasbasbag69
(g85
g71
NtRp4170
(dp4171
g74
(dp4172
sg83
g3935
sg76
(lp4173
g69
(g90
g71
NtRp4174
(dp4175
g74
(dp4176
g94
g95
ssg83
g4170
sg76
(lp4177
S'REMOTE_ADDR'
p4178
asbag69
(g90
g71
NtRp4179
(dp4180
g74
(dp4181
g101
g102
ssg83
g4170
sg76
(lp4182
S':'
asbag69
(g90
g71
NtRp4183
(dp4184
g74
(dp4185
sg83
g4170
sg76
(lp4186
g69
(g70
g71
NtRp4187
(dp4188
g74
(dp4189
g82
I3
ssg83
g4183
sg76
(lp4190
g224
asbasbasbag69
(g85
g71
NtRp4191
(dp4192
g74
(dp4193
sg83
g3935
sg76
(lp4194
g69
(g90
g71
NtRp4195
(dp4196
g74
(dp4197
g94
g95
ssg83
g4191
sg76
(lp4198
S'REMOTE_PORT'
p4199
asbag69
(g90
g71
NtRp4200
(dp4201
g74
(dp4202
g101
g102
ssg83
g4191
sg76
(lp4203
S':'
asbag69
(g90
g71
NtRp4204
(dp4205
g74
(dp4206
sg83
g4191
sg76
(lp4207
g69
(g70
g71
NtRp4208
(dp4209
g74
(dp4210
g82
I3
ssg83
g4204
sg76
(lp4211
g2733
asbasbasbag69
(g85
g71
NtRp4212
(dp4213
g74
(dp4214
sg83
g3935
sg76
(lp4215
g69
(g90
g71
NtRp4216
(dp4217
g74
(dp4218
g94
g95
ssg83
g4212
sg76
(lp4219
S'REQUEST_METHOD'
p4220
asbag69
(g90
g71
NtRp4221
(dp4222
g74
(dp4223
g101
g102
ssg83
g4212
sg76
(lp4224
S':'
asbag69
(g90
g71
NtRp4225
(dp4226
g74
(dp4227
sg83
g4212
sg76
(lp4228
g69
(g70
g71
NtRp4229
(dp4230
g74
(dp4231
g82
I3
ssg83
g4225
sg76
(lp4232
g2755
asbasbasbag69
(g85
g71
NtRp4233
(dp4234
g74
(dp4235
sg83
g3935
sg76
(lp4236
g69
(g90
g71
NtRp4237
(dp4238
g74
(dp4239
g94
g95
ssg83
g4233
sg76
(lp4240
S'REQUEST_URI'
p4241
asbag69
(g90
g71
NtRp4242
(dp4243
g74
(dp4244
g101
g102
ssg83
g4233
sg76
(lp4245
S':'
asbag69
(g90
g71
NtRp4246
(dp4247
g74
(dp4248
sg83
g4233
sg76
(lp4249
g69
(g70
g71
NtRp4250
(dp4251
g74
(dp4252
g82
I3
ssg83
g4246
sg76
(lp4253
g2777
asbasbasbag69
(g85
g71
NtRp4254
(dp4255
g74
(dp4256
sg83
g3935
sg76
(lp4257
g69
(g90
g71
NtRp4258
(dp4259
g74
(dp4260
g94
g95
ssg83
g4254
sg76
(lp4261
S'SCRIPT_NAME'
p4262
asbag69
(g90
g71
NtRp4263
(dp4264
g74
(dp4265
g101
g102
ssg83
g4254
sg76
(lp4266
S':'
asbag69
(g90
g71
NtRp4267
(dp4268
g74
(dp4269
sg83
g4254
sg76
(lp4270
g69
(g70
g71
NtRp4271
(dp4272
g74
(dp4273
g82
I3
ssg83
g4267
sg76
(lp4274
S''
asbasbasbag69
(g85
g71
NtRp4275
(dp4276
g74
(dp4277
sg83
g3935
sg76
(lp4278
g69
(g90
g71
NtRp4279
(dp4280
g74
(dp4281
g94
g95
ssg83
g4275
sg76
(lp4282
S'SERVER_NAME'
p4283
asbag69
(g90
g71
NtRp4284
(dp4285
g74
(dp4286
g101
g102
ssg83
g4275
sg76
(lp4287
S':'
asbag69
(g90
g71
NtRp4288
(dp4289
g74
(dp4290
sg83
g4275
sg76
(lp4291
g69
(g70
g71
NtRp4292
(dp4293
g74
(dp4294
g82
I3
ssg83
g4288
sg76
(lp4295
g2820
asbasbasbag69
(g85
g71
NtRp4296
(dp4297
g74
(dp4298
sg83
g3935
sg76
(lp4299
g69
(g90
g71
NtRp4300
(dp4301
g74
(dp4302
g94
g95
ssg83
g4296
sg76
(lp4303
S'SERVER_PORT'
p4304
asbag69
(g90
g71
NtRp4305
(dp4306
g74
(dp4307
g101
g102
ssg83
g4296
sg76
(lp4308
S':'
asbag69
(g90
g71
NtRp4309
(dp4310
g74
(dp4311
sg83
g4296
sg76
(lp4312
g69
(g70
g71
NtRp4313
(dp4314
g74
(dp4315
g82
I3
ssg83
g4309
sg76
(lp4316
g2842
asbasbasbag69
(g85
g71
NtRp4317
(dp4318
g74
(dp4319
sg83
g3935
sg76
(lp4320
g69
(g90
g71
NtRp4321
(dp4322
g74
(dp4323
g94
g95
ssg83
g4317
sg76
(lp4324
S'SERVER_PROTOCOL'
p4325
asbag69
(g90
g71
NtRp4326
(dp4327
g74
(dp4328
g101
g102
ssg83
g4317
sg76
(lp4329
S':'
asbag69
(g90
g71
NtRp4330
(dp4331
g74
(dp4332
sg83
g4317
sg76
(lp4333
g69
(g70
g71
NtRp4334
(dp4335
g74
(dp4336
g82
I3
ssg83
g4330
sg76
(lp4337
g2864
asbasbasbag69
(g85
g71
NtRp4338
(dp4339
g74
(dp4340
sg83
g3935
sg76
(lp4341
g69
(g90
g71
NtRp4342
(dp4343
g74
(dp4344
g94
g95
ssg83
g4338
sg76
(lp4345
S'SERVER_SOFTWARE'
p4346
asbag69
(g90
g71
NtRp4347
(dp4348
g74
(dp4349
g101
g102
ssg83
g4338
sg76
(lp4350
S':'
asbag69
(g90
g71
NtRp4351
(dp4352
g74
(dp4353
sg83
g4338
sg76
(lp4354
g69
(g70
g71
NtRp4355
(dp4356
g74
(dp4357
g82
I3
ssg83
g4351
sg76
(lp4358
g2886
asbasbasbag69
(g85
g71
NtRp4359
(dp4360
g74
(dp4361
sg83
g3935
sg76
(lp4362
g69
(g90
g71
NtRp4363
(dp4364
g74
(dp4365
g94
g95
ssg83
g4359
sg76
(lp4366
S'WEB2PY_ORIGINAL_URI'
p4367
asbag69
(g90
g71
NtRp4368
(dp4369
g74
(dp4370
g101
g102
ssg83
g4359
sg76
(lp4371
S':'
asbag69
(g90
g71
NtRp4372
(dp4373
g74
(dp4374
sg83
g4359
sg76
(lp4375
g69
(g70
g71
NtRp4376
(dp4377
g74
(dp4378
g82
I3
ssg83
g4372
sg76
(lp4379
S'/'
asbasbasbag69
(g85
g71
NtRp4380
(dp4381
g74
(dp4382
sg83
g3935
sg76
(lp4383
g69
(g90
g71
NtRp4384
(dp4385
g74
(dp4386
g94
g95
ssg83
g4380
sg76
(lp4387
S'wsgi.errors'
p4388
asbag69
(g90
g71
NtRp4389
(dp4390
g74
(dp4391
g101
g102
ssg83
g4380
sg76
(lp4392
S':'
asbag69
(g90
g71
NtRp4393
(dp4394
g74
(dp4395
sg83
g4380
sg76
(lp4396
g69
(g70
g71
NtRp4397
(dp4398
g74
(dp4399
g82
I3
ssg83
g4393
sg76
(lp4400
S"<open file '<stderr>', mode 'w' at 0x7fb4dd175270>"
p4401
asbasbasbag69
(g85
g71
NtRp4402
(dp4403
g74
(dp4404
sg83
g3935
sg76
(lp4405
g69
(g90
g71
NtRp4406
(dp4407
g74
(dp4408
g94
g95
ssg83
g4402
sg76
(lp4409
S'wsgi.file_wrapper'
p4410
asbag69
(g90
g71
NtRp4411
(dp4412
g74
(dp4413
g101
g102
ssg83
g4402
sg76
(lp4414
S':'
asbag69
(g90
g71
NtRp4415
(dp4416
g74
(dp4417
sg83
g4402
sg76
(lp4418
g69
(g70
g71
NtRp4419
(dp4420
g74
(dp4421
g82
I3
ssg83
g4415
sg76
(lp4422
S'<class wsgiref.util.FileWrapper at 0x37136d0>'
p4423
asbasbasbag69
(g85
g71
NtRp4424
(dp4425
g74
(dp4426
sg83
g3935
sg76
(lp4427
g69
(g90
g71
NtRp4428
(dp4429
g74
(dp4430
g94
g95
ssg83
g4424
sg76
(lp4431
S'wsgi.input'
p4432
asbag69
(g90
g71
NtRp4433
(dp4434
g74
(dp4435
g101
g102
ssg83
g4424
sg76
(lp4436
S':'
asbag69
(g90
g71
NtRp4437
(dp4438
g74
(dp4439
sg83
g4424
sg76
(lp4440
g69
(g70
g71
NtRp4441
(dp4442
g74
(dp4443
g82
I3
ssg83
g4437
sg76
(lp4444
S'<cStringIO.StringO object at 0x7fb4b42def80>'
p4445
asbasbasbag69
(g85
g71
NtRp4446
(dp4447
g74
(dp4448
sg83
g3935
sg76
(lp4449
g69
(g90
g71
NtRp4450
(dp4451
g74
(dp4452
g94
g95
ssg83
g4446
sg76
(lp4453
S'wsgi.multiprocess'
p4454
asbag69
(g90
g71
NtRp4455
(dp4456
g74
(dp4457
g101
g102
ssg83
g4446
sg76
(lp4458
S':'
asbag69
(g90
g71
NtRp4459
(dp4460
g74
(dp4461
sg83
g4446
sg76
(lp4462
g69
(g70
g71
NtRp4463
(dp4464
g74
(dp4465
g82
I3
ssg83
g4459
sg76
(lp4466
g112
asbasbasbag69
(g85
g71
NtRp4467
(dp4468
g74
(dp4469
sg83
g3935
sg76
(lp4470
g69
(g90
g71
NtRp4471
(dp4472
g74
(dp4473
g94
g95
ssg83
g4467
sg76
(lp4474
S'wsgi.multithread'
p4475
asbag69
(g90
g71
NtRp4476
(dp4477
g74
(dp4478
g101
g102
ssg83
g4467
sg76
(lp4479
S':'
asbag69
(g90
g71
NtRp4480
(dp4481
g74
(dp4482
sg83
g4467
sg76
(lp4483
g69
(g70
g71
NtRp4484
(dp4485
g74
(dp4486
g82
I3
ssg83
g4480
sg76
(lp4487
g3124
asbasbasbag69
(g85
g71
NtRp4488
(dp4489
g74
(dp4490
sg83
g3935
sg76
(lp4491
g69
(g90
g71
NtRp4492
(dp4493
g74
(dp4494
g94
g95
ssg83
g4488
sg76
(lp4495
S'wsgi.run_once'
p4496
asbag69
(g90
g71
NtRp4497
(dp4498
g74
(dp4499
g101
g102
ssg83
g4488
sg76
(lp4500
S':'
asbag69
(g90
g71
NtRp4501
(dp4502
g74
(dp4503
sg83
g4488
sg76
(lp4504
g69
(g70
g71
NtRp4505
(dp4506
g74
(dp4507
g82
I3
ssg83
g4501
sg76
(lp4508
g112
asbasbasbag69
(g85
g71
NtRp4509
(dp4510
g74
(dp4511
sg83
g3935
sg76
(lp4512
g69
(g90
g71
NtRp4513
(dp4514
g74
(dp4515
g94
g95
ssg83
g4509
sg76
(lp4516
S'wsgi.url_scheme'
p4517
asbag69
(g90
g71
NtRp4518
(dp4519
g74
(dp4520
g101
g102
ssg83
g4509
sg76
(lp4521
S':'
asbag69
(g90
g71
NtRp4522
(dp4523
g74
(dp4524
sg83
g4509
sg76
(lp4525
g69
(g70
g71
NtRp4526
(dp4527
g74
(dp4528
g82
I3
ssg83
g4522
sg76
(lp4529
g3167
asbasbasbag69
(g85
g71
NtRp4530
(dp4531
g74
(dp4532
sg83
g3935
sg76
(lp4533
g69
(g90
g71
NtRp4534
(dp4535
g74
(dp4536
g94
g95
ssg83
g4530
sg76
(lp4537
S'wsgi.version'
p4538
asbag69
(g90
g71
NtRp4539
(dp4540
g74
(dp4541
g101
g102
ssg83
g4530
sg76
(lp4542
S':'
asbag69
(g90
g71
NtRp4543
(dp4544
g74
(dp4545
sg83
g4530
sg76
(lp4546
g69
(g70
g71
NtRp4547
(dp4548
g74
(dp4549
g82
I3
ssg83
g4543
sg76
(lp4550
S'1'
asbasbasbasbasbasbasbasbasbasbasbasbasbsS'frames'
p4551
(lp4552
(dp4553
S'file'
p4554
S'/var/www/web2py_curso/gluon/restricted.py'
p4555
sS'dump'
p4556
(dp4557
S'environment'
p4558
S"{'A': <class 'gluon.html.A'>, 'Auth': <class 'gluon.tools.Auth'>, 'B': <class 'gluon.html.B'>, 'BEAUTIFY': <class 'gluon.html.BEAUTIFY'>, 'BODY': <class 'gluon.html.BODY'>, 'BR': <class 'gluon.html.BR'>, 'BUTTON': <class 'gluon.html.BUTTON'>, 'Blog': <Table blog (id,title,description)>, 'CAT': <class 'gluon.html.CAT'>, 'CENTER': <class 'gluon.html.CENTER'>, ...}"
p4559
sS'ccode'
p4560
S'<code object <module> at 0x7fb4d00896b0, file "/...plications/projeto/models/validators.py", line 2>'
p4561
ssS'lnum'
p4562
I212
sS'lines'
p4563
(dp4564
I207
S'    try:'
p4565
sI208
S'        if isinstance(code, types.CodeType):'
p4566
sI209
S'            ccode = code'
p4567
sI210
S'        else:'
p4568
sI211
S'            ccode = compile2(code, layer)'
p4569
sI212
S'        exec ccode in environment'
p4570
sI213
S'    except HTTP:'
p4571
sI214
S'        raise'
p4572
sI215
S'    except RestrictedError:'
p4573
sI216
S'        # do not encapsulate (obfuscate) the original RestrictedError'
p4574
ssS'call'
p4575
S'(code=\'\\nPost.blog.requires = IS_IN_DB(db, \\\'blog.id\\\', "%...= IS_IN_DB(db, \\\'auth_user.id\\\', "%(first_name)s")\\n\', environment={\'A\': <class \'gluon.html.A\'>, \'Auth\': <class \'gluon.tools.Auth\'>, \'B\': <class \'gluon.html.B\'>, \'BEAUTIFY\': <class \'gluon.html.BEAUTIFY\'>, \'BODY\': <class \'gluon.html.BODY\'>, \'BR\': <class \'gluon.html.BR\'>, \'BUTTON\': <class \'gluon.html.BUTTON\'>, \'Blog\': <Table blog (id,title,description)>, \'CAT\': <class \'gluon.html.CAT\'>, \'CENTER\': <class \'gluon.html.CENTER\'>, ...}, layer=\'/var/www/web2py_curso/applications/projeto/models/validators.py\')'
p4576
sS'func'
p4577
S'restricted'
p4578
sa(dp4579
g4554
S'/var/www/web2py_curso/applications/projeto/models/validators.py'
p4580
sg4556
(dp4581
S'Post'
p4582
S'<Table post (id,blog,title,slug,post_body,post_d...e,created_on,created_by,modified_on,modified_by)>'
p4583
sS'IS_IN_DB'
p4584
S"<class 'gluon.validators.IS_IN_DB'>"
p4585
sS'db'
p4586
S'<DAL uri="sqlite://projeto.sqlite">'
p4587
sS'Post.created_by'
p4588
S'<gluon.dal.Field object>'
p4589
ssg4562
I9
sg4563
(dp4590
I1
S''
sI2
S'Post.blog.requires = IS_IN_DB(db, \'blog.id\', "%(title)s")'
p4591
sI3
S'Post.title.requires = [IS_NOT_EMPTY(error_message=T("Esta vazio!")),'
p4592
sI4
S'                       IS_NOT_IN_DB(db, \'post.title\', error_message=T("title already exists"))]'
p4593
sI5
S'Post.category.requires = IS_IN_DB(db, \'category.id\', "%(name)s", multiple=True)'
p4594
sI6
S'#Post.category.widget = SQLFORM.widgets.checkboxes.widget'
p4595
sI7
S'Post.slug.compute = lambda registro: IS_SLUG()(registro.title)[1]'
p4596
sI8
S''
sI9
S'Post.created_by = IS_IN_DB(db, \'auth_user.id\', "%(first_name)s")'
p4597
ssg4575
S'()'
p4598
sg4577
S'<module>'
p4599
sa(dp4600
g4554
S'/var/www/web2py_curso/gluon/dal.py'
p4601
sg4556
(dp4602
S'builtinSyntaxError'
p4603
S"<type 'exceptions.SyntaxError'>"
p4604
sS'key'
p4605
S"'created_by'"
p4606
ssg4562
I7804
sg4563
(dp4607
I7808
S'        if isinstance(key, dict):'
p4608
sI7799
S''
sI7800
S'    __getattr__ = __getitem__'
p4609
sI7801
S''
sI7802
S'    def __setattr__(self, key, value):'
p4610
sI7803
S"        if key[:1]!='_' and key in self:"
p4611
sI7804
S"            raise SyntaxError('Object exists and cannot be redefined: %s' % key)"
p4612
sI7805
S'        osetattr(self,key,value)'
p4613
sI7806
S''
sI7807
S'    def __delitem__(self, key):'
p4614
ssg4575
S"(self=<Table post (id,blog,title,slug,post_body,post_d...e,created_on,created_by,modified_on,modified_by)>, key='created_by', value=<gluon.validators.IS_IN_DB object>)"
p4615
sg4577
g26
sasS'pyver'
p4616
S'Python 2.7.3: /usr/bin/python'
p4617
sS'session'
p4618
g69
(g70
g71
NtRp4619
(dp4620
g74
(dp4621
sg76
(lp4622
g69
(g78
g71
NtRp4623
(dp4624
g74
(dp4625
g82
I5
ssg83
Nsg76
(lp4626
g69
(g85
g71
NtRp4627
(dp4628
g74
(dp4629
sg83
g4623
sg76
(lp4630
g69
(g90
g71
NtRp4631
(dp4632
g74
(dp4633
g94
g95
ssg83
g4627
sg76
(lp4634
S'auth'
p4635
asbag69
(g90
g71
NtRp4636
(dp4637
g74
(dp4638
g101
g102
ssg83
g4627
sg76
(lp4639
S':'
asbag69
(g90
g71
NtRp4640
(dp4641
g74
(dp4642
sg83
g4627
sg76
(lp4643
g69
(g70
g71
NtRp4644
(dp4645
g74
(dp4646
g82
I5
ssg83
g4640
sg76
(lp4647
g69
(g78
g71
NtRp4648
(dp4649
g74
(dp4650
g82
I4
ssg83
Nsg76
(lp4651
g69
(g85
g71
NtRp4652
(dp4653
g74
(dp4654
sg83
g4648
sg76
(lp4655
g69
(g90
g71
NtRp4656
(dp4657
g74
(dp4658
g94
g95
ssg83
g4652
sg76
(lp4659
S'expiration'
p4660
asbag69
(g90
g71
NtRp4661
(dp4662
g74
(dp4663
g101
g102
ssg83
g4652
sg76
(lp4664
S':'
asbag69
(g90
g71
NtRp4665
(dp4666
g74
(dp4667
sg83
g4652
sg76
(lp4668
g69
(g70
g71
NtRp4669
(dp4670
g74
(dp4671
g82
I4
ssg83
g4665
sg76
(lp4672
S'3600'
p4673
asbasbasbag69
(g85
g71
NtRp4674
(dp4675
g74
(dp4676
sg83
g4648
sg76
(lp4677
g69
(g90
g71
NtRp4678
(dp4679
g74
(dp4680
g94
g95
ssg83
g4674
sg76
(lp4681
S'hmac_key'
p4682
asbag69
(g90
g71
NtRp4683
(dp4684
g74
(dp4685
g101
g102
ssg83
g4674
sg76
(lp4686
S':'
asbag69
(g90
g71
NtRp4687
(dp4688
g74
(dp4689
sg83
g4674
sg76
(lp4690
g69
(g70
g71
NtRp4691
(dp4692
g74
(dp4693
g82
I4
ssg83
g4687
sg76
(lp4694
S'06d5f56b-88f9-4901-9c78-d174d90978a3'
p4695
asbasbasbag69
(g85
g71
NtRp4696
(dp4697
g74
(dp4698
sg83
g4648
sg76
(lp4699
g69
(g90
g71
NtRp4700
(dp4701
g74
(dp4702
g94
g95
ssg83
g4696
sg76
(lp4703
S'last_visit'
p4704
asbag69
(g90
g71
NtRp4705
(dp4706
g74
(dp4707
g101
g102
ssg83
g4696
sg76
(lp4708
S':'
asbag69
(g90
g71
NtRp4709
(dp4710
g74
(dp4711
sg83
g4696
sg76
(lp4712
g69
(g70
g71
NtRp4713
(dp4714
g74
(dp4715
g82
I4
ssg83
g4709
sg76
(lp4716
S'datetime.datetime(2013, 2, 4, 11, 50, 10, 418538)'
p4717
asbasbasbag69
(g85
g71
NtRp4718
(dp4719
g74
(dp4720
sg83
g4648
sg76
(lp4721
g69
(g90
g71
NtRp4722
(dp4723
g74
(dp4724
g94
g95
ssg83
g4718
sg76
(lp4725
S'remember'
p4726
asbag69
(g90
g71
NtRp4727
(dp4728
g74
(dp4729
g101
g102
ssg83
g4718
sg76
(lp4730
S':'
asbag69
(g90
g71
NtRp4731
(dp4732
g74
(dp4733
sg83
g4718
sg76
(lp4734
g69
(g70
g71
NtRp4735
(dp4736
g74
(dp4737
g82
I4
ssg83
g4731
sg76
(lp4738
g112
asbasbasbag69
(g85
g71
NtRp4739
(dp4740
g74
(dp4741
sg83
g4648
sg76
(lp4742
g69
(g90
g71
NtRp4743
(dp4744
g74
(dp4745
g94
g95
ssg83
g4739
sg76
(lp4746
S'user'
p4747
asbag69
(g90
g71
NtRp4748
(dp4749
g74
(dp4750
g101
g102
ssg83
g4739
sg76
(lp4751
S':'
asbag69
(g90
g71
NtRp4752
(dp4753
g74
(dp4754
sg83
g4739
sg76
(lp4755
g69
(g70
g71
NtRp4756
(dp4757
g74
(dp4758
g82
I4
ssg83
g4752
sg76
(lp4759
g69
(g78
g71
NtRp4760
(dp4761
g74
(dp4762
g82
I3
ssg83
Nsg76
(lp4763
g69
(g85
g71
NtRp4764
(dp4765
g74
(dp4766
sg83
g4760
sg76
(lp4767
g69
(g90
g71
NtRp4768
(dp4769
g74
(dp4770
g94
g95
ssg83
g4764
sg76
(lp4771
S'bio'
p4772
asbag69
(g90
g71
NtRp4773
(dp4774
g74
(dp4775
g101
g102
ssg83
g4764
sg76
(lp4776
S':'
asbag69
(g90
g71
NtRp4777
(dp4778
g74
(dp4779
sg83
g4764
sg76
(lp4780
g69
(g70
g71
NtRp4781
(dp4782
g74
(dp4783
g82
I3
ssg83
g4777
sg76
(lp4784
S'None'
p4785
asbasbasbag69
(g85
g71
NtRp4786
(dp4787
g74
(dp4788
sg83
g4760
sg76
(lp4789
g69
(g90
g71
NtRp4790
(dp4791
g74
(dp4792
g94
g95
ssg83
g4786
sg76
(lp4793
S'email'
p4794
asbag69
(g90
g71
NtRp4795
(dp4796
g74
(dp4797
g101
g102
ssg83
g4786
sg76
(lp4798
S':'
asbag69
(g90
g71
NtRp4799
(dp4800
g74
(dp4801
sg83
g4786
sg76
(lp4802
g69
(g70
g71
NtRp4803
(dp4804
g74
(dp4805
g82
I3
ssg83
g4799
sg76
(lp4806
S'fernando@ad2.com.br'
p4807
asbasbasbag69
(g85
g71
NtRp4808
(dp4809
g74
(dp4810
sg83
g4760
sg76
(lp4811
g69
(g90
g71
NtRp4812
(dp4813
g74
(dp4814
g94
g95
ssg83
g4808
sg76
(lp4815
S'first_name'
p4816
asbag69
(g90
g71
NtRp4817
(dp4818
g74
(dp4819
g101
g102
ssg83
g4808
sg76
(lp4820
S':'
asbag69
(g90
g71
NtRp4821
(dp4822
g74
(dp4823
sg83
g4808
sg76
(lp4824
g69
(g70
g71
NtRp4825
(dp4826
g74
(dp4827
g82
I3
ssg83
g4821
sg76
(lp4828
S'Dend'
p4829
asbasbasbag69
(g85
g71
NtRp4830
(dp4831
g74
(dp4832
sg83
g4760
sg76
(lp4833
g69
(g90
g71
NtRp4834
(dp4835
g74
(dp4836
g94
g95
ssg83
g4830
sg76
(lp4837
S'gender'
p4838
asbag69
(g90
g71
NtRp4839
(dp4840
g74
(dp4841
g101
g102
ssg83
g4830
sg76
(lp4842
S':'
asbag69
(g90
g71
NtRp4843
(dp4844
g74
(dp4845
sg83
g4830
sg76
(lp4846
g69
(g70
g71
NtRp4847
(dp4848
g74
(dp4849
g82
I3
ssg83
g4843
sg76
(lp4850
S'masculino'
p4851
asbasbasbag69
(g85
g71
NtRp4852
(dp4853
g74
(dp4854
sg83
g4760
sg76
(lp4855
g69
(g90
g71
NtRp4856
(dp4857
g74
(dp4858
g94
g95
ssg83
g4852
sg76
(lp4859
S'id'
p4860
asbag69
(g90
g71
NtRp4861
(dp4862
g74
(dp4863
g101
g102
ssg83
g4852
sg76
(lp4864
S':'
asbag69
(g90
g71
NtRp4865
(dp4866
g74
(dp4867
sg83
g4852
sg76
(lp4868
g69
(g70
g71
NtRp4869
(dp4870
g74
(dp4871
g82
I3
ssg83
g4865
sg76
(lp4872
S'5'
asbasbasbag69
(g85
g71
NtRp4873
(dp4874
g74
(dp4875
sg83
g4760
sg76
(lp4876
g69
(g90
g71
NtRp4877
(dp4878
g74
(dp4879
g94
g95
ssg83
g4873
sg76
(lp4880
S'last_name'
p4881
asbag69
(g90
g71
NtRp4882
(dp4883
g74
(dp4884
g101
g102
ssg83
g4873
sg76
(lp4885
S':'
asbag69
(g90
g71
NtRp4886
(dp4887
g74
(dp4888
sg83
g4873
sg76
(lp4889
g69
(g70
g71
NtRp4890
(dp4891
g74
(dp4892
g82
I3
ssg83
g4886
sg76
(lp4893
S'delkson'
p4894
asbasbasbag69
(g85
g71
NtRp4895
(dp4896
g74
(dp4897
sg83
g4760
sg76
(lp4898
g69
(g90
g71
NtRp4899
(dp4900
g74
(dp4901
g94
g95
ssg83
g4895
sg76
(lp4902
S'photo'
p4903
asbag69
(g90
g71
NtRp4904
(dp4905
g74
(dp4906
g101
g102
ssg83
g4895
sg76
(lp4907
S':'
asbag69
(g90
g71
NtRp4908
(dp4909
g74
(dp4910
sg83
g4895
sg76
(lp4911
g69
(g70
g71
NtRp4912
(dp4913
g74
(dp4914
g82
I3
ssg83
g4908
sg76
(lp4915
S'auth_user.photo.852c1e9d624a7670.746563686e6f6c6f676965735f7068702e706e67.png'
p4916
asbasbasbag69
(g85
g71
NtRp4917
(dp4918
g74
(dp4919
sg83
g4760
sg76
(lp4920
g69
(g90
g71
NtRp4921
(dp4922
g74
(dp4923
g94
g95
ssg83
g4917
sg76
(lp4924
S'registration_id'
p4925
asbag69
(g90
g71
NtRp4926
(dp4927
g74
(dp4928
g101
g102
ssg83
g4917
sg76
(lp4929
S':'
asbag69
(g90
g71
NtRp4930
(dp4931
g74
(dp4932
sg83
g4917
sg76
(lp4933
g69
(g70
g71
NtRp4934
(dp4935
g74
(dp4936
g82
I3
ssg83
g4930
sg76
(lp4937
S''
asbasbasbag69
(g85
g71
NtRp4938
(dp4939
g74
(dp4940
sg83
g4760
sg76
(lp4941
g69
(g90
g71
NtRp4942
(dp4943
g74
(dp4944
g94
g95
ssg83
g4938
sg76
(lp4945
S'registration_key'
p4946
asbag69
(g90
g71
NtRp4947
(dp4948
g74
(dp4949
g101
g102
ssg83
g4938
sg76
(lp4950
S':'
asbag69
(g90
g71
NtRp4951
(dp4952
g74
(dp4953
sg83
g4938
sg76
(lp4954
g69
(g70
g71
NtRp4955
(dp4956
g74
(dp4957
g82
I3
ssg83
g4951
sg76
(lp4958
S''
asbasbasbag69
(g85
g71
NtRp4959
(dp4960
g74
(dp4961
sg83
g4760
sg76
(lp4962
g69
(g90
g71
NtRp4963
(dp4964
g74
(dp4965
g94
g95
ssg83
g4959
sg76
(lp4966
S'reset_password_key'
p4967
asbag69
(g90
g71
NtRp4968
(dp4969
g74
(dp4970
g101
g102
ssg83
g4959
sg76
(lp4971
S':'
asbag69
(g90
g71
NtRp4972
(dp4973
g74
(dp4974
sg83
g4959
sg76
(lp4975
g69
(g70
g71
NtRp4976
(dp4977
g74
(dp4978
g82
I3
ssg83
g4972
sg76
(lp4979
S''
asbasbasbasbasbasbasbag69
(g85
g71
NtRp4980
(dp4981
g74
(dp4982
sg83
g4648
sg76
(lp4983
g69
(g90
g71
NtRp4984
(dp4985
g74
(dp4986
g94
g95
ssg83
g4980
sg76
(lp4987
S'user_groups'
p4988
asbag69
(g90
g71
NtRp4989
(dp4990
g74
(dp4991
g101
g102
ssg83
g4980
sg76
(lp4992
S':'
asbag69
(g90
g71
NtRp4993
(dp4994
g74
(dp4995
sg83
g4980
sg76
(lp4996
g69
(g70
g71
NtRp4997
(dp4998
g74
(dp4999
g82
I4
ssg83
g4993
sg76
(lp5000
g69
(g78
g71
NtRp5001
(dp5002
g74
(dp5003
g82
I3
ssg83
Nsg76
(lp5004
g69
(g85
g71
NtRp5005
(dp5006
g74
(dp5007
sg83
g5001
sg76
(lp5008
g69
(g90
g71
NtRp5009
(dp5010
g74
(dp5011
g94
g95
ssg83
g5005
sg76
(lp5012
S'5'
asbag69
(g90
g71
NtRp5013
(dp5014
g74
(dp5015
g101
g102
ssg83
g5005
sg76
(lp5016
S':'
asbag69
(g90
g71
NtRp5017
(dp5018
g74
(dp5019
sg83
g5005
sg76
(lp5020
g69
(g70
g71
NtRp5021
(dp5022
g74
(dp5023
g82
I3
ssg83
g5017
sg76
(lp5024
S'user_5'
p5025
asbasbasbag69
(g85
g71
NtRp5026
(dp5027
g74
(dp5028
sg83
g5001
sg76
(lp5029
g69
(g90
g71
NtRp5030
(dp5031
g74
(dp5032
g94
g95
ssg83
g5026
sg76
(lp5033
S'7'
asbag69
(g90
g71
NtRp5034
(dp5035
g74
(dp5036
g101
g102
ssg83
g5026
sg76
(lp5037
S':'
asbag69
(g90
g71
NtRp5038
(dp5039
g74
(dp5040
sg83
g5026
sg76
(lp5041
g69
(g70
g71
NtRp5042
(dp5043
g74
(dp5044
g82
I3
ssg83
g5038
sg76
(lp5045
S'admin'
p5046
asbasbasbasbasbasbasbasbasbasbasbag69
(g85
g71
NtRp5047
(dp5048
g74
(dp5049
sg83
g4623
sg76
(lp5050
g69
(g90
g71
NtRp5051
(dp5052
g74
(dp5053
g94
g95
ssg83
g5047
sg76
(lp5054
S'flash'
p5055
asbag69
(g90
g71
NtRp5056
(dp5057
g74
(dp5058
g101
g102
ssg83
g5047
sg76
(lp5059
S':'
asbag69
(g90
g71
NtRp5060
(dp5061
g74
(dp5062
sg83
g5047
sg76
(lp5063
g69
(g70
g71
NtRp5064
(dp5065
g74
(dp5066
g82
I5
ssg83
g5060
sg76
(lp5067
S'None'
p5068
asbasbasbag69
(g85
g71
NtRp5069
(dp5070
g74
(dp5071
sg83
g4623
sg76
(lp5072
g69
(g90
g71
NtRp5073
(dp5074
g74
(dp5075
g94
g95
ssg83
g5069
sg76
(lp5076
S'last_orderby'
p5077
asbag69
(g90
g71
NtRp5078
(dp5079
g74
(dp5080
g101
g102
ssg83
g5069
sg76
(lp5081
S':'
asbag69
(g90
g71
NtRp5082
(dp5083
g74
(dp5084
sg83
g5069
sg76
(lp5085
g69
(g70
g71
NtRp5086
(dp5087
g74
(dp5088
g82
I5
ssg83
g5082
sg76
(lp5089
S'None'
p5090
asbasbasbag69
(g85
g71
NtRp5091
(dp5092
g74
(dp5093
sg83
g4623
sg76
(lp5094
g69
(g90
g71
NtRp5095
(dp5096
g74
(dp5097
g94
g95
ssg83
g5091
sg76
(lp5098
S'last_query'
p5099
asbag69
(g90
g71
NtRp5100
(dp5101
g74
(dp5102
g101
g102
ssg83
g5091
sg76
(lp5103
S':'
asbag69
(g90
g71
NtRp5104
(dp5105
g74
(dp5106
sg83
g5091
sg76
(lp5107
g69
(g70
g71
NtRp5108
(dp5109
g74
(dp5110
g82
I5
ssg83
g5104
sg76
(lp5111
S'db.auth_user.id>0'
p5112
asbasbasbasbasbsS'etype'
p5113
S"<type 'exceptions.SyntaxError'>"
p5114
sS'date'
p5115
S'Mon Feb  4 11:54:46 2013'
p5116
sS'response'
p5117
g69
(g70
g71
NtRp5118
(dp5119
g74
(dp5120
sg76
(lp5121
g69
(g78
g71
NtRp5122
(dp5123
g74
(dp5124
g82
I5
ssg83
Nsg76
(lp5125
g69
(g85
g71
NtRp5126
(dp5127
g74
(dp5128
sg83
g5122
sg76
(lp5129
g69
(g90
g71
NtRp5130
(dp5131
g74
(dp5132
g94
g95
ssg83
g5126
sg76
(lp5133
g167
asbag69
(g90
g71
NtRp5134
(dp5135
g74
(dp5136
g101
g102
ssg83
g5126
sg76
(lp5137
S':'
asbag69
(g90
g71
NtRp5138
(dp5139
g74
(dp5140
sg83
g5126
sg76
(lp5141
g69
(g70
g71
NtRp5142
(dp5143
g74
(dp5144
g82
I5
ssg83
g5138
sg76
(lp5145
S'<cStringIO.StringO object at 0x7fb4b42de9d0>'
p5146
asbasbasbag69
(g85
g71
NtRp5147
(dp5148
g74
(dp5149
sg83
g5122
sg76
(lp5150
g69
(g90
g71
NtRp5151
(dp5152
g74
(dp5153
g94
g95
ssg83
g5147
sg76
(lp5154
g255
asbag69
(g90
g71
NtRp5155
(dp5156
g74
(dp5157
g101
g102
ssg83
g5147
sg76
(lp5158
S':'
asbag69
(g90
g71
NtRp5159
(dp5160
g74
(dp5161
sg83
g5147
sg76
(lp5162
g69
(g70
g71
NtRp5163
(dp5164
g74
(dp5165
g82
I5
ssg83
g5159
sg76
(lp5166
g69
(g78
g71
NtRp5167
(dp5168
g74
(dp5169
g82
I4
ssg83
Nsg76
(lp5170
g69
(g85
g71
NtRp5171
(dp5172
g74
(dp5173
sg83
g5167
sg76
(lp5174
g69
(g90
g71
NtRp5175
(dp5176
g74
(dp5177
g94
g95
ssg83
g5171
sg76
(lp5178
S'session_id_projeto'
p5179
asbag69
(g90
g71
NtRp5180
(dp5181
g74
(dp5182
g101
g102
ssg83
g5171
sg76
(lp5183
S':'
asbag69
(g90
g71
NtRp5184
(dp5185
g74
(dp5186
sg83
g5171
sg76
(lp5187
g69
(g70
g71
NtRp5188
(dp5189
g74
(dp5190
g82
I4
ssg83
g5184
sg76
(lp5191
g1787
ag69
(g78
g71
NtRp5192
(dp5193
g74
(dp5194
g82
I3
ssg83
Nsg76
(lp5195
g69
(g85
g71
NtRp5196
(dp5197
g74
(dp5198
sg83
g5192
sg76
(lp5199
g69
(g90
g71
NtRp5200
(dp5201
g74
(dp5202
g94
g95
ssg83
g5196
sg76
(lp5203
g306
asbag69
(g90
g71
NtRp5204
(dp5205
g74
(dp5206
g101
g102
ssg83
g5196
sg76
(lp5207
S':'
asbag69
(g90
g71
NtRp5208
(dp5209
g74
(dp5210
sg83
g5196
sg76
(lp5211
g69
(g70
g71
NtRp5212
(dp5213
g74
(dp5214
g82
I3
ssg83
g5208
sg76
(lp5215
S''
asbasbasbag69
(g85
g71
NtRp5216
(dp5217
g74
(dp5218
sg83
g5192
sg76
(lp5219
g69
(g90
g71
NtRp5220
(dp5221
g74
(dp5222
g94
g95
ssg83
g5216
sg76
(lp5223
g327
asbag69
(g90
g71
NtRp5224
(dp5225
g74
(dp5226
g101
g102
ssg83
g5216
sg76
(lp5227
S':'
asbag69
(g90
g71
NtRp5228
(dp5229
g74
(dp5230
sg83
g5216
sg76
(lp5231
g69
(g70
g71
NtRp5232
(dp5233
g74
(dp5234
g82
I3
ssg83
g5228
sg76
(lp5235
S''
asbasbasbag69
(g85
g71
NtRp5236
(dp5237
g74
(dp5238
sg83
g5192
sg76
(lp5239
g69
(g90
g71
NtRp5240
(dp5241
g74
(dp5242
g94
g95
ssg83
g5236
sg76
(lp5243
g348
asbag69
(g90
g71
NtRp5244
(dp5245
g74
(dp5246
g101
g102
ssg83
g5236
sg76
(lp5247
S':'
asbag69
(g90
g71
NtRp5248
(dp5249
g74
(dp5250
sg83
g5236
sg76
(lp5251
g69
(g70
g71
NtRp5252
(dp5253
g74
(dp5254
g82
I3
ssg83
g5248
sg76
(lp5255
S''
asbasbasbag69
(g85
g71
NtRp5256
(dp5257
g74
(dp5258
sg83
g5192
sg76
(lp5259
g69
(g90
g71
NtRp5260
(dp5261
g74
(dp5262
g94
g95
ssg83
g5256
sg76
(lp5263
g369
asbag69
(g90
g71
NtRp5264
(dp5265
g74
(dp5266
g101
g102
ssg83
g5256
sg76
(lp5267
S':'
asbag69
(g90
g71
NtRp5268
(dp5269
g74
(dp5270
sg83
g5256
sg76
(lp5271
g69
(g70
g71
NtRp5272
(dp5273
g74
(dp5274
g82
I3
ssg83
g5268
sg76
(lp5275
S''
asbasbasbag69
(g85
g71
NtRp5276
(dp5277
g74
(dp5278
sg83
g5192
sg76
(lp5279
g69
(g90
g71
NtRp5280
(dp5281
g74
(dp5282
g94
g95
ssg83
g5276
sg76
(lp5283
g390
asbag69
(g90
g71
NtRp5284
(dp5285
g74
(dp5286
g101
g102
ssg83
g5276
sg76
(lp5287
S':'
asbag69
(g90
g71
NtRp5288
(dp5289
g74
(dp5290
sg83
g5276
sg76
(lp5291
g69
(g70
g71
NtRp5292
(dp5293
g74
(dp5294
g82
I3
ssg83
g5288
sg76
(lp5295
S''
asbasbasbag69
(g85
g71
NtRp5296
(dp5297
g74
(dp5298
sg83
g5192
sg76
(lp5299
g69
(g90
g71
NtRp5300
(dp5301
g74
(dp5302
g94
g95
ssg83
g5296
sg76
(lp5303
g411
asbag69
(g90
g71
NtRp5304
(dp5305
g74
(dp5306
g101
g102
ssg83
g5296
sg76
(lp5307
S':'
asbag69
(g90
g71
NtRp5308
(dp5309
g74
(dp5310
sg83
g5296
sg76
(lp5311
g69
(g70
g71
NtRp5312
(dp5313
g74
(dp5314
g82
I3
ssg83
g5308
sg76
(lp5315
S'/'
asbasbasbag69
(g85
g71
NtRp5316
(dp5317
g74
(dp5318
sg83
g5192
sg76
(lp5319
g69
(g90
g71
NtRp5320
(dp5321
g74
(dp5322
g94
g95
ssg83
g5316
sg76
(lp5323
g432
asbag69
(g90
g71
NtRp5324
(dp5325
g74
(dp5326
g101
g102
ssg83
g5316
sg76
(lp5327
S':'
asbag69
(g90
g71
NtRp5328
(dp5329
g74
(dp5330
sg83
g5316
sg76
(lp5331
g69
(g70
g71
NtRp5332
(dp5333
g74
(dp5334
g82
I3
ssg83
g5328
sg76
(lp5335
S''
asbasbasbag69
(g85
g71
NtRp5336
(dp5337
g74
(dp5338
sg83
g5192
sg76
(lp5339
g69
(g90
g71
NtRp5340
(dp5341
g74
(dp5342
g94
g95
ssg83
g5336
sg76
(lp5343
g453
asbag69
(g90
g71
NtRp5344
(dp5345
g74
(dp5346
g101
g102
ssg83
g5336
sg76
(lp5347
S':'
asbag69
(g90
g71
NtRp5348
(dp5349
g74
(dp5350
sg83
g5336
sg76
(lp5351
g69
(g70
g71
NtRp5352
(dp5353
g74
(dp5354
g82
I3
ssg83
g5348
sg76
(lp5355
S''
asbasbasbasbasbasbasbasbasbasbasbag69
(g85
g71
NtRp5356
(dp5357
g74
(dp5358
sg83
g5122
sg76
(lp5359
g69
(g90
g71
NtRp5360
(dp5361
g74
(dp5362
g94
g95
ssg83
g5356
sg76
(lp5363
S'delimiters'
p5364
asbag69
(g90
g71
NtRp5365
(dp5366
g74
(dp5367
g101
g102
ssg83
g5356
sg76
(lp5368
S':'
asbag69
(g90
g71
NtRp5369
(dp5370
g74
(dp5371
sg83
g5356
sg76
(lp5372
g69
(g70
g71
NtRp5373
(dp5374
g74
(dp5375
g82
I5
ssg83
g5369
sg76
(lp5376
g69
(g78
g71
NtRp5377
(dp5378
g74
(dp5379
g82
I4
ssg83
Nsg76
(lp5380
g69
(g85
g71
NtRp5381
(dp5382
g74
(dp5383
sg83
g5377
sg76
(lp5384
g69
(g90
g71
NtRp5385
(dp5386
g74
(dp5387
sg83
g5381
sg76
(lp5388
g69
(g70
g71
NtRp5389
(dp5390
g74
(dp5391
g82
I4
ssg83
g5385
sg76
(lp5392
S'{{'
p5393
asbasbasbag69
(g85
g71
NtRp5394
(dp5395
g74
(dp5396
sg83
g5377
sg76
(lp5397
g69
(g90
g71
NtRp5398
(dp5399
g74
(dp5400
sg83
g5394
sg76
(lp5401
g69
(g70
g71
NtRp5402
(dp5403
g74
(dp5404
g82
I4
ssg83
g5398
sg76
(lp5405
S'}}'
p5406
asbasbasbasbasbasbasbag69
(g85
g71
NtRp5407
(dp5408
g74
(dp5409
sg83
g5122
sg76
(lp5410
g69
(g90
g71
NtRp5411
(dp5412
g74
(dp5413
g94
g95
ssg83
g5407
sg76
(lp5414
S'files'
p5415
asbag69
(g90
g71
NtRp5416
(dp5417
g74
(dp5418
g101
g102
ssg83
g5407
sg76
(lp5419
S':'
asbag69
(g90
g71
NtRp5420
(dp5421
g74
(dp5422
sg83
g5407
sg76
(lp5423
g69
(g70
g71
NtRp5424
(dp5425
g74
(dp5426
g82
I5
ssg83
g5420
sg76
(lp5427
g69
(g78
g71
NtRp5428
(dp5429
g74
(dp5430
g82
I4
ssg83
Nsg76
(lp5431
sbasbasbasbag69
(g85
g71
NtRp5432
(dp5433
g74
(dp5434
sg83
g5122
sg76
(lp5435
g69
(g90
g71
NtRp5436
(dp5437
g74
(dp5438
g94
g95
ssg83
g5432
sg76
(lp5439
S'flash'
p5440
asbag69
(g90
g71
NtRp5441
(dp5442
g74
(dp5443
g101
g102
ssg83
g5432
sg76
(lp5444
S':'
asbag69
(g90
g71
NtRp5445
(dp5446
g74
(dp5447
sg83
g5432
sg76
(lp5448
g69
(g70
g71
NtRp5449
(dp5450
g74
(dp5451
g82
I5
ssg83
g5445
sg76
(lp5452
S''
asbasbasbag69
(g85
g71
NtRp5453
(dp5454
g74
(dp5455
sg83
g5122
sg76
(lp5456
g69
(g90
g71
NtRp5457
(dp5458
g74
(dp5459
g94
g95
ssg83
g5453
sg76
(lp5460
S'generic_patterns'
p5461
asbag69
(g90
g71
NtRp5462
(dp5463
g74
(dp5464
g101
g102
ssg83
g5453
sg76
(lp5465
S':'
asbag69
(g90
g71
NtRp5466
(dp5467
g74
(dp5468
sg83
g5453
sg76
(lp5469
g69
(g70
g71
NtRp5470
(dp5471
g74
(dp5472
g82
I5
ssg83
g5466
sg76
(lp5473
g69
(g78
g71
NtRp5474
(dp5475
g74
(dp5476
g82
I4
ssg83
Nsg76
(lp5477
g69
(g85
g71
NtRp5478
(dp5479
g74
(dp5480
sg83
g5474
sg76
(lp5481
g69
(g90
g71
NtRp5482
(dp5483
g74
(dp5484
sg83
g5478
sg76
(lp5485
g69
(g70
g71
NtRp5486
(dp5487
g74
(dp5488
g82
I4
ssg83
g5482
sg76
(lp5489
S'*'
asbasbasbasbasbasbasbag69
(g85
g71
NtRp5490
(dp5491
g74
(dp5492
sg83
g5122
sg76
(lp5493
g69
(g90
g71
NtRp5494
(dp5495
g74
(dp5496
g94
g95
ssg83
g5490
sg76
(lp5497
S'headers'
p5498
asbag69
(g90
g71
NtRp5499
(dp5500
g74
(dp5501
g101
g102
ssg83
g5490
sg76
(lp5502
S':'
asbag69
(g90
g71
NtRp5503
(dp5504
g74
(dp5505
sg83
g5490
sg76
(lp5506
g69
(g70
g71
NtRp5507
(dp5508
g74
(dp5509
g82
I5
ssg83
g5503
sg76
(lp5510
g69
(g78
g71
NtRp5511
(dp5512
g74
(dp5513
g82
I4
ssg83
Nsg76
(lp5514
g69
(g85
g71
NtRp5515
(dp5516
g74
(dp5517
sg83
g5511
sg76
(lp5518
g69
(g90
g71
NtRp5519
(dp5520
g74
(dp5521
g94
g95
ssg83
g5515
sg76
(lp5522
S'X-Powered-By'
p5523
asbag69
(g90
g71
NtRp5524
(dp5525
g74
(dp5526
g101
g102
ssg83
g5515
sg76
(lp5527
S':'
asbag69
(g90
g71
NtRp5528
(dp5529
g74
(dp5530
sg83
g5515
sg76
(lp5531
g69
(g70
g71
NtRp5532
(dp5533
g74
(dp5534
g82
I4
ssg83
g5528
sg76
(lp5535
S'web2py'
p5536
asbasbasbasbasbasbasbag69
(g85
g71
NtRp5537
(dp5538
g74
(dp5539
sg83
g5122
sg76
(lp5540
g69
(g90
g71
NtRp5541
(dp5542
g74
(dp5543
g94
g95
ssg83
g5537
sg76
(lp5544
S'menu'
p5545
asbag69
(g90
g71
NtRp5546
(dp5547
g74
(dp5548
g101
g102
ssg83
g5537
sg76
(lp5549
S':'
asbag69
(g90
g71
NtRp5550
(dp5551
g74
(dp5552
sg83
g5537
sg76
(lp5553
g69
(g70
g71
NtRp5554
(dp5555
g74
(dp5556
g82
I5
ssg83
g5550
sg76
(lp5557
g69
(g78
g71
NtRp5558
(dp5559
g74
(dp5560
g82
I4
ssg83
Nsg76
(lp5561
sbasbasbasbag69
(g85
g71
NtRp5562
(dp5563
g74
(dp5564
sg83
g5122
sg76
(lp5565
g69
(g90
g71
NtRp5566
(dp5567
g74
(dp5568
g94
g95
ssg83
g5562
sg76
(lp5569
S'meta'
p5570
asbag69
(g90
g71
NtRp5571
(dp5572
g74
(dp5573
g101
g102
ssg83
g5562
sg76
(lp5574
S':'
asbag69
(g90
g71
NtRp5575
(dp5576
g74
(dp5577
sg83
g5562
sg76
(lp5578
g69
(g70
g71
NtRp5579
(dp5580
g74
(dp5581
g82
I5
ssg83
g5575
sg76
(lp5582
g69
(g78
g71
NtRp5583
(dp5584
g74
(dp5585
g82
I4
ssg83
Nsg76
(lp5586
g69
(g85
g71
NtRp5587
(dp5588
g74
(dp5589
sg83
g5583
sg76
(lp5590
g69
(g90
g71
NtRp5591
(dp5592
g74
(dp5593
g94
g95
ssg83
g5587
sg76
(lp5594
S'description'
p5595
asbag69
(g90
g71
NtRp5596
(dp5597
g74
(dp5598
g101
g102
ssg83
g5587
sg76
(lp5599
S':'
asbag69
(g90
g71
NtRp5600
(dp5601
g74
(dp5602
sg83
g5587
sg76
(lp5603
g69
(g70
g71
NtRp5604
(dp5605
g74
(dp5606
g82
I4
ssg83
g5600
sg76
(lp5607
S'blog do shedon'
p5608
asbasbasbag69
(g85
g71
NtRp5609
(dp5610
g74
(dp5611
sg83
g5583
sg76
(lp5612
g69
(g90
g71
NtRp5613
(dp5614
g74
(dp5615
g94
g95
ssg83
g5609
sg76
(lp5616
S'keywords'
p5617
asbag69
(g90
g71
NtRp5618
(dp5619
g74
(dp5620
g101
g102
ssg83
g5609
sg76
(lp5621
S':'
asbag69
(g90
g71
NtRp5622
(dp5623
g74
(dp5624
sg83
g5609
sg76
(lp5625
g69
(g70
g71
NtRp5626
(dp5627
g74
(dp5628
g82
I4
ssg83
g5622
sg76
(lp5629
S'chave, outra, e utra'
p5630
asbasbasbasbasbasbasbag69
(g85
g71
NtRp5631
(dp5632
g74
(dp5633
sg83
g5122
sg76
(lp5634
g69
(g90
g71
NtRp5635
(dp5636
g74
(dp5637
g94
g95
ssg83
g5631
sg76
(lp5638
S'models_to_run'
p5639
asbag69
(g90
g71
NtRp5640
(dp5641
g74
(dp5642
g101
g102
ssg83
g5631
sg76
(lp5643
S':'
asbag69
(g90
g71
NtRp5644
(dp5645
g74
(dp5646
sg83
g5631
sg76
(lp5647
g69
(g70
g71
NtRp5648
(dp5649
g74
(dp5650
g82
I5
ssg83
g5644
sg76
(lp5651
g69
(g78
g71
NtRp5652
(dp5653
g74
(dp5654
g82
I4
ssg83
Nsg76
(lp5655
g69
(g85
g71
NtRp5656
(dp5657
g74
(dp5658
sg83
g5652
sg76
(lp5659
g69
(g90
g71
NtRp5660
(dp5661
g74
(dp5662
sg83
g5656
sg76
(lp5663
g69
(g70
g71
NtRp5664
(dp5665
g74
(dp5666
g82
I4
ssg83
g5660
sg76
(lp5667
S'^\\w+\\.py$'
p5668
asbasbasbag69
(g85
g71
NtRp5669
(dp5670
g74
(dp5671
sg83
g5652
sg76
(lp5672
g69
(g90
g71
NtRp5673
(dp5674
g74
(dp5675
sg83
g5669
sg76
(lp5676
g69
(g70
g71
NtRp5677
(dp5678
g74
(dp5679
g82
I4
ssg83
g5673
sg76
(lp5680
S'^initial/\\w+\\.py$'
p5681
asbasbasbag69
(g85
g71
NtRp5682
(dp5683
g74
(dp5684
sg83
g5652
sg76
(lp5685
g69
(g90
g71
NtRp5686
(dp5687
g74
(dp5688
sg83
g5682
sg76
(lp5689
g69
(g70
g71
NtRp5690
(dp5691
g74
(dp5692
g82
I4
ssg83
g5686
sg76
(lp5693
S'^initial/home/\\w+\\.py$'
p5694
asbasbasbasbasbasbasbag69
(g85
g71
NtRp5695
(dp5696
g74
(dp5697
sg83
g5122
sg76
(lp5698
g69
(g90
g71
NtRp5699
(dp5700
g74
(dp5701
g94
g95
ssg83
g5695
sg76
(lp5702
S'postprocessing'
p5703
asbag69
(g90
g71
NtRp5704
(dp5705
g74
(dp5706
g101
g102
ssg83
g5695
sg76
(lp5707
S':'
asbag69
(g90
g71
NtRp5708
(dp5709
g74
(dp5710
sg83
g5695
sg76
(lp5711
g69
(g70
g71
NtRp5712
(dp5713
g74
(dp5714
g82
I5
ssg83
g5708
sg76
(lp5715
g69
(g78
g71
NtRp5716
(dp5717
g74
(dp5718
g82
I4
ssg83
Nsg76
(lp5719
sbasbasbasbag69
(g85
g71
NtRp5720
(dp5721
g74
(dp5722
sg83
g5122
sg76
(lp5723
g69
(g90
g71
NtRp5724
(dp5725
g74
(dp5726
g94
g95
ssg83
g5720
sg76
(lp5727
S'session_cookie_expires'
p5728
asbag69
(g90
g71
NtRp5729
(dp5730
g74
(dp5731
g101
g102
ssg83
g5720
sg76
(lp5732
S':'
asbag69
(g90
g71
NtRp5733
(dp5734
g74
(dp5735
sg83
g5720
sg76
(lp5736
g69
(g70
g71
NtRp5737
(dp5738
g74
(dp5739
g82
I5
ssg83
g5733
sg76
(lp5740
S'None'
p5741
asbasbasbag69
(g85
g71
NtRp5742
(dp5743
g74
(dp5744
sg83
g5122
sg76
(lp5745
g69
(g90
g71
NtRp5746
(dp5747
g74
(dp5748
g94
g95
ssg83
g5742
sg76
(lp5749
S'session_data_name'
p5750
asbag69
(g90
g71
NtRp5751
(dp5752
g74
(dp5753
g101
g102
ssg83
g5742
sg76
(lp5754
S':'
asbag69
(g90
g71
NtRp5755
(dp5756
g74
(dp5757
sg83
g5742
sg76
(lp5758
g69
(g70
g71
NtRp5759
(dp5760
g74
(dp5761
g82
I5
ssg83
g5755
sg76
(lp5762
S'session_data_projeto'
p5763
asbasbasbag69
(g85
g71
NtRp5764
(dp5765
g74
(dp5766
sg83
g5122
sg76
(lp5767
g69
(g90
g71
NtRp5768
(dp5769
g74
(dp5770
g94
g95
ssg83
g5764
sg76
(lp5771
S'session_file'
p5772
asbag69
(g90
g71
NtRp5773
(dp5774
g74
(dp5775
g101
g102
ssg83
g5764
sg76
(lp5776
S':'
asbag69
(g90
g71
NtRp5777
(dp5778
g74
(dp5779
sg83
g5764
sg76
(lp5780
g69
(g70
g71
NtRp5781
(dp5782
g74
(dp5783
g82
I5
ssg83
g5777
sg76
(lp5784
S"<open file '/var/www/web2py_curso/applications/projeto/sessions/127.0.0.1-b8c6a9b4-3ce7-4a48-b40d-12b6c8d18d0a', mode 'rb+' at 0x7fb4b045dd20>"
p5785
asbasbasbag69
(g85
g71
NtRp5786
(dp5787
g74
(dp5788
sg83
g5122
sg76
(lp5789
g69
(g90
g71
NtRp5790
(dp5791
g74
(dp5792
g94
g95
ssg83
g5786
sg76
(lp5793
S'session_filename'
p5794
asbag69
(g90
g71
NtRp5795
(dp5796
g74
(dp5797
g101
g102
ssg83
g5786
sg76
(lp5798
S':'
asbag69
(g90
g71
NtRp5799
(dp5800
g74
(dp5801
sg83
g5786
sg76
(lp5802
g69
(g70
g71
NtRp5803
(dp5804
g74
(dp5805
g82
I5
ssg83
g5799
sg76
(lp5806
S'/var/www/web2py_curso/applications/projeto/sessions/127.0.0.1-b8c6a9b4-3ce7-4a48-b40d-12b6c8d18d0a'
p5807
asbasbasbag69
(g85
g71
NtRp5808
(dp5809
g74
(dp5810
sg83
g5122
sg76
(lp5811
g69
(g90
g71
NtRp5812
(dp5813
g74
(dp5814
g94
g95
ssg83
g5808
sg76
(lp5815
S'session_id'
p5816
asbag69
(g90
g71
NtRp5817
(dp5818
g74
(dp5819
g101
g102
ssg83
g5808
sg76
(lp5820
S':'
asbag69
(g90
g71
NtRp5821
(dp5822
g74
(dp5823
sg83
g5808
sg76
(lp5824
g69
(g70
g71
NtRp5825
(dp5826
g74
(dp5827
g82
I5
ssg83
g5821
sg76
(lp5828
g1787
asbasbasbag69
(g85
g71
NtRp5829
(dp5830
g74
(dp5831
sg83
g5122
sg76
(lp5832
g69
(g90
g71
NtRp5833
(dp5834
g74
(dp5835
g94
g95
ssg83
g5829
sg76
(lp5836
S'session_id_name'
p5837
asbag69
(g90
g71
NtRp5838
(dp5839
g74
(dp5840
g101
g102
ssg83
g5829
sg76
(lp5841
S':'
asbag69
(g90
g71
NtRp5842
(dp5843
g74
(dp5844
sg83
g5829
sg76
(lp5845
g69
(g70
g71
NtRp5846
(dp5847
g74
(dp5848
g82
I5
ssg83
g5842
sg76
(lp5849
g5179
asbasbasbag69
(g85
g71
NtRp5850
(dp5851
g74
(dp5852
sg83
g5122
sg76
(lp5853
g69
(g90
g71
NtRp5854
(dp5855
g74
(dp5856
g94
g95
ssg83
g5850
sg76
(lp5857
S'session_locked'
p5858
asbag69
(g90
g71
NtRp5859
(dp5860
g74
(dp5861
g101
g102
ssg83
g5850
sg76
(lp5862
S':'
asbag69
(g90
g71
NtRp5863
(dp5864
g74
(dp5865
sg83
g5850
sg76
(lp5866
g69
(g70
g71
NtRp5867
(dp5868
g74
(dp5869
g82
I5
ssg83
g5863
sg76
(lp5870
g3124
asbasbasbag69
(g85
g71
NtRp5871
(dp5872
g74
(dp5873
sg83
g5122
sg76
(lp5874
g69
(g90
g71
NtRp5875
(dp5876
g74
(dp5877
g94
g95
ssg83
g5871
sg76
(lp5878
S'session_new'
p5879
asbag69
(g90
g71
NtRp5880
(dp5881
g74
(dp5882
g101
g102
ssg83
g5871
sg76
(lp5883
S':'
asbag69
(g90
g71
NtRp5884
(dp5885
g74
(dp5886
sg83
g5871
sg76
(lp5887
g69
(g70
g71
NtRp5888
(dp5889
g74
(dp5890
g82
I5
ssg83
g5884
sg76
(lp5891
g112
asbasbasbag69
(g85
g71
NtRp5892
(dp5893
g74
(dp5894
sg83
g5122
sg76
(lp5895
g69
(g90
g71
NtRp5896
(dp5897
g74
(dp5898
g94
g95
ssg83
g5892
sg76
(lp5899
S'session_storage_type'
p5900
asbag69
(g90
g71
NtRp5901
(dp5902
g74
(dp5903
g101
g102
ssg83
g5892
sg76
(lp5904
S':'
asbag69
(g90
g71
NtRp5905
(dp5906
g74
(dp5907
sg83
g5892
sg76
(lp5908
g69
(g70
g71
NtRp5909
(dp5910
g74
(dp5911
g82
I5
ssg83
g5905
sg76
(lp5912
g4554
asbasbasbag69
(g85
g71
NtRp5913
(dp5914
g74
(dp5915
sg83
g5122
sg76
(lp5916
g69
(g90
g71
NtRp5917
(dp5918
g74
(dp5919
g94
g95
ssg83
g5913
sg76
(lp5920
S'status'
p5921
asbag69
(g90
g71
NtRp5922
(dp5923
g74
(dp5924
g101
g102
ssg83
g5913
sg76
(lp5925
S':'
asbag69
(g90
g71
NtRp5926
(dp5927
g74
(dp5928
sg83
g5913
sg76
(lp5929
g69
(g70
g71
NtRp5930
(dp5931
g74
(dp5932
g82
I5
ssg83
g5926
sg76
(lp5933
S'200'
p5934
asbasbasbag69
(g85
g71
NtRp5935
(dp5936
g74
(dp5937
sg83
g5122
sg76
(lp5938
g69
(g90
g71
NtRp5939
(dp5940
g74
(dp5941
g94
g95
ssg83
g5935
sg76
(lp5942
S'subtitle'
p5943
asbag69
(g90
g71
NtRp5944
(dp5945
g74
(dp5946
g101
g102
ssg83
g5935
sg76
(lp5947
S':'
asbag69
(g90
g71
NtRp5948
(dp5949
g74
(dp5950
sg83
g5935
sg76
(lp5951
g69
(g70
g71
NtRp5952
(dp5953
g74
(dp5954
g82
I5
ssg83
g5948
sg76
(lp5955
S'O blog do sheldon'
p5956
asbasbasbag69
(g85
g71
NtRp5957
(dp5958
g74
(dp5959
sg83
g5122
sg76
(lp5960
g69
(g90
g71
NtRp5961
(dp5962
g74
(dp5963
g94
g95
ssg83
g5957
sg76
(lp5964
S'title'
p5965
asbag69
(g90
g71
NtRp5966
(dp5967
g74
(dp5968
g101
g102
ssg83
g5957
sg76
(lp5969
S':'
asbag69
(g90
g71
NtRp5970
(dp5971
g74
(dp5972
sg83
g5957
sg76
(lp5973
g69
(g70
g71
NtRp5974
(dp5975
g74
(dp5976
g82
I5
ssg83
g5970
sg76
(lp5977
S'Meu site magnifico'
p5978
asbasbasbag69
(g85
g71
NtRp5979
(dp5980
g74
(dp5981
sg83
g5122
sg76
(lp5982
g69
(g90
g71
NtRp5983
(dp5984
g74
(dp5985
g94
g95
ssg83
g5979
sg76
(lp5986
S'view'
p5987
asbag69
(g90
g71
NtRp5988
(dp5989
g74
(dp5990
g101
g102
ssg83
g5979
sg76
(lp5991
S':'
asbag69
(g90
g71
NtRp5992
(dp5993
g74
(dp5994
sg83
g5979
sg76
(lp5995
g69
(g70
g71
NtRp5996
(dp5997
g74
(dp5998
g82
I5
ssg83
g5992
sg76
(lp5999
S'initial/home.html'
p6000
asbasbasbasbasbsS'locals'
p6001
(dp6002
S'self'
p6003
S'<Table post (id,blog,title,slug,post_body,post_d...e,created_on,created_by,modified_on,modified_by)>'
p6004
sS'value'
p6005
S'<gluon.validators.IS_IN_DB object>'
p6006
sS'key'
p6007
S"'created_by'"
p6008
sssS'traceback'
p6009
S'Traceback (most recent call last):\n  File "/var/www/web2py_curso/gluon/restricted.py", line 212, in restricted\n    exec ccode in environment\n  File "/var/www/web2py_curso/applications/projeto/models/validators.py", line 9, in <module>\n    Post.created_by = IS_IN_DB(db, \'auth_user.id\', "%(first_name)s")\n  File "/var/www/web2py_curso/gluon/dal.py", line 7804, in __setattr__\n    raise SyntaxError(\'Object exists and cannot be redefined: %s\' % key)\nSyntaxError: Object exists and cannot be redefined: created_by\n'
p6010
s.