(dp1
S'output'
p2
S"<type 'exceptions.SyntaxError'> invalid syntax (initial.py, line 8)"
p3
sS'layer'
p4
S'/var/www/web2py_curso/applications/projeto/controllers/initial.py'
p5
sS'code'
p6
S'# coding: utf-8\n\ndef home():\n\tposts = db(db.post).select()\n\tprint posts\n\tresponse.title = "Titulo home"\n\tnome = "fernando"\n\tprint = auth_user\n\treturn dict(posts=posts, nome=nome)\n\n\ndef contact():\n\treturn "form"\n\ndef about():\n\treturn "sobre"\n\ndef user():\n\tif request.args(0) == \'register\':\n        \tdb.auth_user.bio.writable = db.auth_user.bio.readable = False\n\treturn dict(user=auth())\n\ndef register():\n\treturn auth.register()\n\ndef login():\n        return auth.login()\n\ndef account():\n    return dict(register=auth.register(),\n                login=auth.login())\n\t\ndef download():\n\treturn response.download(request, db)\n\n\n\n\n\ndef exemplo():\n#\treturn "teste"\n\treturn response.render("default/teste.html", nome="deld", sobrenome="vieira", lista=["item1", "item2", "item3"])\n\ndef teste1():\n\tprint "Action index"\n\tprint request.args\n\tprint request.vars \t\n\tprint request.post_vars #somente entradas de formul\xc3\xa1rio\n    \tprint request.get_vars  #somente entradas de url\n    \t#nome = request.vars[\'nome\']\n        mensagem = "Bem Vindo"\n        form = "<form action=\'\' method=\'POST\'><input name=\'nome\' id=\'nome\'/><input type=\'Submit\'></form><br>"\n        if \'nome\' in request.vars:\n\t\tform = "<p>Bem vindo %(nome)s</p>" % request.vars + form\t\t\n\t\t#mensagem = mensagem + " usu\xc3\xa1rio %(nome)s" % request.vars\t#mostrando variavel da url\n        \t#mensagem = mensagem + " usu\xc3\xa1rio %s" %str(nome)\t\t\t#mostrando uma variavel local    \n\treturn form\n\ndef teste2():\n\treturn "<form><label>Nome</label><input /></form><br><a href=\'http://www.w3schools.com\'>Visit W3Schools</a>"\n\t#return dict(nome="fernando")\n\t#return response.render("teste.html", dict(nome="fernando"))\n\ndef soma(x, y):\n\treturn x + y\n\n \n\nresponse._vars=response._caller(home)\n'
p7
sS'snapshot'
p8
(dp9
S'exception'
p10
(dp11
S'__getslice__'
p12
S"<method-wrapper '__getslice__' of exceptions.SyntaxError object>"
p13
sS'text'
p14
S"'\\tprint = auth_user\\n'"
p15
sS'__str__'
p16
S"<method-wrapper '__str__' of exceptions.SyntaxError object>"
p17
sS'__reduce__'
p18
S'<built-in method __reduce__ of exceptions.SyntaxError object>'
p19
sS'__dict__'
p20
S'{}'
p21
sS'__sizeof__'
p22
S'<built-in method __sizeof__ of exceptions.SyntaxError object>'
p23
sS'__init__'
p24
S"<method-wrapper '__init__' of exceptions.SyntaxError object>"
p25
sS'__setattr__'
p26
S"<method-wrapper '__setattr__' of exceptions.SyntaxError object>"
p27
sS'__reduce_ex__'
p28
S'<built-in method __reduce_ex__ of exceptions.SyntaxError object>'
p29
sS'__new__'
p30
S'<built-in method __new__ of type object>'
p31
sS'__format__'
p32
S'<built-in method __format__ of exceptions.SyntaxError object>'
p33
sS'__class__'
p34
S"<type 'exceptions.SyntaxError'>"
p35
sS'filename'
p36
S"'/var/www/web2py_curso/applications/projeto/controllers/initial.py'"
p37
sS'lineno'
p38
S'8'
sS'msg'
p39
S"'invalid syntax'"
p40
sS'__doc__'
p41
S"'Invalid syntax.'"
p42
sS'__getitem__'
p43
S"<method-wrapper '__getitem__' of exceptions.SyntaxError object>"
p44
sS'__setstate__'
p45
S'<built-in method __setstate__ of exceptions.SyntaxError object>'
p46
sS'__getattribute__'
p47
S"<method-wrapper '__getattribute__' of exceptions.SyntaxError object>"
p48
sS'print_file_and_line'
p49
S'None'
p50
sS'args'
p51
S"('invalid syntax', ('/var/www/web2py_curso/applications/projeto/controllers/initial.py', 8, 8, '\\tprint = auth_user\\n'))"
p52
sS'__subclasshook__'
p53
S'<built-in method __subclasshook__ of type object>'
p54
sS'offset'
p55
S'8'
sS'__unicode__'
p56
S'<built-in method __unicode__ of exceptions.SyntaxError object>'
p57
sS'__delattr__'
p58
S"<method-wrapper '__delattr__' of exceptions.SyntaxError object>"
p59
sS'__repr__'
p60
S"<method-wrapper '__repr__' of exceptions.SyntaxError object>"
p61
sS'__hash__'
p62
S"<method-wrapper '__hash__' of exceptions.SyntaxError object>"
p63
ssS'evalue'
p64
S'invalid syntax (initial.py, line 8)'
p65
sS'request'
p66
ccopy_reg
_reconstructor
p67
(cgluon.html
BEAUTIFY
p68
c__builtin__
object
p69
NtRp70
(dp71
S'attributes'
p72
(dp73
sS'components'
p74
(lp75
g67
(cgluon.html
TABLE
p76
g69
NtRp77
(dp78
g72
(dp79
S'level'
p80
I5
ssS'parent'
p81
Nsg74
(lp82
g67
(cgluon.html
TR
p83
g69
NtRp84
(dp85
g72
(dp86
sg81
g77
sg74
(lp87
g67
(cgluon.html
TD
p88
g69
NtRp89
(dp90
g72
(dp91
S'_style'
p92
S'font-weight:bold;vertical-align:top'
p93
ssg81
g84
sg74
(lp94
S'ajax'
p95
asbag67
(g88
g69
NtRp96
(dp97
g72
(dp98
S'_valign'
p99
S'top'
p100
ssg81
g84
sg74
(lp101
S':'
asbag67
(g88
g69
NtRp102
(dp103
g72
(dp104
sg81
g84
sg74
(lp105
g67
(g68
g69
NtRp106
(dp107
g72
(dp108
g80
I5
ssg81
g102
sg74
(lp109
S'False'
p110
asbasbasbag67
(g83
g69
NtRp111
(dp112
g72
(dp113
sg81
g77
sg74
(lp114
g67
(g88
g69
NtRp115
(dp116
g72
(dp117
g92
g93
ssg81
g111
sg74
(lp118
S'application'
p119
asbag67
(g88
g69
NtRp120
(dp121
g72
(dp122
g99
g100
ssg81
g111
sg74
(lp123
S':'
asbag67
(g88
g69
NtRp124
(dp125
g72
(dp126
sg81
g111
sg74
(lp127
g67
(g68
g69
NtRp128
(dp129
g72
(dp130
g80
I5
ssg81
g124
sg74
(lp131
S'projeto'
p132
asbasbasbag67
(g83
g69
NtRp133
(dp134
g72
(dp135
sg81
g77
sg74
(lp136
g67
(g88
g69
NtRp137
(dp138
g72
(dp139
g92
g93
ssg81
g133
sg74
(lp140
g51
asbag67
(g88
g69
NtRp141
(dp142
g72
(dp143
g99
g100
ssg81
g133
sg74
(lp144
S':'
asbag67
(g88
g69
NtRp145
(dp146
g72
(dp147
sg81
g133
sg74
(lp148
g67
(g68
g69
NtRp149
(dp150
g72
(dp151
g80
I5
ssg81
g145
sg74
(lp152
g67
(g76
g69
NtRp153
(dp154
g72
(dp155
g80
I4
ssg81
Nsg74
(lp156
sbasbasbasbag67
(g83
g69
NtRp157
(dp158
g72
(dp159
sg81
g77
sg74
(lp160
g67
(g88
g69
NtRp161
(dp162
g72
(dp163
g92
g93
ssg81
g157
sg74
(lp164
S'body'
p165
asbag67
(g88
g69
NtRp166
(dp167
g72
(dp168
g99
g100
ssg81
g157
sg74
(lp169
S':'
asbag67
(g88
g69
NtRp170
(dp171
g72
(dp172
sg81
g157
sg74
(lp173
g67
(g68
g69
NtRp174
(dp175
g72
(dp176
g80
I5
ssg81
g170
sg74
(lp177
S'<cStringIO.StringO object at 0x7feea859c490>'
p178
asbasbasbag67
(g83
g69
NtRp179
(dp180
g72
(dp181
sg81
g77
sg74
(lp182
g67
(g88
g69
NtRp183
(dp184
g72
(dp185
g92
g93
ssg81
g179
sg74
(lp186
S'cid'
p187
asbag67
(g88
g69
NtRp188
(dp189
g72
(dp190
g99
g100
ssg81
g179
sg74
(lp191
S':'
asbag67
(g88
g69
NtRp192
(dp193
g72
(dp194
sg81
g179
sg74
(lp195
g67
(g68
g69
NtRp196
(dp197
g72
(dp198
g80
I5
ssg81
g192
sg74
(lp199
S'None'
p200
asbasbasbag67
(g83
g69
NtRp201
(dp202
g72
(dp203
sg81
g77
sg74
(lp204
g67
(g88
g69
NtRp205
(dp206
g72
(dp207
g92
g93
ssg81
g201
sg74
(lp208
S'client'
p209
asbag67
(g88
g69
NtRp210
(dp211
g72
(dp212
g99
g100
ssg81
g201
sg74
(lp213
S':'
asbag67
(g88
g69
NtRp214
(dp215
g72
(dp216
sg81
g201
sg74
(lp217
g67
(g68
g69
NtRp218
(dp219
g72
(dp220
g80
I5
ssg81
g214
sg74
(lp221
S'127.0.0.1'
p222
asbasbasbag67
(g83
g69
NtRp223
(dp224
g72
(dp225
sg81
g77
sg74
(lp226
g67
(g88
g69
NtRp227
(dp228
g72
(dp229
g92
g93
ssg81
g223
sg74
(lp230
S'controller'
p231
asbag67
(g88
g69
NtRp232
(dp233
g72
(dp234
g99
g100
ssg81
g223
sg74
(lp235
S':'
asbag67
(g88
g69
NtRp236
(dp237
g72
(dp238
sg81
g223
sg74
(lp239
g67
(g68
g69
NtRp240
(dp241
g72
(dp242
g80
I5
ssg81
g236
sg74
(lp243
S'initial'
p244
asbasbasbag67
(g83
g69
NtRp245
(dp246
g72
(dp247
sg81
g77
sg74
(lp248
g67
(g88
g69
NtRp249
(dp250
g72
(dp251
g92
g93
ssg81
g245
sg74
(lp252
S'cookies'
p253
asbag67
(g88
g69
NtRp254
(dp255
g72
(dp256
g99
g100
ssg81
g245
sg74
(lp257
S':'
asbag67
(g88
g69
NtRp258
(dp259
g72
(dp260
sg81
g245
sg74
(lp261
g67
(g68
g69
NtRp262
(dp263
g72
(dp264
g80
I5
ssg81
g258
sg74
(lp265
g67
(g76
g69
NtRp266
(dp267
g72
(dp268
g80
I4
ssg81
Nsg74
(lp269
g67
(g83
g69
NtRp270
(dp271
g72
(dp272
sg81
g266
sg74
(lp273
g67
(g88
g69
NtRp274
(dp275
g72
(dp276
g92
g93
ssg81
g270
sg74
(lp277
S'admin'
p278
asbag67
(g88
g69
NtRp279
(dp280
g72
(dp281
g99
g100
ssg81
g270
sg74
(lp282
S':'
asbag67
(g88
g69
NtRp283
(dp284
g72
(dp285
sg81
g270
sg74
(lp286
g67
(g68
g69
NtRp287
(dp288
g72
(dp289
g80
I4
ssg81
g283
sg74
(lp290
S'admin'
p291
ag67
(g76
g69
NtRp292
(dp293
g72
(dp294
g80
I3
ssg81
Nsg74
(lp295
g67
(g83
g69
NtRp296
(dp297
g72
(dp298
sg81
g292
sg74
(lp299
g67
(g88
g69
NtRp300
(dp301
g72
(dp302
g92
g93
ssg81
g296
sg74
(lp303
S'comment'
p304
asbag67
(g88
g69
NtRp305
(dp306
g72
(dp307
g99
g100
ssg81
g296
sg74
(lp308
S':'
asbag67
(g88
g69
NtRp309
(dp310
g72
(dp311
sg81
g296
sg74
(lp312
g67
(g68
g69
NtRp313
(dp314
g72
(dp315
g80
I3
ssg81
g309
sg74
(lp316
S''
asbasbasbag67
(g83
g69
NtRp317
(dp318
g72
(dp319
sg81
g292
sg74
(lp320
g67
(g88
g69
NtRp321
(dp322
g72
(dp323
g92
g93
ssg81
g317
sg74
(lp324
S'domain'
p325
asbag67
(g88
g69
NtRp326
(dp327
g72
(dp328
g99
g100
ssg81
g317
sg74
(lp329
S':'
asbag67
(g88
g69
NtRp330
(dp331
g72
(dp332
sg81
g317
sg74
(lp333
g67
(g68
g69
NtRp334
(dp335
g72
(dp336
g80
I3
ssg81
g330
sg74
(lp337
S''
asbasbasbag67
(g83
g69
NtRp338
(dp339
g72
(dp340
sg81
g292
sg74
(lp341
g67
(g88
g69
NtRp342
(dp343
g72
(dp344
g92
g93
ssg81
g338
sg74
(lp345
S'expires'
p346
asbag67
(g88
g69
NtRp347
(dp348
g72
(dp349
g99
g100
ssg81
g338
sg74
(lp350
S':'
asbag67
(g88
g69
NtRp351
(dp352
g72
(dp353
sg81
g338
sg74
(lp354
g67
(g68
g69
NtRp355
(dp356
g72
(dp357
g80
I3
ssg81
g351
sg74
(lp358
S''
asbasbasbag67
(g83
g69
NtRp359
(dp360
g72
(dp361
sg81
g292
sg74
(lp362
g67
(g88
g69
NtRp363
(dp364
g72
(dp365
g92
g93
ssg81
g359
sg74
(lp366
S'httponly'
p367
asbag67
(g88
g69
NtRp368
(dp369
g72
(dp370
g99
g100
ssg81
g359
sg74
(lp371
S':'
asbag67
(g88
g69
NtRp372
(dp373
g72
(dp374
sg81
g359
sg74
(lp375
g67
(g68
g69
NtRp376
(dp377
g72
(dp378
g80
I3
ssg81
g372
sg74
(lp379
S''
asbasbasbag67
(g83
g69
NtRp380
(dp381
g72
(dp382
sg81
g292
sg74
(lp383
g67
(g88
g69
NtRp384
(dp385
g72
(dp386
g92
g93
ssg81
g380
sg74
(lp387
S'max-age'
p388
asbag67
(g88
g69
NtRp389
(dp390
g72
(dp391
g99
g100
ssg81
g380
sg74
(lp392
S':'
asbag67
(g88
g69
NtRp393
(dp394
g72
(dp395
sg81
g380
sg74
(lp396
g67
(g68
g69
NtRp397
(dp398
g72
(dp399
g80
I3
ssg81
g393
sg74
(lp400
S''
asbasbasbag67
(g83
g69
NtRp401
(dp402
g72
(dp403
sg81
g292
sg74
(lp404
g67
(g88
g69
NtRp405
(dp406
g72
(dp407
g92
g93
ssg81
g401
sg74
(lp408
S'path'
p409
asbag67
(g88
g69
NtRp410
(dp411
g72
(dp412
g99
g100
ssg81
g401
sg74
(lp413
S':'
asbag67
(g88
g69
NtRp414
(dp415
g72
(dp416
sg81
g401
sg74
(lp417
g67
(g68
g69
NtRp418
(dp419
g72
(dp420
g80
I3
ssg81
g414
sg74
(lp421
S''
asbasbasbag67
(g83
g69
NtRp422
(dp423
g72
(dp424
sg81
g292
sg74
(lp425
g67
(g88
g69
NtRp426
(dp427
g72
(dp428
g92
g93
ssg81
g422
sg74
(lp429
S'secure'
p430
asbag67
(g88
g69
NtRp431
(dp432
g72
(dp433
g99
g100
ssg81
g422
sg74
(lp434
S':'
asbag67
(g88
g69
NtRp435
(dp436
g72
(dp437
sg81
g422
sg74
(lp438
g67
(g68
g69
NtRp439
(dp440
g72
(dp441
g80
I3
ssg81
g435
sg74
(lp442
S''
asbasbasbag67
(g83
g69
NtRp443
(dp444
g72
(dp445
sg81
g292
sg74
(lp446
g67
(g88
g69
NtRp447
(dp448
g72
(dp449
g92
g93
ssg81
g443
sg74
(lp450
S'version'
p451
asbag67
(g88
g69
NtRp452
(dp453
g72
(dp454
g99
g100
ssg81
g443
sg74
(lp455
S':'
asbag67
(g88
g69
NtRp456
(dp457
g72
(dp458
sg81
g443
sg74
(lp459
g67
(g68
g69
NtRp460
(dp461
g72
(dp462
g80
I3
ssg81
g456
sg74
(lp463
S''
asbasbasbasbasbasbasbag67
(g83
g69
NtRp464
(dp465
g72
(dp466
sg81
g266
sg74
(lp467
g67
(g88
g69
NtRp468
(dp469
g72
(dp470
g92
g93
ssg81
g464
sg74
(lp471
S'cookie'
p472
asbag67
(g88
g69
NtRp473
(dp474
g72
(dp475
g99
g100
ssg81
g464
sg74
(lp476
S':'
asbag67
(g88
g69
NtRp477
(dp478
g72
(dp479
sg81
g464
sg74
(lp480
g67
(g68
g69
NtRp481
(dp482
g72
(dp483
g80
I4
ssg81
g477
sg74
(lp484
S'1649423593'
p485
ag67
(g76
g69
NtRp486
(dp487
g72
(dp488
g80
I3
ssg81
Nsg74
(lp489
g67
(g83
g69
NtRp490
(dp491
g72
(dp492
sg81
g486
sg74
(lp493
g67
(g88
g69
NtRp494
(dp495
g72
(dp496
g92
g93
ssg81
g490
sg74
(lp497
g304
asbag67
(g88
g69
NtRp498
(dp499
g72
(dp500
g99
g100
ssg81
g490
sg74
(lp501
S':'
asbag67
(g88
g69
NtRp502
(dp503
g72
(dp504
sg81
g490
sg74
(lp505
g67
(g68
g69
NtRp506
(dp507
g72
(dp508
g80
I3
ssg81
g502
sg74
(lp509
S''
asbasbasbag67
(g83
g69
NtRp510
(dp511
g72
(dp512
sg81
g486
sg74
(lp513
g67
(g88
g69
NtRp514
(dp515
g72
(dp516
g92
g93
ssg81
g510
sg74
(lp517
g325
asbag67
(g88
g69
NtRp518
(dp519
g72
(dp520
g99
g100
ssg81
g510
sg74
(lp521
S':'
asbag67
(g88
g69
NtRp522
(dp523
g72
(dp524
sg81
g510
sg74
(lp525
g67
(g68
g69
NtRp526
(dp527
g72
(dp528
g80
I3
ssg81
g522
sg74
(lp529
S''
asbasbasbag67
(g83
g69
NtRp530
(dp531
g72
(dp532
sg81
g486
sg74
(lp533
g67
(g88
g69
NtRp534
(dp535
g72
(dp536
g92
g93
ssg81
g530
sg74
(lp537
g346
asbag67
(g88
g69
NtRp538
(dp539
g72
(dp540
g99
g100
ssg81
g530
sg74
(lp541
S':'
asbag67
(g88
g69
NtRp542
(dp543
g72
(dp544
sg81
g530
sg74
(lp545
g67
(g68
g69
NtRp546
(dp547
g72
(dp548
g80
I3
ssg81
g542
sg74
(lp549
S''
asbasbasbag67
(g83
g69
NtRp550
(dp551
g72
(dp552
sg81
g486
sg74
(lp553
g67
(g88
g69
NtRp554
(dp555
g72
(dp556
g92
g93
ssg81
g550
sg74
(lp557
g367
asbag67
(g88
g69
NtRp558
(dp559
g72
(dp560
g99
g100
ssg81
g550
sg74
(lp561
S':'
asbag67
(g88
g69
NtRp562
(dp563
g72
(dp564
sg81
g550
sg74
(lp565
g67
(g68
g69
NtRp566
(dp567
g72
(dp568
g80
I3
ssg81
g562
sg74
(lp569
S''
asbasbasbag67
(g83
g69
NtRp570
(dp571
g72
(dp572
sg81
g486
sg74
(lp573
g67
(g88
g69
NtRp574
(dp575
g72
(dp576
g92
g93
ssg81
g570
sg74
(lp577
g388
asbag67
(g88
g69
NtRp578
(dp579
g72
(dp580
g99
g100
ssg81
g570
sg74
(lp581
S':'
asbag67
(g88
g69
NtRp582
(dp583
g72
(dp584
sg81
g570
sg74
(lp585
g67
(g68
g69
NtRp586
(dp587
g72
(dp588
g80
I3
ssg81
g582
sg74
(lp589
S''
asbasbasbag67
(g83
g69
NtRp590
(dp591
g72
(dp592
sg81
g486
sg74
(lp593
g67
(g88
g69
NtRp594
(dp595
g72
(dp596
g92
g93
ssg81
g590
sg74
(lp597
g409
asbag67
(g88
g69
NtRp598
(dp599
g72
(dp600
g99
g100
ssg81
g590
sg74
(lp601
S':'
asbag67
(g88
g69
NtRp602
(dp603
g72
(dp604
sg81
g590
sg74
(lp605
g67
(g68
g69
NtRp606
(dp607
g72
(dp608
g80
I3
ssg81
g602
sg74
(lp609
S''
asbasbasbag67
(g83
g69
NtRp610
(dp611
g72
(dp612
sg81
g486
sg74
(lp613
g67
(g88
g69
NtRp614
(dp615
g72
(dp616
g92
g93
ssg81
g610
sg74
(lp617
g430
asbag67
(g88
g69
NtRp618
(dp619
g72
(dp620
g99
g100
ssg81
g610
sg74
(lp621
S':'
asbag67
(g88
g69
NtRp622
(dp623
g72
(dp624
sg81
g610
sg74
(lp625
g67
(g68
g69
NtRp626
(dp627
g72
(dp628
g80
I3
ssg81
g622
sg74
(lp629
S''
asbasbasbag67
(g83
g69
NtRp630
(dp631
g72
(dp632
sg81
g486
sg74
(lp633
g67
(g88
g69
NtRp634
(dp635
g72
(dp636
g92
g93
ssg81
g630
sg74
(lp637
g451
asbag67
(g88
g69
NtRp638
(dp639
g72
(dp640
g99
g100
ssg81
g630
sg74
(lp641
S':'
asbag67
(g88
g69
NtRp642
(dp643
g72
(dp644
sg81
g630
sg74
(lp645
g67
(g68
g69
NtRp646
(dp647
g72
(dp648
g80
I3
ssg81
g642
sg74
(lp649
S''
asbasbasbasbasbasbasbag67
(g83
g69
NtRp650
(dp651
g72
(dp652
sg81
g266
sg74
(lp653
g67
(g88
g69
NtRp654
(dp655
g72
(dp656
g92
g93
ssg81
g650
sg74
(lp657
S'hw_type'
p658
asbag67
(g88
g69
NtRp659
(dp660
g72
(dp661
g99
g100
ssg81
g650
sg74
(lp662
S':'
asbag67
(g88
g69
NtRp663
(dp664
g72
(dp665
sg81
g650
sg74
(lp666
g67
(g68
g69
NtRp667
(dp668
g72
(dp669
g80
I4
ssg81
g663
sg74
(lp670
S'MX60'
p671
ag67
(g76
g69
NtRp672
(dp673
g72
(dp674
g80
I3
ssg81
Nsg74
(lp675
g67
(g83
g69
NtRp676
(dp677
g72
(dp678
sg81
g672
sg74
(lp679
g67
(g88
g69
NtRp680
(dp681
g72
(dp682
g92
g93
ssg81
g676
sg74
(lp683
g304
asbag67
(g88
g69
NtRp684
(dp685
g72
(dp686
g99
g100
ssg81
g676
sg74
(lp687
S':'
asbag67
(g88
g69
NtRp688
(dp689
g72
(dp690
sg81
g676
sg74
(lp691
g67
(g68
g69
NtRp692
(dp693
g72
(dp694
g80
I3
ssg81
g688
sg74
(lp695
S''
asbasbasbag67
(g83
g69
NtRp696
(dp697
g72
(dp698
sg81
g672
sg74
(lp699
g67
(g88
g69
NtRp700
(dp701
g72
(dp702
g92
g93
ssg81
g696
sg74
(lp703
g325
asbag67
(g88
g69
NtRp704
(dp705
g72
(dp706
g99
g100
ssg81
g696
sg74
(lp707
S':'
asbag67
(g88
g69
NtRp708
(dp709
g72
(dp710
sg81
g696
sg74
(lp711
g67
(g68
g69
NtRp712
(dp713
g72
(dp714
g80
I3
ssg81
g708
sg74
(lp715
S''
asbasbasbag67
(g83
g69
NtRp716
(dp717
g72
(dp718
sg81
g672
sg74
(lp719
g67
(g88
g69
NtRp720
(dp721
g72
(dp722
g92
g93
ssg81
g716
sg74
(lp723
g346
asbag67
(g88
g69
NtRp724
(dp725
g72
(dp726
g99
g100
ssg81
g716
sg74
(lp727
S':'
asbag67
(g88
g69
NtRp728
(dp729
g72
(dp730
sg81
g716
sg74
(lp731
g67
(g68
g69
NtRp732
(dp733
g72
(dp734
g80
I3
ssg81
g728
sg74
(lp735
S''
asbasbasbag67
(g83
g69
NtRp736
(dp737
g72
(dp738
sg81
g672
sg74
(lp739
g67
(g88
g69
NtRp740
(dp741
g72
(dp742
g92
g93
ssg81
g736
sg74
(lp743
g367
asbag67
(g88
g69
NtRp744
(dp745
g72
(dp746
g99
g100
ssg81
g736
sg74
(lp747
S':'
asbag67
(g88
g69
NtRp748
(dp749
g72
(dp750
sg81
g736
sg74
(lp751
g67
(g68
g69
NtRp752
(dp753
g72
(dp754
g80
I3
ssg81
g748
sg74
(lp755
S''
asbasbasbag67
(g83
g69
NtRp756
(dp757
g72
(dp758
sg81
g672
sg74
(lp759
g67
(g88
g69
NtRp760
(dp761
g72
(dp762
g92
g93
ssg81
g756
sg74
(lp763
g388
asbag67
(g88
g69
NtRp764
(dp765
g72
(dp766
g99
g100
ssg81
g756
sg74
(lp767
S':'
asbag67
(g88
g69
NtRp768
(dp769
g72
(dp770
sg81
g756
sg74
(lp771
g67
(g68
g69
NtRp772
(dp773
g72
(dp774
g80
I3
ssg81
g768
sg74
(lp775
S''
asbasbasbag67
(g83
g69
NtRp776
(dp777
g72
(dp778
sg81
g672
sg74
(lp779
g67
(g88
g69
NtRp780
(dp781
g72
(dp782
g92
g93
ssg81
g776
sg74
(lp783
g409
asbag67
(g88
g69
NtRp784
(dp785
g72
(dp786
g99
g100
ssg81
g776
sg74
(lp787
S':'
asbag67
(g88
g69
NtRp788
(dp789
g72
(dp790
sg81
g776
sg74
(lp791
g67
(g68
g69
NtRp792
(dp793
g72
(dp794
g80
I3
ssg81
g788
sg74
(lp795
S''
asbasbasbag67
(g83
g69
NtRp796
(dp797
g72
(dp798
sg81
g672
sg74
(lp799
g67
(g88
g69
NtRp800
(dp801
g72
(dp802
g92
g93
ssg81
g796
sg74
(lp803
g430
asbag67
(g88
g69
NtRp804
(dp805
g72
(dp806
g99
g100
ssg81
g796
sg74
(lp807
S':'
asbag67
(g88
g69
NtRp808
(dp809
g72
(dp810
sg81
g796
sg74
(lp811
g67
(g68
g69
NtRp812
(dp813
g72
(dp814
g80
I3
ssg81
g808
sg74
(lp815
S''
asbasbasbag67
(g83
g69
NtRp816
(dp817
g72
(dp818
sg81
g672
sg74
(lp819
g67
(g88
g69
NtRp820
(dp821
g72
(dp822
g92
g93
ssg81
g816
sg74
(lp823
g451
asbag67
(g88
g69
NtRp824
(dp825
g72
(dp826
g99
g100
ssg81
g816
sg74
(lp827
S':'
asbag67
(g88
g69
NtRp828
(dp829
g72
(dp830
sg81
g816
sg74
(lp831
g67
(g68
g69
NtRp832
(dp833
g72
(dp834
g80
I3
ssg81
g828
sg74
(lp835
S''
asbasbasbasbasbasbasbag67
(g83
g69
NtRp836
(dp837
g72
(dp838
sg81
g266
sg74
(lp839
g67
(g88
g69
NtRp840
(dp841
g72
(dp842
g92
g93
ssg81
g836
sg74
(lp843
S'hw_version'
p844
asbag67
(g88
g69
NtRp845
(dp846
g72
(dp847
g99
g100
ssg81
g836
sg74
(lp848
S':'
asbag67
(g88
g69
NtRp849
(dp850
g72
(dp851
sg81
g836
sg74
(lp852
g67
(g68
g69
NtRp853
(dp854
g72
(dp855
g80
I4
ssg81
g849
sg74
(lp856
S'Rev%201.9.82.316'
p857
ag67
(g76
g69
NtRp858
(dp859
g72
(dp860
g80
I3
ssg81
Nsg74
(lp861
g67
(g83
g69
NtRp862
(dp863
g72
(dp864
sg81
g858
sg74
(lp865
g67
(g88
g69
NtRp866
(dp867
g72
(dp868
g92
g93
ssg81
g862
sg74
(lp869
g304
asbag67
(g88
g69
NtRp870
(dp871
g72
(dp872
g99
g100
ssg81
g862
sg74
(lp873
S':'
asbag67
(g88
g69
NtRp874
(dp875
g72
(dp876
sg81
g862
sg74
(lp877
g67
(g68
g69
NtRp878
(dp879
g72
(dp880
g80
I3
ssg81
g874
sg74
(lp881
S''
asbasbasbag67
(g83
g69
NtRp882
(dp883
g72
(dp884
sg81
g858
sg74
(lp885
g67
(g88
g69
NtRp886
(dp887
g72
(dp888
g92
g93
ssg81
g882
sg74
(lp889
g325
asbag67
(g88
g69
NtRp890
(dp891
g72
(dp892
g99
g100
ssg81
g882
sg74
(lp893
S':'
asbag67
(g88
g69
NtRp894
(dp895
g72
(dp896
sg81
g882
sg74
(lp897
g67
(g68
g69
NtRp898
(dp899
g72
(dp900
g80
I3
ssg81
g894
sg74
(lp901
S''
asbasbasbag67
(g83
g69
NtRp902
(dp903
g72
(dp904
sg81
g858
sg74
(lp905
g67
(g88
g69
NtRp906
(dp907
g72
(dp908
g92
g93
ssg81
g902
sg74
(lp909
g346
asbag67
(g88
g69
NtRp910
(dp911
g72
(dp912
g99
g100
ssg81
g902
sg74
(lp913
S':'
asbag67
(g88
g69
NtRp914
(dp915
g72
(dp916
sg81
g902
sg74
(lp917
g67
(g68
g69
NtRp918
(dp919
g72
(dp920
g80
I3
ssg81
g914
sg74
(lp921
S''
asbasbasbag67
(g83
g69
NtRp922
(dp923
g72
(dp924
sg81
g858
sg74
(lp925
g67
(g88
g69
NtRp926
(dp927
g72
(dp928
g92
g93
ssg81
g922
sg74
(lp929
g367
asbag67
(g88
g69
NtRp930
(dp931
g72
(dp932
g99
g100
ssg81
g922
sg74
(lp933
S':'
asbag67
(g88
g69
NtRp934
(dp935
g72
(dp936
sg81
g922
sg74
(lp937
g67
(g68
g69
NtRp938
(dp939
g72
(dp940
g80
I3
ssg81
g934
sg74
(lp941
S''
asbasbasbag67
(g83
g69
NtRp942
(dp943
g72
(dp944
sg81
g858
sg74
(lp945
g67
(g88
g69
NtRp946
(dp947
g72
(dp948
g92
g93
ssg81
g942
sg74
(lp949
g388
asbag67
(g88
g69
NtRp950
(dp951
g72
(dp952
g99
g100
ssg81
g942
sg74
(lp953
S':'
asbag67
(g88
g69
NtRp954
(dp955
g72
(dp956
sg81
g942
sg74
(lp957
g67
(g68
g69
NtRp958
(dp959
g72
(dp960
g80
I3
ssg81
g954
sg74
(lp961
S''
asbasbasbag67
(g83
g69
NtRp962
(dp963
g72
(dp964
sg81
g858
sg74
(lp965
g67
(g88
g69
NtRp966
(dp967
g72
(dp968
g92
g93
ssg81
g962
sg74
(lp969
g409
asbag67
(g88
g69
NtRp970
(dp971
g72
(dp972
g99
g100
ssg81
g962
sg74
(lp973
S':'
asbag67
(g88
g69
NtRp974
(dp975
g72
(dp976
sg81
g962
sg74
(lp977
g67
(g68
g69
NtRp978
(dp979
g72
(dp980
g80
I3
ssg81
g974
sg74
(lp981
S''
asbasbasbag67
(g83
g69
NtRp982
(dp983
g72
(dp984
sg81
g858
sg74
(lp985
g67
(g88
g69
NtRp986
(dp987
g72
(dp988
g92
g93
ssg81
g982
sg74
(lp989
g430
asbag67
(g88
g69
NtRp990
(dp991
g72
(dp992
g99
g100
ssg81
g982
sg74
(lp993
S':'
asbag67
(g88
g69
NtRp994
(dp995
g72
(dp996
sg81
g982
sg74
(lp997
g67
(g68
g69
NtRp998
(dp999
g72
(dp1000
g80
I3
ssg81
g994
sg74
(lp1001
S''
asbasbasbag67
(g83
g69
NtRp1002
(dp1003
g72
(dp1004
sg81
g858
sg74
(lp1005
g67
(g88
g69
NtRp1006
(dp1007
g72
(dp1008
g92
g93
ssg81
g1002
sg74
(lp1009
g451
asbag67
(g88
g69
NtRp1010
(dp1011
g72
(dp1012
g99
g100
ssg81
g1002
sg74
(lp1013
S':'
asbag67
(g88
g69
NtRp1014
(dp1015
g72
(dp1016
sg81
g1002
sg74
(lp1017
g67
(g68
g69
NtRp1018
(dp1019
g72
(dp1020
g80
I3
ssg81
g1014
sg74
(lp1021
S''
asbasbasbasbasbasbasbag67
(g83
g69
NtRp1022
(dp1023
g72
(dp1024
sg81
g266
sg74
(lp1025
g67
(g88
g69
NtRp1026
(dp1027
g72
(dp1028
g92
g93
ssg81
g1022
sg74
(lp1029
S'language'
p1030
asbag67
(g88
g69
NtRp1031
(dp1032
g72
(dp1033
g99
g100
ssg81
g1022
sg74
(lp1034
S':'
asbag67
(g88
g69
NtRp1035
(dp1036
g72
(dp1037
sg81
g1022
sg74
(lp1038
g67
(g68
g69
NtRp1039
(dp1040
g72
(dp1041
g80
I4
ssg81
g1035
sg74
(lp1042
S'1'
ag67
(g76
g69
NtRp1043
(dp1044
g72
(dp1045
g80
I3
ssg81
Nsg74
(lp1046
g67
(g83
g69
NtRp1047
(dp1048
g72
(dp1049
sg81
g1043
sg74
(lp1050
g67
(g88
g69
NtRp1051
(dp1052
g72
(dp1053
g92
g93
ssg81
g1047
sg74
(lp1054
g304
asbag67
(g88
g69
NtRp1055
(dp1056
g72
(dp1057
g99
g100
ssg81
g1047
sg74
(lp1058
S':'
asbag67
(g88
g69
NtRp1059
(dp1060
g72
(dp1061
sg81
g1047
sg74
(lp1062
g67
(g68
g69
NtRp1063
(dp1064
g72
(dp1065
g80
I3
ssg81
g1059
sg74
(lp1066
S''
asbasbasbag67
(g83
g69
NtRp1067
(dp1068
g72
(dp1069
sg81
g1043
sg74
(lp1070
g67
(g88
g69
NtRp1071
(dp1072
g72
(dp1073
g92
g93
ssg81
g1067
sg74
(lp1074
g325
asbag67
(g88
g69
NtRp1075
(dp1076
g72
(dp1077
g99
g100
ssg81
g1067
sg74
(lp1078
S':'
asbag67
(g88
g69
NtRp1079
(dp1080
g72
(dp1081
sg81
g1067
sg74
(lp1082
g67
(g68
g69
NtRp1083
(dp1084
g72
(dp1085
g80
I3
ssg81
g1079
sg74
(lp1086
S''
asbasbasbag67
(g83
g69
NtRp1087
(dp1088
g72
(dp1089
sg81
g1043
sg74
(lp1090
g67
(g88
g69
NtRp1091
(dp1092
g72
(dp1093
g92
g93
ssg81
g1087
sg74
(lp1094
g346
asbag67
(g88
g69
NtRp1095
(dp1096
g72
(dp1097
g99
g100
ssg81
g1087
sg74
(lp1098
S':'
asbag67
(g88
g69
NtRp1099
(dp1100
g72
(dp1101
sg81
g1087
sg74
(lp1102
g67
(g68
g69
NtRp1103
(dp1104
g72
(dp1105
g80
I3
ssg81
g1099
sg74
(lp1106
S''
asbasbasbag67
(g83
g69
NtRp1107
(dp1108
g72
(dp1109
sg81
g1043
sg74
(lp1110
g67
(g88
g69
NtRp1111
(dp1112
g72
(dp1113
g92
g93
ssg81
g1107
sg74
(lp1114
g367
asbag67
(g88
g69
NtRp1115
(dp1116
g72
(dp1117
g99
g100
ssg81
g1107
sg74
(lp1118
S':'
asbag67
(g88
g69
NtRp1119
(dp1120
g72
(dp1121
sg81
g1107
sg74
(lp1122
g67
(g68
g69
NtRp1123
(dp1124
g72
(dp1125
g80
I3
ssg81
g1119
sg74
(lp1126
S''
asbasbasbag67
(g83
g69
NtRp1127
(dp1128
g72
(dp1129
sg81
g1043
sg74
(lp1130
g67
(g88
g69
NtRp1131
(dp1132
g72
(dp1133
g92
g93
ssg81
g1127
sg74
(lp1134
g388
asbag67
(g88
g69
NtRp1135
(dp1136
g72
(dp1137
g99
g100
ssg81
g1127
sg74
(lp1138
S':'
asbag67
(g88
g69
NtRp1139
(dp1140
g72
(dp1141
sg81
g1127
sg74
(lp1142
g67
(g68
g69
NtRp1143
(dp1144
g72
(dp1145
g80
I3
ssg81
g1139
sg74
(lp1146
S''
asbasbasbag67
(g83
g69
NtRp1147
(dp1148
g72
(dp1149
sg81
g1043
sg74
(lp1150
g67
(g88
g69
NtRp1151
(dp1152
g72
(dp1153
g92
g93
ssg81
g1147
sg74
(lp1154
g409
asbag67
(g88
g69
NtRp1155
(dp1156
g72
(dp1157
g99
g100
ssg81
g1147
sg74
(lp1158
S':'
asbag67
(g88
g69
NtRp1159
(dp1160
g72
(dp1161
sg81
g1147
sg74
(lp1162
g67
(g68
g69
NtRp1163
(dp1164
g72
(dp1165
g80
I3
ssg81
g1159
sg74
(lp1166
S''
asbasbasbag67
(g83
g69
NtRp1167
(dp1168
g72
(dp1169
sg81
g1043
sg74
(lp1170
g67
(g88
g69
NtRp1171
(dp1172
g72
(dp1173
g92
g93
ssg81
g1167
sg74
(lp1174
g430
asbag67
(g88
g69
NtRp1175
(dp1176
g72
(dp1177
g99
g100
ssg81
g1167
sg74
(lp1178
S':'
asbag67
(g88
g69
NtRp1179
(dp1180
g72
(dp1181
sg81
g1167
sg74
(lp1182
g67
(g68
g69
NtRp1183
(dp1184
g72
(dp1185
g80
I3
ssg81
g1179
sg74
(lp1186
S''
asbasbasbag67
(g83
g69
NtRp1187
(dp1188
g72
(dp1189
sg81
g1043
sg74
(lp1190
g67
(g88
g69
NtRp1191
(dp1192
g72
(dp1193
g92
g93
ssg81
g1187
sg74
(lp1194
g451
asbag67
(g88
g69
NtRp1195
(dp1196
g72
(dp1197
g99
g100
ssg81
g1187
sg74
(lp1198
S':'
asbag67
(g88
g69
NtRp1199
(dp1200
g72
(dp1201
sg81
g1187
sg74
(lp1202
g67
(g68
g69
NtRp1203
(dp1204
g72
(dp1205
g80
I3
ssg81
g1199
sg74
(lp1206
S''
asbasbasbasbasbasbasbag67
(g83
g69
NtRp1207
(dp1208
g72
(dp1209
sg81
g266
sg74
(lp1210
g67
(g88
g69
NtRp1211
(dp1212
g72
(dp1213
g92
g93
ssg81
g1207
sg74
(lp1214
S'model'
p1215
asbag67
(g88
g69
NtRp1216
(dp1217
g72
(dp1218
g99
g100
ssg81
g1207
sg74
(lp1219
S':'
asbag67
(g88
g69
NtRp1220
(dp1221
g72
(dp1222
sg81
g1207
sg74
(lp1223
g67
(g68
g69
NtRp1224
(dp1225
g72
(dp1226
g80
I4
ssg81
g1220
sg74
(lp1227
S'MX'
p1228
ag67
(g76
g69
NtRp1229
(dp1230
g72
(dp1231
g80
I3
ssg81
Nsg74
(lp1232
g67
(g83
g69
NtRp1233
(dp1234
g72
(dp1235
sg81
g1229
sg74
(lp1236
g67
(g88
g69
NtRp1237
(dp1238
g72
(dp1239
g92
g93
ssg81
g1233
sg74
(lp1240
g304
asbag67
(g88
g69
NtRp1241
(dp1242
g72
(dp1243
g99
g100
ssg81
g1233
sg74
(lp1244
S':'
asbag67
(g88
g69
NtRp1245
(dp1246
g72
(dp1247
sg81
g1233
sg74
(lp1248
g67
(g68
g69
NtRp1249
(dp1250
g72
(dp1251
g80
I3
ssg81
g1245
sg74
(lp1252
S''
asbasbasbag67
(g83
g69
NtRp1253
(dp1254
g72
(dp1255
sg81
g1229
sg74
(lp1256
g67
(g88
g69
NtRp1257
(dp1258
g72
(dp1259
g92
g93
ssg81
g1253
sg74
(lp1260
g325
asbag67
(g88
g69
NtRp1261
(dp1262
g72
(dp1263
g99
g100
ssg81
g1253
sg74
(lp1264
S':'
asbag67
(g88
g69
NtRp1265
(dp1266
g72
(dp1267
sg81
g1253
sg74
(lp1268
g67
(g68
g69
NtRp1269
(dp1270
g72
(dp1271
g80
I3
ssg81
g1265
sg74
(lp1272
S''
asbasbasbag67
(g83
g69
NtRp1273
(dp1274
g72
(dp1275
sg81
g1229
sg74
(lp1276
g67
(g88
g69
NtRp1277
(dp1278
g72
(dp1279
g92
g93
ssg81
g1273
sg74
(lp1280
g346
asbag67
(g88
g69
NtRp1281
(dp1282
g72
(dp1283
g99
g100
ssg81
g1273
sg74
(lp1284
S':'
asbag67
(g88
g69
NtRp1285
(dp1286
g72
(dp1287
sg81
g1273
sg74
(lp1288
g67
(g68
g69
NtRp1289
(dp1290
g72
(dp1291
g80
I3
ssg81
g1285
sg74
(lp1292
S''
asbasbasbag67
(g83
g69
NtRp1293
(dp1294
g72
(dp1295
sg81
g1229
sg74
(lp1296
g67
(g88
g69
NtRp1297
(dp1298
g72
(dp1299
g92
g93
ssg81
g1293
sg74
(lp1300
g367
asbag67
(g88
g69
NtRp1301
(dp1302
g72
(dp1303
g99
g100
ssg81
g1293
sg74
(lp1304
S':'
asbag67
(g88
g69
NtRp1305
(dp1306
g72
(dp1307
sg81
g1293
sg74
(lp1308
g67
(g68
g69
NtRp1309
(dp1310
g72
(dp1311
g80
I3
ssg81
g1305
sg74
(lp1312
S''
asbasbasbag67
(g83
g69
NtRp1313
(dp1314
g72
(dp1315
sg81
g1229
sg74
(lp1316
g67
(g88
g69
NtRp1317
(dp1318
g72
(dp1319
g92
g93
ssg81
g1313
sg74
(lp1320
g388
asbag67
(g88
g69
NtRp1321
(dp1322
g72
(dp1323
g99
g100
ssg81
g1313
sg74
(lp1324
S':'
asbag67
(g88
g69
NtRp1325
(dp1326
g72
(dp1327
sg81
g1313
sg74
(lp1328
g67
(g68
g69
NtRp1329
(dp1330
g72
(dp1331
g80
I3
ssg81
g1325
sg74
(lp1332
S''
asbasbasbag67
(g83
g69
NtRp1333
(dp1334
g72
(dp1335
sg81
g1229
sg74
(lp1336
g67
(g88
g69
NtRp1337
(dp1338
g72
(dp1339
g92
g93
ssg81
g1333
sg74
(lp1340
g409
asbag67
(g88
g69
NtRp1341
(dp1342
g72
(dp1343
g99
g100
ssg81
g1333
sg74
(lp1344
S':'
asbag67
(g88
g69
NtRp1345
(dp1346
g72
(dp1347
sg81
g1333
sg74
(lp1348
g67
(g68
g69
NtRp1349
(dp1350
g72
(dp1351
g80
I3
ssg81
g1345
sg74
(lp1352
S''
asbasbasbag67
(g83
g69
NtRp1353
(dp1354
g72
(dp1355
sg81
g1229
sg74
(lp1356
g67
(g88
g69
NtRp1357
(dp1358
g72
(dp1359
g92
g93
ssg81
g1353
sg74
(lp1360
g430
asbag67
(g88
g69
NtRp1361
(dp1362
g72
(dp1363
g99
g100
ssg81
g1353
sg74
(lp1364
S':'
asbag67
(g88
g69
NtRp1365
(dp1366
g72
(dp1367
sg81
g1353
sg74
(lp1368
g67
(g68
g69
NtRp1369
(dp1370
g72
(dp1371
g80
I3
ssg81
g1365
sg74
(lp1372
S''
asbasbasbag67
(g83
g69
NtRp1373
(dp1374
g72
(dp1375
sg81
g1229
sg74
(lp1376
g67
(g88
g69
NtRp1377
(dp1378
g72
(dp1379
g92
g93
ssg81
g1373
sg74
(lp1380
g451
asbag67
(g88
g69
NtRp1381
(dp1382
g72
(dp1383
g99
g100
ssg81
g1373
sg74
(lp1384
S':'
asbag67
(g88
g69
NtRp1385
(dp1386
g72
(dp1387
sg81
g1373
sg74
(lp1388
g67
(g68
g69
NtRp1389
(dp1390
g72
(dp1391
g80
I3
ssg81
g1385
sg74
(lp1392
S''
asbasbasbasbasbasbasbag67
(g83
g69
NtRp1393
(dp1394
g72
(dp1395
sg81
g266
sg74
(lp1396
g67
(g88
g69
NtRp1397
(dp1398
g72
(dp1399
g92
g93
ssg81
g1393
sg74
(lp1400
S'nr'
p1401
asbag67
(g88
g69
NtRp1402
(dp1403
g72
(dp1404
g99
g100
ssg81
g1393
sg74
(lp1405
S':'
asbag67
(g88
g69
NtRp1406
(dp1407
g72
(dp1408
sg81
g1393
sg74
(lp1409
g67
(g68
g69
NtRp1410
(dp1411
g72
(dp1412
g80
I4
ssg81
g1406
sg74
(lp1413
S'1'
ag67
(g76
g69
NtRp1414
(dp1415
g72
(dp1416
g80
I3
ssg81
Nsg74
(lp1417
g67
(g83
g69
NtRp1418
(dp1419
g72
(dp1420
sg81
g1414
sg74
(lp1421
g67
(g88
g69
NtRp1422
(dp1423
g72
(dp1424
g92
g93
ssg81
g1418
sg74
(lp1425
g304
asbag67
(g88
g69
NtRp1426
(dp1427
g72
(dp1428
g99
g100
ssg81
g1418
sg74
(lp1429
S':'
asbag67
(g88
g69
NtRp1430
(dp1431
g72
(dp1432
sg81
g1418
sg74
(lp1433
g67
(g68
g69
NtRp1434
(dp1435
g72
(dp1436
g80
I3
ssg81
g1430
sg74
(lp1437
S''
asbasbasbag67
(g83
g69
NtRp1438
(dp1439
g72
(dp1440
sg81
g1414
sg74
(lp1441
g67
(g88
g69
NtRp1442
(dp1443
g72
(dp1444
g92
g93
ssg81
g1438
sg74
(lp1445
g325
asbag67
(g88
g69
NtRp1446
(dp1447
g72
(dp1448
g99
g100
ssg81
g1438
sg74
(lp1449
S':'
asbag67
(g88
g69
NtRp1450
(dp1451
g72
(dp1452
sg81
g1438
sg74
(lp1453
g67
(g68
g69
NtRp1454
(dp1455
g72
(dp1456
g80
I3
ssg81
g1450
sg74
(lp1457
S''
asbasbasbag67
(g83
g69
NtRp1458
(dp1459
g72
(dp1460
sg81
g1414
sg74
(lp1461
g67
(g88
g69
NtRp1462
(dp1463
g72
(dp1464
g92
g93
ssg81
g1458
sg74
(lp1465
g346
asbag67
(g88
g69
NtRp1466
(dp1467
g72
(dp1468
g99
g100
ssg81
g1458
sg74
(lp1469
S':'
asbag67
(g88
g69
NtRp1470
(dp1471
g72
(dp1472
sg81
g1458
sg74
(lp1473
g67
(g68
g69
NtRp1474
(dp1475
g72
(dp1476
g80
I3
ssg81
g1470
sg74
(lp1477
S''
asbasbasbag67
(g83
g69
NtRp1478
(dp1479
g72
(dp1480
sg81
g1414
sg74
(lp1481
g67
(g88
g69
NtRp1482
(dp1483
g72
(dp1484
g92
g93
ssg81
g1478
sg74
(lp1485
g367
asbag67
(g88
g69
NtRp1486
(dp1487
g72
(dp1488
g99
g100
ssg81
g1478
sg74
(lp1489
S':'
asbag67
(g88
g69
NtRp1490
(dp1491
g72
(dp1492
sg81
g1478
sg74
(lp1493
g67
(g68
g69
NtRp1494
(dp1495
g72
(dp1496
g80
I3
ssg81
g1490
sg74
(lp1497
S''
asbasbasbag67
(g83
g69
NtRp1498
(dp1499
g72
(dp1500
sg81
g1414
sg74
(lp1501
g67
(g88
g69
NtRp1502
(dp1503
g72
(dp1504
g92
g93
ssg81
g1498
sg74
(lp1505
g388
asbag67
(g88
g69
NtRp1506
(dp1507
g72
(dp1508
g99
g100
ssg81
g1498
sg74
(lp1509
S':'
asbag67
(g88
g69
NtRp1510
(dp1511
g72
(dp1512
sg81
g1498
sg74
(lp1513
g67
(g68
g69
NtRp1514
(dp1515
g72
(dp1516
g80
I3
ssg81
g1510
sg74
(lp1517
S''
asbasbasbag67
(g83
g69
NtRp1518
(dp1519
g72
(dp1520
sg81
g1414
sg74
(lp1521
g67
(g88
g69
NtRp1522
(dp1523
g72
(dp1524
g92
g93
ssg81
g1518
sg74
(lp1525
g409
asbag67
(g88
g69
NtRp1526
(dp1527
g72
(dp1528
g99
g100
ssg81
g1518
sg74
(lp1529
S':'
asbag67
(g88
g69
NtRp1530
(dp1531
g72
(dp1532
sg81
g1518
sg74
(lp1533
g67
(g68
g69
NtRp1534
(dp1535
g72
(dp1536
g80
I3
ssg81
g1530
sg74
(lp1537
S''
asbasbasbag67
(g83
g69
NtRp1538
(dp1539
g72
(dp1540
sg81
g1414
sg74
(lp1541
g67
(g88
g69
NtRp1542
(dp1543
g72
(dp1544
g92
g93
ssg81
g1538
sg74
(lp1545
g430
asbag67
(g88
g69
NtRp1546
(dp1547
g72
(dp1548
g99
g100
ssg81
g1538
sg74
(lp1549
S':'
asbag67
(g88
g69
NtRp1550
(dp1551
g72
(dp1552
sg81
g1538
sg74
(lp1553
g67
(g68
g69
NtRp1554
(dp1555
g72
(dp1556
g80
I3
ssg81
g1550
sg74
(lp1557
S''
asbasbasbag67
(g83
g69
NtRp1558
(dp1559
g72
(dp1560
sg81
g1414
sg74
(lp1561
g67
(g88
g69
NtRp1562
(dp1563
g72
(dp1564
g92
g93
ssg81
g1558
sg74
(lp1565
g451
asbag67
(g88
g69
NtRp1566
(dp1567
g72
(dp1568
g99
g100
ssg81
g1558
sg74
(lp1569
S':'
asbag67
(g88
g69
NtRp1570
(dp1571
g72
(dp1572
sg81
g1558
sg74
(lp1573
g67
(g68
g69
NtRp1574
(dp1575
g72
(dp1576
g80
I3
ssg81
g1570
sg74
(lp1577
S''
asbasbasbasbasbasbasbag67
(g83
g69
NtRp1578
(dp1579
g72
(dp1580
sg81
g266
sg74
(lp1581
g67
(g88
g69
NtRp1582
(dp1583
g72
(dp1584
g92
g93
ssg81
g1578
sg74
(lp1585
S'session_id_admin'
p1586
asbag67
(g88
g69
NtRp1587
(dp1588
g72
(dp1589
g99
g100
ssg81
g1578
sg74
(lp1590
S':'
asbag67
(g88
g69
NtRp1591
(dp1592
g72
(dp1593
sg81
g1578
sg74
(lp1594
g67
(g68
g69
NtRp1595
(dp1596
g72
(dp1597
g80
I4
ssg81
g1591
sg74
(lp1598
S'127.0.0.1-1b245eab-7eb6-4362-8fe9-bd57be48714b'
p1599
ag67
(g76
g69
NtRp1600
(dp1601
g72
(dp1602
g80
I3
ssg81
Nsg74
(lp1603
g67
(g83
g69
NtRp1604
(dp1605
g72
(dp1606
sg81
g1600
sg74
(lp1607
g67
(g88
g69
NtRp1608
(dp1609
g72
(dp1610
g92
g93
ssg81
g1604
sg74
(lp1611
g304
asbag67
(g88
g69
NtRp1612
(dp1613
g72
(dp1614
g99
g100
ssg81
g1604
sg74
(lp1615
S':'
asbag67
(g88
g69
NtRp1616
(dp1617
g72
(dp1618
sg81
g1604
sg74
(lp1619
g67
(g68
g69
NtRp1620
(dp1621
g72
(dp1622
g80
I3
ssg81
g1616
sg74
(lp1623
S''
asbasbasbag67
(g83
g69
NtRp1624
(dp1625
g72
(dp1626
sg81
g1600
sg74
(lp1627
g67
(g88
g69
NtRp1628
(dp1629
g72
(dp1630
g92
g93
ssg81
g1624
sg74
(lp1631
g325
asbag67
(g88
g69
NtRp1632
(dp1633
g72
(dp1634
g99
g100
ssg81
g1624
sg74
(lp1635
S':'
asbag67
(g88
g69
NtRp1636
(dp1637
g72
(dp1638
sg81
g1624
sg74
(lp1639
g67
(g68
g69
NtRp1640
(dp1641
g72
(dp1642
g80
I3
ssg81
g1636
sg74
(lp1643
S''
asbasbasbag67
(g83
g69
NtRp1644
(dp1645
g72
(dp1646
sg81
g1600
sg74
(lp1647
g67
(g88
g69
NtRp1648
(dp1649
g72
(dp1650
g92
g93
ssg81
g1644
sg74
(lp1651
g346
asbag67
(g88
g69
NtRp1652
(dp1653
g72
(dp1654
g99
g100
ssg81
g1644
sg74
(lp1655
S':'
asbag67
(g88
g69
NtRp1656
(dp1657
g72
(dp1658
sg81
g1644
sg74
(lp1659
g67
(g68
g69
NtRp1660
(dp1661
g72
(dp1662
g80
I3
ssg81
g1656
sg74
(lp1663
S''
asbasbasbag67
(g83
g69
NtRp1664
(dp1665
g72
(dp1666
sg81
g1600
sg74
(lp1667
g67
(g88
g69
NtRp1668
(dp1669
g72
(dp1670
g92
g93
ssg81
g1664
sg74
(lp1671
g367
asbag67
(g88
g69
NtRp1672
(dp1673
g72
(dp1674
g99
g100
ssg81
g1664
sg74
(lp1675
S':'
asbag67
(g88
g69
NtRp1676
(dp1677
g72
(dp1678
sg81
g1664
sg74
(lp1679
g67
(g68
g69
NtRp1680
(dp1681
g72
(dp1682
g80
I3
ssg81
g1676
sg74
(lp1683
S''
asbasbasbag67
(g83
g69
NtRp1684
(dp1685
g72
(dp1686
sg81
g1600
sg74
(lp1687
g67
(g88
g69
NtRp1688
(dp1689
g72
(dp1690
g92
g93
ssg81
g1684
sg74
(lp1691
g388
asbag67
(g88
g69
NtRp1692
(dp1693
g72
(dp1694
g99
g100
ssg81
g1684
sg74
(lp1695
S':'
asbag67
(g88
g69
NtRp1696
(dp1697
g72
(dp1698
sg81
g1684
sg74
(lp1699
g67
(g68
g69
NtRp1700
(dp1701
g72
(dp1702
g80
I3
ssg81
g1696
sg74
(lp1703
S''
asbasbasbag67
(g83
g69
NtRp1704
(dp1705
g72
(dp1706
sg81
g1600
sg74
(lp1707
g67
(g88
g69
NtRp1708
(dp1709
g72
(dp1710
g92
g93
ssg81
g1704
sg74
(lp1711
g409
asbag67
(g88
g69
NtRp1712
(dp1713
g72
(dp1714
g99
g100
ssg81
g1704
sg74
(lp1715
S':'
asbag67
(g88
g69
NtRp1716
(dp1717
g72
(dp1718
sg81
g1704
sg74
(lp1719
g67
(g68
g69
NtRp1720
(dp1721
g72
(dp1722
g80
I3
ssg81
g1716
sg74
(lp1723
S''
asbasbasbag67
(g83
g69
NtRp1724
(dp1725
g72
(dp1726
sg81
g1600
sg74
(lp1727
g67
(g88
g69
NtRp1728
(dp1729
g72
(dp1730
g92
g93
ssg81
g1724
sg74
(lp1731
g430
asbag67
(g88
g69
NtRp1732
(dp1733
g72
(dp1734
g99
g100
ssg81
g1724
sg74
(lp1735
S':'
asbag67
(g88
g69
NtRp1736
(dp1737
g72
(dp1738
sg81
g1724
sg74
(lp1739
g67
(g68
g69
NtRp1740
(dp1741
g72
(dp1742
g80
I3
ssg81
g1736
sg74
(lp1743
S''
asbasbasbag67
(g83
g69
NtRp1744
(dp1745
g72
(dp1746
sg81
g1600
sg74
(lp1747
g67
(g88
g69
NtRp1748
(dp1749
g72
(dp1750
g92
g93
ssg81
g1744
sg74
(lp1751
g451
asbag67
(g88
g69
NtRp1752
(dp1753
g72
(dp1754
g99
g100
ssg81
g1744
sg74
(lp1755
S':'
asbag67
(g88
g69
NtRp1756
(dp1757
g72
(dp1758
sg81
g1744
sg74
(lp1759
g67
(g68
g69
NtRp1760
(dp1761
g72
(dp1762
g80
I3
ssg81
g1756
sg74
(lp1763
S''
asbasbasbasbasbasbasbag67
(g83
g69
NtRp1764
(dp1765
g72
(dp1766
sg81
g266
sg74
(lp1767
g67
(g88
g69
NtRp1768
(dp1769
g72
(dp1770
g92
g93
ssg81
g1764
sg74
(lp1771
S'session_id_projeto'
p1772
asbag67
(g88
g69
NtRp1773
(dp1774
g72
(dp1775
g99
g100
ssg81
g1764
sg74
(lp1776
S':'
asbag67
(g88
g69
NtRp1777
(dp1778
g72
(dp1779
sg81
g1764
sg74
(lp1780
g67
(g68
g69
NtRp1781
(dp1782
g72
(dp1783
g80
I4
ssg81
g1777
sg74
(lp1784
S'127.0.0.1-a92e0168-6f87-49ed-a239-5acc06287f24'
p1785
ag67
(g76
g69
NtRp1786
(dp1787
g72
(dp1788
g80
I3
ssg81
Nsg74
(lp1789
g67
(g83
g69
NtRp1790
(dp1791
g72
(dp1792
sg81
g1786
sg74
(lp1793
g67
(g88
g69
NtRp1794
(dp1795
g72
(dp1796
g92
g93
ssg81
g1790
sg74
(lp1797
g304
asbag67
(g88
g69
NtRp1798
(dp1799
g72
(dp1800
g99
g100
ssg81
g1790
sg74
(lp1801
S':'
asbag67
(g88
g69
NtRp1802
(dp1803
g72
(dp1804
sg81
g1790
sg74
(lp1805
g67
(g68
g69
NtRp1806
(dp1807
g72
(dp1808
g80
I3
ssg81
g1802
sg74
(lp1809
S''
asbasbasbag67
(g83
g69
NtRp1810
(dp1811
g72
(dp1812
sg81
g1786
sg74
(lp1813
g67
(g88
g69
NtRp1814
(dp1815
g72
(dp1816
g92
g93
ssg81
g1810
sg74
(lp1817
g325
asbag67
(g88
g69
NtRp1818
(dp1819
g72
(dp1820
g99
g100
ssg81
g1810
sg74
(lp1821
S':'
asbag67
(g88
g69
NtRp1822
(dp1823
g72
(dp1824
sg81
g1810
sg74
(lp1825
g67
(g68
g69
NtRp1826
(dp1827
g72
(dp1828
g80
I3
ssg81
g1822
sg74
(lp1829
S''
asbasbasbag67
(g83
g69
NtRp1830
(dp1831
g72
(dp1832
sg81
g1786
sg74
(lp1833
g67
(g88
g69
NtRp1834
(dp1835
g72
(dp1836
g92
g93
ssg81
g1830
sg74
(lp1837
g346
asbag67
(g88
g69
NtRp1838
(dp1839
g72
(dp1840
g99
g100
ssg81
g1830
sg74
(lp1841
S':'
asbag67
(g88
g69
NtRp1842
(dp1843
g72
(dp1844
sg81
g1830
sg74
(lp1845
g67
(g68
g69
NtRp1846
(dp1847
g72
(dp1848
g80
I3
ssg81
g1842
sg74
(lp1849
S''
asbasbasbag67
(g83
g69
NtRp1850
(dp1851
g72
(dp1852
sg81
g1786
sg74
(lp1853
g67
(g88
g69
NtRp1854
(dp1855
g72
(dp1856
g92
g93
ssg81
g1850
sg74
(lp1857
g367
asbag67
(g88
g69
NtRp1858
(dp1859
g72
(dp1860
g99
g100
ssg81
g1850
sg74
(lp1861
S':'
asbag67
(g88
g69
NtRp1862
(dp1863
g72
(dp1864
sg81
g1850
sg74
(lp1865
g67
(g68
g69
NtRp1866
(dp1867
g72
(dp1868
g80
I3
ssg81
g1862
sg74
(lp1869
S''
asbasbasbag67
(g83
g69
NtRp1870
(dp1871
g72
(dp1872
sg81
g1786
sg74
(lp1873
g67
(g88
g69
NtRp1874
(dp1875
g72
(dp1876
g92
g93
ssg81
g1870
sg74
(lp1877
g388
asbag67
(g88
g69
NtRp1878
(dp1879
g72
(dp1880
g99
g100
ssg81
g1870
sg74
(lp1881
S':'
asbag67
(g88
g69
NtRp1882
(dp1883
g72
(dp1884
sg81
g1870
sg74
(lp1885
g67
(g68
g69
NtRp1886
(dp1887
g72
(dp1888
g80
I3
ssg81
g1882
sg74
(lp1889
S''
asbasbasbag67
(g83
g69
NtRp1890
(dp1891
g72
(dp1892
sg81
g1786
sg74
(lp1893
g67
(g88
g69
NtRp1894
(dp1895
g72
(dp1896
g92
g93
ssg81
g1890
sg74
(lp1897
g409
asbag67
(g88
g69
NtRp1898
(dp1899
g72
(dp1900
g99
g100
ssg81
g1890
sg74
(lp1901
S':'
asbag67
(g88
g69
NtRp1902
(dp1903
g72
(dp1904
sg81
g1890
sg74
(lp1905
g67
(g68
g69
NtRp1906
(dp1907
g72
(dp1908
g80
I3
ssg81
g1902
sg74
(lp1909
S''
asbasbasbag67
(g83
g69
NtRp1910
(dp1911
g72
(dp1912
sg81
g1786
sg74
(lp1913
g67
(g88
g69
NtRp1914
(dp1915
g72
(dp1916
g92
g93
ssg81
g1910
sg74
(lp1917
g430
asbag67
(g88
g69
NtRp1918
(dp1919
g72
(dp1920
g99
g100
ssg81
g1910
sg74
(lp1921
S':'
asbag67
(g88
g69
NtRp1922
(dp1923
g72
(dp1924
sg81
g1910
sg74
(lp1925
g67
(g68
g69
NtRp1926
(dp1927
g72
(dp1928
g80
I3
ssg81
g1922
sg74
(lp1929
S''
asbasbasbag67
(g83
g69
NtRp1930
(dp1931
g72
(dp1932
sg81
g1786
sg74
(lp1933
g67
(g88
g69
NtRp1934
(dp1935
g72
(dp1936
g92
g93
ssg81
g1930
sg74
(lp1937
g451
asbag67
(g88
g69
NtRp1938
(dp1939
g72
(dp1940
g99
g100
ssg81
g1930
sg74
(lp1941
S':'
asbag67
(g88
g69
NtRp1942
(dp1943
g72
(dp1944
sg81
g1930
sg74
(lp1945
g67
(g68
g69
NtRp1946
(dp1947
g72
(dp1948
g80
I3
ssg81
g1942
sg74
(lp1949
S''
asbasbasbasbasbasbasbag67
(g83
g69
NtRp1950
(dp1951
g72
(dp1952
sg81
g266
sg74
(lp1953
g67
(g88
g69
NtRp1954
(dp1955
g72
(dp1956
g92
g93
ssg81
g1950
sg74
(lp1957
S'types'
p1958
asbag67
(g88
g69
NtRp1959
(dp1960
g72
(dp1961
g99
g100
ssg81
g1950
sg74
(lp1962
S':'
asbag67
(g88
g69
NtRp1963
(dp1964
g72
(dp1965
sg81
g1950
sg74
(lp1966
g67
(g68
g69
NtRp1967
(dp1968
g72
(dp1969
g80
I4
ssg81
g1963
sg74
(lp1970
S'Rev%201.0.1%20MX60-32S%20%20Kernel%201.0.11%20%28F%29'
p1971
ag67
(g76
g69
NtRp1972
(dp1973
g72
(dp1974
g80
I3
ssg81
Nsg74
(lp1975
g67
(g83
g69
NtRp1976
(dp1977
g72
(dp1978
sg81
g1972
sg74
(lp1979
g67
(g88
g69
NtRp1980
(dp1981
g72
(dp1982
g92
g93
ssg81
g1976
sg74
(lp1983
g304
asbag67
(g88
g69
NtRp1984
(dp1985
g72
(dp1986
g99
g100
ssg81
g1976
sg74
(lp1987
S':'
asbag67
(g88
g69
NtRp1988
(dp1989
g72
(dp1990
sg81
g1976
sg74
(lp1991
g67
(g68
g69
NtRp1992
(dp1993
g72
(dp1994
g80
I3
ssg81
g1988
sg74
(lp1995
S''
asbasbasbag67
(g83
g69
NtRp1996
(dp1997
g72
(dp1998
sg81
g1972
sg74
(lp1999
g67
(g88
g69
NtRp2000
(dp2001
g72
(dp2002
g92
g93
ssg81
g1996
sg74
(lp2003
g325
asbag67
(g88
g69
NtRp2004
(dp2005
g72
(dp2006
g99
g100
ssg81
g1996
sg74
(lp2007
S':'
asbag67
(g88
g69
NtRp2008
(dp2009
g72
(dp2010
sg81
g1996
sg74
(lp2011
g67
(g68
g69
NtRp2012
(dp2013
g72
(dp2014
g80
I3
ssg81
g2008
sg74
(lp2015
S''
asbasbasbag67
(g83
g69
NtRp2016
(dp2017
g72
(dp2018
sg81
g1972
sg74
(lp2019
g67
(g88
g69
NtRp2020
(dp2021
g72
(dp2022
g92
g93
ssg81
g2016
sg74
(lp2023
g346
asbag67
(g88
g69
NtRp2024
(dp2025
g72
(dp2026
g99
g100
ssg81
g2016
sg74
(lp2027
S':'
asbag67
(g88
g69
NtRp2028
(dp2029
g72
(dp2030
sg81
g2016
sg74
(lp2031
g67
(g68
g69
NtRp2032
(dp2033
g72
(dp2034
g80
I3
ssg81
g2028
sg74
(lp2035
S''
asbasbasbag67
(g83
g69
NtRp2036
(dp2037
g72
(dp2038
sg81
g1972
sg74
(lp2039
g67
(g88
g69
NtRp2040
(dp2041
g72
(dp2042
g92
g93
ssg81
g2036
sg74
(lp2043
g367
asbag67
(g88
g69
NtRp2044
(dp2045
g72
(dp2046
g99
g100
ssg81
g2036
sg74
(lp2047
S':'
asbag67
(g88
g69
NtRp2048
(dp2049
g72
(dp2050
sg81
g2036
sg74
(lp2051
g67
(g68
g69
NtRp2052
(dp2053
g72
(dp2054
g80
I3
ssg81
g2048
sg74
(lp2055
S''
asbasbasbag67
(g83
g69
NtRp2056
(dp2057
g72
(dp2058
sg81
g1972
sg74
(lp2059
g67
(g88
g69
NtRp2060
(dp2061
g72
(dp2062
g92
g93
ssg81
g2056
sg74
(lp2063
g388
asbag67
(g88
g69
NtRp2064
(dp2065
g72
(dp2066
g99
g100
ssg81
g2056
sg74
(lp2067
S':'
asbag67
(g88
g69
NtRp2068
(dp2069
g72
(dp2070
sg81
g2056
sg74
(lp2071
g67
(g68
g69
NtRp2072
(dp2073
g72
(dp2074
g80
I3
ssg81
g2068
sg74
(lp2075
S''
asbasbasbag67
(g83
g69
NtRp2076
(dp2077
g72
(dp2078
sg81
g1972
sg74
(lp2079
g67
(g88
g69
NtRp2080
(dp2081
g72
(dp2082
g92
g93
ssg81
g2076
sg74
(lp2083
g409
asbag67
(g88
g69
NtRp2084
(dp2085
g72
(dp2086
g99
g100
ssg81
g2076
sg74
(lp2087
S':'
asbag67
(g88
g69
NtRp2088
(dp2089
g72
(dp2090
sg81
g2076
sg74
(lp2091
g67
(g68
g69
NtRp2092
(dp2093
g72
(dp2094
g80
I3
ssg81
g2088
sg74
(lp2095
S''
asbasbasbag67
(g83
g69
NtRp2096
(dp2097
g72
(dp2098
sg81
g1972
sg74
(lp2099
g67
(g88
g69
NtRp2100
(dp2101
g72
(dp2102
g92
g93
ssg81
g2096
sg74
(lp2103
g430
asbag67
(g88
g69
NtRp2104
(dp2105
g72
(dp2106
g99
g100
ssg81
g2096
sg74
(lp2107
S':'
asbag67
(g88
g69
NtRp2108
(dp2109
g72
(dp2110
sg81
g2096
sg74
(lp2111
g67
(g68
g69
NtRp2112
(dp2113
g72
(dp2114
g80
I3
ssg81
g2108
sg74
(lp2115
S''
asbasbasbag67
(g83
g69
NtRp2116
(dp2117
g72
(dp2118
sg81
g1972
sg74
(lp2119
g67
(g88
g69
NtRp2120
(dp2121
g72
(dp2122
g92
g93
ssg81
g2116
sg74
(lp2123
g451
asbag67
(g88
g69
NtRp2124
(dp2125
g72
(dp2126
g99
g100
ssg81
g2116
sg74
(lp2127
S':'
asbag67
(g88
g69
NtRp2128
(dp2129
g72
(dp2130
sg81
g2116
sg74
(lp2131
g67
(g68
g69
NtRp2132
(dp2133
g72
(dp2134
g80
I3
ssg81
g2128
sg74
(lp2135
S''
asbasbasbasbasbasbasbasbasbasbasbag67
(g83
g69
NtRp2136
(dp2137
g72
(dp2138
sg81
g77
sg74
(lp2139
g67
(g88
g69
NtRp2140
(dp2141
g72
(dp2142
g92
g93
ssg81
g2136
sg74
(lp2143
S'env'
p2144
asbag67
(g88
g69
NtRp2145
(dp2146
g72
(dp2147
g99
g100
ssg81
g2136
sg74
(lp2148
S':'
asbag67
(g88
g69
NtRp2149
(dp2150
g72
(dp2151
sg81
g2136
sg74
(lp2152
g67
(g68
g69
NtRp2153
(dp2154
g72
(dp2155
g80
I5
ssg81
g2149
sg74
(lp2156
g67
(g76
g69
NtRp2157
(dp2158
g72
(dp2159
g80
I4
ssg81
Nsg74
(lp2160
g67
(g83
g69
NtRp2161
(dp2162
g72
(dp2163
sg81
g2157
sg74
(lp2164
g67
(g88
g69
NtRp2165
(dp2166
g72
(dp2167
g92
g93
ssg81
g2161
sg74
(lp2168
S'app_folders'
p2169
asbag67
(g88
g69
NtRp2170
(dp2171
g72
(dp2172
g99
g100
ssg81
g2161
sg74
(lp2173
S':'
asbag67
(g88
g69
NtRp2174
(dp2175
g72
(dp2176
sg81
g2161
sg74
(lp2177
g67
(g68
g69
NtRp2178
(dp2179
g72
(dp2180
g80
I4
ssg81
g2174
sg74
(lp2181
S"set(['/var/www/web2py_curso/applications/admin/', '/var/www/web2py_curso/applications/projeto/'])"
p2182
asbasbasbag67
(g83
g69
NtRp2183
(dp2184
g72
(dp2185
sg81
g2157
sg74
(lp2186
g67
(g88
g69
NtRp2187
(dp2188
g72
(dp2189
g92
g93
ssg81
g2183
sg74
(lp2190
S'applications_parent'
p2191
asbag67
(g88
g69
NtRp2192
(dp2193
g72
(dp2194
g99
g100
ssg81
g2183
sg74
(lp2195
S':'
asbag67
(g88
g69
NtRp2196
(dp2197
g72
(dp2198
sg81
g2183
sg74
(lp2199
g67
(g68
g69
NtRp2200
(dp2201
g72
(dp2202
g80
I4
ssg81
g2196
sg74
(lp2203
S'/var/www/web2py_curso'
p2204
asbasbasbag67
(g83
g69
NtRp2205
(dp2206
g72
(dp2207
sg81
g2157
sg74
(lp2208
g67
(g88
g69
NtRp2209
(dp2210
g72
(dp2211
g92
g93
ssg81
g2205
sg74
(lp2212
S'cmd_args'
p2213
asbag67
(g88
g69
NtRp2214
(dp2215
g72
(dp2216
g99
g100
ssg81
g2205
sg74
(lp2217
S':'
asbag67
(g88
g69
NtRp2218
(dp2219
g72
(dp2220
sg81
g2205
sg74
(lp2221
g67
(g68
g69
NtRp2222
(dp2223
g72
(dp2224
g80
I4
ssg81
g2218
sg74
(lp2225
g67
(g76
g69
NtRp2226
(dp2227
g72
(dp2228
g80
I3
ssg81
Nsg74
(lp2229
sbasbasbasbag67
(g83
g69
NtRp2230
(dp2231
g72
(dp2232
sg81
g2157
sg74
(lp2233
g67
(g88
g69
NtRp2234
(dp2235
g72
(dp2236
g92
g93
ssg81
g2230
sg74
(lp2237
S'cmd_options'
p2238
asbag67
(g88
g69
NtRp2239
(dp2240
g72
(dp2241
g99
g100
ssg81
g2230
sg74
(lp2242
S':'
asbag67
(g88
g69
NtRp2243
(dp2244
g72
(dp2245
sg81
g2230
sg74
(lp2246
g67
(g68
g69
NtRp2247
(dp2248
g72
(dp2249
g80
I4
ssg81
g2243
sg74
(lp2250
S"<Values at 0x17c6488: {'verbose': False, 'ip': '127.0.0.1', 'with_scheduler': False, 'ips': [], 'shutdown_timeout': 5, 'taskbar': False, 'port': 8000, 'maxthreads': None, 'softcron': False, 'server_name': 'fernado-desktop', 'bpython': False, 'nogui': False, 'pid_filename': 'httpserver.pid', 'extcron': False, 'runcron': False, 'run_system_tests': False, 'test': None, 'folder': '/var/www/web2py_curso', 'config': '', 'minthreads': None, 'winservice': '', 'shell': None, 'run': '', 'log_filename': 'httpserver.log', 'debuglevel': 30, 'args': [''], 'socket_timeout': 5, 'ssl_ca_certificate': None, 'scheduler': None, 'profiler_filename': None, 'ssl_private_key': '', 'scheduler_groups': None, 'password': '123456', 'request_queue_size': 5, 'ssl_certificate': '', 'cronjob': False, 'numthreads': None, 'quiet': False, 'interfaces': None, 'import_models': False, 'timeout': 10, 'plain': False, 'nobanner': False}>"
p2251
asbasbasbag67
(g83
g69
NtRp2252
(dp2253
g72
(dp2254
sg81
g2157
sg74
(lp2255
g67
(g88
g69
NtRp2256
(dp2257
g72
(dp2258
g92
g93
ssg81
g2252
sg74
(lp2259
S'db_sessions'
p2260
asbag67
(g88
g69
NtRp2261
(dp2262
g72
(dp2263
g99
g100
ssg81
g2252
sg74
(lp2264
S':'
asbag67
(g88
g69
NtRp2265
(dp2266
g72
(dp2267
sg81
g2252
sg74
(lp2268
g67
(g68
g69
NtRp2269
(dp2270
g72
(dp2271
g80
I4
ssg81
g2265
sg74
(lp2272
S'set([])'
p2273
asbasbasbag67
(g83
g69
NtRp2274
(dp2275
g72
(dp2276
sg81
g2157
sg74
(lp2277
g67
(g88
g69
NtRp2278
(dp2279
g72
(dp2280
g92
g93
ssg81
g2274
sg74
(lp2281
S'debugging'
p2282
asbag67
(g88
g69
NtRp2283
(dp2284
g72
(dp2285
g99
g100
ssg81
g2274
sg74
(lp2286
S':'
asbag67
(g88
g69
NtRp2287
(dp2288
g72
(dp2289
sg81
g2274
sg74
(lp2290
g67
(g68
g69
NtRp2291
(dp2292
g72
(dp2293
g80
I4
ssg81
g2287
sg74
(lp2294
g110
asbasbasbag67
(g83
g69
NtRp2295
(dp2296
g72
(dp2297
sg81
g2157
sg74
(lp2298
g67
(g88
g69
NtRp2299
(dp2300
g72
(dp2301
g92
g93
ssg81
g2295
sg74
(lp2302
S'gluon_parent'
p2303
asbag67
(g88
g69
NtRp2304
(dp2305
g72
(dp2306
g99
g100
ssg81
g2295
sg74
(lp2307
S':'
asbag67
(g88
g69
NtRp2308
(dp2309
g72
(dp2310
sg81
g2295
sg74
(lp2311
g67
(g68
g69
NtRp2312
(dp2313
g72
(dp2314
g80
I4
ssg81
g2308
sg74
(lp2315
S'/var/www/web2py_curso'
p2316
asbasbasbag67
(g83
g69
NtRp2317
(dp2318
g72
(dp2319
sg81
g2157
sg74
(lp2320
g67
(g88
g69
NtRp2321
(dp2322
g72
(dp2323
g92
g93
ssg81
g2317
sg74
(lp2324
S'http_accept'
p2325
asbag67
(g88
g69
NtRp2326
(dp2327
g72
(dp2328
g99
g100
ssg81
g2317
sg74
(lp2329
S':'
asbag67
(g88
g69
NtRp2330
(dp2331
g72
(dp2332
sg81
g2317
sg74
(lp2333
g67
(g68
g69
NtRp2334
(dp2335
g72
(dp2336
g80
I4
ssg81
g2330
sg74
(lp2337
S'text/html,application/xhtml+xml,application/xml;q=0.9,*/*;q=0.8'
p2338
asbasbasbag67
(g83
g69
NtRp2339
(dp2340
g72
(dp2341
sg81
g2157
sg74
(lp2342
g67
(g88
g69
NtRp2343
(dp2344
g72
(dp2345
g92
g93
ssg81
g2339
sg74
(lp2346
S'http_accept_charset'
p2347
asbag67
(g88
g69
NtRp2348
(dp2349
g72
(dp2350
g99
g100
ssg81
g2339
sg74
(lp2351
S':'
asbag67
(g88
g69
NtRp2352
(dp2353
g72
(dp2354
sg81
g2339
sg74
(lp2355
g67
(g68
g69
NtRp2356
(dp2357
g72
(dp2358
g80
I4
ssg81
g2352
sg74
(lp2359
S'ISO-8859-1,utf-8;q=0.7,*;q=0.3'
p2360
asbasbasbag67
(g83
g69
NtRp2361
(dp2362
g72
(dp2363
sg81
g2157
sg74
(lp2364
g67
(g88
g69
NtRp2365
(dp2366
g72
(dp2367
g92
g93
ssg81
g2361
sg74
(lp2368
S'http_accept_encoding'
p2369
asbag67
(g88
g69
NtRp2370
(dp2371
g72
(dp2372
g99
g100
ssg81
g2361
sg74
(lp2373
S':'
asbag67
(g88
g69
NtRp2374
(dp2375
g72
(dp2376
sg81
g2361
sg74
(lp2377
g67
(g68
g69
NtRp2378
(dp2379
g72
(dp2380
g80
I4
ssg81
g2374
sg74
(lp2381
S'gzip,deflate,sdch'
p2382
asbasbasbag67
(g83
g69
NtRp2383
(dp2384
g72
(dp2385
sg81
g2157
sg74
(lp2386
g67
(g88
g69
NtRp2387
(dp2388
g72
(dp2389
g92
g93
ssg81
g2383
sg74
(lp2390
S'http_accept_language'
p2391
asbag67
(g88
g69
NtRp2392
(dp2393
g72
(dp2394
g99
g100
ssg81
g2383
sg74
(lp2395
S':'
asbag67
(g88
g69
NtRp2396
(dp2397
g72
(dp2398
sg81
g2383
sg74
(lp2399
g67
(g68
g69
NtRp2400
(dp2401
g72
(dp2402
g80
I4
ssg81
g2396
sg74
(lp2403
S'pt-BR,pt;q=0.8,en-US;q=0.6,en;q=0.4'
p2404
asbasbasbag67
(g83
g69
NtRp2405
(dp2406
g72
(dp2407
sg81
g2157
sg74
(lp2408
g67
(g88
g69
NtRp2409
(dp2410
g72
(dp2411
g92
g93
ssg81
g2405
sg74
(lp2412
S'http_cache_control'
p2413
asbag67
(g88
g69
NtRp2414
(dp2415
g72
(dp2416
g99
g100
ssg81
g2405
sg74
(lp2417
S':'
asbag67
(g88
g69
NtRp2418
(dp2419
g72
(dp2420
sg81
g2405
sg74
(lp2421
g67
(g68
g69
NtRp2422
(dp2423
g72
(dp2424
g80
I4
ssg81
g2418
sg74
(lp2425
S'max-age=0'
p2426
asbasbasbag67
(g83
g69
NtRp2427
(dp2428
g72
(dp2429
sg81
g2157
sg74
(lp2430
g67
(g88
g69
NtRp2431
(dp2432
g72
(dp2433
g92
g93
ssg81
g2427
sg74
(lp2434
S'http_connection'
p2435
asbag67
(g88
g69
NtRp2436
(dp2437
g72
(dp2438
g99
g100
ssg81
g2427
sg74
(lp2439
S':'
asbag67
(g88
g69
NtRp2440
(dp2441
g72
(dp2442
sg81
g2427
sg74
(lp2443
g67
(g68
g69
NtRp2444
(dp2445
g72
(dp2446
g80
I4
ssg81
g2440
sg74
(lp2447
S'keep-alive'
p2448
asbasbasbag67
(g83
g69
NtRp2449
(dp2450
g72
(dp2451
sg81
g2157
sg74
(lp2452
g67
(g88
g69
NtRp2453
(dp2454
g72
(dp2455
g92
g93
ssg81
g2449
sg74
(lp2456
S'http_cookie'
p2457
asbag67
(g88
g69
NtRp2458
(dp2459
g72
(dp2460
g99
g100
ssg81
g2449
sg74
(lp2461
S':'
asbag67
(g88
g69
NtRp2462
(dp2463
g72
(dp2464
sg81
g2449
sg74
(lp2465
g67
(g68
g69
NtRp2466
(dp2467
g72
(dp2468
g80
I4
ssg81
g2462
sg74
(lp2469
S'hw_type=MX60; hw_version=Rev%201.9.82.316; types=Rev%201.0.1%20MX60-32S%20%20Kernel%201.0.11%20%28F%29; admin=admin; cookie=1649423593; model=MX; nr=1; language=1; session_id_admin=127.0.0.1-1b245eab-7eb6-4362-8fe9-bd57be48714b; session_id_projeto=127.0.0.1-a92e0168-6f87-49ed-a239-5acc06287f24'
p2470
asbasbasbag67
(g83
g69
NtRp2471
(dp2472
g72
(dp2473
sg81
g2157
sg74
(lp2474
g67
(g88
g69
NtRp2475
(dp2476
g72
(dp2477
g92
g93
ssg81
g2471
sg74
(lp2478
S'http_host'
p2479
asbag67
(g88
g69
NtRp2480
(dp2481
g72
(dp2482
g99
g100
ssg81
g2471
sg74
(lp2483
S':'
asbag67
(g88
g69
NtRp2484
(dp2485
g72
(dp2486
sg81
g2471
sg74
(lp2487
g67
(g68
g69
NtRp2488
(dp2489
g72
(dp2490
g80
I4
ssg81
g2484
sg74
(lp2491
S'127.0.0.1:8000'
p2492
asbasbasbag67
(g83
g69
NtRp2493
(dp2494
g72
(dp2495
sg81
g2157
sg74
(lp2496
g67
(g88
g69
NtRp2497
(dp2498
g72
(dp2499
g92
g93
ssg81
g2493
sg74
(lp2500
S'http_user_agent'
p2501
asbag67
(g88
g69
NtRp2502
(dp2503
g72
(dp2504
g99
g100
ssg81
g2493
sg74
(lp2505
S':'
asbag67
(g88
g69
NtRp2506
(dp2507
g72
(dp2508
sg81
g2493
sg74
(lp2509
g67
(g68
g69
NtRp2510
(dp2511
g72
(dp2512
g80
I4
ssg81
g2506
sg74
(lp2513
S'Mozilla/5.0 (X11; Linux x86_64) AppleWebKit/537.4 (KHTML, like Gecko) Ubuntu/12.10 Chromium/22.0.1229.94 Chrome/22.0.1229.94 Safari/537.4'
p2514
asbasbasbag67
(g83
g69
NtRp2515
(dp2516
g72
(dp2517
sg81
g2157
sg74
(lp2518
g67
(g88
g69
NtRp2519
(dp2520
g72
(dp2521
g92
g93
ssg81
g2515
sg74
(lp2522
S'is_jython'
p2523
asbag67
(g88
g69
NtRp2524
(dp2525
g72
(dp2526
g99
g100
ssg81
g2515
sg74
(lp2527
S':'
asbag67
(g88
g69
NtRp2528
(dp2529
g72
(dp2530
sg81
g2515
sg74
(lp2531
g67
(g68
g69
NtRp2532
(dp2533
g72
(dp2534
g80
I4
ssg81
g2528
sg74
(lp2535
g110
asbasbasbag67
(g83
g69
NtRp2536
(dp2537
g72
(dp2538
sg81
g2157
sg74
(lp2539
g67
(g88
g69
NtRp2540
(dp2541
g72
(dp2542
g92
g93
ssg81
g2536
sg74
(lp2543
S'is_pypy'
p2544
asbag67
(g88
g69
NtRp2545
(dp2546
g72
(dp2547
g99
g100
ssg81
g2536
sg74
(lp2548
S':'
asbag67
(g88
g69
NtRp2549
(dp2550
g72
(dp2551
sg81
g2536
sg74
(lp2552
g67
(g68
g69
NtRp2553
(dp2554
g72
(dp2555
g80
I4
ssg81
g2549
sg74
(lp2556
g110
asbasbasbag67
(g83
g69
NtRp2557
(dp2558
g72
(dp2559
sg81
g2157
sg74
(lp2560
g67
(g88
g69
NtRp2561
(dp2562
g72
(dp2563
g92
g93
ssg81
g2557
sg74
(lp2564
S'local_hosts'
p2565
asbag67
(g88
g69
NtRp2566
(dp2567
g72
(dp2568
g99
g100
ssg81
g2557
sg74
(lp2569
S':'
asbag67
(g88
g69
NtRp2570
(dp2571
g72
(dp2572
sg81
g2557
sg74
(lp2573
g67
(g68
g69
NtRp2574
(dp2575
g72
(dp2576
g80
I4
ssg81
g2570
sg74
(lp2577
g67
(g76
g69
NtRp2578
(dp2579
g72
(dp2580
g80
I3
ssg81
Nsg74
(lp2581
g67
(g83
g69
NtRp2582
(dp2583
g72
(dp2584
sg81
g2578
sg74
(lp2585
g67
(g88
g69
NtRp2586
(dp2587
g72
(dp2588
sg81
g2582
sg74
(lp2589
g67
(g68
g69
NtRp2590
(dp2591
g72
(dp2592
g80
I3
ssg81
g2586
sg74
(lp2593
S'127.0.1.1'
p2594
asbasbasbag67
(g83
g69
NtRp2595
(dp2596
g72
(dp2597
sg81
g2578
sg74
(lp2598
g67
(g88
g69
NtRp2599
(dp2600
g72
(dp2601
sg81
g2595
sg74
(lp2602
g67
(g68
g69
NtRp2603
(dp2604
g72
(dp2605
g80
I3
ssg81
g2599
sg74
(lp2606
S'::1'
p2607
asbasbasbag67
(g83
g69
NtRp2608
(dp2609
g72
(dp2610
sg81
g2578
sg74
(lp2611
g67
(g88
g69
NtRp2612
(dp2613
g72
(dp2614
sg81
g2608
sg74
(lp2615
g67
(g68
g69
NtRp2616
(dp2617
g72
(dp2618
g80
I3
ssg81
g2612
sg74
(lp2619
S'fernado-desktop'
p2620
asbasbasbag67
(g83
g69
NtRp2621
(dp2622
g72
(dp2623
sg81
g2578
sg74
(lp2624
g67
(g88
g69
NtRp2625
(dp2626
g72
(dp2627
sg81
g2621
sg74
(lp2628
g67
(g68
g69
NtRp2629
(dp2630
g72
(dp2631
g80
I3
ssg81
g2625
sg74
(lp2632
S'::ffff:127.0.0.1'
p2633
asbasbasbag67
(g83
g69
NtRp2634
(dp2635
g72
(dp2636
sg81
g2578
sg74
(lp2637
g67
(g88
g69
NtRp2638
(dp2639
g72
(dp2640
sg81
g2634
sg74
(lp2641
g67
(g68
g69
NtRp2642
(dp2643
g72
(dp2644
g80
I3
ssg81
g2638
sg74
(lp2645
S'127.0.0.1'
p2646
asbasbasbasbasbasbasbag67
(g83
g69
NtRp2647
(dp2648
g72
(dp2649
sg81
g2157
sg74
(lp2650
g67
(g88
g69
NtRp2651
(dp2652
g72
(dp2653
g92
g93
ssg81
g2647
sg74
(lp2654
S'path_info'
p2655
asbag67
(g88
g69
NtRp2656
(dp2657
g72
(dp2658
g99
g100
ssg81
g2647
sg74
(lp2659
S':'
asbag67
(g88
g69
NtRp2660
(dp2661
g72
(dp2662
sg81
g2647
sg74
(lp2663
g67
(g68
g69
NtRp2664
(dp2665
g72
(dp2666
g80
I4
ssg81
g2660
sg74
(lp2667
S'/'
asbasbasbag67
(g83
g69
NtRp2668
(dp2669
g72
(dp2670
sg81
g2157
sg74
(lp2671
g67
(g88
g69
NtRp2672
(dp2673
g72
(dp2674
g92
g93
ssg81
g2668
sg74
(lp2675
S'query_string'
p2676
asbag67
(g88
g69
NtRp2677
(dp2678
g72
(dp2679
g99
g100
ssg81
g2668
sg74
(lp2680
S':'
asbag67
(g88
g69
NtRp2681
(dp2682
g72
(dp2683
sg81
g2668
sg74
(lp2684
g67
(g68
g69
NtRp2685
(dp2686
g72
(dp2687
g80
I4
ssg81
g2681
sg74
(lp2688
S''
asbasbasbag67
(g83
g69
NtRp2689
(dp2690
g72
(dp2691
sg81
g2157
sg74
(lp2692
g67
(g88
g69
NtRp2693
(dp2694
g72
(dp2695
g92
g93
ssg81
g2689
sg74
(lp2696
S'remote_addr'
p2697
asbag67
(g88
g69
NtRp2698
(dp2699
g72
(dp2700
g99
g100
ssg81
g2689
sg74
(lp2701
S':'
asbag67
(g88
g69
NtRp2702
(dp2703
g72
(dp2704
sg81
g2689
sg74
(lp2705
g67
(g68
g69
NtRp2706
(dp2707
g72
(dp2708
g80
I4
ssg81
g2702
sg74
(lp2709
g222
asbasbasbag67
(g83
g69
NtRp2710
(dp2711
g72
(dp2712
sg81
g2157
sg74
(lp2713
g67
(g88
g69
NtRp2714
(dp2715
g72
(dp2716
g92
g93
ssg81
g2710
sg74
(lp2717
S'remote_port'
p2718
asbag67
(g88
g69
NtRp2719
(dp2720
g72
(dp2721
g99
g100
ssg81
g2710
sg74
(lp2722
S':'
asbag67
(g88
g69
NtRp2723
(dp2724
g72
(dp2725
sg81
g2710
sg74
(lp2726
g67
(g68
g69
NtRp2727
(dp2728
g72
(dp2729
g80
I4
ssg81
g2723
sg74
(lp2730
S'38749'
p2731
asbasbasbag67
(g83
g69
NtRp2732
(dp2733
g72
(dp2734
sg81
g2157
sg74
(lp2735
g67
(g88
g69
NtRp2736
(dp2737
g72
(dp2738
g92
g93
ssg81
g2732
sg74
(lp2739
S'request_method'
p2740
asbag67
(g88
g69
NtRp2741
(dp2742
g72
(dp2743
g99
g100
ssg81
g2732
sg74
(lp2744
S':'
asbag67
(g88
g69
NtRp2745
(dp2746
g72
(dp2747
sg81
g2732
sg74
(lp2748
g67
(g68
g69
NtRp2749
(dp2750
g72
(dp2751
g80
I4
ssg81
g2745
sg74
(lp2752
S'GET'
p2753
asbasbasbag67
(g83
g69
NtRp2754
(dp2755
g72
(dp2756
sg81
g2157
sg74
(lp2757
g67
(g88
g69
NtRp2758
(dp2759
g72
(dp2760
g92
g93
ssg81
g2754
sg74
(lp2761
S'request_uri'
p2762
asbag67
(g88
g69
NtRp2763
(dp2764
g72
(dp2765
g99
g100
ssg81
g2754
sg74
(lp2766
S':'
asbag67
(g88
g69
NtRp2767
(dp2768
g72
(dp2769
sg81
g2754
sg74
(lp2770
g67
(g68
g69
NtRp2771
(dp2772
g72
(dp2773
g80
I4
ssg81
g2767
sg74
(lp2774
S'/projeto/initial/home'
p2775
asbasbasbag67
(g83
g69
NtRp2776
(dp2777
g72
(dp2778
sg81
g2157
sg74
(lp2779
g67
(g88
g69
NtRp2780
(dp2781
g72
(dp2782
g92
g93
ssg81
g2776
sg74
(lp2783
S'script_name'
p2784
asbag67
(g88
g69
NtRp2785
(dp2786
g72
(dp2787
g99
g100
ssg81
g2776
sg74
(lp2788
S':'
asbag67
(g88
g69
NtRp2789
(dp2790
g72
(dp2791
sg81
g2776
sg74
(lp2792
g67
(g68
g69
NtRp2793
(dp2794
g72
(dp2795
g80
I4
ssg81
g2789
sg74
(lp2796
S''
asbasbasbag67
(g83
g69
NtRp2797
(dp2798
g72
(dp2799
sg81
g2157
sg74
(lp2800
g67
(g88
g69
NtRp2801
(dp2802
g72
(dp2803
g92
g93
ssg81
g2797
sg74
(lp2804
S'server_name'
p2805
asbag67
(g88
g69
NtRp2806
(dp2807
g72
(dp2808
g99
g100
ssg81
g2797
sg74
(lp2809
S':'
asbag67
(g88
g69
NtRp2810
(dp2811
g72
(dp2812
sg81
g2797
sg74
(lp2813
g67
(g68
g69
NtRp2814
(dp2815
g72
(dp2816
g80
I4
ssg81
g2810
sg74
(lp2817
S'fernado-desktop'
p2818
asbasbasbag67
(g83
g69
NtRp2819
(dp2820
g72
(dp2821
sg81
g2157
sg74
(lp2822
g67
(g88
g69
NtRp2823
(dp2824
g72
(dp2825
g92
g93
ssg81
g2819
sg74
(lp2826
S'server_port'
p2827
asbag67
(g88
g69
NtRp2828
(dp2829
g72
(dp2830
g99
g100
ssg81
g2819
sg74
(lp2831
S':'
asbag67
(g88
g69
NtRp2832
(dp2833
g72
(dp2834
sg81
g2819
sg74
(lp2835
g67
(g68
g69
NtRp2836
(dp2837
g72
(dp2838
g80
I4
ssg81
g2832
sg74
(lp2839
S'8000'
p2840
asbasbasbag67
(g83
g69
NtRp2841
(dp2842
g72
(dp2843
sg81
g2157
sg74
(lp2844
g67
(g88
g69
NtRp2845
(dp2846
g72
(dp2847
g92
g93
ssg81
g2841
sg74
(lp2848
S'server_protocol'
p2849
asbag67
(g88
g69
NtRp2850
(dp2851
g72
(dp2852
g99
g100
ssg81
g2841
sg74
(lp2853
S':'
asbag67
(g88
g69
NtRp2854
(dp2855
g72
(dp2856
sg81
g2841
sg74
(lp2857
g67
(g68
g69
NtRp2858
(dp2859
g72
(dp2860
g80
I4
ssg81
g2854
sg74
(lp2861
S'HTTP/1.1'
p2862
asbasbasbag67
(g83
g69
NtRp2863
(dp2864
g72
(dp2865
sg81
g2157
sg74
(lp2866
g67
(g88
g69
NtRp2867
(dp2868
g72
(dp2869
g92
g93
ssg81
g2863
sg74
(lp2870
S'server_software'
p2871
asbag67
(g88
g69
NtRp2872
(dp2873
g72
(dp2874
g99
g100
ssg81
g2863
sg74
(lp2875
S':'
asbag67
(g88
g69
NtRp2876
(dp2877
g72
(dp2878
sg81
g2863
sg74
(lp2879
g67
(g68
g69
NtRp2880
(dp2881
g72
(dp2882
g80
I4
ssg81
g2876
sg74
(lp2883
S'Rocket 1.2.6'
p2884
asbasbasbag67
(g83
g69
NtRp2885
(dp2886
g72
(dp2887
sg81
g2157
sg74
(lp2888
g67
(g88
g69
NtRp2889
(dp2890
g72
(dp2891
g92
g93
ssg81
g2885
sg74
(lp2892
S'web2py_original_uri'
p2893
asbag67
(g88
g69
NtRp2894
(dp2895
g72
(dp2896
g99
g100
ssg81
g2885
sg74
(lp2897
S':'
asbag67
(g88
g69
NtRp2898
(dp2899
g72
(dp2900
sg81
g2885
sg74
(lp2901
g67
(g68
g69
NtRp2902
(dp2903
g72
(dp2904
g80
I4
ssg81
g2898
sg74
(lp2905
S'/'
asbasbasbag67
(g83
g69
NtRp2906
(dp2907
g72
(dp2908
sg81
g2157
sg74
(lp2909
g67
(g88
g69
NtRp2910
(dp2911
g72
(dp2912
g92
g93
ssg81
g2906
sg74
(lp2913
S'web2py_path'
p2914
asbag67
(g88
g69
NtRp2915
(dp2916
g72
(dp2917
g99
g100
ssg81
g2906
sg74
(lp2918
S':'
asbag67
(g88
g69
NtRp2919
(dp2920
g72
(dp2921
sg81
g2906
sg74
(lp2922
g67
(g68
g69
NtRp2923
(dp2924
g72
(dp2925
g80
I4
ssg81
g2919
sg74
(lp2926
g2204
asbasbasbag67
(g83
g69
NtRp2927
(dp2928
g72
(dp2929
sg81
g2157
sg74
(lp2930
g67
(g88
g69
NtRp2931
(dp2932
g72
(dp2933
g92
g93
ssg81
g2927
sg74
(lp2934
S'web2py_version'
p2935
asbag67
(g88
g69
NtRp2936
(dp2937
g72
(dp2938
g99
g100
ssg81
g2927
sg74
(lp2939
S':'
asbag67
(g88
g69
NtRp2940
(dp2941
g72
(dp2942
sg81
g2927
sg74
(lp2943
g67
(g68
g69
NtRp2944
(dp2945
g72
(dp2946
g80
I4
ssg81
g2940
sg74
(lp2947
g67
(g76
g69
NtRp2948
(dp2949
g72
(dp2950
g80
I3
ssg81
Nsg74
(lp2951
g67
(g83
g69
NtRp2952
(dp2953
g72
(dp2954
sg81
g2948
sg74
(lp2955
g67
(g88
g69
NtRp2956
(dp2957
g72
(dp2958
sg81
g2952
sg74
(lp2959
g67
(g68
g69
NtRp2960
(dp2961
g72
(dp2962
g80
I3
ssg81
g2956
sg74
(lp2963
S'2'
asbasbasbag67
(g83
g69
NtRp2964
(dp2965
g72
(dp2966
sg81
g2948
sg74
(lp2967
g67
(g88
g69
NtRp2968
(dp2969
g72
(dp2970
sg81
g2964
sg74
(lp2971
g67
(g68
g69
NtRp2972
(dp2973
g72
(dp2974
g80
I3
ssg81
g2968
sg74
(lp2975
S'3'
asbasbasbag67
(g83
g69
NtRp2976
(dp2977
g72
(dp2978
sg81
g2948
sg74
(lp2979
g67
(g88
g69
NtRp2980
(dp2981
g72
(dp2982
sg81
g2976
sg74
(lp2983
g67
(g68
g69
NtRp2984
(dp2985
g72
(dp2986
g80
I3
ssg81
g2980
sg74
(lp2987
S'2'
asbasbasbag67
(g83
g69
NtRp2988
(dp2989
g72
(dp2990
sg81
g2948
sg74
(lp2991
g67
(g88
g69
NtRp2992
(dp2993
g72
(dp2994
sg81
g2988
sg74
(lp2995
g67
(g68
g69
NtRp2996
(dp2997
g72
(dp2998
g80
I3
ssg81
g2992
sg74
(lp2999
S'datetime.datetime(2012, 12, 17, 15, 3, 30)'
p3000
asbasbasbag67
(g83
g69
NtRp3001
(dp3002
g72
(dp3003
sg81
g2948
sg74
(lp3004
g67
(g88
g69
NtRp3005
(dp3006
g72
(dp3007
sg81
g3001
sg74
(lp3008
g67
(g68
g69
NtRp3009
(dp3010
g72
(dp3011
g80
I3
ssg81
g3005
sg74
(lp3012
S'stable'
p3013
asbasbasbasbasbasbasbag67
(g83
g69
NtRp3014
(dp3015
g72
(dp3016
sg81
g2157
sg74
(lp3017
g67
(g88
g69
NtRp3018
(dp3019
g72
(dp3020
g92
g93
ssg81
g3014
sg74
(lp3021
S'wsgi_errors'
p3022
asbag67
(g88
g69
NtRp3023
(dp3024
g72
(dp3025
g99
g100
ssg81
g3014
sg74
(lp3026
S':'
asbag67
(g88
g69
NtRp3027
(dp3028
g72
(dp3029
sg81
g3014
sg74
(lp3030
g67
(g68
g69
NtRp3031
(dp3032
g72
(dp3033
g80
I4
ssg81
g3027
sg74
(lp3034
S"<open file '<stderr>', mode 'w' at 0x7feebf81f270>"
p3035
asbasbasbag67
(g83
g69
NtRp3036
(dp3037
g72
(dp3038
sg81
g2157
sg74
(lp3039
g67
(g88
g69
NtRp3040
(dp3041
g72
(dp3042
g92
g93
ssg81
g3036
sg74
(lp3043
S'wsgi_file_wrapper'
p3044
asbag67
(g88
g69
NtRp3045
(dp3046
g72
(dp3047
g99
g100
ssg81
g3036
sg74
(lp3048
S':'
asbag67
(g88
g69
NtRp3049
(dp3050
g72
(dp3051
sg81
g3036
sg74
(lp3052
g67
(g68
g69
NtRp3053
(dp3054
g72
(dp3055
g80
I4
ssg81
g3049
sg74
(lp3056
S'<class wsgiref.util.FileWrapper at 0x171aa10>'
p3057
asbasbasbag67
(g83
g69
NtRp3058
(dp3059
g72
(dp3060
sg81
g2157
sg74
(lp3061
g67
(g88
g69
NtRp3062
(dp3063
g72
(dp3064
g92
g93
ssg81
g3058
sg74
(lp3065
S'wsgi_input'
p3066
asbag67
(g88
g69
NtRp3067
(dp3068
g72
(dp3069
g99
g100
ssg81
g3058
sg74
(lp3070
S':'
asbag67
(g88
g69
NtRp3071
(dp3072
g72
(dp3073
sg81
g3058
sg74
(lp3074
g67
(g68
g69
NtRp3075
(dp3076
g72
(dp3077
g80
I4
ssg81
g3071
sg74
(lp3078
S'<socket._fileobject object at 0x7feea85ab3d0>'
p3079
asbasbasbag67
(g83
g69
NtRp3080
(dp3081
g72
(dp3082
sg81
g2157
sg74
(lp3083
g67
(g88
g69
NtRp3084
(dp3085
g72
(dp3086
g92
g93
ssg81
g3080
sg74
(lp3087
S'wsgi_multiprocess'
p3088
asbag67
(g88
g69
NtRp3089
(dp3090
g72
(dp3091
g99
g100
ssg81
g3080
sg74
(lp3092
S':'
asbag67
(g88
g69
NtRp3093
(dp3094
g72
(dp3095
sg81
g3080
sg74
(lp3096
g67
(g68
g69
NtRp3097
(dp3098
g72
(dp3099
g80
I4
ssg81
g3093
sg74
(lp3100
g110
asbasbasbag67
(g83
g69
NtRp3101
(dp3102
g72
(dp3103
sg81
g2157
sg74
(lp3104
g67
(g88
g69
NtRp3105
(dp3106
g72
(dp3107
g92
g93
ssg81
g3101
sg74
(lp3108
S'wsgi_multithread'
p3109
asbag67
(g88
g69
NtRp3110
(dp3111
g72
(dp3112
g99
g100
ssg81
g3101
sg74
(lp3113
S':'
asbag67
(g88
g69
NtRp3114
(dp3115
g72
(dp3116
sg81
g3101
sg74
(lp3117
g67
(g68
g69
NtRp3118
(dp3119
g72
(dp3120
g80
I4
ssg81
g3114
sg74
(lp3121
S'True'
p3122
asbasbasbag67
(g83
g69
NtRp3123
(dp3124
g72
(dp3125
sg81
g2157
sg74
(lp3126
g67
(g88
g69
NtRp3127
(dp3128
g72
(dp3129
g92
g93
ssg81
g3123
sg74
(lp3130
S'wsgi_run_once'
p3131
asbag67
(g88
g69
NtRp3132
(dp3133
g72
(dp3134
g99
g100
ssg81
g3123
sg74
(lp3135
S':'
asbag67
(g88
g69
NtRp3136
(dp3137
g72
(dp3138
sg81
g3123
sg74
(lp3139
g67
(g68
g69
NtRp3140
(dp3141
g72
(dp3142
g80
I4
ssg81
g3136
sg74
(lp3143
g110
asbasbasbag67
(g83
g69
NtRp3144
(dp3145
g72
(dp3146
sg81
g2157
sg74
(lp3147
g67
(g88
g69
NtRp3148
(dp3149
g72
(dp3150
g92
g93
ssg81
g3144
sg74
(lp3151
S'wsgi_url_scheme'
p3152
asbag67
(g88
g69
NtRp3153
(dp3154
g72
(dp3155
g99
g100
ssg81
g3144
sg74
(lp3156
S':'
asbag67
(g88
g69
NtRp3157
(dp3158
g72
(dp3159
sg81
g3144
sg74
(lp3160
g67
(g68
g69
NtRp3161
(dp3162
g72
(dp3163
g80
I4
ssg81
g3157
sg74
(lp3164
S'http'
p3165
asbasbasbag67
(g83
g69
NtRp3166
(dp3167
g72
(dp3168
sg81
g2157
sg74
(lp3169
g67
(g88
g69
NtRp3170
(dp3171
g72
(dp3172
g92
g93
ssg81
g3166
sg74
(lp3173
S'wsgi_version'
p3174
asbag67
(g88
g69
NtRp3175
(dp3176
g72
(dp3177
g99
g100
ssg81
g3166
sg74
(lp3178
S':'
asbag67
(g88
g69
NtRp3179
(dp3180
g72
(dp3181
sg81
g3166
sg74
(lp3182
g67
(g68
g69
NtRp3183
(dp3184
g72
(dp3185
g80
I4
ssg81
g3179
sg74
(lp3186
g67
(g76
g69
NtRp3187
(dp3188
g72
(dp3189
g80
I3
ssg81
Nsg74
(lp3190
g67
(g83
g69
NtRp3191
(dp3192
g72
(dp3193
sg81
g3187
sg74
(lp3194
g67
(g88
g69
NtRp3195
(dp3196
g72
(dp3197
sg81
g3191
sg74
(lp3198
g67
(g68
g69
NtRp3199
(dp3200
g72
(dp3201
g80
I3
ssg81
g3195
sg74
(lp3202
S'1'
asbasbasbag67
(g83
g69
NtRp3203
(dp3204
g72
(dp3205
sg81
g3187
sg74
(lp3206
g67
(g88
g69
NtRp3207
(dp3208
g72
(dp3209
sg81
g3203
sg74
(lp3210
g67
(g68
g69
NtRp3211
(dp3212
g72
(dp3213
g80
I3
ssg81
g3207
sg74
(lp3214
S'0'
asbasbasbasbasbasbasbasbasbasbasbag67
(g83
g69
NtRp3215
(dp3216
g72
(dp3217
sg81
g77
sg74
(lp3218
g67
(g88
g69
NtRp3219
(dp3220
g72
(dp3221
g92
g93
ssg81
g3215
sg74
(lp3222
S'extension'
p3223
asbag67
(g88
g69
NtRp3224
(dp3225
g72
(dp3226
g99
g100
ssg81
g3215
sg74
(lp3227
S':'
asbag67
(g88
g69
NtRp3228
(dp3229
g72
(dp3230
sg81
g3215
sg74
(lp3231
g67
(g68
g69
NtRp3232
(dp3233
g72
(dp3234
g80
I5
ssg81
g3228
sg74
(lp3235
S'html'
p3236
asbasbasbag67
(g83
g69
NtRp3237
(dp3238
g72
(dp3239
sg81
g77
sg74
(lp3240
g67
(g88
g69
NtRp3241
(dp3242
g72
(dp3243
g92
g93
ssg81
g3237
sg74
(lp3244
S'folder'
p3245
asbag67
(g88
g69
NtRp3246
(dp3247
g72
(dp3248
g99
g100
ssg81
g3237
sg74
(lp3249
S':'
asbag67
(g88
g69
NtRp3250
(dp3251
g72
(dp3252
sg81
g3237
sg74
(lp3253
g67
(g68
g69
NtRp3254
(dp3255
g72
(dp3256
g80
I5
ssg81
g3250
sg74
(lp3257
S'/var/www/web2py_curso/applications/projeto/'
p3258
asbasbasbag67
(g83
g69
NtRp3259
(dp3260
g72
(dp3261
sg81
g77
sg74
(lp3262
g67
(g88
g69
NtRp3263
(dp3264
g72
(dp3265
g92
g93
ssg81
g3259
sg74
(lp3266
S'function'
p3267
asbag67
(g88
g69
NtRp3268
(dp3269
g72
(dp3270
g99
g100
ssg81
g3259
sg74
(lp3271
S':'
asbag67
(g88
g69
NtRp3272
(dp3273
g72
(dp3274
sg81
g3259
sg74
(lp3275
g67
(g68
g69
NtRp3276
(dp3277
g72
(dp3278
g80
I5
ssg81
g3272
sg74
(lp3279
S'home'
p3280
asbasbasbag67
(g83
g69
NtRp3281
(dp3282
g72
(dp3283
sg81
g77
sg74
(lp3284
g67
(g88
g69
NtRp3285
(dp3286
g72
(dp3287
g92
g93
ssg81
g3281
sg74
(lp3288
S'get_vars'
p3289
asbag67
(g88
g69
NtRp3290
(dp3291
g72
(dp3292
g99
g100
ssg81
g3281
sg74
(lp3293
S':'
asbag67
(g88
g69
NtRp3294
(dp3295
g72
(dp3296
sg81
g3281
sg74
(lp3297
g67
(g68
g69
NtRp3298
(dp3299
g72
(dp3300
g80
I5
ssg81
g3294
sg74
(lp3301
g67
(g76
g69
NtRp3302
(dp3303
g72
(dp3304
g80
I4
ssg81
Nsg74
(lp3305
sbasbasbasbag67
(g83
g69
NtRp3306
(dp3307
g72
(dp3308
sg81
g77
sg74
(lp3309
g67
(g88
g69
NtRp3310
(dp3311
g72
(dp3312
g92
g93
ssg81
g3306
sg74
(lp3313
S'global_settings'
p3314
asbag67
(g88
g69
NtRp3315
(dp3316
g72
(dp3317
g99
g100
ssg81
g3306
sg74
(lp3318
S':'
asbag67
(g88
g69
NtRp3319
(dp3320
g72
(dp3321
sg81
g3306
sg74
(lp3322
g67
(g68
g69
NtRp3323
(dp3324
g72
(dp3325
g80
I5
ssg81
g3319
sg74
(lp3326
g67
(g76
g69
NtRp3327
(dp3328
g72
(dp3329
g80
I4
ssg81
Nsg74
(lp3330
g67
(g83
g69
NtRp3331
(dp3332
g72
(dp3333
sg81
g3327
sg74
(lp3334
g67
(g88
g69
NtRp3335
(dp3336
g72
(dp3337
g92
g93
ssg81
g3331
sg74
(lp3338
g2169
asbag67
(g88
g69
NtRp3339
(dp3340
g72
(dp3341
g99
g100
ssg81
g3331
sg74
(lp3342
S':'
asbag67
(g88
g69
NtRp3343
(dp3344
g72
(dp3345
sg81
g3331
sg74
(lp3346
g67
(g68
g69
NtRp3347
(dp3348
g72
(dp3349
g80
I4
ssg81
g3343
sg74
(lp3350
S"set(['/var/www/web2py_curso/applications/admin/', '/var/www/web2py_curso/applications/projeto/'])"
p3351
asbasbasbag67
(g83
g69
NtRp3352
(dp3353
g72
(dp3354
sg81
g3327
sg74
(lp3355
g67
(g88
g69
NtRp3356
(dp3357
g72
(dp3358
g92
g93
ssg81
g3352
sg74
(lp3359
g2191
asbag67
(g88
g69
NtRp3360
(dp3361
g72
(dp3362
g99
g100
ssg81
g3352
sg74
(lp3363
S':'
asbag67
(g88
g69
NtRp3364
(dp3365
g72
(dp3366
sg81
g3352
sg74
(lp3367
g67
(g68
g69
NtRp3368
(dp3369
g72
(dp3370
g80
I4
ssg81
g3364
sg74
(lp3371
g2204
asbasbasbag67
(g83
g69
NtRp3372
(dp3373
g72
(dp3374
sg81
g3327
sg74
(lp3375
g67
(g88
g69
NtRp3376
(dp3377
g72
(dp3378
g92
g93
ssg81
g3372
sg74
(lp3379
g2213
asbag67
(g88
g69
NtRp3380
(dp3381
g72
(dp3382
g99
g100
ssg81
g3372
sg74
(lp3383
S':'
asbag67
(g88
g69
NtRp3384
(dp3385
g72
(dp3386
sg81
g3372
sg74
(lp3387
g67
(g68
g69
NtRp3388
(dp3389
g72
(dp3390
g80
I4
ssg81
g3384
sg74
(lp3391
g67
(g76
g69
NtRp3392
(dp3393
g72
(dp3394
g80
I3
ssg81
Nsg74
(lp3395
sbasbasbasbag67
(g83
g69
NtRp3396
(dp3397
g72
(dp3398
sg81
g3327
sg74
(lp3399
g67
(g88
g69
NtRp3400
(dp3401
g72
(dp3402
g92
g93
ssg81
g3396
sg74
(lp3403
g2238
asbag67
(g88
g69
NtRp3404
(dp3405
g72
(dp3406
g99
g100
ssg81
g3396
sg74
(lp3407
S':'
asbag67
(g88
g69
NtRp3408
(dp3409
g72
(dp3410
sg81
g3396
sg74
(lp3411
g67
(g68
g69
NtRp3412
(dp3413
g72
(dp3414
g80
I4
ssg81
g3408
sg74
(lp3415
S"<Values at 0x17c6488: {'verbose': False, 'ip': '127.0.0.1', 'with_scheduler': False, 'ips': [], 'shutdown_timeout': 5, 'taskbar': False, 'port': 8000, 'maxthreads': None, 'softcron': False, 'server_name': 'fernado-desktop', 'bpython': False, 'nogui': False, 'pid_filename': 'httpserver.pid', 'extcron': False, 'runcron': False, 'run_system_tests': False, 'test': None, 'folder': '/var/www/web2py_curso', 'config': '', 'minthreads': None, 'winservice': '', 'shell': None, 'run': '', 'log_filename': 'httpserver.log', 'debuglevel': 30, 'args': [''], 'socket_timeout': 5, 'ssl_ca_certificate': None, 'scheduler': None, 'profiler_filename': None, 'ssl_private_key': '', 'scheduler_groups': None, 'password': '123456', 'request_queue_size': 5, 'ssl_certificate': '', 'cronjob': False, 'numthreads': None, 'quiet': False, 'interfaces': None, 'import_models': False, 'timeout': 10, 'plain': False, 'nobanner': False}>"
p3416
asbasbasbag67
(g83
g69
NtRp3417
(dp3418
g72
(dp3419
sg81
g3327
sg74
(lp3420
g67
(g88
g69
NtRp3421
(dp3422
g72
(dp3423
g92
g93
ssg81
g3417
sg74
(lp3424
g2260
asbag67
(g88
g69
NtRp3425
(dp3426
g72
(dp3427
g99
g100
ssg81
g3417
sg74
(lp3428
S':'
asbag67
(g88
g69
NtRp3429
(dp3430
g72
(dp3431
sg81
g3417
sg74
(lp3432
g67
(g68
g69
NtRp3433
(dp3434
g72
(dp3435
g80
I4
ssg81
g3429
sg74
(lp3436
S'set([])'
p3437
asbasbasbag67
(g83
g69
NtRp3438
(dp3439
g72
(dp3440
sg81
g3327
sg74
(lp3441
g67
(g88
g69
NtRp3442
(dp3443
g72
(dp3444
g92
g93
ssg81
g3438
sg74
(lp3445
g2282
asbag67
(g88
g69
NtRp3446
(dp3447
g72
(dp3448
g99
g100
ssg81
g3438
sg74
(lp3449
S':'
asbag67
(g88
g69
NtRp3450
(dp3451
g72
(dp3452
sg81
g3438
sg74
(lp3453
g67
(g68
g69
NtRp3454
(dp3455
g72
(dp3456
g80
I4
ssg81
g3450
sg74
(lp3457
g110
asbasbasbag67
(g83
g69
NtRp3458
(dp3459
g72
(dp3460
sg81
g3327
sg74
(lp3461
g67
(g88
g69
NtRp3462
(dp3463
g72
(dp3464
g92
g93
ssg81
g3458
sg74
(lp3465
g2303
asbag67
(g88
g69
NtRp3466
(dp3467
g72
(dp3468
g99
g100
ssg81
g3458
sg74
(lp3469
S':'
asbag67
(g88
g69
NtRp3470
(dp3471
g72
(dp3472
sg81
g3458
sg74
(lp3473
g67
(g68
g69
NtRp3474
(dp3475
g72
(dp3476
g80
I4
ssg81
g3470
sg74
(lp3477
g2316
asbasbasbag67
(g83
g69
NtRp3478
(dp3479
g72
(dp3480
sg81
g3327
sg74
(lp3481
g67
(g88
g69
NtRp3482
(dp3483
g72
(dp3484
g92
g93
ssg81
g3478
sg74
(lp3485
g2523
asbag67
(g88
g69
NtRp3486
(dp3487
g72
(dp3488
g99
g100
ssg81
g3478
sg74
(lp3489
S':'
asbag67
(g88
g69
NtRp3490
(dp3491
g72
(dp3492
sg81
g3478
sg74
(lp3493
g67
(g68
g69
NtRp3494
(dp3495
g72
(dp3496
g80
I4
ssg81
g3490
sg74
(lp3497
g110
asbasbasbag67
(g83
g69
NtRp3498
(dp3499
g72
(dp3500
sg81
g3327
sg74
(lp3501
g67
(g88
g69
NtRp3502
(dp3503
g72
(dp3504
g92
g93
ssg81
g3498
sg74
(lp3505
g2544
asbag67
(g88
g69
NtRp3506
(dp3507
g72
(dp3508
g99
g100
ssg81
g3498
sg74
(lp3509
S':'
asbag67
(g88
g69
NtRp3510
(dp3511
g72
(dp3512
sg81
g3498
sg74
(lp3513
g67
(g68
g69
NtRp3514
(dp3515
g72
(dp3516
g80
I4
ssg81
g3510
sg74
(lp3517
g110
asbasbasbag67
(g83
g69
NtRp3518
(dp3519
g72
(dp3520
sg81
g3327
sg74
(lp3521
g67
(g88
g69
NtRp3522
(dp3523
g72
(dp3524
g92
g93
ssg81
g3518
sg74
(lp3525
g2565
asbag67
(g88
g69
NtRp3526
(dp3527
g72
(dp3528
g99
g100
ssg81
g3518
sg74
(lp3529
S':'
asbag67
(g88
g69
NtRp3530
(dp3531
g72
(dp3532
sg81
g3518
sg74
(lp3533
g67
(g68
g69
NtRp3534
(dp3535
g72
(dp3536
g80
I4
ssg81
g3530
sg74
(lp3537
g67
(g76
g69
NtRp3538
(dp3539
g72
(dp3540
g80
I3
ssg81
Nsg74
(lp3541
g67
(g83
g69
NtRp3542
(dp3543
g72
(dp3544
sg81
g3538
sg74
(lp3545
g67
(g88
g69
NtRp3546
(dp3547
g72
(dp3548
sg81
g3542
sg74
(lp3549
g67
(g68
g69
NtRp3550
(dp3551
g72
(dp3552
g80
I3
ssg81
g3546
sg74
(lp3553
g2594
asbasbasbag67
(g83
g69
NtRp3554
(dp3555
g72
(dp3556
sg81
g3538
sg74
(lp3557
g67
(g88
g69
NtRp3558
(dp3559
g72
(dp3560
sg81
g3554
sg74
(lp3561
g67
(g68
g69
NtRp3562
(dp3563
g72
(dp3564
g80
I3
ssg81
g3558
sg74
(lp3565
g2607
asbasbasbag67
(g83
g69
NtRp3566
(dp3567
g72
(dp3568
sg81
g3538
sg74
(lp3569
g67
(g88
g69
NtRp3570
(dp3571
g72
(dp3572
sg81
g3566
sg74
(lp3573
g67
(g68
g69
NtRp3574
(dp3575
g72
(dp3576
g80
I3
ssg81
g3570
sg74
(lp3577
g2620
asbasbasbag67
(g83
g69
NtRp3578
(dp3579
g72
(dp3580
sg81
g3538
sg74
(lp3581
g67
(g88
g69
NtRp3582
(dp3583
g72
(dp3584
sg81
g3578
sg74
(lp3585
g67
(g68
g69
NtRp3586
(dp3587
g72
(dp3588
g80
I3
ssg81
g3582
sg74
(lp3589
g2633
asbasbasbag67
(g83
g69
NtRp3590
(dp3591
g72
(dp3592
sg81
g3538
sg74
(lp3593
g67
(g88
g69
NtRp3594
(dp3595
g72
(dp3596
sg81
g3590
sg74
(lp3597
g67
(g68
g69
NtRp3598
(dp3599
g72
(dp3600
g80
I3
ssg81
g3594
sg74
(lp3601
g2646
asbasbasbasbasbasbasbag67
(g83
g69
NtRp3602
(dp3603
g72
(dp3604
sg81
g3327
sg74
(lp3605
g67
(g88
g69
NtRp3606
(dp3607
g72
(dp3608
g92
g93
ssg81
g3602
sg74
(lp3609
g2935
asbag67
(g88
g69
NtRp3610
(dp3611
g72
(dp3612
g99
g100
ssg81
g3602
sg74
(lp3613
S':'
asbag67
(g88
g69
NtRp3614
(dp3615
g72
(dp3616
sg81
g3602
sg74
(lp3617
g67
(g68
g69
NtRp3618
(dp3619
g72
(dp3620
g80
I4
ssg81
g3614
sg74
(lp3621
g67
(g76
g69
NtRp3622
(dp3623
g72
(dp3624
g80
I3
ssg81
Nsg74
(lp3625
g67
(g83
g69
NtRp3626
(dp3627
g72
(dp3628
sg81
g3622
sg74
(lp3629
g67
(g88
g69
NtRp3630
(dp3631
g72
(dp3632
sg81
g3626
sg74
(lp3633
g67
(g68
g69
NtRp3634
(dp3635
g72
(dp3636
g80
I3
ssg81
g3630
sg74
(lp3637
S'2'
asbasbasbag67
(g83
g69
NtRp3638
(dp3639
g72
(dp3640
sg81
g3622
sg74
(lp3641
g67
(g88
g69
NtRp3642
(dp3643
g72
(dp3644
sg81
g3638
sg74
(lp3645
g67
(g68
g69
NtRp3646
(dp3647
g72
(dp3648
g80
I3
ssg81
g3642
sg74
(lp3649
S'3'
asbasbasbag67
(g83
g69
NtRp3650
(dp3651
g72
(dp3652
sg81
g3622
sg74
(lp3653
g67
(g88
g69
NtRp3654
(dp3655
g72
(dp3656
sg81
g3650
sg74
(lp3657
g67
(g68
g69
NtRp3658
(dp3659
g72
(dp3660
g80
I3
ssg81
g3654
sg74
(lp3661
S'2'
asbasbasbag67
(g83
g69
NtRp3662
(dp3663
g72
(dp3664
sg81
g3622
sg74
(lp3665
g67
(g88
g69
NtRp3666
(dp3667
g72
(dp3668
sg81
g3662
sg74
(lp3669
g67
(g68
g69
NtRp3670
(dp3671
g72
(dp3672
g80
I3
ssg81
g3666
sg74
(lp3673
S'datetime.datetime(2012, 12, 17, 15, 3, 30)'
p3674
asbasbasbag67
(g83
g69
NtRp3675
(dp3676
g72
(dp3677
sg81
g3622
sg74
(lp3678
g67
(g88
g69
NtRp3679
(dp3680
g72
(dp3681
sg81
g3675
sg74
(lp3682
g67
(g68
g69
NtRp3683
(dp3684
g72
(dp3685
g80
I3
ssg81
g3679
sg74
(lp3686
g3013
asbasbasbasbasbasbasbasbasbasbasbag67
(g83
g69
NtRp3687
(dp3688
g72
(dp3689
sg81
g77
sg74
(lp3690
g67
(g88
g69
NtRp3691
(dp3692
g72
(dp3693
g92
g93
ssg81
g3687
sg74
(lp3694
S'is_https'
p3695
asbag67
(g88
g69
NtRp3696
(dp3697
g72
(dp3698
g99
g100
ssg81
g3687
sg74
(lp3699
S':'
asbag67
(g88
g69
NtRp3700
(dp3701
g72
(dp3702
sg81
g3687
sg74
(lp3703
g67
(g68
g69
NtRp3704
(dp3705
g72
(dp3706
g80
I5
ssg81
g3700
sg74
(lp3707
g110
asbasbasbag67
(g83
g69
NtRp3708
(dp3709
g72
(dp3710
sg81
g77
sg74
(lp3711
g67
(g88
g69
NtRp3712
(dp3713
g72
(dp3714
g92
g93
ssg81
g3708
sg74
(lp3715
S'is_local'
p3716
asbag67
(g88
g69
NtRp3717
(dp3718
g72
(dp3719
g99
g100
ssg81
g3708
sg74
(lp3720
S':'
asbag67
(g88
g69
NtRp3721
(dp3722
g72
(dp3723
sg81
g3708
sg74
(lp3724
g67
(g68
g69
NtRp3725
(dp3726
g72
(dp3727
g80
I5
ssg81
g3721
sg74
(lp3728
g3122
asbasbasbag67
(g83
g69
NtRp3729
(dp3730
g72
(dp3731
sg81
g77
sg74
(lp3732
g67
(g88
g69
NtRp3733
(dp3734
g72
(dp3735
g92
g93
ssg81
g3729
sg74
(lp3736
S'is_restful'
p3737
asbag67
(g88
g69
NtRp3738
(dp3739
g72
(dp3740
g99
g100
ssg81
g3729
sg74
(lp3741
S':'
asbag67
(g88
g69
NtRp3742
(dp3743
g72
(dp3744
sg81
g3729
sg74
(lp3745
g67
(g68
g69
NtRp3746
(dp3747
g72
(dp3748
g80
I5
ssg81
g3742
sg74
(lp3749
g110
asbasbasbag67
(g83
g69
NtRp3750
(dp3751
g72
(dp3752
sg81
g77
sg74
(lp3753
g67
(g88
g69
NtRp3754
(dp3755
g72
(dp3756
g92
g93
ssg81
g3750
sg74
(lp3757
S'now'
p3758
asbag67
(g88
g69
NtRp3759
(dp3760
g72
(dp3761
g99
g100
ssg81
g3750
sg74
(lp3762
S':'
asbag67
(g88
g69
NtRp3763
(dp3764
g72
(dp3765
sg81
g3750
sg74
(lp3766
g67
(g68
g69
NtRp3767
(dp3768
g72
(dp3769
g80
I5
ssg81
g3763
sg74
(lp3770
S'datetime.datetime(2013, 2, 1, 17, 16, 55, 476817)'
p3771
asbasbasbag67
(g83
g69
NtRp3772
(dp3773
g72
(dp3774
sg81
g77
sg74
(lp3775
g67
(g88
g69
NtRp3776
(dp3777
g72
(dp3778
g92
g93
ssg81
g3772
sg74
(lp3779
S'post_vars'
p3780
asbag67
(g88
g69
NtRp3781
(dp3782
g72
(dp3783
g99
g100
ssg81
g3772
sg74
(lp3784
S':'
asbag67
(g88
g69
NtRp3785
(dp3786
g72
(dp3787
sg81
g3772
sg74
(lp3788
g67
(g68
g69
NtRp3789
(dp3790
g72
(dp3791
g80
I5
ssg81
g3785
sg74
(lp3792
g67
(g76
g69
NtRp3793
(dp3794
g72
(dp3795
g80
I4
ssg81
Nsg74
(lp3796
sbasbasbasbag67
(g83
g69
NtRp3797
(dp3798
g72
(dp3799
sg81
g77
sg74
(lp3800
g67
(g88
g69
NtRp3801
(dp3802
g72
(dp3803
g92
g93
ssg81
g3797
sg74
(lp3804
S'url'
p3805
asbag67
(g88
g69
NtRp3806
(dp3807
g72
(dp3808
g99
g100
ssg81
g3797
sg74
(lp3809
S':'
asbag67
(g88
g69
NtRp3810
(dp3811
g72
(dp3812
sg81
g3797
sg74
(lp3813
g67
(g68
g69
NtRp3814
(dp3815
g72
(dp3816
g80
I5
ssg81
g3810
sg74
(lp3817
S'/'
asbasbasbag67
(g83
g69
NtRp3818
(dp3819
g72
(dp3820
sg81
g77
sg74
(lp3821
g67
(g88
g69
NtRp3822
(dp3823
g72
(dp3824
g92
g93
ssg81
g3818
sg74
(lp3825
S'utcnow'
p3826
asbag67
(g88
g69
NtRp3827
(dp3828
g72
(dp3829
g99
g100
ssg81
g3818
sg74
(lp3830
S':'
asbag67
(g88
g69
NtRp3831
(dp3832
g72
(dp3833
sg81
g3818
sg74
(lp3834
g67
(g68
g69
NtRp3835
(dp3836
g72
(dp3837
g80
I5
ssg81
g3831
sg74
(lp3838
S'datetime.datetime(2013, 2, 1, 19, 16, 55, 476876)'
p3839
asbasbasbag67
(g83
g69
NtRp3840
(dp3841
g72
(dp3842
sg81
g77
sg74
(lp3843
g67
(g88
g69
NtRp3844
(dp3845
g72
(dp3846
g92
g93
ssg81
g3840
sg74
(lp3847
S'uuid'
p3848
asbag67
(g88
g69
NtRp3849
(dp3850
g72
(dp3851
g99
g100
ssg81
g3840
sg74
(lp3852
S':'
asbag67
(g88
g69
NtRp3853
(dp3854
g72
(dp3855
sg81
g3840
sg74
(lp3856
g67
(g68
g69
NtRp3857
(dp3858
g72
(dp3859
g80
I5
ssg81
g3853
sg74
(lp3860
S'projeto/127.0.0.1.2013-02-01.17-16-55.594c15f5-703f-4022-99cc-a84f602c19ae'
p3861
asbasbasbag67
(g83
g69
NtRp3862
(dp3863
g72
(dp3864
sg81
g77
sg74
(lp3865
g67
(g88
g69
NtRp3866
(dp3867
g72
(dp3868
g92
g93
ssg81
g3862
sg74
(lp3869
S'vars'
p3870
asbag67
(g88
g69
NtRp3871
(dp3872
g72
(dp3873
g99
g100
ssg81
g3862
sg74
(lp3874
S':'
asbag67
(g88
g69
NtRp3875
(dp3876
g72
(dp3877
sg81
g3862
sg74
(lp3878
g67
(g68
g69
NtRp3879
(dp3880
g72
(dp3881
g80
I5
ssg81
g3875
sg74
(lp3882
g67
(g76
g69
NtRp3883
(dp3884
g72
(dp3885
g80
I4
ssg81
Nsg74
(lp3886
sbasbasbasbag67
(g83
g69
NtRp3887
(dp3888
g72
(dp3889
sg81
g77
sg74
(lp3890
g67
(g88
g69
NtRp3891
(dp3892
g72
(dp3893
g92
g93
ssg81
g3887
sg74
(lp3894
S'wsgi'
p3895
asbag67
(g88
g69
NtRp3896
(dp3897
g72
(dp3898
g99
g100
ssg81
g3887
sg74
(lp3899
S':'
asbag67
(g88
g69
NtRp3900
(dp3901
g72
(dp3902
sg81
g3887
sg74
(lp3903
g67
(g68
g69
NtRp3904
(dp3905
g72
(dp3906
g80
I5
ssg81
g3900
sg74
(lp3907
g67
(g76
g69
NtRp3908
(dp3909
g72
(dp3910
g80
I4
ssg81
Nsg74
(lp3911
g67
(g83
g69
NtRp3912
(dp3913
g72
(dp3914
sg81
g3908
sg74
(lp3915
g67
(g88
g69
NtRp3916
(dp3917
g72
(dp3918
g92
g93
ssg81
g3912
sg74
(lp3919
S'environ'
p3920
asbag67
(g88
g69
NtRp3921
(dp3922
g72
(dp3923
g99
g100
ssg81
g3912
sg74
(lp3924
S':'
asbag67
(g88
g69
NtRp3925
(dp3926
g72
(dp3927
sg81
g3912
sg74
(lp3928
g67
(g68
g69
NtRp3929
(dp3930
g72
(dp3931
g80
I4
ssg81
g3925
sg74
(lp3932
g67
(g76
g69
NtRp3933
(dp3934
g72
(dp3935
g80
I3
ssg81
Nsg74
(lp3936
g67
(g83
g69
NtRp3937
(dp3938
g72
(dp3939
sg81
g3933
sg74
(lp3940
g67
(g88
g69
NtRp3941
(dp3942
g72
(dp3943
g92
g93
ssg81
g3937
sg74
(lp3944
S'HTTP_ACCEPT'
p3945
asbag67
(g88
g69
NtRp3946
(dp3947
g72
(dp3948
g99
g100
ssg81
g3937
sg74
(lp3949
S':'
asbag67
(g88
g69
NtRp3950
(dp3951
g72
(dp3952
sg81
g3937
sg74
(lp3953
g67
(g68
g69
NtRp3954
(dp3955
g72
(dp3956
g80
I3
ssg81
g3950
sg74
(lp3957
g2338
asbasbasbag67
(g83
g69
NtRp3958
(dp3959
g72
(dp3960
sg81
g3933
sg74
(lp3961
g67
(g88
g69
NtRp3962
(dp3963
g72
(dp3964
g92
g93
ssg81
g3958
sg74
(lp3965
S'HTTP_ACCEPT_CHARSET'
p3966
asbag67
(g88
g69
NtRp3967
(dp3968
g72
(dp3969
g99
g100
ssg81
g3958
sg74
(lp3970
S':'
asbag67
(g88
g69
NtRp3971
(dp3972
g72
(dp3973
sg81
g3958
sg74
(lp3974
g67
(g68
g69
NtRp3975
(dp3976
g72
(dp3977
g80
I3
ssg81
g3971
sg74
(lp3978
g2360
asbasbasbag67
(g83
g69
NtRp3979
(dp3980
g72
(dp3981
sg81
g3933
sg74
(lp3982
g67
(g88
g69
NtRp3983
(dp3984
g72
(dp3985
g92
g93
ssg81
g3979
sg74
(lp3986
S'HTTP_ACCEPT_ENCODING'
p3987
asbag67
(g88
g69
NtRp3988
(dp3989
g72
(dp3990
g99
g100
ssg81
g3979
sg74
(lp3991
S':'
asbag67
(g88
g69
NtRp3992
(dp3993
g72
(dp3994
sg81
g3979
sg74
(lp3995
g67
(g68
g69
NtRp3996
(dp3997
g72
(dp3998
g80
I3
ssg81
g3992
sg74
(lp3999
g2382
asbasbasbag67
(g83
g69
NtRp4000
(dp4001
g72
(dp4002
sg81
g3933
sg74
(lp4003
g67
(g88
g69
NtRp4004
(dp4005
g72
(dp4006
g92
g93
ssg81
g4000
sg74
(lp4007
S'HTTP_ACCEPT_LANGUAGE'
p4008
asbag67
(g88
g69
NtRp4009
(dp4010
g72
(dp4011
g99
g100
ssg81
g4000
sg74
(lp4012
S':'
asbag67
(g88
g69
NtRp4013
(dp4014
g72
(dp4015
sg81
g4000
sg74
(lp4016
g67
(g68
g69
NtRp4017
(dp4018
g72
(dp4019
g80
I3
ssg81
g4013
sg74
(lp4020
g2404
asbasbasbag67
(g83
g69
NtRp4021
(dp4022
g72
(dp4023
sg81
g3933
sg74
(lp4024
g67
(g88
g69
NtRp4025
(dp4026
g72
(dp4027
g92
g93
ssg81
g4021
sg74
(lp4028
S'HTTP_CACHE_CONTROL'
p4029
asbag67
(g88
g69
NtRp4030
(dp4031
g72
(dp4032
g99
g100
ssg81
g4021
sg74
(lp4033
S':'
asbag67
(g88
g69
NtRp4034
(dp4035
g72
(dp4036
sg81
g4021
sg74
(lp4037
g67
(g68
g69
NtRp4038
(dp4039
g72
(dp4040
g80
I3
ssg81
g4034
sg74
(lp4041
g2426
asbasbasbag67
(g83
g69
NtRp4042
(dp4043
g72
(dp4044
sg81
g3933
sg74
(lp4045
g67
(g88
g69
NtRp4046
(dp4047
g72
(dp4048
g92
g93
ssg81
g4042
sg74
(lp4049
S'HTTP_CONNECTION'
p4050
asbag67
(g88
g69
NtRp4051
(dp4052
g72
(dp4053
g99
g100
ssg81
g4042
sg74
(lp4054
S':'
asbag67
(g88
g69
NtRp4055
(dp4056
g72
(dp4057
sg81
g4042
sg74
(lp4058
g67
(g68
g69
NtRp4059
(dp4060
g72
(dp4061
g80
I3
ssg81
g4055
sg74
(lp4062
g2448
asbasbasbag67
(g83
g69
NtRp4063
(dp4064
g72
(dp4065
sg81
g3933
sg74
(lp4066
g67
(g88
g69
NtRp4067
(dp4068
g72
(dp4069
g92
g93
ssg81
g4063
sg74
(lp4070
S'HTTP_COOKIE'
p4071
asbag67
(g88
g69
NtRp4072
(dp4073
g72
(dp4074
g99
g100
ssg81
g4063
sg74
(lp4075
S':'
asbag67
(g88
g69
NtRp4076
(dp4077
g72
(dp4078
sg81
g4063
sg74
(lp4079
g67
(g68
g69
NtRp4080
(dp4081
g72
(dp4082
g80
I3
ssg81
g4076
sg74
(lp4083
g2470
asbasbasbag67
(g83
g69
NtRp4084
(dp4085
g72
(dp4086
sg81
g3933
sg74
(lp4087
g67
(g88
g69
NtRp4088
(dp4089
g72
(dp4090
g92
g93
ssg81
g4084
sg74
(lp4091
S'HTTP_HOST'
p4092
asbag67
(g88
g69
NtRp4093
(dp4094
g72
(dp4095
g99
g100
ssg81
g4084
sg74
(lp4096
S':'
asbag67
(g88
g69
NtRp4097
(dp4098
g72
(dp4099
sg81
g4084
sg74
(lp4100
g67
(g68
g69
NtRp4101
(dp4102
g72
(dp4103
g80
I3
ssg81
g4097
sg74
(lp4104
g2492
asbasbasbag67
(g83
g69
NtRp4105
(dp4106
g72
(dp4107
sg81
g3933
sg74
(lp4108
g67
(g88
g69
NtRp4109
(dp4110
g72
(dp4111
g92
g93
ssg81
g4105
sg74
(lp4112
S'HTTP_USER_AGENT'
p4113
asbag67
(g88
g69
NtRp4114
(dp4115
g72
(dp4116
g99
g100
ssg81
g4105
sg74
(lp4117
S':'
asbag67
(g88
g69
NtRp4118
(dp4119
g72
(dp4120
sg81
g4105
sg74
(lp4121
g67
(g68
g69
NtRp4122
(dp4123
g72
(dp4124
g80
I3
ssg81
g4118
sg74
(lp4125
g2514
asbasbasbag67
(g83
g69
NtRp4126
(dp4127
g72
(dp4128
sg81
g3933
sg74
(lp4129
g67
(g88
g69
NtRp4130
(dp4131
g72
(dp4132
g92
g93
ssg81
g4126
sg74
(lp4133
S'PATH_INFO'
p4134
asbag67
(g88
g69
NtRp4135
(dp4136
g72
(dp4137
g99
g100
ssg81
g4126
sg74
(lp4138
S':'
asbag67
(g88
g69
NtRp4139
(dp4140
g72
(dp4141
sg81
g4126
sg74
(lp4142
g67
(g68
g69
NtRp4143
(dp4144
g72
(dp4145
g80
I3
ssg81
g4139
sg74
(lp4146
S'/'
asbasbasbag67
(g83
g69
NtRp4147
(dp4148
g72
(dp4149
sg81
g3933
sg74
(lp4150
g67
(g88
g69
NtRp4151
(dp4152
g72
(dp4153
g92
g93
ssg81
g4147
sg74
(lp4154
S'QUERY_STRING'
p4155
asbag67
(g88
g69
NtRp4156
(dp4157
g72
(dp4158
g99
g100
ssg81
g4147
sg74
(lp4159
S':'
asbag67
(g88
g69
NtRp4160
(dp4161
g72
(dp4162
sg81
g4147
sg74
(lp4163
g67
(g68
g69
NtRp4164
(dp4165
g72
(dp4166
g80
I3
ssg81
g4160
sg74
(lp4167
S''
asbasbasbag67
(g83
g69
NtRp4168
(dp4169
g72
(dp4170
sg81
g3933
sg74
(lp4171
g67
(g88
g69
NtRp4172
(dp4173
g72
(dp4174
g92
g93
ssg81
g4168
sg74
(lp4175
S'REMOTE_ADDR'
p4176
asbag67
(g88
g69
NtRp4177
(dp4178
g72
(dp4179
g99
g100
ssg81
g4168
sg74
(lp4180
S':'
asbag67
(g88
g69
NtRp4181
(dp4182
g72
(dp4183
sg81
g4168
sg74
(lp4184
g67
(g68
g69
NtRp4185
(dp4186
g72
(dp4187
g80
I3
ssg81
g4181
sg74
(lp4188
g222
asbasbasbag67
(g83
g69
NtRp4189
(dp4190
g72
(dp4191
sg81
g3933
sg74
(lp4192
g67
(g88
g69
NtRp4193
(dp4194
g72
(dp4195
g92
g93
ssg81
g4189
sg74
(lp4196
S'REMOTE_PORT'
p4197
asbag67
(g88
g69
NtRp4198
(dp4199
g72
(dp4200
g99
g100
ssg81
g4189
sg74
(lp4201
S':'
asbag67
(g88
g69
NtRp4202
(dp4203
g72
(dp4204
sg81
g4189
sg74
(lp4205
g67
(g68
g69
NtRp4206
(dp4207
g72
(dp4208
g80
I3
ssg81
g4202
sg74
(lp4209
g2731
asbasbasbag67
(g83
g69
NtRp4210
(dp4211
g72
(dp4212
sg81
g3933
sg74
(lp4213
g67
(g88
g69
NtRp4214
(dp4215
g72
(dp4216
g92
g93
ssg81
g4210
sg74
(lp4217
S'REQUEST_METHOD'
p4218
asbag67
(g88
g69
NtRp4219
(dp4220
g72
(dp4221
g99
g100
ssg81
g4210
sg74
(lp4222
S':'
asbag67
(g88
g69
NtRp4223
(dp4224
g72
(dp4225
sg81
g4210
sg74
(lp4226
g67
(g68
g69
NtRp4227
(dp4228
g72
(dp4229
g80
I3
ssg81
g4223
sg74
(lp4230
g2753
asbasbasbag67
(g83
g69
NtRp4231
(dp4232
g72
(dp4233
sg81
g3933
sg74
(lp4234
g67
(g88
g69
NtRp4235
(dp4236
g72
(dp4237
g92
g93
ssg81
g4231
sg74
(lp4238
S'REQUEST_URI'
p4239
asbag67
(g88
g69
NtRp4240
(dp4241
g72
(dp4242
g99
g100
ssg81
g4231
sg74
(lp4243
S':'
asbag67
(g88
g69
NtRp4244
(dp4245
g72
(dp4246
sg81
g4231
sg74
(lp4247
g67
(g68
g69
NtRp4248
(dp4249
g72
(dp4250
g80
I3
ssg81
g4244
sg74
(lp4251
g2775
asbasbasbag67
(g83
g69
NtRp4252
(dp4253
g72
(dp4254
sg81
g3933
sg74
(lp4255
g67
(g88
g69
NtRp4256
(dp4257
g72
(dp4258
g92
g93
ssg81
g4252
sg74
(lp4259
S'SCRIPT_NAME'
p4260
asbag67
(g88
g69
NtRp4261
(dp4262
g72
(dp4263
g99
g100
ssg81
g4252
sg74
(lp4264
S':'
asbag67
(g88
g69
NtRp4265
(dp4266
g72
(dp4267
sg81
g4252
sg74
(lp4268
g67
(g68
g69
NtRp4269
(dp4270
g72
(dp4271
g80
I3
ssg81
g4265
sg74
(lp4272
S''
asbasbasbag67
(g83
g69
NtRp4273
(dp4274
g72
(dp4275
sg81
g3933
sg74
(lp4276
g67
(g88
g69
NtRp4277
(dp4278
g72
(dp4279
g92
g93
ssg81
g4273
sg74
(lp4280
S'SERVER_NAME'
p4281
asbag67
(g88
g69
NtRp4282
(dp4283
g72
(dp4284
g99
g100
ssg81
g4273
sg74
(lp4285
S':'
asbag67
(g88
g69
NtRp4286
(dp4287
g72
(dp4288
sg81
g4273
sg74
(lp4289
g67
(g68
g69
NtRp4290
(dp4291
g72
(dp4292
g80
I3
ssg81
g4286
sg74
(lp4293
g2818
asbasbasbag67
(g83
g69
NtRp4294
(dp4295
g72
(dp4296
sg81
g3933
sg74
(lp4297
g67
(g88
g69
NtRp4298
(dp4299
g72
(dp4300
g92
g93
ssg81
g4294
sg74
(lp4301
S'SERVER_PORT'
p4302
asbag67
(g88
g69
NtRp4303
(dp4304
g72
(dp4305
g99
g100
ssg81
g4294
sg74
(lp4306
S':'
asbag67
(g88
g69
NtRp4307
(dp4308
g72
(dp4309
sg81
g4294
sg74
(lp4310
g67
(g68
g69
NtRp4311
(dp4312
g72
(dp4313
g80
I3
ssg81
g4307
sg74
(lp4314
g2840
asbasbasbag67
(g83
g69
NtRp4315
(dp4316
g72
(dp4317
sg81
g3933
sg74
(lp4318
g67
(g88
g69
NtRp4319
(dp4320
g72
(dp4321
g92
g93
ssg81
g4315
sg74
(lp4322
S'SERVER_PROTOCOL'
p4323
asbag67
(g88
g69
NtRp4324
(dp4325
g72
(dp4326
g99
g100
ssg81
g4315
sg74
(lp4327
S':'
asbag67
(g88
g69
NtRp4328
(dp4329
g72
(dp4330
sg81
g4315
sg74
(lp4331
g67
(g68
g69
NtRp4332
(dp4333
g72
(dp4334
g80
I3
ssg81
g4328
sg74
(lp4335
g2862
asbasbasbag67
(g83
g69
NtRp4336
(dp4337
g72
(dp4338
sg81
g3933
sg74
(lp4339
g67
(g88
g69
NtRp4340
(dp4341
g72
(dp4342
g92
g93
ssg81
g4336
sg74
(lp4343
S'SERVER_SOFTWARE'
p4344
asbag67
(g88
g69
NtRp4345
(dp4346
g72
(dp4347
g99
g100
ssg81
g4336
sg74
(lp4348
S':'
asbag67
(g88
g69
NtRp4349
(dp4350
g72
(dp4351
sg81
g4336
sg74
(lp4352
g67
(g68
g69
NtRp4353
(dp4354
g72
(dp4355
g80
I3
ssg81
g4349
sg74
(lp4356
g2884
asbasbasbag67
(g83
g69
NtRp4357
(dp4358
g72
(dp4359
sg81
g3933
sg74
(lp4360
g67
(g88
g69
NtRp4361
(dp4362
g72
(dp4363
g92
g93
ssg81
g4357
sg74
(lp4364
S'WEB2PY_ORIGINAL_URI'
p4365
asbag67
(g88
g69
NtRp4366
(dp4367
g72
(dp4368
g99
g100
ssg81
g4357
sg74
(lp4369
S':'
asbag67
(g88
g69
NtRp4370
(dp4371
g72
(dp4372
sg81
g4357
sg74
(lp4373
g67
(g68
g69
NtRp4374
(dp4375
g72
(dp4376
g80
I3
ssg81
g4370
sg74
(lp4377
S'/'
asbasbasbag67
(g83
g69
NtRp4378
(dp4379
g72
(dp4380
sg81
g3933
sg74
(lp4381
g67
(g88
g69
NtRp4382
(dp4383
g72
(dp4384
g92
g93
ssg81
g4378
sg74
(lp4385
S'wsgi.errors'
p4386
asbag67
(g88
g69
NtRp4387
(dp4388
g72
(dp4389
g99
g100
ssg81
g4378
sg74
(lp4390
S':'
asbag67
(g88
g69
NtRp4391
(dp4392
g72
(dp4393
sg81
g4378
sg74
(lp4394
g67
(g68
g69
NtRp4395
(dp4396
g72
(dp4397
g80
I3
ssg81
g4391
sg74
(lp4398
S"<open file '<stderr>', mode 'w' at 0x7feebf81f270>"
p4399
asbasbasbag67
(g83
g69
NtRp4400
(dp4401
g72
(dp4402
sg81
g3933
sg74
(lp4403
g67
(g88
g69
NtRp4404
(dp4405
g72
(dp4406
g92
g93
ssg81
g4400
sg74
(lp4407
S'wsgi.file_wrapper'
p4408
asbag67
(g88
g69
NtRp4409
(dp4410
g72
(dp4411
g99
g100
ssg81
g4400
sg74
(lp4412
S':'
asbag67
(g88
g69
NtRp4413
(dp4414
g72
(dp4415
sg81
g4400
sg74
(lp4416
g67
(g68
g69
NtRp4417
(dp4418
g72
(dp4419
g80
I3
ssg81
g4413
sg74
(lp4420
S'<class wsgiref.util.FileWrapper at 0x171aa10>'
p4421
asbasbasbag67
(g83
g69
NtRp4422
(dp4423
g72
(dp4424
sg81
g3933
sg74
(lp4425
g67
(g88
g69
NtRp4426
(dp4427
g72
(dp4428
g92
g93
ssg81
g4422
sg74
(lp4429
S'wsgi.input'
p4430
asbag67
(g88
g69
NtRp4431
(dp4432
g72
(dp4433
g99
g100
ssg81
g4422
sg74
(lp4434
S':'
asbag67
(g88
g69
NtRp4435
(dp4436
g72
(dp4437
sg81
g4422
sg74
(lp4438
g67
(g68
g69
NtRp4439
(dp4440
g72
(dp4441
g80
I3
ssg81
g4435
sg74
(lp4442
S'<cStringIO.StringO object at 0x7feea859c490>'
p4443
asbasbasbag67
(g83
g69
NtRp4444
(dp4445
g72
(dp4446
sg81
g3933
sg74
(lp4447
g67
(g88
g69
NtRp4448
(dp4449
g72
(dp4450
g92
g93
ssg81
g4444
sg74
(lp4451
S'wsgi.multiprocess'
p4452
asbag67
(g88
g69
NtRp4453
(dp4454
g72
(dp4455
g99
g100
ssg81
g4444
sg74
(lp4456
S':'
asbag67
(g88
g69
NtRp4457
(dp4458
g72
(dp4459
sg81
g4444
sg74
(lp4460
g67
(g68
g69
NtRp4461
(dp4462
g72
(dp4463
g80
I3
ssg81
g4457
sg74
(lp4464
g110
asbasbasbag67
(g83
g69
NtRp4465
(dp4466
g72
(dp4467
sg81
g3933
sg74
(lp4468
g67
(g88
g69
NtRp4469
(dp4470
g72
(dp4471
g92
g93
ssg81
g4465
sg74
(lp4472
S'wsgi.multithread'
p4473
asbag67
(g88
g69
NtRp4474
(dp4475
g72
(dp4476
g99
g100
ssg81
g4465
sg74
(lp4477
S':'
asbag67
(g88
g69
NtRp4478
(dp4479
g72
(dp4480
sg81
g4465
sg74
(lp4481
g67
(g68
g69
NtRp4482
(dp4483
g72
(dp4484
g80
I3
ssg81
g4478
sg74
(lp4485
g3122
asbasbasbag67
(g83
g69
NtRp4486
(dp4487
g72
(dp4488
sg81
g3933
sg74
(lp4489
g67
(g88
g69
NtRp4490
(dp4491
g72
(dp4492
g92
g93
ssg81
g4486
sg74
(lp4493
S'wsgi.run_once'
p4494
asbag67
(g88
g69
NtRp4495
(dp4496
g72
(dp4497
g99
g100
ssg81
g4486
sg74
(lp4498
S':'
asbag67
(g88
g69
NtRp4499
(dp4500
g72
(dp4501
sg81
g4486
sg74
(lp4502
g67
(g68
g69
NtRp4503
(dp4504
g72
(dp4505
g80
I3
ssg81
g4499
sg74
(lp4506
g110
asbasbasbag67
(g83
g69
NtRp4507
(dp4508
g72
(dp4509
sg81
g3933
sg74
(lp4510
g67
(g88
g69
NtRp4511
(dp4512
g72
(dp4513
g92
g93
ssg81
g4507
sg74
(lp4514
S'wsgi.url_scheme'
p4515
asbag67
(g88
g69
NtRp4516
(dp4517
g72
(dp4518
g99
g100
ssg81
g4507
sg74
(lp4519
S':'
asbag67
(g88
g69
NtRp4520
(dp4521
g72
(dp4522
sg81
g4507
sg74
(lp4523
g67
(g68
g69
NtRp4524
(dp4525
g72
(dp4526
g80
I3
ssg81
g4520
sg74
(lp4527
g3165
asbasbasbag67
(g83
g69
NtRp4528
(dp4529
g72
(dp4530
sg81
g3933
sg74
(lp4531
g67
(g88
g69
NtRp4532
(dp4533
g72
(dp4534
g92
g93
ssg81
g4528
sg74
(lp4535
S'wsgi.version'
p4536
asbag67
(g88
g69
NtRp4537
(dp4538
g72
(dp4539
g99
g100
ssg81
g4528
sg74
(lp4540
S':'
asbag67
(g88
g69
NtRp4541
(dp4542
g72
(dp4543
sg81
g4528
sg74
(lp4544
g67
(g68
g69
NtRp4545
(dp4546
g72
(dp4547
g80
I3
ssg81
g4541
sg74
(lp4548
S'1'
asbasbasbasbasbasbasbasbasbasbasbasbasbsS'frames'
p4549
(lp4550
(dp4551
S'file'
p4552
S'/var/www/web2py_curso/gluon/restricted.py'
p4553
sS'dump'
p4554
(dp4555
S'code'
p4556
S"'# coding: utf-8\\n\\ndef home():\\n\\tposts = db(db.post... x + y\\n\\n \\n\\nresponse._vars=response._caller(home)\\n'"
p4557
sS'layer'
p4558
S"'/var/www/web2py_curso/applications/projeto/controllers/initial.py'"
p4559
sS'global compile2'
p4560
S'<function compile2>'
p4561
sS'ccode'
p4562
S'undefined'
p4563
ssS'lnum'
p4564
I211
sS'lines'
p4565
(dp4566
I206
S"    environment['__name__'] = '__restricted__'"
p4567
sI207
S'    try:'
p4568
sI208
S'        if isinstance(code, types.CodeType):'
p4569
sI209
S'            ccode = code'
p4570
sI210
S'        else:'
p4571
sI211
S'            ccode = compile2(code, layer)'
p4572
sI212
S'        exec ccode in environment'
p4573
sI213
S'    except HTTP:'
p4574
sI214
S'        raise'
p4575
sI215
S'    except RestrictedError:'
p4576
ssS'call'
p4577
S"(code='# coding: utf-8\\n\\ndef home():\\n\\tposts = db(db.post... x + y\\n\\n \\n\\nresponse._vars=response._caller(home)\\n', environment={'A': <class 'gluon.html.A'>, 'Auth': <class 'gluon.tools.Auth'>, 'B': <class 'gluon.html.B'>, 'BEAUTIFY': <class 'gluon.html.BEAUTIFY'>, 'BODY': <class 'gluon.html.BODY'>, 'BR': <class 'gluon.html.BR'>, 'BUTTON': <class 'gluon.html.BUTTON'>, 'Blog': <Table blog (id,title,description)>, 'CAT': <class 'gluon.html.CAT'>, 'CENTER': <class 'gluon.html.CENTER'>, ...}, layer='/var/www/web2py_curso/applications/projeto/controllers/initial.py')"
p4578
sS'func'
p4579
S'restricted'
p4580
sa(dp4581
g4552
S'/var/www/web2py_curso/gluon/restricted.py'
p4582
sg4554
(dp4583
S'builtincompile'
p4584
S'<built-in function compile>'
p4585
sS'code'
p4586
S"'# coding: utf-8\\n\\ndef home():\\n\\tposts = db(db.post... x + y\\n\\n \\n\\nresponse._vars=response._caller(home)\\n'"
p4587
sS'code.rstrip'
p4588
S'<built-in method rstrip of str object>'
p4589
sS').replace'
p4590
g4563
sS'layer'
p4591
S"'/var/www/web2py_curso/applications/projeto/controllers/initial.py'"
p4592
ssg4564
I194
sg4565
(dp4593
I192
S"    The +'\\n' is necessary else compile fails when code ends in a comment."
p4594
sI193
S'    """'
p4595
sI194
S"    return compile(code.rstrip().replace('\\r\\n', '\\n') + '\\n', layer, 'exec')"
p4596
sI195
S''
sI196
S''
sI197
S"def restricted(code, environment=None, layer='Unknown'):"
p4597
sI198
S'    """'
p4598
sI189
S''
sI190
S'def compile2(code, layer):'
p4599
sI191
S'    """'
p4600
ssg4577
S"(code='# coding: utf-8\\n\\ndef home():\\n\\tposts = db(db.post... x + y\\n\\n \\n\\nresponse._vars=response._caller(home)\\n', layer='/var/www/web2py_curso/applications/projeto/controllers/initial.py')"
p4601
sg4579
S'compile2'
p4602
sasS'pyver'
p4603
S'Python 2.7.3: /usr/bin/python'
p4604
sS'session'
p4605
g67
(g68
g69
NtRp4606
(dp4607
g72
(dp4608
sg74
(lp4609
g67
(g76
g69
NtRp4610
(dp4611
g72
(dp4612
g80
I5
ssg81
Nsg74
(lp4613
sbasbsS'etype'
p4614
S"<type 'exceptions.SyntaxError'>"
p4615
sS'date'
p4616
S'Fri Feb  1 17:16:55 2013'
p4617
sS'response'
p4618
g67
(g68
g69
NtRp4619
(dp4620
g72
(dp4621
sg74
(lp4622
g67
(g76
g69
NtRp4623
(dp4624
g72
(dp4625
g80
I5
ssg81
Nsg74
(lp4626
g67
(g83
g69
NtRp4627
(dp4628
g72
(dp4629
sg81
g4623
sg74
(lp4630
g67
(g88
g69
NtRp4631
(dp4632
g72
(dp4633
g92
g93
ssg81
g4627
sg74
(lp4634
g165
asbag67
(g88
g69
NtRp4635
(dp4636
g72
(dp4637
g99
g100
ssg81
g4627
sg74
(lp4638
S':'
asbag67
(g88
g69
NtRp4639
(dp4640
g72
(dp4641
sg81
g4627
sg74
(lp4642
g67
(g68
g69
NtRp4643
(dp4644
g72
(dp4645
g80
I5
ssg81
g4639
sg74
(lp4646
S'<cStringIO.StringO object at 0x7feea859c8b8>'
p4647
asbasbasbag67
(g83
g69
NtRp4648
(dp4649
g72
(dp4650
sg81
g4623
sg74
(lp4651
g67
(g88
g69
NtRp4652
(dp4653
g72
(dp4654
g92
g93
ssg81
g4648
sg74
(lp4655
g253
asbag67
(g88
g69
NtRp4656
(dp4657
g72
(dp4658
g99
g100
ssg81
g4648
sg74
(lp4659
S':'
asbag67
(g88
g69
NtRp4660
(dp4661
g72
(dp4662
sg81
g4648
sg74
(lp4663
g67
(g68
g69
NtRp4664
(dp4665
g72
(dp4666
g80
I5
ssg81
g4660
sg74
(lp4667
g67
(g76
g69
NtRp4668
(dp4669
g72
(dp4670
g80
I4
ssg81
Nsg74
(lp4671
g67
(g83
g69
NtRp4672
(dp4673
g72
(dp4674
sg81
g4668
sg74
(lp4675
g67
(g88
g69
NtRp4676
(dp4677
g72
(dp4678
g92
g93
ssg81
g4672
sg74
(lp4679
S'session_id_projeto'
p4680
asbag67
(g88
g69
NtRp4681
(dp4682
g72
(dp4683
g99
g100
ssg81
g4672
sg74
(lp4684
S':'
asbag67
(g88
g69
NtRp4685
(dp4686
g72
(dp4687
sg81
g4672
sg74
(lp4688
g67
(g68
g69
NtRp4689
(dp4690
g72
(dp4691
g80
I4
ssg81
g4685
sg74
(lp4692
g1785
ag67
(g76
g69
NtRp4693
(dp4694
g72
(dp4695
g80
I3
ssg81
Nsg74
(lp4696
g67
(g83
g69
NtRp4697
(dp4698
g72
(dp4699
sg81
g4693
sg74
(lp4700
g67
(g88
g69
NtRp4701
(dp4702
g72
(dp4703
g92
g93
ssg81
g4697
sg74
(lp4704
g304
asbag67
(g88
g69
NtRp4705
(dp4706
g72
(dp4707
g99
g100
ssg81
g4697
sg74
(lp4708
S':'
asbag67
(g88
g69
NtRp4709
(dp4710
g72
(dp4711
sg81
g4697
sg74
(lp4712
g67
(g68
g69
NtRp4713
(dp4714
g72
(dp4715
g80
I3
ssg81
g4709
sg74
(lp4716
S''
asbasbasbag67
(g83
g69
NtRp4717
(dp4718
g72
(dp4719
sg81
g4693
sg74
(lp4720
g67
(g88
g69
NtRp4721
(dp4722
g72
(dp4723
g92
g93
ssg81
g4717
sg74
(lp4724
g325
asbag67
(g88
g69
NtRp4725
(dp4726
g72
(dp4727
g99
g100
ssg81
g4717
sg74
(lp4728
S':'
asbag67
(g88
g69
NtRp4729
(dp4730
g72
(dp4731
sg81
g4717
sg74
(lp4732
g67
(g68
g69
NtRp4733
(dp4734
g72
(dp4735
g80
I3
ssg81
g4729
sg74
(lp4736
S''
asbasbasbag67
(g83
g69
NtRp4737
(dp4738
g72
(dp4739
sg81
g4693
sg74
(lp4740
g67
(g88
g69
NtRp4741
(dp4742
g72
(dp4743
g92
g93
ssg81
g4737
sg74
(lp4744
g346
asbag67
(g88
g69
NtRp4745
(dp4746
g72
(dp4747
g99
g100
ssg81
g4737
sg74
(lp4748
S':'
asbag67
(g88
g69
NtRp4749
(dp4750
g72
(dp4751
sg81
g4737
sg74
(lp4752
g67
(g68
g69
NtRp4753
(dp4754
g72
(dp4755
g80
I3
ssg81
g4749
sg74
(lp4756
S''
asbasbasbag67
(g83
g69
NtRp4757
(dp4758
g72
(dp4759
sg81
g4693
sg74
(lp4760
g67
(g88
g69
NtRp4761
(dp4762
g72
(dp4763
g92
g93
ssg81
g4757
sg74
(lp4764
g367
asbag67
(g88
g69
NtRp4765
(dp4766
g72
(dp4767
g99
g100
ssg81
g4757
sg74
(lp4768
S':'
asbag67
(g88
g69
NtRp4769
(dp4770
g72
(dp4771
sg81
g4757
sg74
(lp4772
g67
(g68
g69
NtRp4773
(dp4774
g72
(dp4775
g80
I3
ssg81
g4769
sg74
(lp4776
S''
asbasbasbag67
(g83
g69
NtRp4777
(dp4778
g72
(dp4779
sg81
g4693
sg74
(lp4780
g67
(g88
g69
NtRp4781
(dp4782
g72
(dp4783
g92
g93
ssg81
g4777
sg74
(lp4784
g388
asbag67
(g88
g69
NtRp4785
(dp4786
g72
(dp4787
g99
g100
ssg81
g4777
sg74
(lp4788
S':'
asbag67
(g88
g69
NtRp4789
(dp4790
g72
(dp4791
sg81
g4777
sg74
(lp4792
g67
(g68
g69
NtRp4793
(dp4794
g72
(dp4795
g80
I3
ssg81
g4789
sg74
(lp4796
S''
asbasbasbag67
(g83
g69
NtRp4797
(dp4798
g72
(dp4799
sg81
g4693
sg74
(lp4800
g67
(g88
g69
NtRp4801
(dp4802
g72
(dp4803
g92
g93
ssg81
g4797
sg74
(lp4804
g409
asbag67
(g88
g69
NtRp4805
(dp4806
g72
(dp4807
g99
g100
ssg81
g4797
sg74
(lp4808
S':'
asbag67
(g88
g69
NtRp4809
(dp4810
g72
(dp4811
sg81
g4797
sg74
(lp4812
g67
(g68
g69
NtRp4813
(dp4814
g72
(dp4815
g80
I3
ssg81
g4809
sg74
(lp4816
S'/'
asbasbasbag67
(g83
g69
NtRp4817
(dp4818
g72
(dp4819
sg81
g4693
sg74
(lp4820
g67
(g88
g69
NtRp4821
(dp4822
g72
(dp4823
g92
g93
ssg81
g4817
sg74
(lp4824
g430
asbag67
(g88
g69
NtRp4825
(dp4826
g72
(dp4827
g99
g100
ssg81
g4817
sg74
(lp4828
S':'
asbag67
(g88
g69
NtRp4829
(dp4830
g72
(dp4831
sg81
g4817
sg74
(lp4832
g67
(g68
g69
NtRp4833
(dp4834
g72
(dp4835
g80
I3
ssg81
g4829
sg74
(lp4836
S''
asbasbasbag67
(g83
g69
NtRp4837
(dp4838
g72
(dp4839
sg81
g4693
sg74
(lp4840
g67
(g88
g69
NtRp4841
(dp4842
g72
(dp4843
g92
g93
ssg81
g4837
sg74
(lp4844
g451
asbag67
(g88
g69
NtRp4845
(dp4846
g72
(dp4847
g99
g100
ssg81
g4837
sg74
(lp4848
S':'
asbag67
(g88
g69
NtRp4849
(dp4850
g72
(dp4851
sg81
g4837
sg74
(lp4852
g67
(g68
g69
NtRp4853
(dp4854
g72
(dp4855
g80
I3
ssg81
g4849
sg74
(lp4856
S''
asbasbasbasbasbasbasbasbasbasbasbag67
(g83
g69
NtRp4857
(dp4858
g72
(dp4859
sg81
g4623
sg74
(lp4860
g67
(g88
g69
NtRp4861
(dp4862
g72
(dp4863
g92
g93
ssg81
g4857
sg74
(lp4864
S'delimiters'
p4865
asbag67
(g88
g69
NtRp4866
(dp4867
g72
(dp4868
g99
g100
ssg81
g4857
sg74
(lp4869
S':'
asbag67
(g88
g69
NtRp4870
(dp4871
g72
(dp4872
sg81
g4857
sg74
(lp4873
g67
(g68
g69
NtRp4874
(dp4875
g72
(dp4876
g80
I5
ssg81
g4870
sg74
(lp4877
g67
(g76
g69
NtRp4878
(dp4879
g72
(dp4880
g80
I4
ssg81
Nsg74
(lp4881
g67
(g83
g69
NtRp4882
(dp4883
g72
(dp4884
sg81
g4878
sg74
(lp4885
g67
(g88
g69
NtRp4886
(dp4887
g72
(dp4888
sg81
g4882
sg74
(lp4889
g67
(g68
g69
NtRp4890
(dp4891
g72
(dp4892
g80
I4
ssg81
g4886
sg74
(lp4893
S'{{'
p4894
asbasbasbag67
(g83
g69
NtRp4895
(dp4896
g72
(dp4897
sg81
g4878
sg74
(lp4898
g67
(g88
g69
NtRp4899
(dp4900
g72
(dp4901
sg81
g4895
sg74
(lp4902
g67
(g68
g69
NtRp4903
(dp4904
g72
(dp4905
g80
I4
ssg81
g4899
sg74
(lp4906
S'}}'
p4907
asbasbasbasbasbasbasbag67
(g83
g69
NtRp4908
(dp4909
g72
(dp4910
sg81
g4623
sg74
(lp4911
g67
(g88
g69
NtRp4912
(dp4913
g72
(dp4914
g92
g93
ssg81
g4908
sg74
(lp4915
S'files'
p4916
asbag67
(g88
g69
NtRp4917
(dp4918
g72
(dp4919
g99
g100
ssg81
g4908
sg74
(lp4920
S':'
asbag67
(g88
g69
NtRp4921
(dp4922
g72
(dp4923
sg81
g4908
sg74
(lp4924
g67
(g68
g69
NtRp4925
(dp4926
g72
(dp4927
g80
I5
ssg81
g4921
sg74
(lp4928
g67
(g76
g69
NtRp4929
(dp4930
g72
(dp4931
g80
I4
ssg81
Nsg74
(lp4932
sbasbasbasbag67
(g83
g69
NtRp4933
(dp4934
g72
(dp4935
sg81
g4623
sg74
(lp4936
g67
(g88
g69
NtRp4937
(dp4938
g72
(dp4939
g92
g93
ssg81
g4933
sg74
(lp4940
S'flash'
p4941
asbag67
(g88
g69
NtRp4942
(dp4943
g72
(dp4944
g99
g100
ssg81
g4933
sg74
(lp4945
S':'
asbag67
(g88
g69
NtRp4946
(dp4947
g72
(dp4948
sg81
g4933
sg74
(lp4949
g67
(g68
g69
NtRp4950
(dp4951
g72
(dp4952
g80
I5
ssg81
g4946
sg74
(lp4953
S''
asbasbasbag67
(g83
g69
NtRp4954
(dp4955
g72
(dp4956
sg81
g4623
sg74
(lp4957
g67
(g88
g69
NtRp4958
(dp4959
g72
(dp4960
g92
g93
ssg81
g4954
sg74
(lp4961
S'generic_patterns'
p4962
asbag67
(g88
g69
NtRp4963
(dp4964
g72
(dp4965
g99
g100
ssg81
g4954
sg74
(lp4966
S':'
asbag67
(g88
g69
NtRp4967
(dp4968
g72
(dp4969
sg81
g4954
sg74
(lp4970
g67
(g68
g69
NtRp4971
(dp4972
g72
(dp4973
g80
I5
ssg81
g4967
sg74
(lp4974
g67
(g76
g69
NtRp4975
(dp4976
g72
(dp4977
g80
I4
ssg81
Nsg74
(lp4978
g67
(g83
g69
NtRp4979
(dp4980
g72
(dp4981
sg81
g4975
sg74
(lp4982
g67
(g88
g69
NtRp4983
(dp4984
g72
(dp4985
sg81
g4979
sg74
(lp4986
g67
(g68
g69
NtRp4987
(dp4988
g72
(dp4989
g80
I4
ssg81
g4983
sg74
(lp4990
S'*'
asbasbasbasbasbasbasbag67
(g83
g69
NtRp4991
(dp4992
g72
(dp4993
sg81
g4623
sg74
(lp4994
g67
(g88
g69
NtRp4995
(dp4996
g72
(dp4997
g92
g93
ssg81
g4991
sg74
(lp4998
S'headers'
p4999
asbag67
(g88
g69
NtRp5000
(dp5001
g72
(dp5002
g99
g100
ssg81
g4991
sg74
(lp5003
S':'
asbag67
(g88
g69
NtRp5004
(dp5005
g72
(dp5006
sg81
g4991
sg74
(lp5007
g67
(g68
g69
NtRp5008
(dp5009
g72
(dp5010
g80
I5
ssg81
g5004
sg74
(lp5011
g67
(g76
g69
NtRp5012
(dp5013
g72
(dp5014
g80
I4
ssg81
Nsg74
(lp5015
g67
(g83
g69
NtRp5016
(dp5017
g72
(dp5018
sg81
g5012
sg74
(lp5019
g67
(g88
g69
NtRp5020
(dp5021
g72
(dp5022
g92
g93
ssg81
g5016
sg74
(lp5023
S'X-Powered-By'
p5024
asbag67
(g88
g69
NtRp5025
(dp5026
g72
(dp5027
g99
g100
ssg81
g5016
sg74
(lp5028
S':'
asbag67
(g88
g69
NtRp5029
(dp5030
g72
(dp5031
sg81
g5016
sg74
(lp5032
g67
(g68
g69
NtRp5033
(dp5034
g72
(dp5035
g80
I4
ssg81
g5029
sg74
(lp5036
S'web2py'
p5037
asbasbasbasbasbasbasbag67
(g83
g69
NtRp5038
(dp5039
g72
(dp5040
sg81
g4623
sg74
(lp5041
g67
(g88
g69
NtRp5042
(dp5043
g72
(dp5044
g92
g93
ssg81
g5038
sg74
(lp5045
S'menu'
p5046
asbag67
(g88
g69
NtRp5047
(dp5048
g72
(dp5049
g99
g100
ssg81
g5038
sg74
(lp5050
S':'
asbag67
(g88
g69
NtRp5051
(dp5052
g72
(dp5053
sg81
g5038
sg74
(lp5054
g67
(g68
g69
NtRp5055
(dp5056
g72
(dp5057
g80
I5
ssg81
g5051
sg74
(lp5058
g67
(g76
g69
NtRp5059
(dp5060
g72
(dp5061
g80
I4
ssg81
Nsg74
(lp5062
sbasbasbasbag67
(g83
g69
NtRp5063
(dp5064
g72
(dp5065
sg81
g4623
sg74
(lp5066
g67
(g88
g69
NtRp5067
(dp5068
g72
(dp5069
g92
g93
ssg81
g5063
sg74
(lp5070
S'meta'
p5071
asbag67
(g88
g69
NtRp5072
(dp5073
g72
(dp5074
g99
g100
ssg81
g5063
sg74
(lp5075
S':'
asbag67
(g88
g69
NtRp5076
(dp5077
g72
(dp5078
sg81
g5063
sg74
(lp5079
g67
(g68
g69
NtRp5080
(dp5081
g72
(dp5082
g80
I5
ssg81
g5076
sg74
(lp5083
g67
(g76
g69
NtRp5084
(dp5085
g72
(dp5086
g80
I4
ssg81
Nsg74
(lp5087
g67
(g83
g69
NtRp5088
(dp5089
g72
(dp5090
sg81
g5084
sg74
(lp5091
g67
(g88
g69
NtRp5092
(dp5093
g72
(dp5094
g92
g93
ssg81
g5088
sg74
(lp5095
S'description'
p5096
asbag67
(g88
g69
NtRp5097
(dp5098
g72
(dp5099
g99
g100
ssg81
g5088
sg74
(lp5100
S':'
asbag67
(g88
g69
NtRp5101
(dp5102
g72
(dp5103
sg81
g5088
sg74
(lp5104
g67
(g68
g69
NtRp5105
(dp5106
g72
(dp5107
g80
I4
ssg81
g5101
sg74
(lp5108
S'blog do shedon'
p5109
asbasbasbag67
(g83
g69
NtRp5110
(dp5111
g72
(dp5112
sg81
g5084
sg74
(lp5113
g67
(g88
g69
NtRp5114
(dp5115
g72
(dp5116
g92
g93
ssg81
g5110
sg74
(lp5117
S'keywords'
p5118
asbag67
(g88
g69
NtRp5119
(dp5120
g72
(dp5121
g99
g100
ssg81
g5110
sg74
(lp5122
S':'
asbag67
(g88
g69
NtRp5123
(dp5124
g72
(dp5125
sg81
g5110
sg74
(lp5126
g67
(g68
g69
NtRp5127
(dp5128
g72
(dp5129
g80
I4
ssg81
g5123
sg74
(lp5130
S'chave, outra, e utra'
p5131
asbasbasbasbasbasbasbag67
(g83
g69
NtRp5132
(dp5133
g72
(dp5134
sg81
g4623
sg74
(lp5135
g67
(g88
g69
NtRp5136
(dp5137
g72
(dp5138
g92
g93
ssg81
g5132
sg74
(lp5139
S'models_to_run'
p5140
asbag67
(g88
g69
NtRp5141
(dp5142
g72
(dp5143
g99
g100
ssg81
g5132
sg74
(lp5144
S':'
asbag67
(g88
g69
NtRp5145
(dp5146
g72
(dp5147
sg81
g5132
sg74
(lp5148
g67
(g68
g69
NtRp5149
(dp5150
g72
(dp5151
g80
I5
ssg81
g5145
sg74
(lp5152
g67
(g76
g69
NtRp5153
(dp5154
g72
(dp5155
g80
I4
ssg81
Nsg74
(lp5156
g67
(g83
g69
NtRp5157
(dp5158
g72
(dp5159
sg81
g5153
sg74
(lp5160
g67
(g88
g69
NtRp5161
(dp5162
g72
(dp5163
sg81
g5157
sg74
(lp5164
g67
(g68
g69
NtRp5165
(dp5166
g72
(dp5167
g80
I4
ssg81
g5161
sg74
(lp5168
S'^\\w+\\.py$'
p5169
asbasbasbag67
(g83
g69
NtRp5170
(dp5171
g72
(dp5172
sg81
g5153
sg74
(lp5173
g67
(g88
g69
NtRp5174
(dp5175
g72
(dp5176
sg81
g5170
sg74
(lp5177
g67
(g68
g69
NtRp5178
(dp5179
g72
(dp5180
g80
I4
ssg81
g5174
sg74
(lp5181
S'^initial/\\w+\\.py$'
p5182
asbasbasbag67
(g83
g69
NtRp5183
(dp5184
g72
(dp5185
sg81
g5153
sg74
(lp5186
g67
(g88
g69
NtRp5187
(dp5188
g72
(dp5189
sg81
g5183
sg74
(lp5190
g67
(g68
g69
NtRp5191
(dp5192
g72
(dp5193
g80
I4
ssg81
g5187
sg74
(lp5194
S'^initial/home/\\w+\\.py$'
p5195
asbasbasbasbasbasbasbag67
(g83
g69
NtRp5196
(dp5197
g72
(dp5198
sg81
g4623
sg74
(lp5199
g67
(g88
g69
NtRp5200
(dp5201
g72
(dp5202
g92
g93
ssg81
g5196
sg74
(lp5203
S'postprocessing'
p5204
asbag67
(g88
g69
NtRp5205
(dp5206
g72
(dp5207
g99
g100
ssg81
g5196
sg74
(lp5208
S':'
asbag67
(g88
g69
NtRp5209
(dp5210
g72
(dp5211
sg81
g5196
sg74
(lp5212
g67
(g68
g69
NtRp5213
(dp5214
g72
(dp5215
g80
I5
ssg81
g5209
sg74
(lp5216
g67
(g76
g69
NtRp5217
(dp5218
g72
(dp5219
g80
I4
ssg81
Nsg74
(lp5220
sbasbasbasbag67
(g83
g69
NtRp5221
(dp5222
g72
(dp5223
sg81
g4623
sg74
(lp5224
g67
(g88
g69
NtRp5225
(dp5226
g72
(dp5227
g92
g93
ssg81
g5221
sg74
(lp5228
S'session_cookie_expires'
p5229
asbag67
(g88
g69
NtRp5230
(dp5231
g72
(dp5232
g99
g100
ssg81
g5221
sg74
(lp5233
S':'
asbag67
(g88
g69
NtRp5234
(dp5235
g72
(dp5236
sg81
g5221
sg74
(lp5237
g67
(g68
g69
NtRp5238
(dp5239
g72
(dp5240
g80
I5
ssg81
g5234
sg74
(lp5241
S'None'
p5242
asbasbasbag67
(g83
g69
NtRp5243
(dp5244
g72
(dp5245
sg81
g4623
sg74
(lp5246
g67
(g88
g69
NtRp5247
(dp5248
g72
(dp5249
g92
g93
ssg81
g5243
sg74
(lp5250
S'session_data_name'
p5251
asbag67
(g88
g69
NtRp5252
(dp5253
g72
(dp5254
g99
g100
ssg81
g5243
sg74
(lp5255
S':'
asbag67
(g88
g69
NtRp5256
(dp5257
g72
(dp5258
sg81
g5243
sg74
(lp5259
g67
(g68
g69
NtRp5260
(dp5261
g72
(dp5262
g80
I5
ssg81
g5256
sg74
(lp5263
S'session_data_projeto'
p5264
asbasbasbag67
(g83
g69
NtRp5265
(dp5266
g72
(dp5267
sg81
g4623
sg74
(lp5268
g67
(g88
g69
NtRp5269
(dp5270
g72
(dp5271
g92
g93
ssg81
g5265
sg74
(lp5272
S'session_file'
p5273
asbag67
(g88
g69
NtRp5274
(dp5275
g72
(dp5276
g99
g100
ssg81
g5265
sg74
(lp5277
S':'
asbag67
(g88
g69
NtRp5278
(dp5279
g72
(dp5280
sg81
g5265
sg74
(lp5281
g67
(g68
g69
NtRp5282
(dp5283
g72
(dp5284
g80
I5
ssg81
g5278
sg74
(lp5285
S'None'
p5286
asbasbasbag67
(g83
g69
NtRp5287
(dp5288
g72
(dp5289
sg81
g4623
sg74
(lp5290
g67
(g88
g69
NtRp5291
(dp5292
g72
(dp5293
g92
g93
ssg81
g5287
sg74
(lp5294
S'session_filename'
p5295
asbag67
(g88
g69
NtRp5296
(dp5297
g72
(dp5298
g99
g100
ssg81
g5287
sg74
(lp5299
S':'
asbag67
(g88
g69
NtRp5300
(dp5301
g72
(dp5302
sg81
g5287
sg74
(lp5303
g67
(g68
g69
NtRp5304
(dp5305
g72
(dp5306
g80
I5
ssg81
g5300
sg74
(lp5307
S'/var/www/web2py_curso/applications/projeto/sessions/127.0.0.1-a92e0168-6f87-49ed-a239-5acc06287f24'
p5308
asbasbasbag67
(g83
g69
NtRp5309
(dp5310
g72
(dp5311
sg81
g4623
sg74
(lp5312
g67
(g88
g69
NtRp5313
(dp5314
g72
(dp5315
g92
g93
ssg81
g5309
sg74
(lp5316
S'session_id'
p5317
asbag67
(g88
g69
NtRp5318
(dp5319
g72
(dp5320
g99
g100
ssg81
g5309
sg74
(lp5321
S':'
asbag67
(g88
g69
NtRp5322
(dp5323
g72
(dp5324
sg81
g5309
sg74
(lp5325
g67
(g68
g69
NtRp5326
(dp5327
g72
(dp5328
g80
I5
ssg81
g5322
sg74
(lp5329
g1785
asbasbasbag67
(g83
g69
NtRp5330
(dp5331
g72
(dp5332
sg81
g4623
sg74
(lp5333
g67
(g88
g69
NtRp5334
(dp5335
g72
(dp5336
g92
g93
ssg81
g5330
sg74
(lp5337
S'session_id_name'
p5338
asbag67
(g88
g69
NtRp5339
(dp5340
g72
(dp5341
g99
g100
ssg81
g5330
sg74
(lp5342
S':'
asbag67
(g88
g69
NtRp5343
(dp5344
g72
(dp5345
sg81
g5330
sg74
(lp5346
g67
(g68
g69
NtRp5347
(dp5348
g72
(dp5349
g80
I5
ssg81
g5343
sg74
(lp5350
g4680
asbasbasbag67
(g83
g69
NtRp5351
(dp5352
g72
(dp5353
sg81
g4623
sg74
(lp5354
g67
(g88
g69
NtRp5355
(dp5356
g72
(dp5357
g92
g93
ssg81
g5351
sg74
(lp5358
S'session_new'
p5359
asbag67
(g88
g69
NtRp5360
(dp5361
g72
(dp5362
g99
g100
ssg81
g5351
sg74
(lp5363
S':'
asbag67
(g88
g69
NtRp5364
(dp5365
g72
(dp5366
sg81
g5351
sg74
(lp5367
g67
(g68
g69
NtRp5368
(dp5369
g72
(dp5370
g80
I5
ssg81
g5364
sg74
(lp5371
g110
asbasbasbag67
(g83
g69
NtRp5372
(dp5373
g72
(dp5374
sg81
g4623
sg74
(lp5375
g67
(g88
g69
NtRp5376
(dp5377
g72
(dp5378
g92
g93
ssg81
g5372
sg74
(lp5379
S'session_storage_type'
p5380
asbag67
(g88
g69
NtRp5381
(dp5382
g72
(dp5383
g99
g100
ssg81
g5372
sg74
(lp5384
S':'
asbag67
(g88
g69
NtRp5385
(dp5386
g72
(dp5387
sg81
g5372
sg74
(lp5388
g67
(g68
g69
NtRp5389
(dp5390
g72
(dp5391
g80
I5
ssg81
g5385
sg74
(lp5392
g4552
asbasbasbag67
(g83
g69
NtRp5393
(dp5394
g72
(dp5395
sg81
g4623
sg74
(lp5396
g67
(g88
g69
NtRp5397
(dp5398
g72
(dp5399
g92
g93
ssg81
g5393
sg74
(lp5400
S'status'
p5401
asbag67
(g88
g69
NtRp5402
(dp5403
g72
(dp5404
g99
g100
ssg81
g5393
sg74
(lp5405
S':'
asbag67
(g88
g69
NtRp5406
(dp5407
g72
(dp5408
sg81
g5393
sg74
(lp5409
g67
(g68
g69
NtRp5410
(dp5411
g72
(dp5412
g80
I5
ssg81
g5406
sg74
(lp5413
S'200'
p5414
asbasbasbag67
(g83
g69
NtRp5415
(dp5416
g72
(dp5417
sg81
g4623
sg74
(lp5418
g67
(g88
g69
NtRp5419
(dp5420
g72
(dp5421
g92
g93
ssg81
g5415
sg74
(lp5422
S'subtitle'
p5423
asbag67
(g88
g69
NtRp5424
(dp5425
g72
(dp5426
g99
g100
ssg81
g5415
sg74
(lp5427
S':'
asbag67
(g88
g69
NtRp5428
(dp5429
g72
(dp5430
sg81
g5415
sg74
(lp5431
g67
(g68
g69
NtRp5432
(dp5433
g72
(dp5434
g80
I5
ssg81
g5428
sg74
(lp5435
S'O blog do sheldon'
p5436
asbasbasbag67
(g83
g69
NtRp5437
(dp5438
g72
(dp5439
sg81
g4623
sg74
(lp5440
g67
(g88
g69
NtRp5441
(dp5442
g72
(dp5443
g92
g93
ssg81
g5437
sg74
(lp5444
S'title'
p5445
asbag67
(g88
g69
NtRp5446
(dp5447
g72
(dp5448
g99
g100
ssg81
g5437
sg74
(lp5449
S':'
asbag67
(g88
g69
NtRp5450
(dp5451
g72
(dp5452
sg81
g5437
sg74
(lp5453
g67
(g68
g69
NtRp5454
(dp5455
g72
(dp5456
g80
I5
ssg81
g5450
sg74
(lp5457
S'Meu site magnifico'
p5458
asbasbasbag67
(g83
g69
NtRp5459
(dp5460
g72
(dp5461
sg81
g4623
sg74
(lp5462
g67
(g88
g69
NtRp5463
(dp5464
g72
(dp5465
g92
g93
ssg81
g5459
sg74
(lp5466
S'view'
p5467
asbag67
(g88
g69
NtRp5468
(dp5469
g72
(dp5470
g99
g100
ssg81
g5459
sg74
(lp5471
S':'
asbag67
(g88
g69
NtRp5472
(dp5473
g72
(dp5474
sg81
g5459
sg74
(lp5475
g67
(g68
g69
NtRp5476
(dp5477
g72
(dp5478
g80
I5
ssg81
g5472
sg74
(lp5479
S'initial/home.html'
p5480
asbasbasbasbasbsS'locals'
p5481
(dp5482
g4
S"'/var/www/web2py_curso/applications/projeto/controllers/initial.py'"
p5483
sg6
S"'# coding: utf-8\\n\\ndef home():\\n\\tposts = db(db.post... x + y\\n\\n \\n\\nresponse._vars=response._caller(home)\\n'"
p5484
sssS'traceback'
p5485
S'Traceback (most recent call last):\n  File "/var/www/web2py_curso/gluon/restricted.py", line 211, in restricted\n    ccode = compile2(code, layer)\n  File "/var/www/web2py_curso/gluon/restricted.py", line 194, in compile2\n    return compile(code.rstrip().replace(\'\\r\\n\', \'\\n\') + \'\\n\', layer, \'exec\')\n  File "/var/www/web2py_curso/applications/projeto/controllers/initial.py", line 8\n    print = auth_user\n          ^\nSyntaxError: invalid syntax\n'
p5486
s.