(dp1
S'output'
p2
S"<type 'exceptions.SyntaxError'> invalid syntax (config.py, line 38)"
p3
sS'layer'
p4
S'/var/www/web2py_curso/applications/projeto/models/config.py'
p5
sS'code'
p6
S'from gluon.storage import Storage\n\nconfig = Storage(\n        db=Storage(),\n        auth=Storage(),\n        mail=Storage()\n        )\n\nconfig.db.uri = "sqlite://projeto.sqlite"\nconfig.db.pool_size = 10\nconfig.db.check_reserved = [\'all\']\n\n\ndb = DAL(**config.db)\n\n# logging\nimport logging\nlogger = logging.getLogger("web2py.app.blog")\nlogger.setLevel(logging.DEBUG)\n\n\n#auth Rbac\nfrom gluon.tools import Auth\n\nauth = Auth(db, controller="initial", function="user")\n\n#settings\nauth.settings.remember_me_form = False\nauth.settings.formstyle = "divs"\nauth.settings.login_next = URL(\'initial\', \'home\')\n\n#messages\nauth.messages.login_button = "Entrar"\n\n#fields\nauth.settings.extra_fields[\'auth_user\'] = [\n\tField("bio", "text")\n\tField("photo", "upload")\n]\n\nauth.define_tables()\n\n'
p7
sS'snapshot'
p8
(dp9
S'exception'
p10
(dp11
S'__getslice__'
p12
S"<method-wrapper '__getslice__' of exceptions.SyntaxError object>"
p13
sS'text'
p14
S'\'\\tField("photo", "upload")\\n\''
p15
sS'__str__'
p16
S"<method-wrapper '__str__' of exceptions.SyntaxError object>"
p17
sS'__reduce__'
p18
S'<built-in method __reduce__ of exceptions.SyntaxError object>'
p19
sS'__dict__'
p20
S'{}'
p21
sS'__sizeof__'
p22
S'<built-in method __sizeof__ of exceptions.SyntaxError object>'
p23
sS'__init__'
p24
S"<method-wrapper '__init__' of exceptions.SyntaxError object>"
p25
sS'__setattr__'
p26
S"<method-wrapper '__setattr__' of exceptions.SyntaxError object>"
p27
sS'__reduce_ex__'
p28
S'<built-in method __reduce_ex__ of exceptions.SyntaxError object>'
p29
sS'__new__'
p30
S'<built-in method __new__ of type object>'
p31
sS'__format__'
p32
S'<built-in method __format__ of exceptions.SyntaxError object>'
p33
sS'__class__'
p34
S"<type 'exceptions.SyntaxError'>"
p35
sS'filename'
p36
S"'/var/www/web2py_curso/applications/projeto/models/config.py'"
p37
sS'lineno'
p38
S'38'
p39
sS'msg'
p40
S"'invalid syntax'"
p41
sS'__doc__'
p42
S"'Invalid syntax.'"
p43
sS'__getitem__'
p44
S"<method-wrapper '__getitem__' of exceptions.SyntaxError object>"
p45
sS'__setstate__'
p46
S'<built-in method __setstate__ of exceptions.SyntaxError object>'
p47
sS'__getattribute__'
p48
S"<method-wrapper '__getattribute__' of exceptions.SyntaxError object>"
p49
sS'print_file_and_line'
p50
S'None'
p51
sS'args'
p52
S'(\'invalid syntax\', (\'/var/www/web2py_curso/applications/projeto/models/config.py\', 38, 6, \'\\tField("photo", "upload")\\n\'))'
p53
sS'__subclasshook__'
p54
S'<built-in method __subclasshook__ of type object>'
p55
sS'offset'
p56
S'6'
sS'__unicode__'
p57
S'<built-in method __unicode__ of exceptions.SyntaxError object>'
p58
sS'__delattr__'
p59
S"<method-wrapper '__delattr__' of exceptions.SyntaxError object>"
p60
sS'__repr__'
p61
S"<method-wrapper '__repr__' of exceptions.SyntaxError object>"
p62
sS'__hash__'
p63
S"<method-wrapper '__hash__' of exceptions.SyntaxError object>"
p64
ssS'evalue'
p65
S'invalid syntax (config.py, line 38)'
p66
sS'request'
p67
ccopy_reg
_reconstructor
p68
(cgluon.html
BEAUTIFY
p69
c__builtin__
object
p70
NtRp71
(dp72
S'attributes'
p73
(dp74
sS'components'
p75
(lp76
g68
(cgluon.html
TABLE
p77
g70
NtRp78
(dp79
g73
(dp80
S'level'
p81
I5
ssS'parent'
p82
Nsg75
(lp83
g68
(cgluon.html
TR
p84
g70
NtRp85
(dp86
g73
(dp87
sg82
g78
sg75
(lp88
g68
(cgluon.html
TD
p89
g70
NtRp90
(dp91
g73
(dp92
S'_style'
p93
S'font-weight:bold;vertical-align:top'
p94
ssg82
g85
sg75
(lp95
S'ajax'
p96
asbag68
(g89
g70
NtRp97
(dp98
g73
(dp99
S'_valign'
p100
S'top'
p101
ssg82
g85
sg75
(lp102
S':'
asbag68
(g89
g70
NtRp103
(dp104
g73
(dp105
sg82
g85
sg75
(lp106
g68
(g69
g70
NtRp107
(dp108
g73
(dp109
g81
I5
ssg82
g103
sg75
(lp110
S'False'
p111
asbasbasbag68
(g84
g70
NtRp112
(dp113
g73
(dp114
sg82
g78
sg75
(lp115
g68
(g89
g70
NtRp116
(dp117
g73
(dp118
g93
g94
ssg82
g112
sg75
(lp119
S'application'
p120
asbag68
(g89
g70
NtRp121
(dp122
g73
(dp123
g100
g101
ssg82
g112
sg75
(lp124
S':'
asbag68
(g89
g70
NtRp125
(dp126
g73
(dp127
sg82
g112
sg75
(lp128
g68
(g69
g70
NtRp129
(dp130
g73
(dp131
g81
I5
ssg82
g125
sg75
(lp132
S'projeto'
p133
asbasbasbag68
(g84
g70
NtRp134
(dp135
g73
(dp136
sg82
g78
sg75
(lp137
g68
(g89
g70
NtRp138
(dp139
g73
(dp140
g93
g94
ssg82
g134
sg75
(lp141
g52
asbag68
(g89
g70
NtRp142
(dp143
g73
(dp144
g100
g101
ssg82
g134
sg75
(lp145
S':'
asbag68
(g89
g70
NtRp146
(dp147
g73
(dp148
sg82
g134
sg75
(lp149
g68
(g69
g70
NtRp150
(dp151
g73
(dp152
g81
I5
ssg82
g146
sg75
(lp153
g68
(g77
g70
NtRp154
(dp155
g73
(dp156
g81
I4
ssg82
Nsg75
(lp157
g68
(g84
g70
NtRp158
(dp159
g73
(dp160
sg82
g154
sg75
(lp161
g68
(g89
g70
NtRp162
(dp163
g73
(dp164
sg82
g158
sg75
(lp165
g68
(g69
g70
NtRp166
(dp167
g73
(dp168
g81
I4
ssg82
g162
sg75
(lp169
S'profile'
p170
asbasbasbasbasbasbasbag68
(g84
g70
NtRp171
(dp172
g73
(dp173
sg82
g78
sg75
(lp174
g68
(g89
g70
NtRp175
(dp176
g73
(dp177
g93
g94
ssg82
g171
sg75
(lp178
S'body'
p179
asbag68
(g89
g70
NtRp180
(dp181
g73
(dp182
g100
g101
ssg82
g171
sg75
(lp183
S':'
asbag68
(g89
g70
NtRp184
(dp185
g73
(dp186
sg82
g171
sg75
(lp187
g68
(g69
g70
NtRp188
(dp189
g73
(dp190
g81
I5
ssg82
g184
sg75
(lp191
S'<cStringIO.StringO object at 0x7f982406d9d0>'
p192
asbasbasbag68
(g84
g70
NtRp193
(dp194
g73
(dp195
sg82
g78
sg75
(lp196
g68
(g89
g70
NtRp197
(dp198
g73
(dp199
g93
g94
ssg82
g193
sg75
(lp200
S'cid'
p201
asbag68
(g89
g70
NtRp202
(dp203
g73
(dp204
g100
g101
ssg82
g193
sg75
(lp205
S':'
asbag68
(g89
g70
NtRp206
(dp207
g73
(dp208
sg82
g193
sg75
(lp209
g68
(g69
g70
NtRp210
(dp211
g73
(dp212
g81
I5
ssg82
g206
sg75
(lp213
S'None'
p214
asbasbasbag68
(g84
g70
NtRp215
(dp216
g73
(dp217
sg82
g78
sg75
(lp218
g68
(g89
g70
NtRp219
(dp220
g73
(dp221
g93
g94
ssg82
g215
sg75
(lp222
S'client'
p223
asbag68
(g89
g70
NtRp224
(dp225
g73
(dp226
g100
g101
ssg82
g215
sg75
(lp227
S':'
asbag68
(g89
g70
NtRp228
(dp229
g73
(dp230
sg82
g215
sg75
(lp231
g68
(g69
g70
NtRp232
(dp233
g73
(dp234
g81
I5
ssg82
g228
sg75
(lp235
S'127.0.0.1'
p236
asbasbasbag68
(g84
g70
NtRp237
(dp238
g73
(dp239
sg82
g78
sg75
(lp240
g68
(g89
g70
NtRp241
(dp242
g73
(dp243
g93
g94
ssg82
g237
sg75
(lp244
S'controller'
p245
asbag68
(g89
g70
NtRp246
(dp247
g73
(dp248
g100
g101
ssg82
g237
sg75
(lp249
S':'
asbag68
(g89
g70
NtRp250
(dp251
g73
(dp252
sg82
g237
sg75
(lp253
g68
(g69
g70
NtRp254
(dp255
g73
(dp256
g81
I5
ssg82
g250
sg75
(lp257
S'initial'
p258
asbasbasbag68
(g84
g70
NtRp259
(dp260
g73
(dp261
sg82
g78
sg75
(lp262
g68
(g89
g70
NtRp263
(dp264
g73
(dp265
g93
g94
ssg82
g259
sg75
(lp266
S'cookies'
p267
asbag68
(g89
g70
NtRp268
(dp269
g73
(dp270
g100
g101
ssg82
g259
sg75
(lp271
S':'
asbag68
(g89
g70
NtRp272
(dp273
g73
(dp274
sg82
g259
sg75
(lp275
g68
(g69
g70
NtRp276
(dp277
g73
(dp278
g81
I5
ssg82
g272
sg75
(lp279
g68
(g77
g70
NtRp280
(dp281
g73
(dp282
g81
I4
ssg82
Nsg75
(lp283
g68
(g84
g70
NtRp284
(dp285
g73
(dp286
sg82
g280
sg75
(lp287
g68
(g89
g70
NtRp288
(dp289
g73
(dp290
g93
g94
ssg82
g284
sg75
(lp291
S'session_id_admin'
p292
asbag68
(g89
g70
NtRp293
(dp294
g73
(dp295
g100
g101
ssg82
g284
sg75
(lp296
S':'
asbag68
(g89
g70
NtRp297
(dp298
g73
(dp299
sg82
g284
sg75
(lp300
g68
(g69
g70
NtRp301
(dp302
g73
(dp303
g81
I4
ssg82
g297
sg75
(lp304
S'127.0.0.1-f3e4b0cb-9e15-4e27-aeb8-da76724c4de5'
p305
ag68
(g77
g70
NtRp306
(dp307
g73
(dp308
g81
I3
ssg82
Nsg75
(lp309
g68
(g84
g70
NtRp310
(dp311
g73
(dp312
sg82
g306
sg75
(lp313
g68
(g89
g70
NtRp314
(dp315
g73
(dp316
g93
g94
ssg82
g310
sg75
(lp317
S'comment'
p318
asbag68
(g89
g70
NtRp319
(dp320
g73
(dp321
g100
g101
ssg82
g310
sg75
(lp322
S':'
asbag68
(g89
g70
NtRp323
(dp324
g73
(dp325
sg82
g310
sg75
(lp326
g68
(g69
g70
NtRp327
(dp328
g73
(dp329
g81
I3
ssg82
g323
sg75
(lp330
S''
asbasbasbag68
(g84
g70
NtRp331
(dp332
g73
(dp333
sg82
g306
sg75
(lp334
g68
(g89
g70
NtRp335
(dp336
g73
(dp337
g93
g94
ssg82
g331
sg75
(lp338
S'domain'
p339
asbag68
(g89
g70
NtRp340
(dp341
g73
(dp342
g100
g101
ssg82
g331
sg75
(lp343
S':'
asbag68
(g89
g70
NtRp344
(dp345
g73
(dp346
sg82
g331
sg75
(lp347
g68
(g69
g70
NtRp348
(dp349
g73
(dp350
g81
I3
ssg82
g344
sg75
(lp351
S''
asbasbasbag68
(g84
g70
NtRp352
(dp353
g73
(dp354
sg82
g306
sg75
(lp355
g68
(g89
g70
NtRp356
(dp357
g73
(dp358
g93
g94
ssg82
g352
sg75
(lp359
S'expires'
p360
asbag68
(g89
g70
NtRp361
(dp362
g73
(dp363
g100
g101
ssg82
g352
sg75
(lp364
S':'
asbag68
(g89
g70
NtRp365
(dp366
g73
(dp367
sg82
g352
sg75
(lp368
g68
(g69
g70
NtRp369
(dp370
g73
(dp371
g81
I3
ssg82
g365
sg75
(lp372
S''
asbasbasbag68
(g84
g70
NtRp373
(dp374
g73
(dp375
sg82
g306
sg75
(lp376
g68
(g89
g70
NtRp377
(dp378
g73
(dp379
g93
g94
ssg82
g373
sg75
(lp380
S'httponly'
p381
asbag68
(g89
g70
NtRp382
(dp383
g73
(dp384
g100
g101
ssg82
g373
sg75
(lp385
S':'
asbag68
(g89
g70
NtRp386
(dp387
g73
(dp388
sg82
g373
sg75
(lp389
g68
(g69
g70
NtRp390
(dp391
g73
(dp392
g81
I3
ssg82
g386
sg75
(lp393
S''
asbasbasbag68
(g84
g70
NtRp394
(dp395
g73
(dp396
sg82
g306
sg75
(lp397
g68
(g89
g70
NtRp398
(dp399
g73
(dp400
g93
g94
ssg82
g394
sg75
(lp401
S'max-age'
p402
asbag68
(g89
g70
NtRp403
(dp404
g73
(dp405
g100
g101
ssg82
g394
sg75
(lp406
S':'
asbag68
(g89
g70
NtRp407
(dp408
g73
(dp409
sg82
g394
sg75
(lp410
g68
(g69
g70
NtRp411
(dp412
g73
(dp413
g81
I3
ssg82
g407
sg75
(lp414
S''
asbasbasbag68
(g84
g70
NtRp415
(dp416
g73
(dp417
sg82
g306
sg75
(lp418
g68
(g89
g70
NtRp419
(dp420
g73
(dp421
g93
g94
ssg82
g415
sg75
(lp422
S'path'
p423
asbag68
(g89
g70
NtRp424
(dp425
g73
(dp426
g100
g101
ssg82
g415
sg75
(lp427
S':'
asbag68
(g89
g70
NtRp428
(dp429
g73
(dp430
sg82
g415
sg75
(lp431
g68
(g69
g70
NtRp432
(dp433
g73
(dp434
g81
I3
ssg82
g428
sg75
(lp435
S''
asbasbasbag68
(g84
g70
NtRp436
(dp437
g73
(dp438
sg82
g306
sg75
(lp439
g68
(g89
g70
NtRp440
(dp441
g73
(dp442
g93
g94
ssg82
g436
sg75
(lp443
S'secure'
p444
asbag68
(g89
g70
NtRp445
(dp446
g73
(dp447
g100
g101
ssg82
g436
sg75
(lp448
S':'
asbag68
(g89
g70
NtRp449
(dp450
g73
(dp451
sg82
g436
sg75
(lp452
g68
(g69
g70
NtRp453
(dp454
g73
(dp455
g81
I3
ssg82
g449
sg75
(lp456
S''
asbasbasbag68
(g84
g70
NtRp457
(dp458
g73
(dp459
sg82
g306
sg75
(lp460
g68
(g89
g70
NtRp461
(dp462
g73
(dp463
g93
g94
ssg82
g457
sg75
(lp464
S'version'
p465
asbag68
(g89
g70
NtRp466
(dp467
g73
(dp468
g100
g101
ssg82
g457
sg75
(lp469
S':'
asbag68
(g89
g70
NtRp470
(dp471
g73
(dp472
sg82
g457
sg75
(lp473
g68
(g69
g70
NtRp474
(dp475
g73
(dp476
g81
I3
ssg82
g470
sg75
(lp477
S''
asbasbasbasbasbasbasbag68
(g84
g70
NtRp478
(dp479
g73
(dp480
sg82
g280
sg75
(lp481
g68
(g89
g70
NtRp482
(dp483
g73
(dp484
g93
g94
ssg82
g478
sg75
(lp485
S'session_id_projeto'
p486
asbag68
(g89
g70
NtRp487
(dp488
g73
(dp489
g100
g101
ssg82
g478
sg75
(lp490
S':'
asbag68
(g89
g70
NtRp491
(dp492
g73
(dp493
sg82
g478
sg75
(lp494
g68
(g69
g70
NtRp495
(dp496
g73
(dp497
g81
I4
ssg82
g491
sg75
(lp498
S'127.0.0.1-e368b264-444a-4dee-8b41-31155ff54a04'
p499
ag68
(g77
g70
NtRp500
(dp501
g73
(dp502
g81
I3
ssg82
Nsg75
(lp503
g68
(g84
g70
NtRp504
(dp505
g73
(dp506
sg82
g500
sg75
(lp507
g68
(g89
g70
NtRp508
(dp509
g73
(dp510
g93
g94
ssg82
g504
sg75
(lp511
g318
asbag68
(g89
g70
NtRp512
(dp513
g73
(dp514
g100
g101
ssg82
g504
sg75
(lp515
S':'
asbag68
(g89
g70
NtRp516
(dp517
g73
(dp518
sg82
g504
sg75
(lp519
g68
(g69
g70
NtRp520
(dp521
g73
(dp522
g81
I3
ssg82
g516
sg75
(lp523
S''
asbasbasbag68
(g84
g70
NtRp524
(dp525
g73
(dp526
sg82
g500
sg75
(lp527
g68
(g89
g70
NtRp528
(dp529
g73
(dp530
g93
g94
ssg82
g524
sg75
(lp531
g339
asbag68
(g89
g70
NtRp532
(dp533
g73
(dp534
g100
g101
ssg82
g524
sg75
(lp535
S':'
asbag68
(g89
g70
NtRp536
(dp537
g73
(dp538
sg82
g524
sg75
(lp539
g68
(g69
g70
NtRp540
(dp541
g73
(dp542
g81
I3
ssg82
g536
sg75
(lp543
S''
asbasbasbag68
(g84
g70
NtRp544
(dp545
g73
(dp546
sg82
g500
sg75
(lp547
g68
(g89
g70
NtRp548
(dp549
g73
(dp550
g93
g94
ssg82
g544
sg75
(lp551
g360
asbag68
(g89
g70
NtRp552
(dp553
g73
(dp554
g100
g101
ssg82
g544
sg75
(lp555
S':'
asbag68
(g89
g70
NtRp556
(dp557
g73
(dp558
sg82
g544
sg75
(lp559
g68
(g69
g70
NtRp560
(dp561
g73
(dp562
g81
I3
ssg82
g556
sg75
(lp563
S''
asbasbasbag68
(g84
g70
NtRp564
(dp565
g73
(dp566
sg82
g500
sg75
(lp567
g68
(g89
g70
NtRp568
(dp569
g73
(dp570
g93
g94
ssg82
g564
sg75
(lp571
g381
asbag68
(g89
g70
NtRp572
(dp573
g73
(dp574
g100
g101
ssg82
g564
sg75
(lp575
S':'
asbag68
(g89
g70
NtRp576
(dp577
g73
(dp578
sg82
g564
sg75
(lp579
g68
(g69
g70
NtRp580
(dp581
g73
(dp582
g81
I3
ssg82
g576
sg75
(lp583
S''
asbasbasbag68
(g84
g70
NtRp584
(dp585
g73
(dp586
sg82
g500
sg75
(lp587
g68
(g89
g70
NtRp588
(dp589
g73
(dp590
g93
g94
ssg82
g584
sg75
(lp591
g402
asbag68
(g89
g70
NtRp592
(dp593
g73
(dp594
g100
g101
ssg82
g584
sg75
(lp595
S':'
asbag68
(g89
g70
NtRp596
(dp597
g73
(dp598
sg82
g584
sg75
(lp599
g68
(g69
g70
NtRp600
(dp601
g73
(dp602
g81
I3
ssg82
g596
sg75
(lp603
S''
asbasbasbag68
(g84
g70
NtRp604
(dp605
g73
(dp606
sg82
g500
sg75
(lp607
g68
(g89
g70
NtRp608
(dp609
g73
(dp610
g93
g94
ssg82
g604
sg75
(lp611
g423
asbag68
(g89
g70
NtRp612
(dp613
g73
(dp614
g100
g101
ssg82
g604
sg75
(lp615
S':'
asbag68
(g89
g70
NtRp616
(dp617
g73
(dp618
sg82
g604
sg75
(lp619
g68
(g69
g70
NtRp620
(dp621
g73
(dp622
g81
I3
ssg82
g616
sg75
(lp623
S''
asbasbasbag68
(g84
g70
NtRp624
(dp625
g73
(dp626
sg82
g500
sg75
(lp627
g68
(g89
g70
NtRp628
(dp629
g73
(dp630
g93
g94
ssg82
g624
sg75
(lp631
g444
asbag68
(g89
g70
NtRp632
(dp633
g73
(dp634
g100
g101
ssg82
g624
sg75
(lp635
S':'
asbag68
(g89
g70
NtRp636
(dp637
g73
(dp638
sg82
g624
sg75
(lp639
g68
(g69
g70
NtRp640
(dp641
g73
(dp642
g81
I3
ssg82
g636
sg75
(lp643
S''
asbasbasbag68
(g84
g70
NtRp644
(dp645
g73
(dp646
sg82
g500
sg75
(lp647
g68
(g89
g70
NtRp648
(dp649
g73
(dp650
g93
g94
ssg82
g644
sg75
(lp651
g465
asbag68
(g89
g70
NtRp652
(dp653
g73
(dp654
g100
g101
ssg82
g644
sg75
(lp655
S':'
asbag68
(g89
g70
NtRp656
(dp657
g73
(dp658
sg82
g644
sg75
(lp659
g68
(g69
g70
NtRp660
(dp661
g73
(dp662
g81
I3
ssg82
g656
sg75
(lp663
S''
asbasbasbasbasbasbasbasbasbasbasbag68
(g84
g70
NtRp664
(dp665
g73
(dp666
sg82
g78
sg75
(lp667
g68
(g89
g70
NtRp668
(dp669
g73
(dp670
g93
g94
ssg82
g664
sg75
(lp671
S'env'
p672
asbag68
(g89
g70
NtRp673
(dp674
g73
(dp675
g100
g101
ssg82
g664
sg75
(lp676
S':'
asbag68
(g89
g70
NtRp677
(dp678
g73
(dp679
sg82
g664
sg75
(lp680
g68
(g69
g70
NtRp681
(dp682
g73
(dp683
g81
I5
ssg82
g677
sg75
(lp684
g68
(g77
g70
NtRp685
(dp686
g73
(dp687
g81
I4
ssg82
Nsg75
(lp688
g68
(g84
g70
NtRp689
(dp690
g73
(dp691
sg82
g685
sg75
(lp692
g68
(g89
g70
NtRp693
(dp694
g73
(dp695
g93
g94
ssg82
g689
sg75
(lp696
S'app_folders'
p697
asbag68
(g89
g70
NtRp698
(dp699
g73
(dp700
g100
g101
ssg82
g689
sg75
(lp701
S':'
asbag68
(g89
g70
NtRp702
(dp703
g73
(dp704
sg82
g689
sg75
(lp705
g68
(g69
g70
NtRp706
(dp707
g73
(dp708
g81
I4
ssg82
g702
sg75
(lp709
S"set(['/var/www/web2py_curso/applications/projeto/'])"
p710
asbasbasbag68
(g84
g70
NtRp711
(dp712
g73
(dp713
sg82
g685
sg75
(lp714
g68
(g89
g70
NtRp715
(dp716
g73
(dp717
g93
g94
ssg82
g711
sg75
(lp718
S'applications_parent'
p719
asbag68
(g89
g70
NtRp720
(dp721
g73
(dp722
g100
g101
ssg82
g711
sg75
(lp723
S':'
asbag68
(g89
g70
NtRp724
(dp725
g73
(dp726
sg82
g711
sg75
(lp727
g68
(g69
g70
NtRp728
(dp729
g73
(dp730
g81
I4
ssg82
g724
sg75
(lp731
S'/var/www/web2py_curso'
p732
asbasbasbag68
(g84
g70
NtRp733
(dp734
g73
(dp735
sg82
g685
sg75
(lp736
g68
(g89
g70
NtRp737
(dp738
g73
(dp739
g93
g94
ssg82
g733
sg75
(lp740
S'cmd_args'
p741
asbag68
(g89
g70
NtRp742
(dp743
g73
(dp744
g100
g101
ssg82
g733
sg75
(lp745
S':'
asbag68
(g89
g70
NtRp746
(dp747
g73
(dp748
sg82
g733
sg75
(lp749
g68
(g69
g70
NtRp750
(dp751
g73
(dp752
g81
I4
ssg82
g746
sg75
(lp753
g68
(g77
g70
NtRp754
(dp755
g73
(dp756
g81
I3
ssg82
Nsg75
(lp757
sbasbasbasbag68
(g84
g70
NtRp758
(dp759
g73
(dp760
sg82
g685
sg75
(lp761
g68
(g89
g70
NtRp762
(dp763
g73
(dp764
g93
g94
ssg82
g758
sg75
(lp765
S'cmd_options'
p766
asbag68
(g89
g70
NtRp767
(dp768
g73
(dp769
g100
g101
ssg82
g758
sg75
(lp770
S':'
asbag68
(g89
g70
NtRp771
(dp772
g73
(dp773
sg82
g758
sg75
(lp774
g68
(g69
g70
NtRp775
(dp776
g73
(dp777
g81
I4
ssg82
g771
sg75
(lp778
S"<Values at 0x2d53488: {'verbose': False, 'ip': '127.0.0.1', 'with_scheduler': False, 'ips': [], 'shutdown_timeout': 5, 'taskbar': False, 'port': 8000, 'maxthreads': None, 'softcron': False, 'server_name': 'fernado-desktop', 'bpython': False, 'nogui': False, 'pid_filename': 'httpserver.pid', 'extcron': False, 'runcron': False, 'run_system_tests': False, 'test': None, 'folder': '/var/www/web2py_curso', 'config': '', 'minthreads': None, 'winservice': '', 'shell': None, 'run': '', 'log_filename': 'httpserver.log', 'debuglevel': 30, 'args': [''], 'socket_timeout': 5, 'ssl_ca_certificate': None, 'scheduler': None, 'profiler_filename': None, 'ssl_private_key': '', 'scheduler_groups': None, 'password': '123456', 'request_queue_size': 5, 'ssl_certificate': '', 'cronjob': False, 'numthreads': None, 'quiet': False, 'interfaces': None, 'import_models': False, 'timeout': 10, 'plain': False, 'nobanner': False}>"
p779
asbasbasbag68
(g84
g70
NtRp780
(dp781
g73
(dp782
sg82
g685
sg75
(lp783
g68
(g89
g70
NtRp784
(dp785
g73
(dp786
g93
g94
ssg82
g780
sg75
(lp787
S'db_sessions'
p788
asbag68
(g89
g70
NtRp789
(dp790
g73
(dp791
g100
g101
ssg82
g780
sg75
(lp792
S':'
asbag68
(g89
g70
NtRp793
(dp794
g73
(dp795
sg82
g780
sg75
(lp796
g68
(g69
g70
NtRp797
(dp798
g73
(dp799
g81
I4
ssg82
g793
sg75
(lp800
S'set([])'
p801
asbasbasbag68
(g84
g70
NtRp802
(dp803
g73
(dp804
sg82
g685
sg75
(lp805
g68
(g89
g70
NtRp806
(dp807
g73
(dp808
g93
g94
ssg82
g802
sg75
(lp809
S'debugging'
p810
asbag68
(g89
g70
NtRp811
(dp812
g73
(dp813
g100
g101
ssg82
g802
sg75
(lp814
S':'
asbag68
(g89
g70
NtRp815
(dp816
g73
(dp817
sg82
g802
sg75
(lp818
g68
(g69
g70
NtRp819
(dp820
g73
(dp821
g81
I4
ssg82
g815
sg75
(lp822
g111
asbasbasbag68
(g84
g70
NtRp823
(dp824
g73
(dp825
sg82
g685
sg75
(lp826
g68
(g89
g70
NtRp827
(dp828
g73
(dp829
g93
g94
ssg82
g823
sg75
(lp830
S'gluon_parent'
p831
asbag68
(g89
g70
NtRp832
(dp833
g73
(dp834
g100
g101
ssg82
g823
sg75
(lp835
S':'
asbag68
(g89
g70
NtRp836
(dp837
g73
(dp838
sg82
g823
sg75
(lp839
g68
(g69
g70
NtRp840
(dp841
g73
(dp842
g81
I4
ssg82
g836
sg75
(lp843
S'/var/www/web2py_curso'
p844
asbasbasbag68
(g84
g70
NtRp845
(dp846
g73
(dp847
sg82
g685
sg75
(lp848
g68
(g89
g70
NtRp849
(dp850
g73
(dp851
g93
g94
ssg82
g845
sg75
(lp852
S'http_accept'
p853
asbag68
(g89
g70
NtRp854
(dp855
g73
(dp856
g100
g101
ssg82
g845
sg75
(lp857
S':'
asbag68
(g89
g70
NtRp858
(dp859
g73
(dp860
sg82
g845
sg75
(lp861
g68
(g69
g70
NtRp862
(dp863
g73
(dp864
g81
I4
ssg82
g858
sg75
(lp865
S'text/html,application/xhtml+xml,application/xml;q=0.9,*/*;q=0.8'
p866
asbasbasbag68
(g84
g70
NtRp867
(dp868
g73
(dp869
sg82
g685
sg75
(lp870
g68
(g89
g70
NtRp871
(dp872
g73
(dp873
g93
g94
ssg82
g867
sg75
(lp874
S'http_accept_charset'
p875
asbag68
(g89
g70
NtRp876
(dp877
g73
(dp878
g100
g101
ssg82
g867
sg75
(lp879
S':'
asbag68
(g89
g70
NtRp880
(dp881
g73
(dp882
sg82
g867
sg75
(lp883
g68
(g69
g70
NtRp884
(dp885
g73
(dp886
g81
I4
ssg82
g880
sg75
(lp887
S'ISO-8859-1,utf-8;q=0.7,*;q=0.3'
p888
asbasbasbag68
(g84
g70
NtRp889
(dp890
g73
(dp891
sg82
g685
sg75
(lp892
g68
(g89
g70
NtRp893
(dp894
g73
(dp895
g93
g94
ssg82
g889
sg75
(lp896
S'http_accept_encoding'
p897
asbag68
(g89
g70
NtRp898
(dp899
g73
(dp900
g100
g101
ssg82
g889
sg75
(lp901
S':'
asbag68
(g89
g70
NtRp902
(dp903
g73
(dp904
sg82
g889
sg75
(lp905
g68
(g69
g70
NtRp906
(dp907
g73
(dp908
g81
I4
ssg82
g902
sg75
(lp909
S'gzip,deflate,sdch'
p910
asbasbasbag68
(g84
g70
NtRp911
(dp912
g73
(dp913
sg82
g685
sg75
(lp914
g68
(g89
g70
NtRp915
(dp916
g73
(dp917
g93
g94
ssg82
g911
sg75
(lp918
S'http_accept_language'
p919
asbag68
(g89
g70
NtRp920
(dp921
g73
(dp922
g100
g101
ssg82
g911
sg75
(lp923
S':'
asbag68
(g89
g70
NtRp924
(dp925
g73
(dp926
sg82
g911
sg75
(lp927
g68
(g69
g70
NtRp928
(dp929
g73
(dp930
g81
I4
ssg82
g924
sg75
(lp931
S'pt-BR,pt;q=0.8,en-US;q=0.6,en;q=0.4'
p932
asbasbasbag68
(g84
g70
NtRp933
(dp934
g73
(dp935
sg82
g685
sg75
(lp936
g68
(g89
g70
NtRp937
(dp938
g73
(dp939
g93
g94
ssg82
g933
sg75
(lp940
S'http_cache_control'
p941
asbag68
(g89
g70
NtRp942
(dp943
g73
(dp944
g100
g101
ssg82
g933
sg75
(lp945
S':'
asbag68
(g89
g70
NtRp946
(dp947
g73
(dp948
sg82
g933
sg75
(lp949
g68
(g69
g70
NtRp950
(dp951
g73
(dp952
g81
I4
ssg82
g946
sg75
(lp953
S'max-age=0'
p954
asbasbasbag68
(g84
g70
NtRp955
(dp956
g73
(dp957
sg82
g685
sg75
(lp958
g68
(g89
g70
NtRp959
(dp960
g73
(dp961
g93
g94
ssg82
g955
sg75
(lp962
S'http_connection'
p963
asbag68
(g89
g70
NtRp964
(dp965
g73
(dp966
g100
g101
ssg82
g955
sg75
(lp967
S':'
asbag68
(g89
g70
NtRp968
(dp969
g73
(dp970
sg82
g955
sg75
(lp971
g68
(g69
g70
NtRp972
(dp973
g73
(dp974
g81
I4
ssg82
g968
sg75
(lp975
S'keep-alive'
p976
asbasbasbag68
(g84
g70
NtRp977
(dp978
g73
(dp979
sg82
g685
sg75
(lp980
g68
(g89
g70
NtRp981
(dp982
g73
(dp983
g93
g94
ssg82
g977
sg75
(lp984
S'http_cookie'
p985
asbag68
(g89
g70
NtRp986
(dp987
g73
(dp988
g100
g101
ssg82
g977
sg75
(lp989
S':'
asbag68
(g89
g70
NtRp990
(dp991
g73
(dp992
sg82
g977
sg75
(lp993
g68
(g69
g70
NtRp994
(dp995
g73
(dp996
g81
I4
ssg82
g990
sg75
(lp997
S'session_id_admin=127.0.0.1-f3e4b0cb-9e15-4e27-aeb8-da76724c4de5; session_id_projeto=127.0.0.1-e368b264-444a-4dee-8b41-31155ff54a04'
p998
asbasbasbag68
(g84
g70
NtRp999
(dp1000
g73
(dp1001
sg82
g685
sg75
(lp1002
g68
(g89
g70
NtRp1003
(dp1004
g73
(dp1005
g93
g94
ssg82
g999
sg75
(lp1006
S'http_host'
p1007
asbag68
(g89
g70
NtRp1008
(dp1009
g73
(dp1010
g100
g101
ssg82
g999
sg75
(lp1011
S':'
asbag68
(g89
g70
NtRp1012
(dp1013
g73
(dp1014
sg82
g999
sg75
(lp1015
g68
(g69
g70
NtRp1016
(dp1017
g73
(dp1018
g81
I4
ssg82
g1012
sg75
(lp1019
S'127.0.0.1:8000'
p1020
asbasbasbag68
(g84
g70
NtRp1021
(dp1022
g73
(dp1023
sg82
g685
sg75
(lp1024
g68
(g89
g70
NtRp1025
(dp1026
g73
(dp1027
g93
g94
ssg82
g1021
sg75
(lp1028
S'http_user_agent'
p1029
asbag68
(g89
g70
NtRp1030
(dp1031
g73
(dp1032
g100
g101
ssg82
g1021
sg75
(lp1033
S':'
asbag68
(g89
g70
NtRp1034
(dp1035
g73
(dp1036
sg82
g1021
sg75
(lp1037
g68
(g69
g70
NtRp1038
(dp1039
g73
(dp1040
g81
I4
ssg82
g1034
sg75
(lp1041
S'Mozilla/5.0 (X11; Linux x86_64) AppleWebKit/537.4 (KHTML, like Gecko) Ubuntu/12.10 Chromium/22.0.1229.94 Chrome/22.0.1229.94 Safari/537.4'
p1042
asbasbasbag68
(g84
g70
NtRp1043
(dp1044
g73
(dp1045
sg82
g685
sg75
(lp1046
g68
(g89
g70
NtRp1047
(dp1048
g73
(dp1049
g93
g94
ssg82
g1043
sg75
(lp1050
S'is_jython'
p1051
asbag68
(g89
g70
NtRp1052
(dp1053
g73
(dp1054
g100
g101
ssg82
g1043
sg75
(lp1055
S':'
asbag68
(g89
g70
NtRp1056
(dp1057
g73
(dp1058
sg82
g1043
sg75
(lp1059
g68
(g69
g70
NtRp1060
(dp1061
g73
(dp1062
g81
I4
ssg82
g1056
sg75
(lp1063
g111
asbasbasbag68
(g84
g70
NtRp1064
(dp1065
g73
(dp1066
sg82
g685
sg75
(lp1067
g68
(g89
g70
NtRp1068
(dp1069
g73
(dp1070
g93
g94
ssg82
g1064
sg75
(lp1071
S'is_pypy'
p1072
asbag68
(g89
g70
NtRp1073
(dp1074
g73
(dp1075
g100
g101
ssg82
g1064
sg75
(lp1076
S':'
asbag68
(g89
g70
NtRp1077
(dp1078
g73
(dp1079
sg82
g1064
sg75
(lp1080
g68
(g69
g70
NtRp1081
(dp1082
g73
(dp1083
g81
I4
ssg82
g1077
sg75
(lp1084
g111
asbasbasbag68
(g84
g70
NtRp1085
(dp1086
g73
(dp1087
sg82
g685
sg75
(lp1088
g68
(g89
g70
NtRp1089
(dp1090
g73
(dp1091
g93
g94
ssg82
g1085
sg75
(lp1092
S'local_hosts'
p1093
asbag68
(g89
g70
NtRp1094
(dp1095
g73
(dp1096
g100
g101
ssg82
g1085
sg75
(lp1097
S':'
asbag68
(g89
g70
NtRp1098
(dp1099
g73
(dp1100
sg82
g1085
sg75
(lp1101
g68
(g69
g70
NtRp1102
(dp1103
g73
(dp1104
g81
I4
ssg82
g1098
sg75
(lp1105
g68
(g77
g70
NtRp1106
(dp1107
g73
(dp1108
g81
I3
ssg82
Nsg75
(lp1109
g68
(g84
g70
NtRp1110
(dp1111
g73
(dp1112
sg82
g1106
sg75
(lp1113
g68
(g89
g70
NtRp1114
(dp1115
g73
(dp1116
sg82
g1110
sg75
(lp1117
g68
(g69
g70
NtRp1118
(dp1119
g73
(dp1120
g81
I3
ssg82
g1114
sg75
(lp1121
S'127.0.1.1'
p1122
asbasbasbag68
(g84
g70
NtRp1123
(dp1124
g73
(dp1125
sg82
g1106
sg75
(lp1126
g68
(g89
g70
NtRp1127
(dp1128
g73
(dp1129
sg82
g1123
sg75
(lp1130
g68
(g69
g70
NtRp1131
(dp1132
g73
(dp1133
g81
I3
ssg82
g1127
sg75
(lp1134
S'::1'
p1135
asbasbasbag68
(g84
g70
NtRp1136
(dp1137
g73
(dp1138
sg82
g1106
sg75
(lp1139
g68
(g89
g70
NtRp1140
(dp1141
g73
(dp1142
sg82
g1136
sg75
(lp1143
g68
(g69
g70
NtRp1144
(dp1145
g73
(dp1146
g81
I3
ssg82
g1140
sg75
(lp1147
S'fernado-desktop'
p1148
asbasbasbag68
(g84
g70
NtRp1149
(dp1150
g73
(dp1151
sg82
g1106
sg75
(lp1152
g68
(g89
g70
NtRp1153
(dp1154
g73
(dp1155
sg82
g1149
sg75
(lp1156
g68
(g69
g70
NtRp1157
(dp1158
g73
(dp1159
g81
I3
ssg82
g1153
sg75
(lp1160
S'::ffff:127.0.0.1'
p1161
asbasbasbag68
(g84
g70
NtRp1162
(dp1163
g73
(dp1164
sg82
g1106
sg75
(lp1165
g68
(g89
g70
NtRp1166
(dp1167
g73
(dp1168
sg82
g1162
sg75
(lp1169
g68
(g69
g70
NtRp1170
(dp1171
g73
(dp1172
g81
I3
ssg82
g1166
sg75
(lp1173
S'127.0.0.1'
p1174
asbasbasbasbasbasbasbag68
(g84
g70
NtRp1175
(dp1176
g73
(dp1177
sg82
g685
sg75
(lp1178
g68
(g89
g70
NtRp1179
(dp1180
g73
(dp1181
g93
g94
ssg82
g1175
sg75
(lp1182
S'path_info'
p1183
asbag68
(g89
g70
NtRp1184
(dp1185
g73
(dp1186
g100
g101
ssg82
g1175
sg75
(lp1187
S':'
asbag68
(g89
g70
NtRp1188
(dp1189
g73
(dp1190
sg82
g1175
sg75
(lp1191
g68
(g69
g70
NtRp1192
(dp1193
g73
(dp1194
g81
I4
ssg82
g1188
sg75
(lp1195
S'/user/profile'
p1196
asbasbasbag68
(g84
g70
NtRp1197
(dp1198
g73
(dp1199
sg82
g685
sg75
(lp1200
g68
(g89
g70
NtRp1201
(dp1202
g73
(dp1203
g93
g94
ssg82
g1197
sg75
(lp1204
S'query_string'
p1205
asbag68
(g89
g70
NtRp1206
(dp1207
g73
(dp1208
g100
g101
ssg82
g1197
sg75
(lp1209
S':'
asbag68
(g89
g70
NtRp1210
(dp1211
g73
(dp1212
sg82
g1197
sg75
(lp1213
g68
(g69
g70
NtRp1214
(dp1215
g73
(dp1216
g81
I4
ssg82
g1210
sg75
(lp1217
S''
asbasbasbag68
(g84
g70
NtRp1218
(dp1219
g73
(dp1220
sg82
g685
sg75
(lp1221
g68
(g89
g70
NtRp1222
(dp1223
g73
(dp1224
g93
g94
ssg82
g1218
sg75
(lp1225
S'remote_addr'
p1226
asbag68
(g89
g70
NtRp1227
(dp1228
g73
(dp1229
g100
g101
ssg82
g1218
sg75
(lp1230
S':'
asbag68
(g89
g70
NtRp1231
(dp1232
g73
(dp1233
sg82
g1218
sg75
(lp1234
g68
(g69
g70
NtRp1235
(dp1236
g73
(dp1237
g81
I4
ssg82
g1231
sg75
(lp1238
g236
asbasbasbag68
(g84
g70
NtRp1239
(dp1240
g73
(dp1241
sg82
g685
sg75
(lp1242
g68
(g89
g70
NtRp1243
(dp1244
g73
(dp1245
g93
g94
ssg82
g1239
sg75
(lp1246
S'remote_port'
p1247
asbag68
(g89
g70
NtRp1248
(dp1249
g73
(dp1250
g100
g101
ssg82
g1239
sg75
(lp1251
S':'
asbag68
(g89
g70
NtRp1252
(dp1253
g73
(dp1254
sg82
g1239
sg75
(lp1255
g68
(g69
g70
NtRp1256
(dp1257
g73
(dp1258
g81
I4
ssg82
g1252
sg75
(lp1259
S'57989'
p1260
asbasbasbag68
(g84
g70
NtRp1261
(dp1262
g73
(dp1263
sg82
g685
sg75
(lp1264
g68
(g89
g70
NtRp1265
(dp1266
g73
(dp1267
g93
g94
ssg82
g1261
sg75
(lp1268
S'request_method'
p1269
asbag68
(g89
g70
NtRp1270
(dp1271
g73
(dp1272
g100
g101
ssg82
g1261
sg75
(lp1273
S':'
asbag68
(g89
g70
NtRp1274
(dp1275
g73
(dp1276
sg82
g1261
sg75
(lp1277
g68
(g69
g70
NtRp1278
(dp1279
g73
(dp1280
g81
I4
ssg82
g1274
sg75
(lp1281
S'GET'
p1282
asbasbasbag68
(g84
g70
NtRp1283
(dp1284
g73
(dp1285
sg82
g685
sg75
(lp1286
g68
(g89
g70
NtRp1287
(dp1288
g73
(dp1289
g93
g94
ssg82
g1283
sg75
(lp1290
S'request_uri'
p1291
asbag68
(g89
g70
NtRp1292
(dp1293
g73
(dp1294
g100
g101
ssg82
g1283
sg75
(lp1295
S':'
asbag68
(g89
g70
NtRp1296
(dp1297
g73
(dp1298
sg82
g1283
sg75
(lp1299
g68
(g69
g70
NtRp1300
(dp1301
g73
(dp1302
g81
I4
ssg82
g1296
sg75
(lp1303
S'/projeto/initial/user/profile'
p1304
asbasbasbag68
(g84
g70
NtRp1305
(dp1306
g73
(dp1307
sg82
g685
sg75
(lp1308
g68
(g89
g70
NtRp1309
(dp1310
g73
(dp1311
g93
g94
ssg82
g1305
sg75
(lp1312
S'script_name'
p1313
asbag68
(g89
g70
NtRp1314
(dp1315
g73
(dp1316
g100
g101
ssg82
g1305
sg75
(lp1317
S':'
asbag68
(g89
g70
NtRp1318
(dp1319
g73
(dp1320
sg82
g1305
sg75
(lp1321
g68
(g69
g70
NtRp1322
(dp1323
g73
(dp1324
g81
I4
ssg82
g1318
sg75
(lp1325
S''
asbasbasbag68
(g84
g70
NtRp1326
(dp1327
g73
(dp1328
sg82
g685
sg75
(lp1329
g68
(g89
g70
NtRp1330
(dp1331
g73
(dp1332
g93
g94
ssg82
g1326
sg75
(lp1333
S'server_name'
p1334
asbag68
(g89
g70
NtRp1335
(dp1336
g73
(dp1337
g100
g101
ssg82
g1326
sg75
(lp1338
S':'
asbag68
(g89
g70
NtRp1339
(dp1340
g73
(dp1341
sg82
g1326
sg75
(lp1342
g68
(g69
g70
NtRp1343
(dp1344
g73
(dp1345
g81
I4
ssg82
g1339
sg75
(lp1346
S'fernado-desktop'
p1347
asbasbasbag68
(g84
g70
NtRp1348
(dp1349
g73
(dp1350
sg82
g685
sg75
(lp1351
g68
(g89
g70
NtRp1352
(dp1353
g73
(dp1354
g93
g94
ssg82
g1348
sg75
(lp1355
S'server_port'
p1356
asbag68
(g89
g70
NtRp1357
(dp1358
g73
(dp1359
g100
g101
ssg82
g1348
sg75
(lp1360
S':'
asbag68
(g89
g70
NtRp1361
(dp1362
g73
(dp1363
sg82
g1348
sg75
(lp1364
g68
(g69
g70
NtRp1365
(dp1366
g73
(dp1367
g81
I4
ssg82
g1361
sg75
(lp1368
S'8000'
p1369
asbasbasbag68
(g84
g70
NtRp1370
(dp1371
g73
(dp1372
sg82
g685
sg75
(lp1373
g68
(g89
g70
NtRp1374
(dp1375
g73
(dp1376
g93
g94
ssg82
g1370
sg75
(lp1377
S'server_protocol'
p1378
asbag68
(g89
g70
NtRp1379
(dp1380
g73
(dp1381
g100
g101
ssg82
g1370
sg75
(lp1382
S':'
asbag68
(g89
g70
NtRp1383
(dp1384
g73
(dp1385
sg82
g1370
sg75
(lp1386
g68
(g69
g70
NtRp1387
(dp1388
g73
(dp1389
g81
I4
ssg82
g1383
sg75
(lp1390
S'HTTP/1.1'
p1391
asbasbasbag68
(g84
g70
NtRp1392
(dp1393
g73
(dp1394
sg82
g685
sg75
(lp1395
g68
(g89
g70
NtRp1396
(dp1397
g73
(dp1398
g93
g94
ssg82
g1392
sg75
(lp1399
S'server_software'
p1400
asbag68
(g89
g70
NtRp1401
(dp1402
g73
(dp1403
g100
g101
ssg82
g1392
sg75
(lp1404
S':'
asbag68
(g89
g70
NtRp1405
(dp1406
g73
(dp1407
sg82
g1392
sg75
(lp1408
g68
(g69
g70
NtRp1409
(dp1410
g73
(dp1411
g81
I4
ssg82
g1405
sg75
(lp1412
S'Rocket 1.2.6'
p1413
asbasbasbag68
(g84
g70
NtRp1414
(dp1415
g73
(dp1416
sg82
g685
sg75
(lp1417
g68
(g89
g70
NtRp1418
(dp1419
g73
(dp1420
g93
g94
ssg82
g1414
sg75
(lp1421
S'web2py_original_uri'
p1422
asbag68
(g89
g70
NtRp1423
(dp1424
g73
(dp1425
g100
g101
ssg82
g1414
sg75
(lp1426
S':'
asbag68
(g89
g70
NtRp1427
(dp1428
g73
(dp1429
sg82
g1414
sg75
(lp1430
g68
(g69
g70
NtRp1431
(dp1432
g73
(dp1433
g81
I4
ssg82
g1427
sg75
(lp1434
g1196
asbasbasbag68
(g84
g70
NtRp1435
(dp1436
g73
(dp1437
sg82
g685
sg75
(lp1438
g68
(g89
g70
NtRp1439
(dp1440
g73
(dp1441
g93
g94
ssg82
g1435
sg75
(lp1442
S'web2py_path'
p1443
asbag68
(g89
g70
NtRp1444
(dp1445
g73
(dp1446
g100
g101
ssg82
g1435
sg75
(lp1447
S':'
asbag68
(g89
g70
NtRp1448
(dp1449
g73
(dp1450
sg82
g1435
sg75
(lp1451
g68
(g69
g70
NtRp1452
(dp1453
g73
(dp1454
g81
I4
ssg82
g1448
sg75
(lp1455
g732
asbasbasbag68
(g84
g70
NtRp1456
(dp1457
g73
(dp1458
sg82
g685
sg75
(lp1459
g68
(g89
g70
NtRp1460
(dp1461
g73
(dp1462
g93
g94
ssg82
g1456
sg75
(lp1463
S'web2py_version'
p1464
asbag68
(g89
g70
NtRp1465
(dp1466
g73
(dp1467
g100
g101
ssg82
g1456
sg75
(lp1468
S':'
asbag68
(g89
g70
NtRp1469
(dp1470
g73
(dp1471
sg82
g1456
sg75
(lp1472
g68
(g69
g70
NtRp1473
(dp1474
g73
(dp1475
g81
I4
ssg82
g1469
sg75
(lp1476
g68
(g77
g70
NtRp1477
(dp1478
g73
(dp1479
g81
I3
ssg82
Nsg75
(lp1480
g68
(g84
g70
NtRp1481
(dp1482
g73
(dp1483
sg82
g1477
sg75
(lp1484
g68
(g89
g70
NtRp1485
(dp1486
g73
(dp1487
sg82
g1481
sg75
(lp1488
g68
(g69
g70
NtRp1489
(dp1490
g73
(dp1491
g81
I3
ssg82
g1485
sg75
(lp1492
S'2'
asbasbasbag68
(g84
g70
NtRp1493
(dp1494
g73
(dp1495
sg82
g1477
sg75
(lp1496
g68
(g89
g70
NtRp1497
(dp1498
g73
(dp1499
sg82
g1493
sg75
(lp1500
g68
(g69
g70
NtRp1501
(dp1502
g73
(dp1503
g81
I3
ssg82
g1497
sg75
(lp1504
S'3'
asbasbasbag68
(g84
g70
NtRp1505
(dp1506
g73
(dp1507
sg82
g1477
sg75
(lp1508
g68
(g89
g70
NtRp1509
(dp1510
g73
(dp1511
sg82
g1505
sg75
(lp1512
g68
(g69
g70
NtRp1513
(dp1514
g73
(dp1515
g81
I3
ssg82
g1509
sg75
(lp1516
S'2'
asbasbasbag68
(g84
g70
NtRp1517
(dp1518
g73
(dp1519
sg82
g1477
sg75
(lp1520
g68
(g89
g70
NtRp1521
(dp1522
g73
(dp1523
sg82
g1517
sg75
(lp1524
g68
(g69
g70
NtRp1525
(dp1526
g73
(dp1527
g81
I3
ssg82
g1521
sg75
(lp1528
S'datetime.datetime(2012, 12, 17, 15, 3, 30)'
p1529
asbasbasbag68
(g84
g70
NtRp1530
(dp1531
g73
(dp1532
sg82
g1477
sg75
(lp1533
g68
(g89
g70
NtRp1534
(dp1535
g73
(dp1536
sg82
g1530
sg75
(lp1537
g68
(g69
g70
NtRp1538
(dp1539
g73
(dp1540
g81
I3
ssg82
g1534
sg75
(lp1541
S'stable'
p1542
asbasbasbasbasbasbasbag68
(g84
g70
NtRp1543
(dp1544
g73
(dp1545
sg82
g685
sg75
(lp1546
g68
(g89
g70
NtRp1547
(dp1548
g73
(dp1549
g93
g94
ssg82
g1543
sg75
(lp1550
S'wsgi_errors'
p1551
asbag68
(g89
g70
NtRp1552
(dp1553
g73
(dp1554
g100
g101
ssg82
g1543
sg75
(lp1555
S':'
asbag68
(g89
g70
NtRp1556
(dp1557
g73
(dp1558
sg82
g1543
sg75
(lp1559
g68
(g69
g70
NtRp1560
(dp1561
g73
(dp1562
g81
I4
ssg82
g1556
sg75
(lp1563
S"<open file '<stderr>', mode 'w' at 0x7f9843337270>"
p1564
asbasbasbag68
(g84
g70
NtRp1565
(dp1566
g73
(dp1567
sg82
g685
sg75
(lp1568
g68
(g89
g70
NtRp1569
(dp1570
g73
(dp1571
g93
g94
ssg82
g1565
sg75
(lp1572
S'wsgi_file_wrapper'
p1573
asbag68
(g89
g70
NtRp1574
(dp1575
g73
(dp1576
g100
g101
ssg82
g1565
sg75
(lp1577
S':'
asbag68
(g89
g70
NtRp1578
(dp1579
g73
(dp1580
sg82
g1565
sg75
(lp1581
g68
(g69
g70
NtRp1582
(dp1583
g73
(dp1584
g81
I4
ssg82
g1578
sg75
(lp1585
S'<class wsgiref.util.FileWrapper at 0x2ca8a10>'
p1586
asbasbasbag68
(g84
g70
NtRp1587
(dp1588
g73
(dp1589
sg82
g685
sg75
(lp1590
g68
(g89
g70
NtRp1591
(dp1592
g73
(dp1593
g93
g94
ssg82
g1587
sg75
(lp1594
S'wsgi_input'
p1595
asbag68
(g89
g70
NtRp1596
(dp1597
g73
(dp1598
g100
g101
ssg82
g1587
sg75
(lp1599
S':'
asbag68
(g89
g70
NtRp1600
(dp1601
g73
(dp1602
sg82
g1587
sg75
(lp1603
g68
(g69
g70
NtRp1604
(dp1605
g73
(dp1606
g81
I4
ssg82
g1600
sg75
(lp1607
S'<socket._fileobject object at 0x7f98380f2950>'
p1608
asbasbasbag68
(g84
g70
NtRp1609
(dp1610
g73
(dp1611
sg82
g685
sg75
(lp1612
g68
(g89
g70
NtRp1613
(dp1614
g73
(dp1615
g93
g94
ssg82
g1609
sg75
(lp1616
S'wsgi_multiprocess'
p1617
asbag68
(g89
g70
NtRp1618
(dp1619
g73
(dp1620
g100
g101
ssg82
g1609
sg75
(lp1621
S':'
asbag68
(g89
g70
NtRp1622
(dp1623
g73
(dp1624
sg82
g1609
sg75
(lp1625
g68
(g69
g70
NtRp1626
(dp1627
g73
(dp1628
g81
I4
ssg82
g1622
sg75
(lp1629
g111
asbasbasbag68
(g84
g70
NtRp1630
(dp1631
g73
(dp1632
sg82
g685
sg75
(lp1633
g68
(g89
g70
NtRp1634
(dp1635
g73
(dp1636
g93
g94
ssg82
g1630
sg75
(lp1637
S'wsgi_multithread'
p1638
asbag68
(g89
g70
NtRp1639
(dp1640
g73
(dp1641
g100
g101
ssg82
g1630
sg75
(lp1642
S':'
asbag68
(g89
g70
NtRp1643
(dp1644
g73
(dp1645
sg82
g1630
sg75
(lp1646
g68
(g69
g70
NtRp1647
(dp1648
g73
(dp1649
g81
I4
ssg82
g1643
sg75
(lp1650
S'True'
p1651
asbasbasbag68
(g84
g70
NtRp1652
(dp1653
g73
(dp1654
sg82
g685
sg75
(lp1655
g68
(g89
g70
NtRp1656
(dp1657
g73
(dp1658
g93
g94
ssg82
g1652
sg75
(lp1659
S'wsgi_run_once'
p1660
asbag68
(g89
g70
NtRp1661
(dp1662
g73
(dp1663
g100
g101
ssg82
g1652
sg75
(lp1664
S':'
asbag68
(g89
g70
NtRp1665
(dp1666
g73
(dp1667
sg82
g1652
sg75
(lp1668
g68
(g69
g70
NtRp1669
(dp1670
g73
(dp1671
g81
I4
ssg82
g1665
sg75
(lp1672
g111
asbasbasbag68
(g84
g70
NtRp1673
(dp1674
g73
(dp1675
sg82
g685
sg75
(lp1676
g68
(g89
g70
NtRp1677
(dp1678
g73
(dp1679
g93
g94
ssg82
g1673
sg75
(lp1680
S'wsgi_url_scheme'
p1681
asbag68
(g89
g70
NtRp1682
(dp1683
g73
(dp1684
g100
g101
ssg82
g1673
sg75
(lp1685
S':'
asbag68
(g89
g70
NtRp1686
(dp1687
g73
(dp1688
sg82
g1673
sg75
(lp1689
g68
(g69
g70
NtRp1690
(dp1691
g73
(dp1692
g81
I4
ssg82
g1686
sg75
(lp1693
S'http'
p1694
asbasbasbag68
(g84
g70
NtRp1695
(dp1696
g73
(dp1697
sg82
g685
sg75
(lp1698
g68
(g89
g70
NtRp1699
(dp1700
g73
(dp1701
g93
g94
ssg82
g1695
sg75
(lp1702
S'wsgi_version'
p1703
asbag68
(g89
g70
NtRp1704
(dp1705
g73
(dp1706
g100
g101
ssg82
g1695
sg75
(lp1707
S':'
asbag68
(g89
g70
NtRp1708
(dp1709
g73
(dp1710
sg82
g1695
sg75
(lp1711
g68
(g69
g70
NtRp1712
(dp1713
g73
(dp1714
g81
I4
ssg82
g1708
sg75
(lp1715
g68
(g77
g70
NtRp1716
(dp1717
g73
(dp1718
g81
I3
ssg82
Nsg75
(lp1719
g68
(g84
g70
NtRp1720
(dp1721
g73
(dp1722
sg82
g1716
sg75
(lp1723
g68
(g89
g70
NtRp1724
(dp1725
g73
(dp1726
sg82
g1720
sg75
(lp1727
g68
(g69
g70
NtRp1728
(dp1729
g73
(dp1730
g81
I3
ssg82
g1724
sg75
(lp1731
S'1'
asbasbasbag68
(g84
g70
NtRp1732
(dp1733
g73
(dp1734
sg82
g1716
sg75
(lp1735
g68
(g89
g70
NtRp1736
(dp1737
g73
(dp1738
sg82
g1732
sg75
(lp1739
g68
(g69
g70
NtRp1740
(dp1741
g73
(dp1742
g81
I3
ssg82
g1736
sg75
(lp1743
S'0'
asbasbasbasbasbasbasbasbasbasbasbag68
(g84
g70
NtRp1744
(dp1745
g73
(dp1746
sg82
g78
sg75
(lp1747
g68
(g89
g70
NtRp1748
(dp1749
g73
(dp1750
g93
g94
ssg82
g1744
sg75
(lp1751
S'extension'
p1752
asbag68
(g89
g70
NtRp1753
(dp1754
g73
(dp1755
g100
g101
ssg82
g1744
sg75
(lp1756
S':'
asbag68
(g89
g70
NtRp1757
(dp1758
g73
(dp1759
sg82
g1744
sg75
(lp1760
g68
(g69
g70
NtRp1761
(dp1762
g73
(dp1763
g81
I5
ssg82
g1757
sg75
(lp1764
S'html'
p1765
asbasbasbag68
(g84
g70
NtRp1766
(dp1767
g73
(dp1768
sg82
g78
sg75
(lp1769
g68
(g89
g70
NtRp1770
(dp1771
g73
(dp1772
g93
g94
ssg82
g1766
sg75
(lp1773
S'folder'
p1774
asbag68
(g89
g70
NtRp1775
(dp1776
g73
(dp1777
g100
g101
ssg82
g1766
sg75
(lp1778
S':'
asbag68
(g89
g70
NtRp1779
(dp1780
g73
(dp1781
sg82
g1766
sg75
(lp1782
g68
(g69
g70
NtRp1783
(dp1784
g73
(dp1785
g81
I5
ssg82
g1779
sg75
(lp1786
S'/var/www/web2py_curso/applications/projeto/'
p1787
asbasbasbag68
(g84
g70
NtRp1788
(dp1789
g73
(dp1790
sg82
g78
sg75
(lp1791
g68
(g89
g70
NtRp1792
(dp1793
g73
(dp1794
g93
g94
ssg82
g1788
sg75
(lp1795
S'function'
p1796
asbag68
(g89
g70
NtRp1797
(dp1798
g73
(dp1799
g100
g101
ssg82
g1788
sg75
(lp1800
S':'
asbag68
(g89
g70
NtRp1801
(dp1802
g73
(dp1803
sg82
g1788
sg75
(lp1804
g68
(g69
g70
NtRp1805
(dp1806
g73
(dp1807
g81
I5
ssg82
g1801
sg75
(lp1808
S'user'
p1809
asbasbasbag68
(g84
g70
NtRp1810
(dp1811
g73
(dp1812
sg82
g78
sg75
(lp1813
g68
(g89
g70
NtRp1814
(dp1815
g73
(dp1816
g93
g94
ssg82
g1810
sg75
(lp1817
S'get_vars'
p1818
asbag68
(g89
g70
NtRp1819
(dp1820
g73
(dp1821
g100
g101
ssg82
g1810
sg75
(lp1822
S':'
asbag68
(g89
g70
NtRp1823
(dp1824
g73
(dp1825
sg82
g1810
sg75
(lp1826
g68
(g69
g70
NtRp1827
(dp1828
g73
(dp1829
g81
I5
ssg82
g1823
sg75
(lp1830
g68
(g77
g70
NtRp1831
(dp1832
g73
(dp1833
g81
I4
ssg82
Nsg75
(lp1834
sbasbasbasbag68
(g84
g70
NtRp1835
(dp1836
g73
(dp1837
sg82
g78
sg75
(lp1838
g68
(g89
g70
NtRp1839
(dp1840
g73
(dp1841
g93
g94
ssg82
g1835
sg75
(lp1842
S'global_settings'
p1843
asbag68
(g89
g70
NtRp1844
(dp1845
g73
(dp1846
g100
g101
ssg82
g1835
sg75
(lp1847
S':'
asbag68
(g89
g70
NtRp1848
(dp1849
g73
(dp1850
sg82
g1835
sg75
(lp1851
g68
(g69
g70
NtRp1852
(dp1853
g73
(dp1854
g81
I5
ssg82
g1848
sg75
(lp1855
g68
(g77
g70
NtRp1856
(dp1857
g73
(dp1858
g81
I4
ssg82
Nsg75
(lp1859
g68
(g84
g70
NtRp1860
(dp1861
g73
(dp1862
sg82
g1856
sg75
(lp1863
g68
(g89
g70
NtRp1864
(dp1865
g73
(dp1866
g93
g94
ssg82
g1860
sg75
(lp1867
g697
asbag68
(g89
g70
NtRp1868
(dp1869
g73
(dp1870
g100
g101
ssg82
g1860
sg75
(lp1871
S':'
asbag68
(g89
g70
NtRp1872
(dp1873
g73
(dp1874
sg82
g1860
sg75
(lp1875
g68
(g69
g70
NtRp1876
(dp1877
g73
(dp1878
g81
I4
ssg82
g1872
sg75
(lp1879
S"set(['/var/www/web2py_curso/applications/projeto/'])"
p1880
asbasbasbag68
(g84
g70
NtRp1881
(dp1882
g73
(dp1883
sg82
g1856
sg75
(lp1884
g68
(g89
g70
NtRp1885
(dp1886
g73
(dp1887
g93
g94
ssg82
g1881
sg75
(lp1888
g719
asbag68
(g89
g70
NtRp1889
(dp1890
g73
(dp1891
g100
g101
ssg82
g1881
sg75
(lp1892
S':'
asbag68
(g89
g70
NtRp1893
(dp1894
g73
(dp1895
sg82
g1881
sg75
(lp1896
g68
(g69
g70
NtRp1897
(dp1898
g73
(dp1899
g81
I4
ssg82
g1893
sg75
(lp1900
g732
asbasbasbag68
(g84
g70
NtRp1901
(dp1902
g73
(dp1903
sg82
g1856
sg75
(lp1904
g68
(g89
g70
NtRp1905
(dp1906
g73
(dp1907
g93
g94
ssg82
g1901
sg75
(lp1908
g741
asbag68
(g89
g70
NtRp1909
(dp1910
g73
(dp1911
g100
g101
ssg82
g1901
sg75
(lp1912
S':'
asbag68
(g89
g70
NtRp1913
(dp1914
g73
(dp1915
sg82
g1901
sg75
(lp1916
g68
(g69
g70
NtRp1917
(dp1918
g73
(dp1919
g81
I4
ssg82
g1913
sg75
(lp1920
g68
(g77
g70
NtRp1921
(dp1922
g73
(dp1923
g81
I3
ssg82
Nsg75
(lp1924
sbasbasbasbag68
(g84
g70
NtRp1925
(dp1926
g73
(dp1927
sg82
g1856
sg75
(lp1928
g68
(g89
g70
NtRp1929
(dp1930
g73
(dp1931
g93
g94
ssg82
g1925
sg75
(lp1932
g766
asbag68
(g89
g70
NtRp1933
(dp1934
g73
(dp1935
g100
g101
ssg82
g1925
sg75
(lp1936
S':'
asbag68
(g89
g70
NtRp1937
(dp1938
g73
(dp1939
sg82
g1925
sg75
(lp1940
g68
(g69
g70
NtRp1941
(dp1942
g73
(dp1943
g81
I4
ssg82
g1937
sg75
(lp1944
S"<Values at 0x2d53488: {'verbose': False, 'ip': '127.0.0.1', 'with_scheduler': False, 'ips': [], 'shutdown_timeout': 5, 'taskbar': False, 'port': 8000, 'maxthreads': None, 'softcron': False, 'server_name': 'fernado-desktop', 'bpython': False, 'nogui': False, 'pid_filename': 'httpserver.pid', 'extcron': False, 'runcron': False, 'run_system_tests': False, 'test': None, 'folder': '/var/www/web2py_curso', 'config': '', 'minthreads': None, 'winservice': '', 'shell': None, 'run': '', 'log_filename': 'httpserver.log', 'debuglevel': 30, 'args': [''], 'socket_timeout': 5, 'ssl_ca_certificate': None, 'scheduler': None, 'profiler_filename': None, 'ssl_private_key': '', 'scheduler_groups': None, 'password': '123456', 'request_queue_size': 5, 'ssl_certificate': '', 'cronjob': False, 'numthreads': None, 'quiet': False, 'interfaces': None, 'import_models': False, 'timeout': 10, 'plain': False, 'nobanner': False}>"
p1945
asbasbasbag68
(g84
g70
NtRp1946
(dp1947
g73
(dp1948
sg82
g1856
sg75
(lp1949
g68
(g89
g70
NtRp1950
(dp1951
g73
(dp1952
g93
g94
ssg82
g1946
sg75
(lp1953
g788
asbag68
(g89
g70
NtRp1954
(dp1955
g73
(dp1956
g100
g101
ssg82
g1946
sg75
(lp1957
S':'
asbag68
(g89
g70
NtRp1958
(dp1959
g73
(dp1960
sg82
g1946
sg75
(lp1961
g68
(g69
g70
NtRp1962
(dp1963
g73
(dp1964
g81
I4
ssg82
g1958
sg75
(lp1965
S'set([])'
p1966
asbasbasbag68
(g84
g70
NtRp1967
(dp1968
g73
(dp1969
sg82
g1856
sg75
(lp1970
g68
(g89
g70
NtRp1971
(dp1972
g73
(dp1973
g93
g94
ssg82
g1967
sg75
(lp1974
g810
asbag68
(g89
g70
NtRp1975
(dp1976
g73
(dp1977
g100
g101
ssg82
g1967
sg75
(lp1978
S':'
asbag68
(g89
g70
NtRp1979
(dp1980
g73
(dp1981
sg82
g1967
sg75
(lp1982
g68
(g69
g70
NtRp1983
(dp1984
g73
(dp1985
g81
I4
ssg82
g1979
sg75
(lp1986
g111
asbasbasbag68
(g84
g70
NtRp1987
(dp1988
g73
(dp1989
sg82
g1856
sg75
(lp1990
g68
(g89
g70
NtRp1991
(dp1992
g73
(dp1993
g93
g94
ssg82
g1987
sg75
(lp1994
g831
asbag68
(g89
g70
NtRp1995
(dp1996
g73
(dp1997
g100
g101
ssg82
g1987
sg75
(lp1998
S':'
asbag68
(g89
g70
NtRp1999
(dp2000
g73
(dp2001
sg82
g1987
sg75
(lp2002
g68
(g69
g70
NtRp2003
(dp2004
g73
(dp2005
g81
I4
ssg82
g1999
sg75
(lp2006
g844
asbasbasbag68
(g84
g70
NtRp2007
(dp2008
g73
(dp2009
sg82
g1856
sg75
(lp2010
g68
(g89
g70
NtRp2011
(dp2012
g73
(dp2013
g93
g94
ssg82
g2007
sg75
(lp2014
g1051
asbag68
(g89
g70
NtRp2015
(dp2016
g73
(dp2017
g100
g101
ssg82
g2007
sg75
(lp2018
S':'
asbag68
(g89
g70
NtRp2019
(dp2020
g73
(dp2021
sg82
g2007
sg75
(lp2022
g68
(g69
g70
NtRp2023
(dp2024
g73
(dp2025
g81
I4
ssg82
g2019
sg75
(lp2026
g111
asbasbasbag68
(g84
g70
NtRp2027
(dp2028
g73
(dp2029
sg82
g1856
sg75
(lp2030
g68
(g89
g70
NtRp2031
(dp2032
g73
(dp2033
g93
g94
ssg82
g2027
sg75
(lp2034
g1072
asbag68
(g89
g70
NtRp2035
(dp2036
g73
(dp2037
g100
g101
ssg82
g2027
sg75
(lp2038
S':'
asbag68
(g89
g70
NtRp2039
(dp2040
g73
(dp2041
sg82
g2027
sg75
(lp2042
g68
(g69
g70
NtRp2043
(dp2044
g73
(dp2045
g81
I4
ssg82
g2039
sg75
(lp2046
g111
asbasbasbag68
(g84
g70
NtRp2047
(dp2048
g73
(dp2049
sg82
g1856
sg75
(lp2050
g68
(g89
g70
NtRp2051
(dp2052
g73
(dp2053
g93
g94
ssg82
g2047
sg75
(lp2054
g1093
asbag68
(g89
g70
NtRp2055
(dp2056
g73
(dp2057
g100
g101
ssg82
g2047
sg75
(lp2058
S':'
asbag68
(g89
g70
NtRp2059
(dp2060
g73
(dp2061
sg82
g2047
sg75
(lp2062
g68
(g69
g70
NtRp2063
(dp2064
g73
(dp2065
g81
I4
ssg82
g2059
sg75
(lp2066
g68
(g77
g70
NtRp2067
(dp2068
g73
(dp2069
g81
I3
ssg82
Nsg75
(lp2070
g68
(g84
g70
NtRp2071
(dp2072
g73
(dp2073
sg82
g2067
sg75
(lp2074
g68
(g89
g70
NtRp2075
(dp2076
g73
(dp2077
sg82
g2071
sg75
(lp2078
g68
(g69
g70
NtRp2079
(dp2080
g73
(dp2081
g81
I3
ssg82
g2075
sg75
(lp2082
g1122
asbasbasbag68
(g84
g70
NtRp2083
(dp2084
g73
(dp2085
sg82
g2067
sg75
(lp2086
g68
(g89
g70
NtRp2087
(dp2088
g73
(dp2089
sg82
g2083
sg75
(lp2090
g68
(g69
g70
NtRp2091
(dp2092
g73
(dp2093
g81
I3
ssg82
g2087
sg75
(lp2094
g1135
asbasbasbag68
(g84
g70
NtRp2095
(dp2096
g73
(dp2097
sg82
g2067
sg75
(lp2098
g68
(g89
g70
NtRp2099
(dp2100
g73
(dp2101
sg82
g2095
sg75
(lp2102
g68
(g69
g70
NtRp2103
(dp2104
g73
(dp2105
g81
I3
ssg82
g2099
sg75
(lp2106
g1148
asbasbasbag68
(g84
g70
NtRp2107
(dp2108
g73
(dp2109
sg82
g2067
sg75
(lp2110
g68
(g89
g70
NtRp2111
(dp2112
g73
(dp2113
sg82
g2107
sg75
(lp2114
g68
(g69
g70
NtRp2115
(dp2116
g73
(dp2117
g81
I3
ssg82
g2111
sg75
(lp2118
g1161
asbasbasbag68
(g84
g70
NtRp2119
(dp2120
g73
(dp2121
sg82
g2067
sg75
(lp2122
g68
(g89
g70
NtRp2123
(dp2124
g73
(dp2125
sg82
g2119
sg75
(lp2126
g68
(g69
g70
NtRp2127
(dp2128
g73
(dp2129
g81
I3
ssg82
g2123
sg75
(lp2130
g1174
asbasbasbasbasbasbasbag68
(g84
g70
NtRp2131
(dp2132
g73
(dp2133
sg82
g1856
sg75
(lp2134
g68
(g89
g70
NtRp2135
(dp2136
g73
(dp2137
g93
g94
ssg82
g2131
sg75
(lp2138
g1464
asbag68
(g89
g70
NtRp2139
(dp2140
g73
(dp2141
g100
g101
ssg82
g2131
sg75
(lp2142
S':'
asbag68
(g89
g70
NtRp2143
(dp2144
g73
(dp2145
sg82
g2131
sg75
(lp2146
g68
(g69
g70
NtRp2147
(dp2148
g73
(dp2149
g81
I4
ssg82
g2143
sg75
(lp2150
g68
(g77
g70
NtRp2151
(dp2152
g73
(dp2153
g81
I3
ssg82
Nsg75
(lp2154
g68
(g84
g70
NtRp2155
(dp2156
g73
(dp2157
sg82
g2151
sg75
(lp2158
g68
(g89
g70
NtRp2159
(dp2160
g73
(dp2161
sg82
g2155
sg75
(lp2162
g68
(g69
g70
NtRp2163
(dp2164
g73
(dp2165
g81
I3
ssg82
g2159
sg75
(lp2166
S'2'
asbasbasbag68
(g84
g70
NtRp2167
(dp2168
g73
(dp2169
sg82
g2151
sg75
(lp2170
g68
(g89
g70
NtRp2171
(dp2172
g73
(dp2173
sg82
g2167
sg75
(lp2174
g68
(g69
g70
NtRp2175
(dp2176
g73
(dp2177
g81
I3
ssg82
g2171
sg75
(lp2178
S'3'
asbasbasbag68
(g84
g70
NtRp2179
(dp2180
g73
(dp2181
sg82
g2151
sg75
(lp2182
g68
(g89
g70
NtRp2183
(dp2184
g73
(dp2185
sg82
g2179
sg75
(lp2186
g68
(g69
g70
NtRp2187
(dp2188
g73
(dp2189
g81
I3
ssg82
g2183
sg75
(lp2190
S'2'
asbasbasbag68
(g84
g70
NtRp2191
(dp2192
g73
(dp2193
sg82
g2151
sg75
(lp2194
g68
(g89
g70
NtRp2195
(dp2196
g73
(dp2197
sg82
g2191
sg75
(lp2198
g68
(g69
g70
NtRp2199
(dp2200
g73
(dp2201
g81
I3
ssg82
g2195
sg75
(lp2202
S'datetime.datetime(2012, 12, 17, 15, 3, 30)'
p2203
asbasbasbag68
(g84
g70
NtRp2204
(dp2205
g73
(dp2206
sg82
g2151
sg75
(lp2207
g68
(g89
g70
NtRp2208
(dp2209
g73
(dp2210
sg82
g2204
sg75
(lp2211
g68
(g69
g70
NtRp2212
(dp2213
g73
(dp2214
g81
I3
ssg82
g2208
sg75
(lp2215
g1542
asbasbasbasbasbasbasbasbasbasbasbag68
(g84
g70
NtRp2216
(dp2217
g73
(dp2218
sg82
g78
sg75
(lp2219
g68
(g89
g70
NtRp2220
(dp2221
g73
(dp2222
g93
g94
ssg82
g2216
sg75
(lp2223
S'is_https'
p2224
asbag68
(g89
g70
NtRp2225
(dp2226
g73
(dp2227
g100
g101
ssg82
g2216
sg75
(lp2228
S':'
asbag68
(g89
g70
NtRp2229
(dp2230
g73
(dp2231
sg82
g2216
sg75
(lp2232
g68
(g69
g70
NtRp2233
(dp2234
g73
(dp2235
g81
I5
ssg82
g2229
sg75
(lp2236
g111
asbasbasbag68
(g84
g70
NtRp2237
(dp2238
g73
(dp2239
sg82
g78
sg75
(lp2240
g68
(g89
g70
NtRp2241
(dp2242
g73
(dp2243
g93
g94
ssg82
g2237
sg75
(lp2244
S'is_local'
p2245
asbag68
(g89
g70
NtRp2246
(dp2247
g73
(dp2248
g100
g101
ssg82
g2237
sg75
(lp2249
S':'
asbag68
(g89
g70
NtRp2250
(dp2251
g73
(dp2252
sg82
g2237
sg75
(lp2253
g68
(g69
g70
NtRp2254
(dp2255
g73
(dp2256
g81
I5
ssg82
g2250
sg75
(lp2257
g1651
asbasbasbag68
(g84
g70
NtRp2258
(dp2259
g73
(dp2260
sg82
g78
sg75
(lp2261
g68
(g89
g70
NtRp2262
(dp2263
g73
(dp2264
g93
g94
ssg82
g2258
sg75
(lp2265
S'is_restful'
p2266
asbag68
(g89
g70
NtRp2267
(dp2268
g73
(dp2269
g100
g101
ssg82
g2258
sg75
(lp2270
S':'
asbag68
(g89
g70
NtRp2271
(dp2272
g73
(dp2273
sg82
g2258
sg75
(lp2274
g68
(g69
g70
NtRp2275
(dp2276
g73
(dp2277
g81
I5
ssg82
g2271
sg75
(lp2278
g111
asbasbasbag68
(g84
g70
NtRp2279
(dp2280
g73
(dp2281
sg82
g78
sg75
(lp2282
g68
(g89
g70
NtRp2283
(dp2284
g73
(dp2285
g93
g94
ssg82
g2279
sg75
(lp2286
S'now'
p2287
asbag68
(g89
g70
NtRp2288
(dp2289
g73
(dp2290
g100
g101
ssg82
g2279
sg75
(lp2291
S':'
asbag68
(g89
g70
NtRp2292
(dp2293
g73
(dp2294
sg82
g2279
sg75
(lp2295
g68
(g69
g70
NtRp2296
(dp2297
g73
(dp2298
g81
I5
ssg82
g2292
sg75
(lp2299
S'datetime.datetime(2013, 1, 24, 10, 36, 19, 70533)'
p2300
asbasbasbag68
(g84
g70
NtRp2301
(dp2302
g73
(dp2303
sg82
g78
sg75
(lp2304
g68
(g89
g70
NtRp2305
(dp2306
g73
(dp2307
g93
g94
ssg82
g2301
sg75
(lp2308
S'post_vars'
p2309
asbag68
(g89
g70
NtRp2310
(dp2311
g73
(dp2312
g100
g101
ssg82
g2301
sg75
(lp2313
S':'
asbag68
(g89
g70
NtRp2314
(dp2315
g73
(dp2316
sg82
g2301
sg75
(lp2317
g68
(g69
g70
NtRp2318
(dp2319
g73
(dp2320
g81
I5
ssg82
g2314
sg75
(lp2321
g68
(g77
g70
NtRp2322
(dp2323
g73
(dp2324
g81
I4
ssg82
Nsg75
(lp2325
sbasbasbasbag68
(g84
g70
NtRp2326
(dp2327
g73
(dp2328
sg82
g78
sg75
(lp2329
g68
(g89
g70
NtRp2330
(dp2331
g73
(dp2332
g93
g94
ssg82
g2326
sg75
(lp2333
S'url'
p2334
asbag68
(g89
g70
NtRp2335
(dp2336
g73
(dp2337
g100
g101
ssg82
g2326
sg75
(lp2338
S':'
asbag68
(g89
g70
NtRp2339
(dp2340
g73
(dp2341
sg82
g2326
sg75
(lp2342
g68
(g69
g70
NtRp2343
(dp2344
g73
(dp2345
g81
I5
ssg82
g2339
sg75
(lp2346
g1196
asbasbasbag68
(g84
g70
NtRp2347
(dp2348
g73
(dp2349
sg82
g78
sg75
(lp2350
g68
(g89
g70
NtRp2351
(dp2352
g73
(dp2353
g93
g94
ssg82
g2347
sg75
(lp2354
S'utcnow'
p2355
asbag68
(g89
g70
NtRp2356
(dp2357
g73
(dp2358
g100
g101
ssg82
g2347
sg75
(lp2359
S':'
asbag68
(g89
g70
NtRp2360
(dp2361
g73
(dp2362
sg82
g2347
sg75
(lp2363
g68
(g69
g70
NtRp2364
(dp2365
g73
(dp2366
g81
I5
ssg82
g2360
sg75
(lp2367
S'datetime.datetime(2013, 1, 24, 12, 36, 19, 70605)'
p2368
asbasbasbag68
(g84
g70
NtRp2369
(dp2370
g73
(dp2371
sg82
g78
sg75
(lp2372
g68
(g89
g70
NtRp2373
(dp2374
g73
(dp2375
g93
g94
ssg82
g2369
sg75
(lp2376
S'uuid'
p2377
asbag68
(g89
g70
NtRp2378
(dp2379
g73
(dp2380
g100
g101
ssg82
g2369
sg75
(lp2381
S':'
asbag68
(g89
g70
NtRp2382
(dp2383
g73
(dp2384
sg82
g2369
sg75
(lp2385
g68
(g69
g70
NtRp2386
(dp2387
g73
(dp2388
g81
I5
ssg82
g2382
sg75
(lp2389
S'projeto/127.0.0.1.2013-01-24.10-36-19.9fd334dc-6f70-4270-843f-aded049c88bd'
p2390
asbasbasbag68
(g84
g70
NtRp2391
(dp2392
g73
(dp2393
sg82
g78
sg75
(lp2394
g68
(g89
g70
NtRp2395
(dp2396
g73
(dp2397
g93
g94
ssg82
g2391
sg75
(lp2398
S'vars'
p2399
asbag68
(g89
g70
NtRp2400
(dp2401
g73
(dp2402
g100
g101
ssg82
g2391
sg75
(lp2403
S':'
asbag68
(g89
g70
NtRp2404
(dp2405
g73
(dp2406
sg82
g2391
sg75
(lp2407
g68
(g69
g70
NtRp2408
(dp2409
g73
(dp2410
g81
I5
ssg82
g2404
sg75
(lp2411
g68
(g77
g70
NtRp2412
(dp2413
g73
(dp2414
g81
I4
ssg82
Nsg75
(lp2415
sbasbasbasbag68
(g84
g70
NtRp2416
(dp2417
g73
(dp2418
sg82
g78
sg75
(lp2419
g68
(g89
g70
NtRp2420
(dp2421
g73
(dp2422
g93
g94
ssg82
g2416
sg75
(lp2423
S'wsgi'
p2424
asbag68
(g89
g70
NtRp2425
(dp2426
g73
(dp2427
g100
g101
ssg82
g2416
sg75
(lp2428
S':'
asbag68
(g89
g70
NtRp2429
(dp2430
g73
(dp2431
sg82
g2416
sg75
(lp2432
g68
(g69
g70
NtRp2433
(dp2434
g73
(dp2435
g81
I5
ssg82
g2429
sg75
(lp2436
g68
(g77
g70
NtRp2437
(dp2438
g73
(dp2439
g81
I4
ssg82
Nsg75
(lp2440
g68
(g84
g70
NtRp2441
(dp2442
g73
(dp2443
sg82
g2437
sg75
(lp2444
g68
(g89
g70
NtRp2445
(dp2446
g73
(dp2447
g93
g94
ssg82
g2441
sg75
(lp2448
S'environ'
p2449
asbag68
(g89
g70
NtRp2450
(dp2451
g73
(dp2452
g100
g101
ssg82
g2441
sg75
(lp2453
S':'
asbag68
(g89
g70
NtRp2454
(dp2455
g73
(dp2456
sg82
g2441
sg75
(lp2457
g68
(g69
g70
NtRp2458
(dp2459
g73
(dp2460
g81
I4
ssg82
g2454
sg75
(lp2461
g68
(g77
g70
NtRp2462
(dp2463
g73
(dp2464
g81
I3
ssg82
Nsg75
(lp2465
g68
(g84
g70
NtRp2466
(dp2467
g73
(dp2468
sg82
g2462
sg75
(lp2469
g68
(g89
g70
NtRp2470
(dp2471
g73
(dp2472
g93
g94
ssg82
g2466
sg75
(lp2473
S'HTTP_ACCEPT'
p2474
asbag68
(g89
g70
NtRp2475
(dp2476
g73
(dp2477
g100
g101
ssg82
g2466
sg75
(lp2478
S':'
asbag68
(g89
g70
NtRp2479
(dp2480
g73
(dp2481
sg82
g2466
sg75
(lp2482
g68
(g69
g70
NtRp2483
(dp2484
g73
(dp2485
g81
I3
ssg82
g2479
sg75
(lp2486
g866
asbasbasbag68
(g84
g70
NtRp2487
(dp2488
g73
(dp2489
sg82
g2462
sg75
(lp2490
g68
(g89
g70
NtRp2491
(dp2492
g73
(dp2493
g93
g94
ssg82
g2487
sg75
(lp2494
S'HTTP_ACCEPT_CHARSET'
p2495
asbag68
(g89
g70
NtRp2496
(dp2497
g73
(dp2498
g100
g101
ssg82
g2487
sg75
(lp2499
S':'
asbag68
(g89
g70
NtRp2500
(dp2501
g73
(dp2502
sg82
g2487
sg75
(lp2503
g68
(g69
g70
NtRp2504
(dp2505
g73
(dp2506
g81
I3
ssg82
g2500
sg75
(lp2507
g888
asbasbasbag68
(g84
g70
NtRp2508
(dp2509
g73
(dp2510
sg82
g2462
sg75
(lp2511
g68
(g89
g70
NtRp2512
(dp2513
g73
(dp2514
g93
g94
ssg82
g2508
sg75
(lp2515
S'HTTP_ACCEPT_ENCODING'
p2516
asbag68
(g89
g70
NtRp2517
(dp2518
g73
(dp2519
g100
g101
ssg82
g2508
sg75
(lp2520
S':'
asbag68
(g89
g70
NtRp2521
(dp2522
g73
(dp2523
sg82
g2508
sg75
(lp2524
g68
(g69
g70
NtRp2525
(dp2526
g73
(dp2527
g81
I3
ssg82
g2521
sg75
(lp2528
g910
asbasbasbag68
(g84
g70
NtRp2529
(dp2530
g73
(dp2531
sg82
g2462
sg75
(lp2532
g68
(g89
g70
NtRp2533
(dp2534
g73
(dp2535
g93
g94
ssg82
g2529
sg75
(lp2536
S'HTTP_ACCEPT_LANGUAGE'
p2537
asbag68
(g89
g70
NtRp2538
(dp2539
g73
(dp2540
g100
g101
ssg82
g2529
sg75
(lp2541
S':'
asbag68
(g89
g70
NtRp2542
(dp2543
g73
(dp2544
sg82
g2529
sg75
(lp2545
g68
(g69
g70
NtRp2546
(dp2547
g73
(dp2548
g81
I3
ssg82
g2542
sg75
(lp2549
g932
asbasbasbag68
(g84
g70
NtRp2550
(dp2551
g73
(dp2552
sg82
g2462
sg75
(lp2553
g68
(g89
g70
NtRp2554
(dp2555
g73
(dp2556
g93
g94
ssg82
g2550
sg75
(lp2557
S'HTTP_CACHE_CONTROL'
p2558
asbag68
(g89
g70
NtRp2559
(dp2560
g73
(dp2561
g100
g101
ssg82
g2550
sg75
(lp2562
S':'
asbag68
(g89
g70
NtRp2563
(dp2564
g73
(dp2565
sg82
g2550
sg75
(lp2566
g68
(g69
g70
NtRp2567
(dp2568
g73
(dp2569
g81
I3
ssg82
g2563
sg75
(lp2570
g954
asbasbasbag68
(g84
g70
NtRp2571
(dp2572
g73
(dp2573
sg82
g2462
sg75
(lp2574
g68
(g89
g70
NtRp2575
(dp2576
g73
(dp2577
g93
g94
ssg82
g2571
sg75
(lp2578
S'HTTP_CONNECTION'
p2579
asbag68
(g89
g70
NtRp2580
(dp2581
g73
(dp2582
g100
g101
ssg82
g2571
sg75
(lp2583
S':'
asbag68
(g89
g70
NtRp2584
(dp2585
g73
(dp2586
sg82
g2571
sg75
(lp2587
g68
(g69
g70
NtRp2588
(dp2589
g73
(dp2590
g81
I3
ssg82
g2584
sg75
(lp2591
g976
asbasbasbag68
(g84
g70
NtRp2592
(dp2593
g73
(dp2594
sg82
g2462
sg75
(lp2595
g68
(g89
g70
NtRp2596
(dp2597
g73
(dp2598
g93
g94
ssg82
g2592
sg75
(lp2599
S'HTTP_COOKIE'
p2600
asbag68
(g89
g70
NtRp2601
(dp2602
g73
(dp2603
g100
g101
ssg82
g2592
sg75
(lp2604
S':'
asbag68
(g89
g70
NtRp2605
(dp2606
g73
(dp2607
sg82
g2592
sg75
(lp2608
g68
(g69
g70
NtRp2609
(dp2610
g73
(dp2611
g81
I3
ssg82
g2605
sg75
(lp2612
g998
asbasbasbag68
(g84
g70
NtRp2613
(dp2614
g73
(dp2615
sg82
g2462
sg75
(lp2616
g68
(g89
g70
NtRp2617
(dp2618
g73
(dp2619
g93
g94
ssg82
g2613
sg75
(lp2620
S'HTTP_HOST'
p2621
asbag68
(g89
g70
NtRp2622
(dp2623
g73
(dp2624
g100
g101
ssg82
g2613
sg75
(lp2625
S':'
asbag68
(g89
g70
NtRp2626
(dp2627
g73
(dp2628
sg82
g2613
sg75
(lp2629
g68
(g69
g70
NtRp2630
(dp2631
g73
(dp2632
g81
I3
ssg82
g2626
sg75
(lp2633
g1020
asbasbasbag68
(g84
g70
NtRp2634
(dp2635
g73
(dp2636
sg82
g2462
sg75
(lp2637
g68
(g89
g70
NtRp2638
(dp2639
g73
(dp2640
g93
g94
ssg82
g2634
sg75
(lp2641
S'HTTP_USER_AGENT'
p2642
asbag68
(g89
g70
NtRp2643
(dp2644
g73
(dp2645
g100
g101
ssg82
g2634
sg75
(lp2646
S':'
asbag68
(g89
g70
NtRp2647
(dp2648
g73
(dp2649
sg82
g2634
sg75
(lp2650
g68
(g69
g70
NtRp2651
(dp2652
g73
(dp2653
g81
I3
ssg82
g2647
sg75
(lp2654
g1042
asbasbasbag68
(g84
g70
NtRp2655
(dp2656
g73
(dp2657
sg82
g2462
sg75
(lp2658
g68
(g89
g70
NtRp2659
(dp2660
g73
(dp2661
g93
g94
ssg82
g2655
sg75
(lp2662
S'PATH_INFO'
p2663
asbag68
(g89
g70
NtRp2664
(dp2665
g73
(dp2666
g100
g101
ssg82
g2655
sg75
(lp2667
S':'
asbag68
(g89
g70
NtRp2668
(dp2669
g73
(dp2670
sg82
g2655
sg75
(lp2671
g68
(g69
g70
NtRp2672
(dp2673
g73
(dp2674
g81
I3
ssg82
g2668
sg75
(lp2675
g1196
asbasbasbag68
(g84
g70
NtRp2676
(dp2677
g73
(dp2678
sg82
g2462
sg75
(lp2679
g68
(g89
g70
NtRp2680
(dp2681
g73
(dp2682
g93
g94
ssg82
g2676
sg75
(lp2683
S'QUERY_STRING'
p2684
asbag68
(g89
g70
NtRp2685
(dp2686
g73
(dp2687
g100
g101
ssg82
g2676
sg75
(lp2688
S':'
asbag68
(g89
g70
NtRp2689
(dp2690
g73
(dp2691
sg82
g2676
sg75
(lp2692
g68
(g69
g70
NtRp2693
(dp2694
g73
(dp2695
g81
I3
ssg82
g2689
sg75
(lp2696
S''
asbasbasbag68
(g84
g70
NtRp2697
(dp2698
g73
(dp2699
sg82
g2462
sg75
(lp2700
g68
(g89
g70
NtRp2701
(dp2702
g73
(dp2703
g93
g94
ssg82
g2697
sg75
(lp2704
S'REMOTE_ADDR'
p2705
asbag68
(g89
g70
NtRp2706
(dp2707
g73
(dp2708
g100
g101
ssg82
g2697
sg75
(lp2709
S':'
asbag68
(g89
g70
NtRp2710
(dp2711
g73
(dp2712
sg82
g2697
sg75
(lp2713
g68
(g69
g70
NtRp2714
(dp2715
g73
(dp2716
g81
I3
ssg82
g2710
sg75
(lp2717
g236
asbasbasbag68
(g84
g70
NtRp2718
(dp2719
g73
(dp2720
sg82
g2462
sg75
(lp2721
g68
(g89
g70
NtRp2722
(dp2723
g73
(dp2724
g93
g94
ssg82
g2718
sg75
(lp2725
S'REMOTE_PORT'
p2726
asbag68
(g89
g70
NtRp2727
(dp2728
g73
(dp2729
g100
g101
ssg82
g2718
sg75
(lp2730
S':'
asbag68
(g89
g70
NtRp2731
(dp2732
g73
(dp2733
sg82
g2718
sg75
(lp2734
g68
(g69
g70
NtRp2735
(dp2736
g73
(dp2737
g81
I3
ssg82
g2731
sg75
(lp2738
g1260
asbasbasbag68
(g84
g70
NtRp2739
(dp2740
g73
(dp2741
sg82
g2462
sg75
(lp2742
g68
(g89
g70
NtRp2743
(dp2744
g73
(dp2745
g93
g94
ssg82
g2739
sg75
(lp2746
S'REQUEST_METHOD'
p2747
asbag68
(g89
g70
NtRp2748
(dp2749
g73
(dp2750
g100
g101
ssg82
g2739
sg75
(lp2751
S':'
asbag68
(g89
g70
NtRp2752
(dp2753
g73
(dp2754
sg82
g2739
sg75
(lp2755
g68
(g69
g70
NtRp2756
(dp2757
g73
(dp2758
g81
I3
ssg82
g2752
sg75
(lp2759
g1282
asbasbasbag68
(g84
g70
NtRp2760
(dp2761
g73
(dp2762
sg82
g2462
sg75
(lp2763
g68
(g89
g70
NtRp2764
(dp2765
g73
(dp2766
g93
g94
ssg82
g2760
sg75
(lp2767
S'REQUEST_URI'
p2768
asbag68
(g89
g70
NtRp2769
(dp2770
g73
(dp2771
g100
g101
ssg82
g2760
sg75
(lp2772
S':'
asbag68
(g89
g70
NtRp2773
(dp2774
g73
(dp2775
sg82
g2760
sg75
(lp2776
g68
(g69
g70
NtRp2777
(dp2778
g73
(dp2779
g81
I3
ssg82
g2773
sg75
(lp2780
g1304
asbasbasbag68
(g84
g70
NtRp2781
(dp2782
g73
(dp2783
sg82
g2462
sg75
(lp2784
g68
(g89
g70
NtRp2785
(dp2786
g73
(dp2787
g93
g94
ssg82
g2781
sg75
(lp2788
S'SCRIPT_NAME'
p2789
asbag68
(g89
g70
NtRp2790
(dp2791
g73
(dp2792
g100
g101
ssg82
g2781
sg75
(lp2793
S':'
asbag68
(g89
g70
NtRp2794
(dp2795
g73
(dp2796
sg82
g2781
sg75
(lp2797
g68
(g69
g70
NtRp2798
(dp2799
g73
(dp2800
g81
I3
ssg82
g2794
sg75
(lp2801
S''
asbasbasbag68
(g84
g70
NtRp2802
(dp2803
g73
(dp2804
sg82
g2462
sg75
(lp2805
g68
(g89
g70
NtRp2806
(dp2807
g73
(dp2808
g93
g94
ssg82
g2802
sg75
(lp2809
S'SERVER_NAME'
p2810
asbag68
(g89
g70
NtRp2811
(dp2812
g73
(dp2813
g100
g101
ssg82
g2802
sg75
(lp2814
S':'
asbag68
(g89
g70
NtRp2815
(dp2816
g73
(dp2817
sg82
g2802
sg75
(lp2818
g68
(g69
g70
NtRp2819
(dp2820
g73
(dp2821
g81
I3
ssg82
g2815
sg75
(lp2822
g1347
asbasbasbag68
(g84
g70
NtRp2823
(dp2824
g73
(dp2825
sg82
g2462
sg75
(lp2826
g68
(g89
g70
NtRp2827
(dp2828
g73
(dp2829
g93
g94
ssg82
g2823
sg75
(lp2830
S'SERVER_PORT'
p2831
asbag68
(g89
g70
NtRp2832
(dp2833
g73
(dp2834
g100
g101
ssg82
g2823
sg75
(lp2835
S':'
asbag68
(g89
g70
NtRp2836
(dp2837
g73
(dp2838
sg82
g2823
sg75
(lp2839
g68
(g69
g70
NtRp2840
(dp2841
g73
(dp2842
g81
I3
ssg82
g2836
sg75
(lp2843
g1369
asbasbasbag68
(g84
g70
NtRp2844
(dp2845
g73
(dp2846
sg82
g2462
sg75
(lp2847
g68
(g89
g70
NtRp2848
(dp2849
g73
(dp2850
g93
g94
ssg82
g2844
sg75
(lp2851
S'SERVER_PROTOCOL'
p2852
asbag68
(g89
g70
NtRp2853
(dp2854
g73
(dp2855
g100
g101
ssg82
g2844
sg75
(lp2856
S':'
asbag68
(g89
g70
NtRp2857
(dp2858
g73
(dp2859
sg82
g2844
sg75
(lp2860
g68
(g69
g70
NtRp2861
(dp2862
g73
(dp2863
g81
I3
ssg82
g2857
sg75
(lp2864
g1391
asbasbasbag68
(g84
g70
NtRp2865
(dp2866
g73
(dp2867
sg82
g2462
sg75
(lp2868
g68
(g89
g70
NtRp2869
(dp2870
g73
(dp2871
g93
g94
ssg82
g2865
sg75
(lp2872
S'SERVER_SOFTWARE'
p2873
asbag68
(g89
g70
NtRp2874
(dp2875
g73
(dp2876
g100
g101
ssg82
g2865
sg75
(lp2877
S':'
asbag68
(g89
g70
NtRp2878
(dp2879
g73
(dp2880
sg82
g2865
sg75
(lp2881
g68
(g69
g70
NtRp2882
(dp2883
g73
(dp2884
g81
I3
ssg82
g2878
sg75
(lp2885
g1413
asbasbasbag68
(g84
g70
NtRp2886
(dp2887
g73
(dp2888
sg82
g2462
sg75
(lp2889
g68
(g89
g70
NtRp2890
(dp2891
g73
(dp2892
g93
g94
ssg82
g2886
sg75
(lp2893
S'WEB2PY_ORIGINAL_URI'
p2894
asbag68
(g89
g70
NtRp2895
(dp2896
g73
(dp2897
g100
g101
ssg82
g2886
sg75
(lp2898
S':'
asbag68
(g89
g70
NtRp2899
(dp2900
g73
(dp2901
sg82
g2886
sg75
(lp2902
g68
(g69
g70
NtRp2903
(dp2904
g73
(dp2905
g81
I3
ssg82
g2899
sg75
(lp2906
g1196
asbasbasbag68
(g84
g70
NtRp2907
(dp2908
g73
(dp2909
sg82
g2462
sg75
(lp2910
g68
(g89
g70
NtRp2911
(dp2912
g73
(dp2913
g93
g94
ssg82
g2907
sg75
(lp2914
S'wsgi.errors'
p2915
asbag68
(g89
g70
NtRp2916
(dp2917
g73
(dp2918
g100
g101
ssg82
g2907
sg75
(lp2919
S':'
asbag68
(g89
g70
NtRp2920
(dp2921
g73
(dp2922
sg82
g2907
sg75
(lp2923
g68
(g69
g70
NtRp2924
(dp2925
g73
(dp2926
g81
I3
ssg82
g2920
sg75
(lp2927
S"<open file '<stderr>', mode 'w' at 0x7f9843337270>"
p2928
asbasbasbag68
(g84
g70
NtRp2929
(dp2930
g73
(dp2931
sg82
g2462
sg75
(lp2932
g68
(g89
g70
NtRp2933
(dp2934
g73
(dp2935
g93
g94
ssg82
g2929
sg75
(lp2936
S'wsgi.file_wrapper'
p2937
asbag68
(g89
g70
NtRp2938
(dp2939
g73
(dp2940
g100
g101
ssg82
g2929
sg75
(lp2941
S':'
asbag68
(g89
g70
NtRp2942
(dp2943
g73
(dp2944
sg82
g2929
sg75
(lp2945
g68
(g69
g70
NtRp2946
(dp2947
g73
(dp2948
g81
I3
ssg82
g2942
sg75
(lp2949
S'<class wsgiref.util.FileWrapper at 0x2ca8a10>'
p2950
asbasbasbag68
(g84
g70
NtRp2951
(dp2952
g73
(dp2953
sg82
g2462
sg75
(lp2954
g68
(g89
g70
NtRp2955
(dp2956
g73
(dp2957
g93
g94
ssg82
g2951
sg75
(lp2958
S'wsgi.input'
p2959
asbag68
(g89
g70
NtRp2960
(dp2961
g73
(dp2962
g100
g101
ssg82
g2951
sg75
(lp2963
S':'
asbag68
(g89
g70
NtRp2964
(dp2965
g73
(dp2966
sg82
g2951
sg75
(lp2967
g68
(g69
g70
NtRp2968
(dp2969
g73
(dp2970
g81
I3
ssg82
g2964
sg75
(lp2971
S'<cStringIO.StringO object at 0x7f982406d9d0>'
p2972
asbasbasbag68
(g84
g70
NtRp2973
(dp2974
g73
(dp2975
sg82
g2462
sg75
(lp2976
g68
(g89
g70
NtRp2977
(dp2978
g73
(dp2979
g93
g94
ssg82
g2973
sg75
(lp2980
S'wsgi.multiprocess'
p2981
asbag68
(g89
g70
NtRp2982
(dp2983
g73
(dp2984
g100
g101
ssg82
g2973
sg75
(lp2985
S':'
asbag68
(g89
g70
NtRp2986
(dp2987
g73
(dp2988
sg82
g2973
sg75
(lp2989
g68
(g69
g70
NtRp2990
(dp2991
g73
(dp2992
g81
I3
ssg82
g2986
sg75
(lp2993
g111
asbasbasbag68
(g84
g70
NtRp2994
(dp2995
g73
(dp2996
sg82
g2462
sg75
(lp2997
g68
(g89
g70
NtRp2998
(dp2999
g73
(dp3000
g93
g94
ssg82
g2994
sg75
(lp3001
S'wsgi.multithread'
p3002
asbag68
(g89
g70
NtRp3003
(dp3004
g73
(dp3005
g100
g101
ssg82
g2994
sg75
(lp3006
S':'
asbag68
(g89
g70
NtRp3007
(dp3008
g73
(dp3009
sg82
g2994
sg75
(lp3010
g68
(g69
g70
NtRp3011
(dp3012
g73
(dp3013
g81
I3
ssg82
g3007
sg75
(lp3014
g1651
asbasbasbag68
(g84
g70
NtRp3015
(dp3016
g73
(dp3017
sg82
g2462
sg75
(lp3018
g68
(g89
g70
NtRp3019
(dp3020
g73
(dp3021
g93
g94
ssg82
g3015
sg75
(lp3022
S'wsgi.run_once'
p3023
asbag68
(g89
g70
NtRp3024
(dp3025
g73
(dp3026
g100
g101
ssg82
g3015
sg75
(lp3027
S':'
asbag68
(g89
g70
NtRp3028
(dp3029
g73
(dp3030
sg82
g3015
sg75
(lp3031
g68
(g69
g70
NtRp3032
(dp3033
g73
(dp3034
g81
I3
ssg82
g3028
sg75
(lp3035
g111
asbasbasbag68
(g84
g70
NtRp3036
(dp3037
g73
(dp3038
sg82
g2462
sg75
(lp3039
g68
(g89
g70
NtRp3040
(dp3041
g73
(dp3042
g93
g94
ssg82
g3036
sg75
(lp3043
S'wsgi.url_scheme'
p3044
asbag68
(g89
g70
NtRp3045
(dp3046
g73
(dp3047
g100
g101
ssg82
g3036
sg75
(lp3048
S':'
asbag68
(g89
g70
NtRp3049
(dp3050
g73
(dp3051
sg82
g3036
sg75
(lp3052
g68
(g69
g70
NtRp3053
(dp3054
g73
(dp3055
g81
I3
ssg82
g3049
sg75
(lp3056
g1694
asbasbasbag68
(g84
g70
NtRp3057
(dp3058
g73
(dp3059
sg82
g2462
sg75
(lp3060
g68
(g89
g70
NtRp3061
(dp3062
g73
(dp3063
g93
g94
ssg82
g3057
sg75
(lp3064
S'wsgi.version'
p3065
asbag68
(g89
g70
NtRp3066
(dp3067
g73
(dp3068
g100
g101
ssg82
g3057
sg75
(lp3069
S':'
asbag68
(g89
g70
NtRp3070
(dp3071
g73
(dp3072
sg82
g3057
sg75
(lp3073
g68
(g69
g70
NtRp3074
(dp3075
g73
(dp3076
g81
I3
ssg82
g3070
sg75
(lp3077
S'1'
asbasbasbasbasbasbasbasbasbasbasbasbasbsS'frames'
p3078
(lp3079
(dp3080
S'file'
p3081
S'/var/www/web2py_curso/gluon/restricted.py'
p3082
sS'dump'
p3083
(dp3084
S'code'
p3085
S'\'from gluon.storage import Storage\\n\\nconfig = Stor...ield("photo", "upload")\\n]\\n\\nauth.define_tables()\\n\\n\''
p3086
sS'layer'
p3087
S"'/var/www/web2py_curso/applications/projeto/models/config.py'"
p3088
sS'global compile2'
p3089
S'<function compile2>'
p3090
sS'ccode'
p3091
S'undefined'
p3092
ssS'lnum'
p3093
I211
sS'lines'
p3094
(dp3095
I206
S"    environment['__name__'] = '__restricted__'"
p3096
sI207
S'    try:'
p3097
sI208
S'        if isinstance(code, types.CodeType):'
p3098
sI209
S'            ccode = code'
p3099
sI210
S'        else:'
p3100
sI211
S'            ccode = compile2(code, layer)'
p3101
sI212
S'        exec ccode in environment'
p3102
sI213
S'    except HTTP:'
p3103
sI214
S'        raise'
p3104
sI215
S'    except RestrictedError:'
p3105
ssS'call'
p3106
S'(code=\'from gluon.storage import Storage\\n\\nconfig = Stor...ield("photo", "upload")\\n]\\n\\nauth.define_tables()\\n\\n\', environment={\'A\': <class \'gluon.html.A\'>, \'B\': <class \'gluon.html.B\'>, \'BEAUTIFY\': <class \'gluon.html.BEAUTIFY\'>, \'BODY\': <class \'gluon.html.BODY\'>, \'BR\': <class \'gluon.html.BR\'>, \'BUTTON\': <class \'gluon.html.BUTTON\'>, \'CAT\': <class \'gluon.html.CAT\'>, \'CENTER\': <class \'gluon.html.CENTER\'>, \'CLEANUP\': <class \'gluon.validators.CLEANUP\'>, \'CODE\': <class \'gluon.html.CODE\'>, ...}, layer=\'/var/www/web2py_curso/applications/projeto/models/config.py\')'
p3107
sS'func'
p3108
S'restricted'
p3109
sa(dp3110
g3081
S'/var/www/web2py_curso/gluon/restricted.py'
p3111
sg3083
(dp3112
S'builtincompile'
p3113
S'<built-in function compile>'
p3114
sS'code'
p3115
S'\'from gluon.storage import Storage\\n\\nconfig = Stor...ield("photo", "upload")\\n]\\n\\nauth.define_tables()\\n\\n\''
p3116
sS'code.rstrip'
p3117
S'<built-in method rstrip of str object>'
p3118
sS').replace'
p3119
g3092
sS'layer'
p3120
S"'/var/www/web2py_curso/applications/projeto/models/config.py'"
p3121
ssg3093
I194
sg3094
(dp3122
I192
S"    The +'\\n' is necessary else compile fails when code ends in a comment."
p3123
sI193
S'    """'
p3124
sI194
S"    return compile(code.rstrip().replace('\\r\\n', '\\n') + '\\n', layer, 'exec')"
p3125
sI195
S''
sI196
S''
sI197
S"def restricted(code, environment=None, layer='Unknown'):"
p3126
sI198
S'    """'
p3127
sI189
S''
sI190
S'def compile2(code, layer):'
p3128
sI191
S'    """'
p3129
ssg3106
S'(code=\'from gluon.storage import Storage\\n\\nconfig = Stor...ield("photo", "upload")\\n]\\n\\nauth.define_tables()\\n\\n\', layer=\'/var/www/web2py_curso/applications/projeto/models/config.py\')'
p3130
sg3108
S'compile2'
p3131
sasS'pyver'
p3132
S'Python 2.7.3: /usr/bin/python'
p3133
sS'session'
p3134
g68
(g69
g70
NtRp3135
(dp3136
g73
(dp3137
sg75
(lp3138
g68
(g77
g70
NtRp3139
(dp3140
g73
(dp3141
g81
I5
ssg82
Nsg75
(lp3142
g68
(g84
g70
NtRp3143
(dp3144
g73
(dp3145
sg82
g3139
sg75
(lp3146
g68
(g89
g70
NtRp3147
(dp3148
g73
(dp3149
g93
g94
ssg82
g3143
sg75
(lp3150
S'auth'
p3151
asbag68
(g89
g70
NtRp3152
(dp3153
g73
(dp3154
g100
g101
ssg82
g3143
sg75
(lp3155
S':'
asbag68
(g89
g70
NtRp3156
(dp3157
g73
(dp3158
sg82
g3143
sg75
(lp3159
g68
(g69
g70
NtRp3160
(dp3161
g73
(dp3162
g81
I5
ssg82
g3156
sg75
(lp3163
g68
(g77
g70
NtRp3164
(dp3165
g73
(dp3166
g81
I4
ssg82
Nsg75
(lp3167
g68
(g84
g70
NtRp3168
(dp3169
g73
(dp3170
sg82
g3164
sg75
(lp3171
g68
(g89
g70
NtRp3172
(dp3173
g73
(dp3174
g93
g94
ssg82
g3168
sg75
(lp3175
S'expiration'
p3176
asbag68
(g89
g70
NtRp3177
(dp3178
g73
(dp3179
g100
g101
ssg82
g3168
sg75
(lp3180
S':'
asbag68
(g89
g70
NtRp3181
(dp3182
g73
(dp3183
sg82
g3168
sg75
(lp3184
g68
(g69
g70
NtRp3185
(dp3186
g73
(dp3187
g81
I4
ssg82
g3181
sg75
(lp3188
S'3600'
p3189
asbasbasbag68
(g84
g70
NtRp3190
(dp3191
g73
(dp3192
sg82
g3164
sg75
(lp3193
g68
(g89
g70
NtRp3194
(dp3195
g73
(dp3196
g93
g94
ssg82
g3190
sg75
(lp3197
S'hmac_key'
p3198
asbag68
(g89
g70
NtRp3199
(dp3200
g73
(dp3201
g100
g101
ssg82
g3190
sg75
(lp3202
S':'
asbag68
(g89
g70
NtRp3203
(dp3204
g73
(dp3205
sg82
g3190
sg75
(lp3206
g68
(g69
g70
NtRp3207
(dp3208
g73
(dp3209
g81
I4
ssg82
g3203
sg75
(lp3210
S'9526a88a-8a2e-4810-96e0-4bf5c9514467'
p3211
asbasbasbag68
(g84
g70
NtRp3212
(dp3213
g73
(dp3214
sg82
g3164
sg75
(lp3215
g68
(g89
g70
NtRp3216
(dp3217
g73
(dp3218
g93
g94
ssg82
g3212
sg75
(lp3219
S'last_visit'
p3220
asbag68
(g89
g70
NtRp3221
(dp3222
g73
(dp3223
g100
g101
ssg82
g3212
sg75
(lp3224
S':'
asbag68
(g89
g70
NtRp3225
(dp3226
g73
(dp3227
sg82
g3212
sg75
(lp3228
g68
(g69
g70
NtRp3229
(dp3230
g73
(dp3231
g81
I4
ssg82
g3225
sg75
(lp3232
S'datetime.datetime(2013, 1, 24, 10, 29, 43, 765038)'
p3233
asbasbasbag68
(g84
g70
NtRp3234
(dp3235
g73
(dp3236
sg82
g3164
sg75
(lp3237
g68
(g89
g70
NtRp3238
(dp3239
g73
(dp3240
g93
g94
ssg82
g3234
sg75
(lp3241
S'remember'
p3242
asbag68
(g89
g70
NtRp3243
(dp3244
g73
(dp3245
g100
g101
ssg82
g3234
sg75
(lp3246
S':'
asbag68
(g89
g70
NtRp3247
(dp3248
g73
(dp3249
sg82
g3234
sg75
(lp3250
g68
(g69
g70
NtRp3251
(dp3252
g73
(dp3253
g81
I4
ssg82
g3247
sg75
(lp3254
g111
asbasbasbag68
(g84
g70
NtRp3255
(dp3256
g73
(dp3257
sg82
g3164
sg75
(lp3258
g68
(g89
g70
NtRp3259
(dp3260
g73
(dp3261
g93
g94
ssg82
g3255
sg75
(lp3262
S'user'
p3263
asbag68
(g89
g70
NtRp3264
(dp3265
g73
(dp3266
g100
g101
ssg82
g3255
sg75
(lp3267
S':'
asbag68
(g89
g70
NtRp3268
(dp3269
g73
(dp3270
sg82
g3255
sg75
(lp3271
g68
(g69
g70
NtRp3272
(dp3273
g73
(dp3274
g81
I4
ssg82
g3268
sg75
(lp3275
g68
(g77
g70
NtRp3276
(dp3277
g73
(dp3278
g81
I3
ssg82
Nsg75
(lp3279
g68
(g84
g70
NtRp3280
(dp3281
g73
(dp3282
sg82
g3276
sg75
(lp3283
g68
(g89
g70
NtRp3284
(dp3285
g73
(dp3286
g93
g94
ssg82
g3280
sg75
(lp3287
S'email'
p3288
asbag68
(g89
g70
NtRp3289
(dp3290
g73
(dp3291
g100
g101
ssg82
g3280
sg75
(lp3292
S':'
asbag68
(g89
g70
NtRp3293
(dp3294
g73
(dp3295
sg82
g3280
sg75
(lp3296
g68
(g69
g70
NtRp3297
(dp3298
g73
(dp3299
g81
I3
ssg82
g3293
sg75
(lp3300
S'fndiaz02@gmail.com'
p3301
asbasbasbag68
(g84
g70
NtRp3302
(dp3303
g73
(dp3304
sg82
g3276
sg75
(lp3305
g68
(g89
g70
NtRp3306
(dp3307
g73
(dp3308
g93
g94
ssg82
g3302
sg75
(lp3309
S'first_name'
p3310
asbag68
(g89
g70
NtRp3311
(dp3312
g73
(dp3313
g100
g101
ssg82
g3302
sg75
(lp3314
S':'
asbag68
(g89
g70
NtRp3315
(dp3316
g73
(dp3317
sg82
g3302
sg75
(lp3318
g68
(g69
g70
NtRp3319
(dp3320
g73
(dp3321
g81
I3
ssg82
g3315
sg75
(lp3322
S'Fernando'
p3323
asbasbasbag68
(g84
g70
NtRp3324
(dp3325
g73
(dp3326
sg82
g3276
sg75
(lp3327
g68
(g89
g70
NtRp3328
(dp3329
g73
(dp3330
g93
g94
ssg82
g3324
sg75
(lp3331
S'id'
p3332
asbag68
(g89
g70
NtRp3333
(dp3334
g73
(dp3335
g100
g101
ssg82
g3324
sg75
(lp3336
S':'
asbag68
(g89
g70
NtRp3337
(dp3338
g73
(dp3339
sg82
g3324
sg75
(lp3340
g68
(g69
g70
NtRp3341
(dp3342
g73
(dp3343
g81
I3
ssg82
g3337
sg75
(lp3344
S'1'
asbasbasbag68
(g84
g70
NtRp3345
(dp3346
g73
(dp3347
sg82
g3276
sg75
(lp3348
g68
(g89
g70
NtRp3349
(dp3350
g73
(dp3351
g93
g94
ssg82
g3345
sg75
(lp3352
S'last_name'
p3353
asbag68
(g89
g70
NtRp3354
(dp3355
g73
(dp3356
g100
g101
ssg82
g3345
sg75
(lp3357
S':'
asbag68
(g89
g70
NtRp3358
(dp3359
g73
(dp3360
sg82
g3345
sg75
(lp3361
g68
(g69
g70
NtRp3362
(dp3363
g73
(dp3364
g81
I3
ssg82
g3358
sg75
(lp3365
S'Vieira'
p3366
asbasbasbag68
(g84
g70
NtRp3367
(dp3368
g73
(dp3369
sg82
g3276
sg75
(lp3370
g68
(g89
g70
NtRp3371
(dp3372
g73
(dp3373
g93
g94
ssg82
g3367
sg75
(lp3374
S'registration_id'
p3375
asbag68
(g89
g70
NtRp3376
(dp3377
g73
(dp3378
g100
g101
ssg82
g3367
sg75
(lp3379
S':'
asbag68
(g89
g70
NtRp3380
(dp3381
g73
(dp3382
sg82
g3367
sg75
(lp3383
g68
(g69
g70
NtRp3384
(dp3385
g73
(dp3386
g81
I3
ssg82
g3380
sg75
(lp3387
S''
asbasbasbag68
(g84
g70
NtRp3388
(dp3389
g73
(dp3390
sg82
g3276
sg75
(lp3391
g68
(g89
g70
NtRp3392
(dp3393
g73
(dp3394
g93
g94
ssg82
g3388
sg75
(lp3395
S'registration_key'
p3396
asbag68
(g89
g70
NtRp3397
(dp3398
g73
(dp3399
g100
g101
ssg82
g3388
sg75
(lp3400
S':'
asbag68
(g89
g70
NtRp3401
(dp3402
g73
(dp3403
sg82
g3388
sg75
(lp3404
g68
(g69
g70
NtRp3405
(dp3406
g73
(dp3407
g81
I3
ssg82
g3401
sg75
(lp3408
S''
asbasbasbag68
(g84
g70
NtRp3409
(dp3410
g73
(dp3411
sg82
g3276
sg75
(lp3412
g68
(g89
g70
NtRp3413
(dp3414
g73
(dp3415
g93
g94
ssg82
g3409
sg75
(lp3416
S'reset_password_key'
p3417
asbag68
(g89
g70
NtRp3418
(dp3419
g73
(dp3420
g100
g101
ssg82
g3409
sg75
(lp3421
S':'
asbag68
(g89
g70
NtRp3422
(dp3423
g73
(dp3424
sg82
g3409
sg75
(lp3425
g68
(g69
g70
NtRp3426
(dp3427
g73
(dp3428
g81
I3
ssg82
g3422
sg75
(lp3429
S''
asbasbasbasbasbasbasbag68
(g84
g70
NtRp3430
(dp3431
g73
(dp3432
sg82
g3164
sg75
(lp3433
g68
(g89
g70
NtRp3434
(dp3435
g73
(dp3436
g93
g94
ssg82
g3430
sg75
(lp3437
S'user_groups'
p3438
asbag68
(g89
g70
NtRp3439
(dp3440
g73
(dp3441
g100
g101
ssg82
g3430
sg75
(lp3442
S':'
asbag68
(g89
g70
NtRp3443
(dp3444
g73
(dp3445
sg82
g3430
sg75
(lp3446
g68
(g69
g70
NtRp3447
(dp3448
g73
(dp3449
g81
I4
ssg82
g3443
sg75
(lp3450
g68
(g77
g70
NtRp3451
(dp3452
g73
(dp3453
g81
I3
ssg82
Nsg75
(lp3454
g68
(g84
g70
NtRp3455
(dp3456
g73
(dp3457
sg82
g3451
sg75
(lp3458
g68
(g89
g70
NtRp3459
(dp3460
g73
(dp3461
g93
g94
ssg82
g3455
sg75
(lp3462
S'1'
asbag68
(g89
g70
NtRp3463
(dp3464
g73
(dp3465
g100
g101
ssg82
g3455
sg75
(lp3466
S':'
asbag68
(g89
g70
NtRp3467
(dp3468
g73
(dp3469
sg82
g3455
sg75
(lp3470
g68
(g69
g70
NtRp3471
(dp3472
g73
(dp3473
g81
I3
ssg82
g3467
sg75
(lp3474
S'user_1'
p3475
asbasbasbasbasbasbasbasbasbasbasbag68
(g84
g70
NtRp3476
(dp3477
g73
(dp3478
sg82
g3139
sg75
(lp3479
g68
(g89
g70
NtRp3480
(dp3481
g73
(dp3482
g93
g94
ssg82
g3476
sg75
(lp3483
S'flash'
p3484
asbag68
(g89
g70
NtRp3485
(dp3486
g73
(dp3487
g100
g101
ssg82
g3476
sg75
(lp3488
S':'
asbag68
(g89
g70
NtRp3489
(dp3490
g73
(dp3491
sg82
g3476
sg75
(lp3492
g68
(g69
g70
NtRp3493
(dp3494
g73
(dp3495
g81
I5
ssg82
g3489
sg75
(lp3496
S'None'
p3497
asbasbasbasbasbsS'etype'
p3498
S"<type 'exceptions.SyntaxError'>"
p3499
sS'date'
p3500
S'Thu Jan 24 10:36:19 2013'
p3501
sS'response'
p3502
g68
(g69
g70
NtRp3503
(dp3504
g73
(dp3505
sg75
(lp3506
g68
(g77
g70
NtRp3507
(dp3508
g73
(dp3509
g81
I5
ssg82
Nsg75
(lp3510
g68
(g84
g70
NtRp3511
(dp3512
g73
(dp3513
sg82
g3507
sg75
(lp3514
g68
(g89
g70
NtRp3515
(dp3516
g73
(dp3517
g93
g94
ssg82
g3511
sg75
(lp3518
g179
asbag68
(g89
g70
NtRp3519
(dp3520
g73
(dp3521
g100
g101
ssg82
g3511
sg75
(lp3522
S':'
asbag68
(g89
g70
NtRp3523
(dp3524
g73
(dp3525
sg82
g3511
sg75
(lp3526
g68
(g69
g70
NtRp3527
(dp3528
g73
(dp3529
g81
I5
ssg82
g3523
sg75
(lp3530
S'<cStringIO.StringO object at 0x7f983813a180>'
p3531
asbasbasbag68
(g84
g70
NtRp3532
(dp3533
g73
(dp3534
sg82
g3507
sg75
(lp3535
g68
(g89
g70
NtRp3536
(dp3537
g73
(dp3538
g93
g94
ssg82
g3532
sg75
(lp3539
g267
asbag68
(g89
g70
NtRp3540
(dp3541
g73
(dp3542
g100
g101
ssg82
g3532
sg75
(lp3543
S':'
asbag68
(g89
g70
NtRp3544
(dp3545
g73
(dp3546
sg82
g3532
sg75
(lp3547
g68
(g69
g70
NtRp3548
(dp3549
g73
(dp3550
g81
I5
ssg82
g3544
sg75
(lp3551
g68
(g77
g70
NtRp3552
(dp3553
g73
(dp3554
g81
I4
ssg82
Nsg75
(lp3555
g68
(g84
g70
NtRp3556
(dp3557
g73
(dp3558
sg82
g3552
sg75
(lp3559
g68
(g89
g70
NtRp3560
(dp3561
g73
(dp3562
g93
g94
ssg82
g3556
sg75
(lp3563
S'session_id_projeto'
p3564
asbag68
(g89
g70
NtRp3565
(dp3566
g73
(dp3567
g100
g101
ssg82
g3556
sg75
(lp3568
S':'
asbag68
(g89
g70
NtRp3569
(dp3570
g73
(dp3571
sg82
g3556
sg75
(lp3572
g68
(g69
g70
NtRp3573
(dp3574
g73
(dp3575
g81
I4
ssg82
g3569
sg75
(lp3576
g499
ag68
(g77
g70
NtRp3577
(dp3578
g73
(dp3579
g81
I3
ssg82
Nsg75
(lp3580
g68
(g84
g70
NtRp3581
(dp3582
g73
(dp3583
sg82
g3577
sg75
(lp3584
g68
(g89
g70
NtRp3585
(dp3586
g73
(dp3587
g93
g94
ssg82
g3581
sg75
(lp3588
g318
asbag68
(g89
g70
NtRp3589
(dp3590
g73
(dp3591
g100
g101
ssg82
g3581
sg75
(lp3592
S':'
asbag68
(g89
g70
NtRp3593
(dp3594
g73
(dp3595
sg82
g3581
sg75
(lp3596
g68
(g69
g70
NtRp3597
(dp3598
g73
(dp3599
g81
I3
ssg82
g3593
sg75
(lp3600
S''
asbasbasbag68
(g84
g70
NtRp3601
(dp3602
g73
(dp3603
sg82
g3577
sg75
(lp3604
g68
(g89
g70
NtRp3605
(dp3606
g73
(dp3607
g93
g94
ssg82
g3601
sg75
(lp3608
g339
asbag68
(g89
g70
NtRp3609
(dp3610
g73
(dp3611
g100
g101
ssg82
g3601
sg75
(lp3612
S':'
asbag68
(g89
g70
NtRp3613
(dp3614
g73
(dp3615
sg82
g3601
sg75
(lp3616
g68
(g69
g70
NtRp3617
(dp3618
g73
(dp3619
g81
I3
ssg82
g3613
sg75
(lp3620
S''
asbasbasbag68
(g84
g70
NtRp3621
(dp3622
g73
(dp3623
sg82
g3577
sg75
(lp3624
g68
(g89
g70
NtRp3625
(dp3626
g73
(dp3627
g93
g94
ssg82
g3621
sg75
(lp3628
g360
asbag68
(g89
g70
NtRp3629
(dp3630
g73
(dp3631
g100
g101
ssg82
g3621
sg75
(lp3632
S':'
asbag68
(g89
g70
NtRp3633
(dp3634
g73
(dp3635
sg82
g3621
sg75
(lp3636
g68
(g69
g70
NtRp3637
(dp3638
g73
(dp3639
g81
I3
ssg82
g3633
sg75
(lp3640
S''
asbasbasbag68
(g84
g70
NtRp3641
(dp3642
g73
(dp3643
sg82
g3577
sg75
(lp3644
g68
(g89
g70
NtRp3645
(dp3646
g73
(dp3647
g93
g94
ssg82
g3641
sg75
(lp3648
g381
asbag68
(g89
g70
NtRp3649
(dp3650
g73
(dp3651
g100
g101
ssg82
g3641
sg75
(lp3652
S':'
asbag68
(g89
g70
NtRp3653
(dp3654
g73
(dp3655
sg82
g3641
sg75
(lp3656
g68
(g69
g70
NtRp3657
(dp3658
g73
(dp3659
g81
I3
ssg82
g3653
sg75
(lp3660
S''
asbasbasbag68
(g84
g70
NtRp3661
(dp3662
g73
(dp3663
sg82
g3577
sg75
(lp3664
g68
(g89
g70
NtRp3665
(dp3666
g73
(dp3667
g93
g94
ssg82
g3661
sg75
(lp3668
g402
asbag68
(g89
g70
NtRp3669
(dp3670
g73
(dp3671
g100
g101
ssg82
g3661
sg75
(lp3672
S':'
asbag68
(g89
g70
NtRp3673
(dp3674
g73
(dp3675
sg82
g3661
sg75
(lp3676
g68
(g69
g70
NtRp3677
(dp3678
g73
(dp3679
g81
I3
ssg82
g3673
sg75
(lp3680
S''
asbasbasbag68
(g84
g70
NtRp3681
(dp3682
g73
(dp3683
sg82
g3577
sg75
(lp3684
g68
(g89
g70
NtRp3685
(dp3686
g73
(dp3687
g93
g94
ssg82
g3681
sg75
(lp3688
g423
asbag68
(g89
g70
NtRp3689
(dp3690
g73
(dp3691
g100
g101
ssg82
g3681
sg75
(lp3692
S':'
asbag68
(g89
g70
NtRp3693
(dp3694
g73
(dp3695
sg82
g3681
sg75
(lp3696
g68
(g69
g70
NtRp3697
(dp3698
g73
(dp3699
g81
I3
ssg82
g3693
sg75
(lp3700
S'/'
asbasbasbag68
(g84
g70
NtRp3701
(dp3702
g73
(dp3703
sg82
g3577
sg75
(lp3704
g68
(g89
g70
NtRp3705
(dp3706
g73
(dp3707
g93
g94
ssg82
g3701
sg75
(lp3708
g444
asbag68
(g89
g70
NtRp3709
(dp3710
g73
(dp3711
g100
g101
ssg82
g3701
sg75
(lp3712
S':'
asbag68
(g89
g70
NtRp3713
(dp3714
g73
(dp3715
sg82
g3701
sg75
(lp3716
g68
(g69
g70
NtRp3717
(dp3718
g73
(dp3719
g81
I3
ssg82
g3713
sg75
(lp3720
S''
asbasbasbag68
(g84
g70
NtRp3721
(dp3722
g73
(dp3723
sg82
g3577
sg75
(lp3724
g68
(g89
g70
NtRp3725
(dp3726
g73
(dp3727
g93
g94
ssg82
g3721
sg75
(lp3728
g465
asbag68
(g89
g70
NtRp3729
(dp3730
g73
(dp3731
g100
g101
ssg82
g3721
sg75
(lp3732
S':'
asbag68
(g89
g70
NtRp3733
(dp3734
g73
(dp3735
sg82
g3721
sg75
(lp3736
g68
(g69
g70
NtRp3737
(dp3738
g73
(dp3739
g81
I3
ssg82
g3733
sg75
(lp3740
S''
asbasbasbasbasbasbasbasbasbasbasbag68
(g84
g70
NtRp3741
(dp3742
g73
(dp3743
sg82
g3507
sg75
(lp3744
g68
(g89
g70
NtRp3745
(dp3746
g73
(dp3747
g93
g94
ssg82
g3741
sg75
(lp3748
S'delimiters'
p3749
asbag68
(g89
g70
NtRp3750
(dp3751
g73
(dp3752
g100
g101
ssg82
g3741
sg75
(lp3753
S':'
asbag68
(g89
g70
NtRp3754
(dp3755
g73
(dp3756
sg82
g3741
sg75
(lp3757
g68
(g69
g70
NtRp3758
(dp3759
g73
(dp3760
g81
I5
ssg82
g3754
sg75
(lp3761
g68
(g77
g70
NtRp3762
(dp3763
g73
(dp3764
g81
I4
ssg82
Nsg75
(lp3765
g68
(g84
g70
NtRp3766
(dp3767
g73
(dp3768
sg82
g3762
sg75
(lp3769
g68
(g89
g70
NtRp3770
(dp3771
g73
(dp3772
sg82
g3766
sg75
(lp3773
g68
(g69
g70
NtRp3774
(dp3775
g73
(dp3776
g81
I4
ssg82
g3770
sg75
(lp3777
S'{{'
p3778
asbasbasbag68
(g84
g70
NtRp3779
(dp3780
g73
(dp3781
sg82
g3762
sg75
(lp3782
g68
(g89
g70
NtRp3783
(dp3784
g73
(dp3785
sg82
g3779
sg75
(lp3786
g68
(g69
g70
NtRp3787
(dp3788
g73
(dp3789
g81
I4
ssg82
g3783
sg75
(lp3790
S'}}'
p3791
asbasbasbasbasbasbasbag68
(g84
g70
NtRp3792
(dp3793
g73
(dp3794
sg82
g3507
sg75
(lp3795
g68
(g89
g70
NtRp3796
(dp3797
g73
(dp3798
g93
g94
ssg82
g3792
sg75
(lp3799
S'files'
p3800
asbag68
(g89
g70
NtRp3801
(dp3802
g73
(dp3803
g100
g101
ssg82
g3792
sg75
(lp3804
S':'
asbag68
(g89
g70
NtRp3805
(dp3806
g73
(dp3807
sg82
g3792
sg75
(lp3808
g68
(g69
g70
NtRp3809
(dp3810
g73
(dp3811
g81
I5
ssg82
g3805
sg75
(lp3812
g68
(g77
g70
NtRp3813
(dp3814
g73
(dp3815
g81
I4
ssg82
Nsg75
(lp3816
sbasbasbasbag68
(g84
g70
NtRp3817
(dp3818
g73
(dp3819
sg82
g3507
sg75
(lp3820
g68
(g89
g70
NtRp3821
(dp3822
g73
(dp3823
g93
g94
ssg82
g3817
sg75
(lp3824
S'flash'
p3825
asbag68
(g89
g70
NtRp3826
(dp3827
g73
(dp3828
g100
g101
ssg82
g3817
sg75
(lp3829
S':'
asbag68
(g89
g70
NtRp3830
(dp3831
g73
(dp3832
sg82
g3817
sg75
(lp3833
g68
(g69
g70
NtRp3834
(dp3835
g73
(dp3836
g81
I5
ssg82
g3830
sg75
(lp3837
S''
asbasbasbag68
(g84
g70
NtRp3838
(dp3839
g73
(dp3840
sg82
g3507
sg75
(lp3841
g68
(g89
g70
NtRp3842
(dp3843
g73
(dp3844
g93
g94
ssg82
g3838
sg75
(lp3845
S'generic_patterns'
p3846
asbag68
(g89
g70
NtRp3847
(dp3848
g73
(dp3849
g100
g101
ssg82
g3838
sg75
(lp3850
S':'
asbag68
(g89
g70
NtRp3851
(dp3852
g73
(dp3853
sg82
g3838
sg75
(lp3854
g68
(g69
g70
NtRp3855
(dp3856
g73
(dp3857
g81
I5
ssg82
g3851
sg75
(lp3858
g68
(g77
g70
NtRp3859
(dp3860
g73
(dp3861
g81
I4
ssg82
Nsg75
(lp3862
sbasbasbasbag68
(g84
g70
NtRp3863
(dp3864
g73
(dp3865
sg82
g3507
sg75
(lp3866
g68
(g89
g70
NtRp3867
(dp3868
g73
(dp3869
g93
g94
ssg82
g3863
sg75
(lp3870
S'headers'
p3871
asbag68
(g89
g70
NtRp3872
(dp3873
g73
(dp3874
g100
g101
ssg82
g3863
sg75
(lp3875
S':'
asbag68
(g89
g70
NtRp3876
(dp3877
g73
(dp3878
sg82
g3863
sg75
(lp3879
g68
(g69
g70
NtRp3880
(dp3881
g73
(dp3882
g81
I5
ssg82
g3876
sg75
(lp3883
g68
(g77
g70
NtRp3884
(dp3885
g73
(dp3886
g81
I4
ssg82
Nsg75
(lp3887
g68
(g84
g70
NtRp3888
(dp3889
g73
(dp3890
sg82
g3884
sg75
(lp3891
g68
(g89
g70
NtRp3892
(dp3893
g73
(dp3894
g93
g94
ssg82
g3888
sg75
(lp3895
S'X-Powered-By'
p3896
asbag68
(g89
g70
NtRp3897
(dp3898
g73
(dp3899
g100
g101
ssg82
g3888
sg75
(lp3900
S':'
asbag68
(g89
g70
NtRp3901
(dp3902
g73
(dp3903
sg82
g3888
sg75
(lp3904
g68
(g69
g70
NtRp3905
(dp3906
g73
(dp3907
g81
I4
ssg82
g3901
sg75
(lp3908
S'web2py'
p3909
asbasbasbasbasbasbasbag68
(g84
g70
NtRp3910
(dp3911
g73
(dp3912
sg82
g3507
sg75
(lp3913
g68
(g89
g70
NtRp3914
(dp3915
g73
(dp3916
g93
g94
ssg82
g3910
sg75
(lp3917
S'menu'
p3918
asbag68
(g89
g70
NtRp3919
(dp3920
g73
(dp3921
g100
g101
ssg82
g3910
sg75
(lp3922
S':'
asbag68
(g89
g70
NtRp3923
(dp3924
g73
(dp3925
sg82
g3910
sg75
(lp3926
g68
(g69
g70
NtRp3927
(dp3928
g73
(dp3929
g81
I5
ssg82
g3923
sg75
(lp3930
g68
(g77
g70
NtRp3931
(dp3932
g73
(dp3933
g81
I4
ssg82
Nsg75
(lp3934
sbasbasbasbag68
(g84
g70
NtRp3935
(dp3936
g73
(dp3937
sg82
g3507
sg75
(lp3938
g68
(g89
g70
NtRp3939
(dp3940
g73
(dp3941
g93
g94
ssg82
g3935
sg75
(lp3942
S'meta'
p3943
asbag68
(g89
g70
NtRp3944
(dp3945
g73
(dp3946
g100
g101
ssg82
g3935
sg75
(lp3947
S':'
asbag68
(g89
g70
NtRp3948
(dp3949
g73
(dp3950
sg82
g3935
sg75
(lp3951
g68
(g69
g70
NtRp3952
(dp3953
g73
(dp3954
g81
I5
ssg82
g3948
sg75
(lp3955
g68
(g77
g70
NtRp3956
(dp3957
g73
(dp3958
g81
I4
ssg82
Nsg75
(lp3959
sbasbasbasbag68
(g84
g70
NtRp3960
(dp3961
g73
(dp3962
sg82
g3507
sg75
(lp3963
g68
(g89
g70
NtRp3964
(dp3965
g73
(dp3966
g93
g94
ssg82
g3960
sg75
(lp3967
S'models_to_run'
p3968
asbag68
(g89
g70
NtRp3969
(dp3970
g73
(dp3971
g100
g101
ssg82
g3960
sg75
(lp3972
S':'
asbag68
(g89
g70
NtRp3973
(dp3974
g73
(dp3975
sg82
g3960
sg75
(lp3976
g68
(g69
g70
NtRp3977
(dp3978
g73
(dp3979
g81
I5
ssg82
g3973
sg75
(lp3980
g68
(g77
g70
NtRp3981
(dp3982
g73
(dp3983
g81
I4
ssg82
Nsg75
(lp3984
g68
(g84
g70
NtRp3985
(dp3986
g73
(dp3987
sg82
g3981
sg75
(lp3988
g68
(g89
g70
NtRp3989
(dp3990
g73
(dp3991
sg82
g3985
sg75
(lp3992
g68
(g69
g70
NtRp3993
(dp3994
g73
(dp3995
g81
I4
ssg82
g3989
sg75
(lp3996
S'^\\w+\\.py$'
p3997
asbasbasbag68
(g84
g70
NtRp3998
(dp3999
g73
(dp4000
sg82
g3981
sg75
(lp4001
g68
(g89
g70
NtRp4002
(dp4003
g73
(dp4004
sg82
g3998
sg75
(lp4005
g68
(g69
g70
NtRp4006
(dp4007
g73
(dp4008
g81
I4
ssg82
g4002
sg75
(lp4009
S'^initial/\\w+\\.py$'
p4010
asbasbasbag68
(g84
g70
NtRp4011
(dp4012
g73
(dp4013
sg82
g3981
sg75
(lp4014
g68
(g89
g70
NtRp4015
(dp4016
g73
(dp4017
sg82
g4011
sg75
(lp4018
g68
(g69
g70
NtRp4019
(dp4020
g73
(dp4021
g81
I4
ssg82
g4015
sg75
(lp4022
S'^initial/user/\\w+\\.py$'
p4023
asbasbasbasbasbasbasbag68
(g84
g70
NtRp4024
(dp4025
g73
(dp4026
sg82
g3507
sg75
(lp4027
g68
(g89
g70
NtRp4028
(dp4029
g73
(dp4030
g93
g94
ssg82
g4024
sg75
(lp4031
S'postprocessing'
p4032
asbag68
(g89
g70
NtRp4033
(dp4034
g73
(dp4035
g100
g101
ssg82
g4024
sg75
(lp4036
S':'
asbag68
(g89
g70
NtRp4037
(dp4038
g73
(dp4039
sg82
g4024
sg75
(lp4040
g68
(g69
g70
NtRp4041
(dp4042
g73
(dp4043
g81
I5
ssg82
g4037
sg75
(lp4044
g68
(g77
g70
NtRp4045
(dp4046
g73
(dp4047
g81
I4
ssg82
Nsg75
(lp4048
sbasbasbasbag68
(g84
g70
NtRp4049
(dp4050
g73
(dp4051
sg82
g3507
sg75
(lp4052
g68
(g89
g70
NtRp4053
(dp4054
g73
(dp4055
g93
g94
ssg82
g4049
sg75
(lp4056
S'session_cookie_expires'
p4057
asbag68
(g89
g70
NtRp4058
(dp4059
g73
(dp4060
g100
g101
ssg82
g4049
sg75
(lp4061
S':'
asbag68
(g89
g70
NtRp4062
(dp4063
g73
(dp4064
sg82
g4049
sg75
(lp4065
g68
(g69
g70
NtRp4066
(dp4067
g73
(dp4068
g81
I5
ssg82
g4062
sg75
(lp4069
S'None'
p4070
asbasbasbag68
(g84
g70
NtRp4071
(dp4072
g73
(dp4073
sg82
g3507
sg75
(lp4074
g68
(g89
g70
NtRp4075
(dp4076
g73
(dp4077
g93
g94
ssg82
g4071
sg75
(lp4078
S'session_data_name'
p4079
asbag68
(g89
g70
NtRp4080
(dp4081
g73
(dp4082
g100
g101
ssg82
g4071
sg75
(lp4083
S':'
asbag68
(g89
g70
NtRp4084
(dp4085
g73
(dp4086
sg82
g4071
sg75
(lp4087
g68
(g69
g70
NtRp4088
(dp4089
g73
(dp4090
g81
I5
ssg82
g4084
sg75
(lp4091
S'session_data_projeto'
p4092
asbasbasbag68
(g84
g70
NtRp4093
(dp4094
g73
(dp4095
sg82
g3507
sg75
(lp4096
g68
(g89
g70
NtRp4097
(dp4098
g73
(dp4099
g93
g94
ssg82
g4093
sg75
(lp4100
S'session_file'
p4101
asbag68
(g89
g70
NtRp4102
(dp4103
g73
(dp4104
g100
g101
ssg82
g4093
sg75
(lp4105
S':'
asbag68
(g89
g70
NtRp4106
(dp4107
g73
(dp4108
sg82
g4093
sg75
(lp4109
g68
(g69
g70
NtRp4110
(dp4111
g73
(dp4112
g81
I5
ssg82
g4106
sg75
(lp4113
S"<open file '/var/www/web2py_curso/applications/projeto/sessions/127.0.0.1-e368b264-444a-4dee-8b41-31155ff54a04', mode 'rb+' at 0x7f98381284b0>"
p4114
asbasbasbag68
(g84
g70
NtRp4115
(dp4116
g73
(dp4117
sg82
g3507
sg75
(lp4118
g68
(g89
g70
NtRp4119
(dp4120
g73
(dp4121
g93
g94
ssg82
g4115
sg75
(lp4122
S'session_filename'
p4123
asbag68
(g89
g70
NtRp4124
(dp4125
g73
(dp4126
g100
g101
ssg82
g4115
sg75
(lp4127
S':'
asbag68
(g89
g70
NtRp4128
(dp4129
g73
(dp4130
sg82
g4115
sg75
(lp4131
g68
(g69
g70
NtRp4132
(dp4133
g73
(dp4134
g81
I5
ssg82
g4128
sg75
(lp4135
S'/var/www/web2py_curso/applications/projeto/sessions/127.0.0.1-e368b264-444a-4dee-8b41-31155ff54a04'
p4136
asbasbasbag68
(g84
g70
NtRp4137
(dp4138
g73
(dp4139
sg82
g3507
sg75
(lp4140
g68
(g89
g70
NtRp4141
(dp4142
g73
(dp4143
g93
g94
ssg82
g4137
sg75
(lp4144
S'session_id'
p4145
asbag68
(g89
g70
NtRp4146
(dp4147
g73
(dp4148
g100
g101
ssg82
g4137
sg75
(lp4149
S':'
asbag68
(g89
g70
NtRp4150
(dp4151
g73
(dp4152
sg82
g4137
sg75
(lp4153
g68
(g69
g70
NtRp4154
(dp4155
g73
(dp4156
g81
I5
ssg82
g4150
sg75
(lp4157
g499
asbasbasbag68
(g84
g70
NtRp4158
(dp4159
g73
(dp4160
sg82
g3507
sg75
(lp4161
g68
(g89
g70
NtRp4162
(dp4163
g73
(dp4164
g93
g94
ssg82
g4158
sg75
(lp4165
S'session_id_name'
p4166
asbag68
(g89
g70
NtRp4167
(dp4168
g73
(dp4169
g100
g101
ssg82
g4158
sg75
(lp4170
S':'
asbag68
(g89
g70
NtRp4171
(dp4172
g73
(dp4173
sg82
g4158
sg75
(lp4174
g68
(g69
g70
NtRp4175
(dp4176
g73
(dp4177
g81
I5
ssg82
g4171
sg75
(lp4178
g3564
asbasbasbag68
(g84
g70
NtRp4179
(dp4180
g73
(dp4181
sg82
g3507
sg75
(lp4182
g68
(g89
g70
NtRp4183
(dp4184
g73
(dp4185
g93
g94
ssg82
g4179
sg75
(lp4186
S'session_locked'
p4187
asbag68
(g89
g70
NtRp4188
(dp4189
g73
(dp4190
g100
g101
ssg82
g4179
sg75
(lp4191
S':'
asbag68
(g89
g70
NtRp4192
(dp4193
g73
(dp4194
sg82
g4179
sg75
(lp4195
g68
(g69
g70
NtRp4196
(dp4197
g73
(dp4198
g81
I5
ssg82
g4192
sg75
(lp4199
g1651
asbasbasbag68
(g84
g70
NtRp4200
(dp4201
g73
(dp4202
sg82
g3507
sg75
(lp4203
g68
(g89
g70
NtRp4204
(dp4205
g73
(dp4206
g93
g94
ssg82
g4200
sg75
(lp4207
S'session_new'
p4208
asbag68
(g89
g70
NtRp4209
(dp4210
g73
(dp4211
g100
g101
ssg82
g4200
sg75
(lp4212
S':'
asbag68
(g89
g70
NtRp4213
(dp4214
g73
(dp4215
sg82
g4200
sg75
(lp4216
g68
(g69
g70
NtRp4217
(dp4218
g73
(dp4219
g81
I5
ssg82
g4213
sg75
(lp4220
g111
asbasbasbag68
(g84
g70
NtRp4221
(dp4222
g73
(dp4223
sg82
g3507
sg75
(lp4224
g68
(g89
g70
NtRp4225
(dp4226
g73
(dp4227
g93
g94
ssg82
g4221
sg75
(lp4228
S'session_storage_type'
p4229
asbag68
(g89
g70
NtRp4230
(dp4231
g73
(dp4232
g100
g101
ssg82
g4221
sg75
(lp4233
S':'
asbag68
(g89
g70
NtRp4234
(dp4235
g73
(dp4236
sg82
g4221
sg75
(lp4237
g68
(g69
g70
NtRp4238
(dp4239
g73
(dp4240
g81
I5
ssg82
g4234
sg75
(lp4241
g3081
asbasbasbag68
(g84
g70
NtRp4242
(dp4243
g73
(dp4244
sg82
g3507
sg75
(lp4245
g68
(g89
g70
NtRp4246
(dp4247
g73
(dp4248
g93
g94
ssg82
g4242
sg75
(lp4249
S'status'
p4250
asbag68
(g89
g70
NtRp4251
(dp4252
g73
(dp4253
g100
g101
ssg82
g4242
sg75
(lp4254
S':'
asbag68
(g89
g70
NtRp4255
(dp4256
g73
(dp4257
sg82
g4242
sg75
(lp4258
g68
(g69
g70
NtRp4259
(dp4260
g73
(dp4261
g81
I5
ssg82
g4255
sg75
(lp4262
S'200'
p4263
asbasbasbag68
(g84
g70
NtRp4264
(dp4265
g73
(dp4266
sg82
g3507
sg75
(lp4267
g68
(g89
g70
NtRp4268
(dp4269
g73
(dp4270
g93
g94
ssg82
g4264
sg75
(lp4271
S'view'
p4272
asbag68
(g89
g70
NtRp4273
(dp4274
g73
(dp4275
g100
g101
ssg82
g4264
sg75
(lp4276
S':'
asbag68
(g89
g70
NtRp4277
(dp4278
g73
(dp4279
sg82
g4264
sg75
(lp4280
g68
(g69
g70
NtRp4281
(dp4282
g73
(dp4283
g81
I5
ssg82
g4277
sg75
(lp4284
S'initial/user.html'
p4285
asbasbasbasbasbsS'locals'
p4286
(dp4287
g4
S"'/var/www/web2py_curso/applications/projeto/models/config.py'"
p4288
sg6
S'\'from gluon.storage import Storage\\n\\nconfig = Stor...ield("photo", "upload")\\n]\\n\\nauth.define_tables()\\n\\n\''
p4289
sssS'traceback'
p4290
S'Traceback (most recent call last):\n  File "/var/www/web2py_curso/gluon/restricted.py", line 211, in restricted\n    ccode = compile2(code, layer)\n  File "/var/www/web2py_curso/gluon/restricted.py", line 194, in compile2\n    return compile(code.rstrip().replace(\'\\r\\n\', \'\\n\') + \'\\n\', layer, \'exec\')\n  File "/var/www/web2py_curso/applications/projeto/models/config.py", line 38\n    Field("photo", "upload")\n        ^\nSyntaxError: invalid syntax\n'
p4291
s.