(dp1
S'output'
p2
S"<type 'exceptions.AttributeError'> 'Table' object has no attribute 'post'"
p3
sS'layer'
p4
S'/var/www/web2py_curso/applications/projeto/models/validators.py'
p5
sS'code'
p6
S'\nPost.blog.requires = IS_IN_DB(db, \'blog.id\', "%(title)s")\nPost.title.requires = [IS_NOT_EMPTY(error_message=T("Esta vazio!")),\n                       IS_NOT_IN_DB(db, \'post.title\', error_message=T("title already exists"))]\nPost.category.requires = IS_IN_DB(db, \'category.id\', "%(name)s", multiple=True)\n#Post.category.widget = SQLFORM.widgets.checkboxes.widget\nPost.slug.compute = lambda registro: IS_SLUG()(registro.title)[1]\n\nPost.post.created_on = IS_IN_DB(db, \'auth_user.id\', "%(first_name)s")\n'
p7
sS'snapshot'
p8
(dp9
S'exception'
p10
(dp11
S'__hash__'
p12
S"<method-wrapper '__hash__' of exceptions.AttributeError object>"
p13
sS'__setattr__'
p14
S"<method-wrapper '__setattr__' of exceptions.AttributeError object>"
p15
sS'__reduce_ex__'
p16
S'<built-in method __reduce_ex__ of exceptions.AttributeError object>'
p17
sS'__getslice__'
p18
S"<method-wrapper '__getslice__' of exceptions.AttributeError object>"
p19
sS'__getitem__'
p20
S"<method-wrapper '__getitem__' of exceptions.AttributeError object>"
p21
sS'__setstate__'
p22
S'<built-in method __setstate__ of exceptions.AttributeError object>'
p23
sS'args'
p24
S'("\'Table\' object has no attribute \'post\'",)'
p25
sS'__reduce__'
p26
S'<built-in method __reduce__ of exceptions.AttributeError object>'
p27
sS'__str__'
p28
S"<method-wrapper '__str__' of exceptions.AttributeError object>"
p29
sS'__format__'
p30
S'<built-in method __format__ of exceptions.AttributeError object>'
p31
sS'__getattribute__'
p32
S"<method-wrapper '__getattribute__' of exceptions.AttributeError object>"
p33
sS'__class__'
p34
S"<type 'exceptions.AttributeError'>"
p35
sS'__unicode__'
p36
S'<built-in method __unicode__ of exceptions.AttributeError object>'
p37
sS'__delattr__'
p38
S"<method-wrapper '__delattr__' of exceptions.AttributeError object>"
p39
sS'__subclasshook__'
p40
S'<built-in method __subclasshook__ of type object>'
p41
sS'__repr__'
p42
S"<method-wrapper '__repr__' of exceptions.AttributeError object>"
p43
sS'__dict__'
p44
S'{}'
p45
sS'__sizeof__'
p46
S'<built-in method __sizeof__ of exceptions.AttributeError object>'
p47
sS'__doc__'
p48
S"'Attribute not found.'"
p49
sS'__init__'
p50
S"<method-wrapper '__init__' of exceptions.AttributeError object>"
p51
sS'__new__'
p52
S'<built-in method __new__ of type object>'
p53
ssS'evalue'
p54
S"'Table' object has no attribute 'post'"
p55
sS'request'
p56
ccopy_reg
_reconstructor
p57
(cgluon.html
BEAUTIFY
p58
c__builtin__
object
p59
NtRp60
(dp61
S'attributes'
p62
(dp63
sS'components'
p64
(lp65
g57
(cgluon.html
TABLE
p66
g59
NtRp67
(dp68
g62
(dp69
S'level'
p70
I5
ssS'parent'
p71
Nsg64
(lp72
g57
(cgluon.html
TR
p73
g59
NtRp74
(dp75
g62
(dp76
sg71
g67
sg64
(lp77
g57
(cgluon.html
TD
p78
g59
NtRp79
(dp80
g62
(dp81
S'_style'
p82
S'font-weight:bold;vertical-align:top'
p83
ssg71
g74
sg64
(lp84
S'ajax'
p85
asbag57
(g78
g59
NtRp86
(dp87
g62
(dp88
S'_valign'
p89
S'top'
p90
ssg71
g74
sg64
(lp91
S':'
asbag57
(g78
g59
NtRp92
(dp93
g62
(dp94
sg71
g74
sg64
(lp95
g57
(g58
g59
NtRp96
(dp97
g62
(dp98
g70
I5
ssg71
g92
sg64
(lp99
S'False'
p100
asbasbasbag57
(g73
g59
NtRp101
(dp102
g62
(dp103
sg71
g67
sg64
(lp104
g57
(g78
g59
NtRp105
(dp106
g62
(dp107
g82
g83
ssg71
g101
sg64
(lp108
S'application'
p109
asbag57
(g78
g59
NtRp110
(dp111
g62
(dp112
g89
g90
ssg71
g101
sg64
(lp113
S':'
asbag57
(g78
g59
NtRp114
(dp115
g62
(dp116
sg71
g101
sg64
(lp117
g57
(g58
g59
NtRp118
(dp119
g62
(dp120
g70
I5
ssg71
g114
sg64
(lp121
S'projeto'
p122
asbasbasbag57
(g73
g59
NtRp123
(dp124
g62
(dp125
sg71
g67
sg64
(lp126
g57
(g78
g59
NtRp127
(dp128
g62
(dp129
g82
g83
ssg71
g123
sg64
(lp130
g24
asbag57
(g78
g59
NtRp131
(dp132
g62
(dp133
g89
g90
ssg71
g123
sg64
(lp134
S':'
asbag57
(g78
g59
NtRp135
(dp136
g62
(dp137
sg71
g123
sg64
(lp138
g57
(g58
g59
NtRp139
(dp140
g62
(dp141
g70
I5
ssg71
g135
sg64
(lp142
g57
(g66
g59
NtRp143
(dp144
g62
(dp145
g70
I4
ssg71
Nsg64
(lp146
sbasbasbasbag57
(g73
g59
NtRp147
(dp148
g62
(dp149
sg71
g67
sg64
(lp150
g57
(g78
g59
NtRp151
(dp152
g62
(dp153
g82
g83
ssg71
g147
sg64
(lp154
S'body'
p155
asbag57
(g78
g59
NtRp156
(dp157
g62
(dp158
g89
g90
ssg71
g147
sg64
(lp159
S':'
asbag57
(g78
g59
NtRp160
(dp161
g62
(dp162
sg71
g147
sg64
(lp163
g57
(g58
g59
NtRp164
(dp165
g62
(dp166
g70
I5
ssg71
g160
sg64
(lp167
S'<cStringIO.StringO object at 0x7fb4b841a7a0>'
p168
asbasbasbag57
(g73
g59
NtRp169
(dp170
g62
(dp171
sg71
g67
sg64
(lp172
g57
(g78
g59
NtRp173
(dp174
g62
(dp175
g82
g83
ssg71
g169
sg64
(lp176
S'cid'
p177
asbag57
(g78
g59
NtRp178
(dp179
g62
(dp180
g89
g90
ssg71
g169
sg64
(lp181
S':'
asbag57
(g78
g59
NtRp182
(dp183
g62
(dp184
sg71
g169
sg64
(lp185
g57
(g58
g59
NtRp186
(dp187
g62
(dp188
g70
I5
ssg71
g182
sg64
(lp189
S'None'
p190
asbasbasbag57
(g73
g59
NtRp191
(dp192
g62
(dp193
sg71
g67
sg64
(lp194
g57
(g78
g59
NtRp195
(dp196
g62
(dp197
g82
g83
ssg71
g191
sg64
(lp198
S'client'
p199
asbag57
(g78
g59
NtRp200
(dp201
g62
(dp202
g89
g90
ssg71
g191
sg64
(lp203
S':'
asbag57
(g78
g59
NtRp204
(dp205
g62
(dp206
sg71
g191
sg64
(lp207
g57
(g58
g59
NtRp208
(dp209
g62
(dp210
g70
I5
ssg71
g204
sg64
(lp211
S'127.0.0.1'
p212
asbasbasbag57
(g73
g59
NtRp213
(dp214
g62
(dp215
sg71
g67
sg64
(lp216
g57
(g78
g59
NtRp217
(dp218
g62
(dp219
g82
g83
ssg71
g213
sg64
(lp220
S'controller'
p221
asbag57
(g78
g59
NtRp222
(dp223
g62
(dp224
g89
g90
ssg71
g213
sg64
(lp225
S':'
asbag57
(g78
g59
NtRp226
(dp227
g62
(dp228
sg71
g213
sg64
(lp229
g57
(g58
g59
NtRp230
(dp231
g62
(dp232
g70
I5
ssg71
g226
sg64
(lp233
S'appadmin'
p234
asbasbasbag57
(g73
g59
NtRp235
(dp236
g62
(dp237
sg71
g67
sg64
(lp238
g57
(g78
g59
NtRp239
(dp240
g62
(dp241
g82
g83
ssg71
g235
sg64
(lp242
S'cookies'
p243
asbag57
(g78
g59
NtRp244
(dp245
g62
(dp246
g89
g90
ssg71
g235
sg64
(lp247
S':'
asbag57
(g78
g59
NtRp248
(dp249
g62
(dp250
sg71
g235
sg64
(lp251
g57
(g58
g59
NtRp252
(dp253
g62
(dp254
g70
I5
ssg71
g248
sg64
(lp255
g57
(g66
g59
NtRp256
(dp257
g62
(dp258
g70
I4
ssg71
Nsg64
(lp259
g57
(g73
g59
NtRp260
(dp261
g62
(dp262
sg71
g256
sg64
(lp263
g57
(g78
g59
NtRp264
(dp265
g62
(dp266
g82
g83
ssg71
g260
sg64
(lp267
S'admin'
p268
asbag57
(g78
g59
NtRp269
(dp270
g62
(dp271
g89
g90
ssg71
g260
sg64
(lp272
S':'
asbag57
(g78
g59
NtRp273
(dp274
g62
(dp275
sg71
g260
sg64
(lp276
g57
(g58
g59
NtRp277
(dp278
g62
(dp279
g70
I4
ssg71
g273
sg64
(lp280
S'admin'
p281
ag57
(g66
g59
NtRp282
(dp283
g62
(dp284
g70
I3
ssg71
Nsg64
(lp285
g57
(g73
g59
NtRp286
(dp287
g62
(dp288
sg71
g282
sg64
(lp289
g57
(g78
g59
NtRp290
(dp291
g62
(dp292
g82
g83
ssg71
g286
sg64
(lp293
S'comment'
p294
asbag57
(g78
g59
NtRp295
(dp296
g62
(dp297
g89
g90
ssg71
g286
sg64
(lp298
S':'
asbag57
(g78
g59
NtRp299
(dp300
g62
(dp301
sg71
g286
sg64
(lp302
g57
(g58
g59
NtRp303
(dp304
g62
(dp305
g70
I3
ssg71
g299
sg64
(lp306
S''
asbasbasbag57
(g73
g59
NtRp307
(dp308
g62
(dp309
sg71
g282
sg64
(lp310
g57
(g78
g59
NtRp311
(dp312
g62
(dp313
g82
g83
ssg71
g307
sg64
(lp314
S'domain'
p315
asbag57
(g78
g59
NtRp316
(dp317
g62
(dp318
g89
g90
ssg71
g307
sg64
(lp319
S':'
asbag57
(g78
g59
NtRp320
(dp321
g62
(dp322
sg71
g307
sg64
(lp323
g57
(g58
g59
NtRp324
(dp325
g62
(dp326
g70
I3
ssg71
g320
sg64
(lp327
S''
asbasbasbag57
(g73
g59
NtRp328
(dp329
g62
(dp330
sg71
g282
sg64
(lp331
g57
(g78
g59
NtRp332
(dp333
g62
(dp334
g82
g83
ssg71
g328
sg64
(lp335
S'expires'
p336
asbag57
(g78
g59
NtRp337
(dp338
g62
(dp339
g89
g90
ssg71
g328
sg64
(lp340
S':'
asbag57
(g78
g59
NtRp341
(dp342
g62
(dp343
sg71
g328
sg64
(lp344
g57
(g58
g59
NtRp345
(dp346
g62
(dp347
g70
I3
ssg71
g341
sg64
(lp348
S''
asbasbasbag57
(g73
g59
NtRp349
(dp350
g62
(dp351
sg71
g282
sg64
(lp352
g57
(g78
g59
NtRp353
(dp354
g62
(dp355
g82
g83
ssg71
g349
sg64
(lp356
S'httponly'
p357
asbag57
(g78
g59
NtRp358
(dp359
g62
(dp360
g89
g90
ssg71
g349
sg64
(lp361
S':'
asbag57
(g78
g59
NtRp362
(dp363
g62
(dp364
sg71
g349
sg64
(lp365
g57
(g58
g59
NtRp366
(dp367
g62
(dp368
g70
I3
ssg71
g362
sg64
(lp369
S''
asbasbasbag57
(g73
g59
NtRp370
(dp371
g62
(dp372
sg71
g282
sg64
(lp373
g57
(g78
g59
NtRp374
(dp375
g62
(dp376
g82
g83
ssg71
g370
sg64
(lp377
S'max-age'
p378
asbag57
(g78
g59
NtRp379
(dp380
g62
(dp381
g89
g90
ssg71
g370
sg64
(lp382
S':'
asbag57
(g78
g59
NtRp383
(dp384
g62
(dp385
sg71
g370
sg64
(lp386
g57
(g58
g59
NtRp387
(dp388
g62
(dp389
g70
I3
ssg71
g383
sg64
(lp390
S''
asbasbasbag57
(g73
g59
NtRp391
(dp392
g62
(dp393
sg71
g282
sg64
(lp394
g57
(g78
g59
NtRp395
(dp396
g62
(dp397
g82
g83
ssg71
g391
sg64
(lp398
S'path'
p399
asbag57
(g78
g59
NtRp400
(dp401
g62
(dp402
g89
g90
ssg71
g391
sg64
(lp403
S':'
asbag57
(g78
g59
NtRp404
(dp405
g62
(dp406
sg71
g391
sg64
(lp407
g57
(g58
g59
NtRp408
(dp409
g62
(dp410
g70
I3
ssg71
g404
sg64
(lp411
S''
asbasbasbag57
(g73
g59
NtRp412
(dp413
g62
(dp414
sg71
g282
sg64
(lp415
g57
(g78
g59
NtRp416
(dp417
g62
(dp418
g82
g83
ssg71
g412
sg64
(lp419
S'secure'
p420
asbag57
(g78
g59
NtRp421
(dp422
g62
(dp423
g89
g90
ssg71
g412
sg64
(lp424
S':'
asbag57
(g78
g59
NtRp425
(dp426
g62
(dp427
sg71
g412
sg64
(lp428
g57
(g58
g59
NtRp429
(dp430
g62
(dp431
g70
I3
ssg71
g425
sg64
(lp432
S''
asbasbasbag57
(g73
g59
NtRp433
(dp434
g62
(dp435
sg71
g282
sg64
(lp436
g57
(g78
g59
NtRp437
(dp438
g62
(dp439
g82
g83
ssg71
g433
sg64
(lp440
S'version'
p441
asbag57
(g78
g59
NtRp442
(dp443
g62
(dp444
g89
g90
ssg71
g433
sg64
(lp445
S':'
asbag57
(g78
g59
NtRp446
(dp447
g62
(dp448
sg71
g433
sg64
(lp449
g57
(g58
g59
NtRp450
(dp451
g62
(dp452
g70
I3
ssg71
g446
sg64
(lp453
S''
asbasbasbasbasbasbasbag57
(g73
g59
NtRp454
(dp455
g62
(dp456
sg71
g256
sg64
(lp457
g57
(g78
g59
NtRp458
(dp459
g62
(dp460
g82
g83
ssg71
g454
sg64
(lp461
S'cookie'
p462
asbag57
(g78
g59
NtRp463
(dp464
g62
(dp465
g89
g90
ssg71
g454
sg64
(lp466
S':'
asbag57
(g78
g59
NtRp467
(dp468
g62
(dp469
sg71
g454
sg64
(lp470
g57
(g58
g59
NtRp471
(dp472
g62
(dp473
g70
I4
ssg71
g467
sg64
(lp474
S'1649423593'
p475
ag57
(g66
g59
NtRp476
(dp477
g62
(dp478
g70
I3
ssg71
Nsg64
(lp479
g57
(g73
g59
NtRp480
(dp481
g62
(dp482
sg71
g476
sg64
(lp483
g57
(g78
g59
NtRp484
(dp485
g62
(dp486
g82
g83
ssg71
g480
sg64
(lp487
g294
asbag57
(g78
g59
NtRp488
(dp489
g62
(dp490
g89
g90
ssg71
g480
sg64
(lp491
S':'
asbag57
(g78
g59
NtRp492
(dp493
g62
(dp494
sg71
g480
sg64
(lp495
g57
(g58
g59
NtRp496
(dp497
g62
(dp498
g70
I3
ssg71
g492
sg64
(lp499
S''
asbasbasbag57
(g73
g59
NtRp500
(dp501
g62
(dp502
sg71
g476
sg64
(lp503
g57
(g78
g59
NtRp504
(dp505
g62
(dp506
g82
g83
ssg71
g500
sg64
(lp507
g315
asbag57
(g78
g59
NtRp508
(dp509
g62
(dp510
g89
g90
ssg71
g500
sg64
(lp511
S':'
asbag57
(g78
g59
NtRp512
(dp513
g62
(dp514
sg71
g500
sg64
(lp515
g57
(g58
g59
NtRp516
(dp517
g62
(dp518
g70
I3
ssg71
g512
sg64
(lp519
S''
asbasbasbag57
(g73
g59
NtRp520
(dp521
g62
(dp522
sg71
g476
sg64
(lp523
g57
(g78
g59
NtRp524
(dp525
g62
(dp526
g82
g83
ssg71
g520
sg64
(lp527
g336
asbag57
(g78
g59
NtRp528
(dp529
g62
(dp530
g89
g90
ssg71
g520
sg64
(lp531
S':'
asbag57
(g78
g59
NtRp532
(dp533
g62
(dp534
sg71
g520
sg64
(lp535
g57
(g58
g59
NtRp536
(dp537
g62
(dp538
g70
I3
ssg71
g532
sg64
(lp539
S''
asbasbasbag57
(g73
g59
NtRp540
(dp541
g62
(dp542
sg71
g476
sg64
(lp543
g57
(g78
g59
NtRp544
(dp545
g62
(dp546
g82
g83
ssg71
g540
sg64
(lp547
g357
asbag57
(g78
g59
NtRp548
(dp549
g62
(dp550
g89
g90
ssg71
g540
sg64
(lp551
S':'
asbag57
(g78
g59
NtRp552
(dp553
g62
(dp554
sg71
g540
sg64
(lp555
g57
(g58
g59
NtRp556
(dp557
g62
(dp558
g70
I3
ssg71
g552
sg64
(lp559
S''
asbasbasbag57
(g73
g59
NtRp560
(dp561
g62
(dp562
sg71
g476
sg64
(lp563
g57
(g78
g59
NtRp564
(dp565
g62
(dp566
g82
g83
ssg71
g560
sg64
(lp567
g378
asbag57
(g78
g59
NtRp568
(dp569
g62
(dp570
g89
g90
ssg71
g560
sg64
(lp571
S':'
asbag57
(g78
g59
NtRp572
(dp573
g62
(dp574
sg71
g560
sg64
(lp575
g57
(g58
g59
NtRp576
(dp577
g62
(dp578
g70
I3
ssg71
g572
sg64
(lp579
S''
asbasbasbag57
(g73
g59
NtRp580
(dp581
g62
(dp582
sg71
g476
sg64
(lp583
g57
(g78
g59
NtRp584
(dp585
g62
(dp586
g82
g83
ssg71
g580
sg64
(lp587
g399
asbag57
(g78
g59
NtRp588
(dp589
g62
(dp590
g89
g90
ssg71
g580
sg64
(lp591
S':'
asbag57
(g78
g59
NtRp592
(dp593
g62
(dp594
sg71
g580
sg64
(lp595
g57
(g58
g59
NtRp596
(dp597
g62
(dp598
g70
I3
ssg71
g592
sg64
(lp599
S''
asbasbasbag57
(g73
g59
NtRp600
(dp601
g62
(dp602
sg71
g476
sg64
(lp603
g57
(g78
g59
NtRp604
(dp605
g62
(dp606
g82
g83
ssg71
g600
sg64
(lp607
g420
asbag57
(g78
g59
NtRp608
(dp609
g62
(dp610
g89
g90
ssg71
g600
sg64
(lp611
S':'
asbag57
(g78
g59
NtRp612
(dp613
g62
(dp614
sg71
g600
sg64
(lp615
g57
(g58
g59
NtRp616
(dp617
g62
(dp618
g70
I3
ssg71
g612
sg64
(lp619
S''
asbasbasbag57
(g73
g59
NtRp620
(dp621
g62
(dp622
sg71
g476
sg64
(lp623
g57
(g78
g59
NtRp624
(dp625
g62
(dp626
g82
g83
ssg71
g620
sg64
(lp627
g441
asbag57
(g78
g59
NtRp628
(dp629
g62
(dp630
g89
g90
ssg71
g620
sg64
(lp631
S':'
asbag57
(g78
g59
NtRp632
(dp633
g62
(dp634
sg71
g620
sg64
(lp635
g57
(g58
g59
NtRp636
(dp637
g62
(dp638
g70
I3
ssg71
g632
sg64
(lp639
S''
asbasbasbasbasbasbasbag57
(g73
g59
NtRp640
(dp641
g62
(dp642
sg71
g256
sg64
(lp643
g57
(g78
g59
NtRp644
(dp645
g62
(dp646
g82
g83
ssg71
g640
sg64
(lp647
S'hw_type'
p648
asbag57
(g78
g59
NtRp649
(dp650
g62
(dp651
g89
g90
ssg71
g640
sg64
(lp652
S':'
asbag57
(g78
g59
NtRp653
(dp654
g62
(dp655
sg71
g640
sg64
(lp656
g57
(g58
g59
NtRp657
(dp658
g62
(dp659
g70
I4
ssg71
g653
sg64
(lp660
S'MX60'
p661
ag57
(g66
g59
NtRp662
(dp663
g62
(dp664
g70
I3
ssg71
Nsg64
(lp665
g57
(g73
g59
NtRp666
(dp667
g62
(dp668
sg71
g662
sg64
(lp669
g57
(g78
g59
NtRp670
(dp671
g62
(dp672
g82
g83
ssg71
g666
sg64
(lp673
g294
asbag57
(g78
g59
NtRp674
(dp675
g62
(dp676
g89
g90
ssg71
g666
sg64
(lp677
S':'
asbag57
(g78
g59
NtRp678
(dp679
g62
(dp680
sg71
g666
sg64
(lp681
g57
(g58
g59
NtRp682
(dp683
g62
(dp684
g70
I3
ssg71
g678
sg64
(lp685
S''
asbasbasbag57
(g73
g59
NtRp686
(dp687
g62
(dp688
sg71
g662
sg64
(lp689
g57
(g78
g59
NtRp690
(dp691
g62
(dp692
g82
g83
ssg71
g686
sg64
(lp693
g315
asbag57
(g78
g59
NtRp694
(dp695
g62
(dp696
g89
g90
ssg71
g686
sg64
(lp697
S':'
asbag57
(g78
g59
NtRp698
(dp699
g62
(dp700
sg71
g686
sg64
(lp701
g57
(g58
g59
NtRp702
(dp703
g62
(dp704
g70
I3
ssg71
g698
sg64
(lp705
S''
asbasbasbag57
(g73
g59
NtRp706
(dp707
g62
(dp708
sg71
g662
sg64
(lp709
g57
(g78
g59
NtRp710
(dp711
g62
(dp712
g82
g83
ssg71
g706
sg64
(lp713
g336
asbag57
(g78
g59
NtRp714
(dp715
g62
(dp716
g89
g90
ssg71
g706
sg64
(lp717
S':'
asbag57
(g78
g59
NtRp718
(dp719
g62
(dp720
sg71
g706
sg64
(lp721
g57
(g58
g59
NtRp722
(dp723
g62
(dp724
g70
I3
ssg71
g718
sg64
(lp725
S''
asbasbasbag57
(g73
g59
NtRp726
(dp727
g62
(dp728
sg71
g662
sg64
(lp729
g57
(g78
g59
NtRp730
(dp731
g62
(dp732
g82
g83
ssg71
g726
sg64
(lp733
g357
asbag57
(g78
g59
NtRp734
(dp735
g62
(dp736
g89
g90
ssg71
g726
sg64
(lp737
S':'
asbag57
(g78
g59
NtRp738
(dp739
g62
(dp740
sg71
g726
sg64
(lp741
g57
(g58
g59
NtRp742
(dp743
g62
(dp744
g70
I3
ssg71
g738
sg64
(lp745
S''
asbasbasbag57
(g73
g59
NtRp746
(dp747
g62
(dp748
sg71
g662
sg64
(lp749
g57
(g78
g59
NtRp750
(dp751
g62
(dp752
g82
g83
ssg71
g746
sg64
(lp753
g378
asbag57
(g78
g59
NtRp754
(dp755
g62
(dp756
g89
g90
ssg71
g746
sg64
(lp757
S':'
asbag57
(g78
g59
NtRp758
(dp759
g62
(dp760
sg71
g746
sg64
(lp761
g57
(g58
g59
NtRp762
(dp763
g62
(dp764
g70
I3
ssg71
g758
sg64
(lp765
S''
asbasbasbag57
(g73
g59
NtRp766
(dp767
g62
(dp768
sg71
g662
sg64
(lp769
g57
(g78
g59
NtRp770
(dp771
g62
(dp772
g82
g83
ssg71
g766
sg64
(lp773
g399
asbag57
(g78
g59
NtRp774
(dp775
g62
(dp776
g89
g90
ssg71
g766
sg64
(lp777
S':'
asbag57
(g78
g59
NtRp778
(dp779
g62
(dp780
sg71
g766
sg64
(lp781
g57
(g58
g59
NtRp782
(dp783
g62
(dp784
g70
I3
ssg71
g778
sg64
(lp785
S''
asbasbasbag57
(g73
g59
NtRp786
(dp787
g62
(dp788
sg71
g662
sg64
(lp789
g57
(g78
g59
NtRp790
(dp791
g62
(dp792
g82
g83
ssg71
g786
sg64
(lp793
g420
asbag57
(g78
g59
NtRp794
(dp795
g62
(dp796
g89
g90
ssg71
g786
sg64
(lp797
S':'
asbag57
(g78
g59
NtRp798
(dp799
g62
(dp800
sg71
g786
sg64
(lp801
g57
(g58
g59
NtRp802
(dp803
g62
(dp804
g70
I3
ssg71
g798
sg64
(lp805
S''
asbasbasbag57
(g73
g59
NtRp806
(dp807
g62
(dp808
sg71
g662
sg64
(lp809
g57
(g78
g59
NtRp810
(dp811
g62
(dp812
g82
g83
ssg71
g806
sg64
(lp813
g441
asbag57
(g78
g59
NtRp814
(dp815
g62
(dp816
g89
g90
ssg71
g806
sg64
(lp817
S':'
asbag57
(g78
g59
NtRp818
(dp819
g62
(dp820
sg71
g806
sg64
(lp821
g57
(g58
g59
NtRp822
(dp823
g62
(dp824
g70
I3
ssg71
g818
sg64
(lp825
S''
asbasbasbasbasbasbasbag57
(g73
g59
NtRp826
(dp827
g62
(dp828
sg71
g256
sg64
(lp829
g57
(g78
g59
NtRp830
(dp831
g62
(dp832
g82
g83
ssg71
g826
sg64
(lp833
S'hw_version'
p834
asbag57
(g78
g59
NtRp835
(dp836
g62
(dp837
g89
g90
ssg71
g826
sg64
(lp838
S':'
asbag57
(g78
g59
NtRp839
(dp840
g62
(dp841
sg71
g826
sg64
(lp842
g57
(g58
g59
NtRp843
(dp844
g62
(dp845
g70
I4
ssg71
g839
sg64
(lp846
S'Rev%201.9.82.316'
p847
ag57
(g66
g59
NtRp848
(dp849
g62
(dp850
g70
I3
ssg71
Nsg64
(lp851
g57
(g73
g59
NtRp852
(dp853
g62
(dp854
sg71
g848
sg64
(lp855
g57
(g78
g59
NtRp856
(dp857
g62
(dp858
g82
g83
ssg71
g852
sg64
(lp859
g294
asbag57
(g78
g59
NtRp860
(dp861
g62
(dp862
g89
g90
ssg71
g852
sg64
(lp863
S':'
asbag57
(g78
g59
NtRp864
(dp865
g62
(dp866
sg71
g852
sg64
(lp867
g57
(g58
g59
NtRp868
(dp869
g62
(dp870
g70
I3
ssg71
g864
sg64
(lp871
S''
asbasbasbag57
(g73
g59
NtRp872
(dp873
g62
(dp874
sg71
g848
sg64
(lp875
g57
(g78
g59
NtRp876
(dp877
g62
(dp878
g82
g83
ssg71
g872
sg64
(lp879
g315
asbag57
(g78
g59
NtRp880
(dp881
g62
(dp882
g89
g90
ssg71
g872
sg64
(lp883
S':'
asbag57
(g78
g59
NtRp884
(dp885
g62
(dp886
sg71
g872
sg64
(lp887
g57
(g58
g59
NtRp888
(dp889
g62
(dp890
g70
I3
ssg71
g884
sg64
(lp891
S''
asbasbasbag57
(g73
g59
NtRp892
(dp893
g62
(dp894
sg71
g848
sg64
(lp895
g57
(g78
g59
NtRp896
(dp897
g62
(dp898
g82
g83
ssg71
g892
sg64
(lp899
g336
asbag57
(g78
g59
NtRp900
(dp901
g62
(dp902
g89
g90
ssg71
g892
sg64
(lp903
S':'
asbag57
(g78
g59
NtRp904
(dp905
g62
(dp906
sg71
g892
sg64
(lp907
g57
(g58
g59
NtRp908
(dp909
g62
(dp910
g70
I3
ssg71
g904
sg64
(lp911
S''
asbasbasbag57
(g73
g59
NtRp912
(dp913
g62
(dp914
sg71
g848
sg64
(lp915
g57
(g78
g59
NtRp916
(dp917
g62
(dp918
g82
g83
ssg71
g912
sg64
(lp919
g357
asbag57
(g78
g59
NtRp920
(dp921
g62
(dp922
g89
g90
ssg71
g912
sg64
(lp923
S':'
asbag57
(g78
g59
NtRp924
(dp925
g62
(dp926
sg71
g912
sg64
(lp927
g57
(g58
g59
NtRp928
(dp929
g62
(dp930
g70
I3
ssg71
g924
sg64
(lp931
S''
asbasbasbag57
(g73
g59
NtRp932
(dp933
g62
(dp934
sg71
g848
sg64
(lp935
g57
(g78
g59
NtRp936
(dp937
g62
(dp938
g82
g83
ssg71
g932
sg64
(lp939
g378
asbag57
(g78
g59
NtRp940
(dp941
g62
(dp942
g89
g90
ssg71
g932
sg64
(lp943
S':'
asbag57
(g78
g59
NtRp944
(dp945
g62
(dp946
sg71
g932
sg64
(lp947
g57
(g58
g59
NtRp948
(dp949
g62
(dp950
g70
I3
ssg71
g944
sg64
(lp951
S''
asbasbasbag57
(g73
g59
NtRp952
(dp953
g62
(dp954
sg71
g848
sg64
(lp955
g57
(g78
g59
NtRp956
(dp957
g62
(dp958
g82
g83
ssg71
g952
sg64
(lp959
g399
asbag57
(g78
g59
NtRp960
(dp961
g62
(dp962
g89
g90
ssg71
g952
sg64
(lp963
S':'
asbag57
(g78
g59
NtRp964
(dp965
g62
(dp966
sg71
g952
sg64
(lp967
g57
(g58
g59
NtRp968
(dp969
g62
(dp970
g70
I3
ssg71
g964
sg64
(lp971
S''
asbasbasbag57
(g73
g59
NtRp972
(dp973
g62
(dp974
sg71
g848
sg64
(lp975
g57
(g78
g59
NtRp976
(dp977
g62
(dp978
g82
g83
ssg71
g972
sg64
(lp979
g420
asbag57
(g78
g59
NtRp980
(dp981
g62
(dp982
g89
g90
ssg71
g972
sg64
(lp983
S':'
asbag57
(g78
g59
NtRp984
(dp985
g62
(dp986
sg71
g972
sg64
(lp987
g57
(g58
g59
NtRp988
(dp989
g62
(dp990
g70
I3
ssg71
g984
sg64
(lp991
S''
asbasbasbag57
(g73
g59
NtRp992
(dp993
g62
(dp994
sg71
g848
sg64
(lp995
g57
(g78
g59
NtRp996
(dp997
g62
(dp998
g82
g83
ssg71
g992
sg64
(lp999
g441
asbag57
(g78
g59
NtRp1000
(dp1001
g62
(dp1002
g89
g90
ssg71
g992
sg64
(lp1003
S':'
asbag57
(g78
g59
NtRp1004
(dp1005
g62
(dp1006
sg71
g992
sg64
(lp1007
g57
(g58
g59
NtRp1008
(dp1009
g62
(dp1010
g70
I3
ssg71
g1004
sg64
(lp1011
S''
asbasbasbasbasbasbasbag57
(g73
g59
NtRp1012
(dp1013
g62
(dp1014
sg71
g256
sg64
(lp1015
g57
(g78
g59
NtRp1016
(dp1017
g62
(dp1018
g82
g83
ssg71
g1012
sg64
(lp1019
S'language'
p1020
asbag57
(g78
g59
NtRp1021
(dp1022
g62
(dp1023
g89
g90
ssg71
g1012
sg64
(lp1024
S':'
asbag57
(g78
g59
NtRp1025
(dp1026
g62
(dp1027
sg71
g1012
sg64
(lp1028
g57
(g58
g59
NtRp1029
(dp1030
g62
(dp1031
g70
I4
ssg71
g1025
sg64
(lp1032
S'1'
ag57
(g66
g59
NtRp1033
(dp1034
g62
(dp1035
g70
I3
ssg71
Nsg64
(lp1036
g57
(g73
g59
NtRp1037
(dp1038
g62
(dp1039
sg71
g1033
sg64
(lp1040
g57
(g78
g59
NtRp1041
(dp1042
g62
(dp1043
g82
g83
ssg71
g1037
sg64
(lp1044
g294
asbag57
(g78
g59
NtRp1045
(dp1046
g62
(dp1047
g89
g90
ssg71
g1037
sg64
(lp1048
S':'
asbag57
(g78
g59
NtRp1049
(dp1050
g62
(dp1051
sg71
g1037
sg64
(lp1052
g57
(g58
g59
NtRp1053
(dp1054
g62
(dp1055
g70
I3
ssg71
g1049
sg64
(lp1056
S''
asbasbasbag57
(g73
g59
NtRp1057
(dp1058
g62
(dp1059
sg71
g1033
sg64
(lp1060
g57
(g78
g59
NtRp1061
(dp1062
g62
(dp1063
g82
g83
ssg71
g1057
sg64
(lp1064
g315
asbag57
(g78
g59
NtRp1065
(dp1066
g62
(dp1067
g89
g90
ssg71
g1057
sg64
(lp1068
S':'
asbag57
(g78
g59
NtRp1069
(dp1070
g62
(dp1071
sg71
g1057
sg64
(lp1072
g57
(g58
g59
NtRp1073
(dp1074
g62
(dp1075
g70
I3
ssg71
g1069
sg64
(lp1076
S''
asbasbasbag57
(g73
g59
NtRp1077
(dp1078
g62
(dp1079
sg71
g1033
sg64
(lp1080
g57
(g78
g59
NtRp1081
(dp1082
g62
(dp1083
g82
g83
ssg71
g1077
sg64
(lp1084
g336
asbag57
(g78
g59
NtRp1085
(dp1086
g62
(dp1087
g89
g90
ssg71
g1077
sg64
(lp1088
S':'
asbag57
(g78
g59
NtRp1089
(dp1090
g62
(dp1091
sg71
g1077
sg64
(lp1092
g57
(g58
g59
NtRp1093
(dp1094
g62
(dp1095
g70
I3
ssg71
g1089
sg64
(lp1096
S''
asbasbasbag57
(g73
g59
NtRp1097
(dp1098
g62
(dp1099
sg71
g1033
sg64
(lp1100
g57
(g78
g59
NtRp1101
(dp1102
g62
(dp1103
g82
g83
ssg71
g1097
sg64
(lp1104
g357
asbag57
(g78
g59
NtRp1105
(dp1106
g62
(dp1107
g89
g90
ssg71
g1097
sg64
(lp1108
S':'
asbag57
(g78
g59
NtRp1109
(dp1110
g62
(dp1111
sg71
g1097
sg64
(lp1112
g57
(g58
g59
NtRp1113
(dp1114
g62
(dp1115
g70
I3
ssg71
g1109
sg64
(lp1116
S''
asbasbasbag57
(g73
g59
NtRp1117
(dp1118
g62
(dp1119
sg71
g1033
sg64
(lp1120
g57
(g78
g59
NtRp1121
(dp1122
g62
(dp1123
g82
g83
ssg71
g1117
sg64
(lp1124
g378
asbag57
(g78
g59
NtRp1125
(dp1126
g62
(dp1127
g89
g90
ssg71
g1117
sg64
(lp1128
S':'
asbag57
(g78
g59
NtRp1129
(dp1130
g62
(dp1131
sg71
g1117
sg64
(lp1132
g57
(g58
g59
NtRp1133
(dp1134
g62
(dp1135
g70
I3
ssg71
g1129
sg64
(lp1136
S''
asbasbasbag57
(g73
g59
NtRp1137
(dp1138
g62
(dp1139
sg71
g1033
sg64
(lp1140
g57
(g78
g59
NtRp1141
(dp1142
g62
(dp1143
g82
g83
ssg71
g1137
sg64
(lp1144
g399
asbag57
(g78
g59
NtRp1145
(dp1146
g62
(dp1147
g89
g90
ssg71
g1137
sg64
(lp1148
S':'
asbag57
(g78
g59
NtRp1149
(dp1150
g62
(dp1151
sg71
g1137
sg64
(lp1152
g57
(g58
g59
NtRp1153
(dp1154
g62
(dp1155
g70
I3
ssg71
g1149
sg64
(lp1156
S''
asbasbasbag57
(g73
g59
NtRp1157
(dp1158
g62
(dp1159
sg71
g1033
sg64
(lp1160
g57
(g78
g59
NtRp1161
(dp1162
g62
(dp1163
g82
g83
ssg71
g1157
sg64
(lp1164
g420
asbag57
(g78
g59
NtRp1165
(dp1166
g62
(dp1167
g89
g90
ssg71
g1157
sg64
(lp1168
S':'
asbag57
(g78
g59
NtRp1169
(dp1170
g62
(dp1171
sg71
g1157
sg64
(lp1172
g57
(g58
g59
NtRp1173
(dp1174
g62
(dp1175
g70
I3
ssg71
g1169
sg64
(lp1176
S''
asbasbasbag57
(g73
g59
NtRp1177
(dp1178
g62
(dp1179
sg71
g1033
sg64
(lp1180
g57
(g78
g59
NtRp1181
(dp1182
g62
(dp1183
g82
g83
ssg71
g1177
sg64
(lp1184
g441
asbag57
(g78
g59
NtRp1185
(dp1186
g62
(dp1187
g89
g90
ssg71
g1177
sg64
(lp1188
S':'
asbag57
(g78
g59
NtRp1189
(dp1190
g62
(dp1191
sg71
g1177
sg64
(lp1192
g57
(g58
g59
NtRp1193
(dp1194
g62
(dp1195
g70
I3
ssg71
g1189
sg64
(lp1196
S''
asbasbasbasbasbasbasbag57
(g73
g59
NtRp1197
(dp1198
g62
(dp1199
sg71
g256
sg64
(lp1200
g57
(g78
g59
NtRp1201
(dp1202
g62
(dp1203
g82
g83
ssg71
g1197
sg64
(lp1204
S'model'
p1205
asbag57
(g78
g59
NtRp1206
(dp1207
g62
(dp1208
g89
g90
ssg71
g1197
sg64
(lp1209
S':'
asbag57
(g78
g59
NtRp1210
(dp1211
g62
(dp1212
sg71
g1197
sg64
(lp1213
g57
(g58
g59
NtRp1214
(dp1215
g62
(dp1216
g70
I4
ssg71
g1210
sg64
(lp1217
S'MX'
p1218
ag57
(g66
g59
NtRp1219
(dp1220
g62
(dp1221
g70
I3
ssg71
Nsg64
(lp1222
g57
(g73
g59
NtRp1223
(dp1224
g62
(dp1225
sg71
g1219
sg64
(lp1226
g57
(g78
g59
NtRp1227
(dp1228
g62
(dp1229
g82
g83
ssg71
g1223
sg64
(lp1230
g294
asbag57
(g78
g59
NtRp1231
(dp1232
g62
(dp1233
g89
g90
ssg71
g1223
sg64
(lp1234
S':'
asbag57
(g78
g59
NtRp1235
(dp1236
g62
(dp1237
sg71
g1223
sg64
(lp1238
g57
(g58
g59
NtRp1239
(dp1240
g62
(dp1241
g70
I3
ssg71
g1235
sg64
(lp1242
S''
asbasbasbag57
(g73
g59
NtRp1243
(dp1244
g62
(dp1245
sg71
g1219
sg64
(lp1246
g57
(g78
g59
NtRp1247
(dp1248
g62
(dp1249
g82
g83
ssg71
g1243
sg64
(lp1250
g315
asbag57
(g78
g59
NtRp1251
(dp1252
g62
(dp1253
g89
g90
ssg71
g1243
sg64
(lp1254
S':'
asbag57
(g78
g59
NtRp1255
(dp1256
g62
(dp1257
sg71
g1243
sg64
(lp1258
g57
(g58
g59
NtRp1259
(dp1260
g62
(dp1261
g70
I3
ssg71
g1255
sg64
(lp1262
S''
asbasbasbag57
(g73
g59
NtRp1263
(dp1264
g62
(dp1265
sg71
g1219
sg64
(lp1266
g57
(g78
g59
NtRp1267
(dp1268
g62
(dp1269
g82
g83
ssg71
g1263
sg64
(lp1270
g336
asbag57
(g78
g59
NtRp1271
(dp1272
g62
(dp1273
g89
g90
ssg71
g1263
sg64
(lp1274
S':'
asbag57
(g78
g59
NtRp1275
(dp1276
g62
(dp1277
sg71
g1263
sg64
(lp1278
g57
(g58
g59
NtRp1279
(dp1280
g62
(dp1281
g70
I3
ssg71
g1275
sg64
(lp1282
S''
asbasbasbag57
(g73
g59
NtRp1283
(dp1284
g62
(dp1285
sg71
g1219
sg64
(lp1286
g57
(g78
g59
NtRp1287
(dp1288
g62
(dp1289
g82
g83
ssg71
g1283
sg64
(lp1290
g357
asbag57
(g78
g59
NtRp1291
(dp1292
g62
(dp1293
g89
g90
ssg71
g1283
sg64
(lp1294
S':'
asbag57
(g78
g59
NtRp1295
(dp1296
g62
(dp1297
sg71
g1283
sg64
(lp1298
g57
(g58
g59
NtRp1299
(dp1300
g62
(dp1301
g70
I3
ssg71
g1295
sg64
(lp1302
S''
asbasbasbag57
(g73
g59
NtRp1303
(dp1304
g62
(dp1305
sg71
g1219
sg64
(lp1306
g57
(g78
g59
NtRp1307
(dp1308
g62
(dp1309
g82
g83
ssg71
g1303
sg64
(lp1310
g378
asbag57
(g78
g59
NtRp1311
(dp1312
g62
(dp1313
g89
g90
ssg71
g1303
sg64
(lp1314
S':'
asbag57
(g78
g59
NtRp1315
(dp1316
g62
(dp1317
sg71
g1303
sg64
(lp1318
g57
(g58
g59
NtRp1319
(dp1320
g62
(dp1321
g70
I3
ssg71
g1315
sg64
(lp1322
S''
asbasbasbag57
(g73
g59
NtRp1323
(dp1324
g62
(dp1325
sg71
g1219
sg64
(lp1326
g57
(g78
g59
NtRp1327
(dp1328
g62
(dp1329
g82
g83
ssg71
g1323
sg64
(lp1330
g399
asbag57
(g78
g59
NtRp1331
(dp1332
g62
(dp1333
g89
g90
ssg71
g1323
sg64
(lp1334
S':'
asbag57
(g78
g59
NtRp1335
(dp1336
g62
(dp1337
sg71
g1323
sg64
(lp1338
g57
(g58
g59
NtRp1339
(dp1340
g62
(dp1341
g70
I3
ssg71
g1335
sg64
(lp1342
S''
asbasbasbag57
(g73
g59
NtRp1343
(dp1344
g62
(dp1345
sg71
g1219
sg64
(lp1346
g57
(g78
g59
NtRp1347
(dp1348
g62
(dp1349
g82
g83
ssg71
g1343
sg64
(lp1350
g420
asbag57
(g78
g59
NtRp1351
(dp1352
g62
(dp1353
g89
g90
ssg71
g1343
sg64
(lp1354
S':'
asbag57
(g78
g59
NtRp1355
(dp1356
g62
(dp1357
sg71
g1343
sg64
(lp1358
g57
(g58
g59
NtRp1359
(dp1360
g62
(dp1361
g70
I3
ssg71
g1355
sg64
(lp1362
S''
asbasbasbag57
(g73
g59
NtRp1363
(dp1364
g62
(dp1365
sg71
g1219
sg64
(lp1366
g57
(g78
g59
NtRp1367
(dp1368
g62
(dp1369
g82
g83
ssg71
g1363
sg64
(lp1370
g441
asbag57
(g78
g59
NtRp1371
(dp1372
g62
(dp1373
g89
g90
ssg71
g1363
sg64
(lp1374
S':'
asbag57
(g78
g59
NtRp1375
(dp1376
g62
(dp1377
sg71
g1363
sg64
(lp1378
g57
(g58
g59
NtRp1379
(dp1380
g62
(dp1381
g70
I3
ssg71
g1375
sg64
(lp1382
S''
asbasbasbasbasbasbasbag57
(g73
g59
NtRp1383
(dp1384
g62
(dp1385
sg71
g256
sg64
(lp1386
g57
(g78
g59
NtRp1387
(dp1388
g62
(dp1389
g82
g83
ssg71
g1383
sg64
(lp1390
S'nr'
p1391
asbag57
(g78
g59
NtRp1392
(dp1393
g62
(dp1394
g89
g90
ssg71
g1383
sg64
(lp1395
S':'
asbag57
(g78
g59
NtRp1396
(dp1397
g62
(dp1398
sg71
g1383
sg64
(lp1399
g57
(g58
g59
NtRp1400
(dp1401
g62
(dp1402
g70
I4
ssg71
g1396
sg64
(lp1403
S'1'
ag57
(g66
g59
NtRp1404
(dp1405
g62
(dp1406
g70
I3
ssg71
Nsg64
(lp1407
g57
(g73
g59
NtRp1408
(dp1409
g62
(dp1410
sg71
g1404
sg64
(lp1411
g57
(g78
g59
NtRp1412
(dp1413
g62
(dp1414
g82
g83
ssg71
g1408
sg64
(lp1415
g294
asbag57
(g78
g59
NtRp1416
(dp1417
g62
(dp1418
g89
g90
ssg71
g1408
sg64
(lp1419
S':'
asbag57
(g78
g59
NtRp1420
(dp1421
g62
(dp1422
sg71
g1408
sg64
(lp1423
g57
(g58
g59
NtRp1424
(dp1425
g62
(dp1426
g70
I3
ssg71
g1420
sg64
(lp1427
S''
asbasbasbag57
(g73
g59
NtRp1428
(dp1429
g62
(dp1430
sg71
g1404
sg64
(lp1431
g57
(g78
g59
NtRp1432
(dp1433
g62
(dp1434
g82
g83
ssg71
g1428
sg64
(lp1435
g315
asbag57
(g78
g59
NtRp1436
(dp1437
g62
(dp1438
g89
g90
ssg71
g1428
sg64
(lp1439
S':'
asbag57
(g78
g59
NtRp1440
(dp1441
g62
(dp1442
sg71
g1428
sg64
(lp1443
g57
(g58
g59
NtRp1444
(dp1445
g62
(dp1446
g70
I3
ssg71
g1440
sg64
(lp1447
S''
asbasbasbag57
(g73
g59
NtRp1448
(dp1449
g62
(dp1450
sg71
g1404
sg64
(lp1451
g57
(g78
g59
NtRp1452
(dp1453
g62
(dp1454
g82
g83
ssg71
g1448
sg64
(lp1455
g336
asbag57
(g78
g59
NtRp1456
(dp1457
g62
(dp1458
g89
g90
ssg71
g1448
sg64
(lp1459
S':'
asbag57
(g78
g59
NtRp1460
(dp1461
g62
(dp1462
sg71
g1448
sg64
(lp1463
g57
(g58
g59
NtRp1464
(dp1465
g62
(dp1466
g70
I3
ssg71
g1460
sg64
(lp1467
S''
asbasbasbag57
(g73
g59
NtRp1468
(dp1469
g62
(dp1470
sg71
g1404
sg64
(lp1471
g57
(g78
g59
NtRp1472
(dp1473
g62
(dp1474
g82
g83
ssg71
g1468
sg64
(lp1475
g357
asbag57
(g78
g59
NtRp1476
(dp1477
g62
(dp1478
g89
g90
ssg71
g1468
sg64
(lp1479
S':'
asbag57
(g78
g59
NtRp1480
(dp1481
g62
(dp1482
sg71
g1468
sg64
(lp1483
g57
(g58
g59
NtRp1484
(dp1485
g62
(dp1486
g70
I3
ssg71
g1480
sg64
(lp1487
S''
asbasbasbag57
(g73
g59
NtRp1488
(dp1489
g62
(dp1490
sg71
g1404
sg64
(lp1491
g57
(g78
g59
NtRp1492
(dp1493
g62
(dp1494
g82
g83
ssg71
g1488
sg64
(lp1495
g378
asbag57
(g78
g59
NtRp1496
(dp1497
g62
(dp1498
g89
g90
ssg71
g1488
sg64
(lp1499
S':'
asbag57
(g78
g59
NtRp1500
(dp1501
g62
(dp1502
sg71
g1488
sg64
(lp1503
g57
(g58
g59
NtRp1504
(dp1505
g62
(dp1506
g70
I3
ssg71
g1500
sg64
(lp1507
S''
asbasbasbag57
(g73
g59
NtRp1508
(dp1509
g62
(dp1510
sg71
g1404
sg64
(lp1511
g57
(g78
g59
NtRp1512
(dp1513
g62
(dp1514
g82
g83
ssg71
g1508
sg64
(lp1515
g399
asbag57
(g78
g59
NtRp1516
(dp1517
g62
(dp1518
g89
g90
ssg71
g1508
sg64
(lp1519
S':'
asbag57
(g78
g59
NtRp1520
(dp1521
g62
(dp1522
sg71
g1508
sg64
(lp1523
g57
(g58
g59
NtRp1524
(dp1525
g62
(dp1526
g70
I3
ssg71
g1520
sg64
(lp1527
S''
asbasbasbag57
(g73
g59
NtRp1528
(dp1529
g62
(dp1530
sg71
g1404
sg64
(lp1531
g57
(g78
g59
NtRp1532
(dp1533
g62
(dp1534
g82
g83
ssg71
g1528
sg64
(lp1535
g420
asbag57
(g78
g59
NtRp1536
(dp1537
g62
(dp1538
g89
g90
ssg71
g1528
sg64
(lp1539
S':'
asbag57
(g78
g59
NtRp1540
(dp1541
g62
(dp1542
sg71
g1528
sg64
(lp1543
g57
(g58
g59
NtRp1544
(dp1545
g62
(dp1546
g70
I3
ssg71
g1540
sg64
(lp1547
S''
asbasbasbag57
(g73
g59
NtRp1548
(dp1549
g62
(dp1550
sg71
g1404
sg64
(lp1551
g57
(g78
g59
NtRp1552
(dp1553
g62
(dp1554
g82
g83
ssg71
g1548
sg64
(lp1555
g441
asbag57
(g78
g59
NtRp1556
(dp1557
g62
(dp1558
g89
g90
ssg71
g1548
sg64
(lp1559
S':'
asbag57
(g78
g59
NtRp1560
(dp1561
g62
(dp1562
sg71
g1548
sg64
(lp1563
g57
(g58
g59
NtRp1564
(dp1565
g62
(dp1566
g70
I3
ssg71
g1560
sg64
(lp1567
S''
asbasbasbasbasbasbasbag57
(g73
g59
NtRp1568
(dp1569
g62
(dp1570
sg71
g256
sg64
(lp1571
g57
(g78
g59
NtRp1572
(dp1573
g62
(dp1574
g82
g83
ssg71
g1568
sg64
(lp1575
S'session_id_admin'
p1576
asbag57
(g78
g59
NtRp1577
(dp1578
g62
(dp1579
g89
g90
ssg71
g1568
sg64
(lp1580
S':'
asbag57
(g78
g59
NtRp1581
(dp1582
g62
(dp1583
sg71
g1568
sg64
(lp1584
g57
(g58
g59
NtRp1585
(dp1586
g62
(dp1587
g70
I4
ssg71
g1581
sg64
(lp1588
S'127.0.0.1-2137e5fc-73b0-4fcd-be7b-d2f46e1918b1'
p1589
ag57
(g66
g59
NtRp1590
(dp1591
g62
(dp1592
g70
I3
ssg71
Nsg64
(lp1593
g57
(g73
g59
NtRp1594
(dp1595
g62
(dp1596
sg71
g1590
sg64
(lp1597
g57
(g78
g59
NtRp1598
(dp1599
g62
(dp1600
g82
g83
ssg71
g1594
sg64
(lp1601
g294
asbag57
(g78
g59
NtRp1602
(dp1603
g62
(dp1604
g89
g90
ssg71
g1594
sg64
(lp1605
S':'
asbag57
(g78
g59
NtRp1606
(dp1607
g62
(dp1608
sg71
g1594
sg64
(lp1609
g57
(g58
g59
NtRp1610
(dp1611
g62
(dp1612
g70
I3
ssg71
g1606
sg64
(lp1613
S''
asbasbasbag57
(g73
g59
NtRp1614
(dp1615
g62
(dp1616
sg71
g1590
sg64
(lp1617
g57
(g78
g59
NtRp1618
(dp1619
g62
(dp1620
g82
g83
ssg71
g1614
sg64
(lp1621
g315
asbag57
(g78
g59
NtRp1622
(dp1623
g62
(dp1624
g89
g90
ssg71
g1614
sg64
(lp1625
S':'
asbag57
(g78
g59
NtRp1626
(dp1627
g62
(dp1628
sg71
g1614
sg64
(lp1629
g57
(g58
g59
NtRp1630
(dp1631
g62
(dp1632
g70
I3
ssg71
g1626
sg64
(lp1633
S''
asbasbasbag57
(g73
g59
NtRp1634
(dp1635
g62
(dp1636
sg71
g1590
sg64
(lp1637
g57
(g78
g59
NtRp1638
(dp1639
g62
(dp1640
g82
g83
ssg71
g1634
sg64
(lp1641
g336
asbag57
(g78
g59
NtRp1642
(dp1643
g62
(dp1644
g89
g90
ssg71
g1634
sg64
(lp1645
S':'
asbag57
(g78
g59
NtRp1646
(dp1647
g62
(dp1648
sg71
g1634
sg64
(lp1649
g57
(g58
g59
NtRp1650
(dp1651
g62
(dp1652
g70
I3
ssg71
g1646
sg64
(lp1653
S''
asbasbasbag57
(g73
g59
NtRp1654
(dp1655
g62
(dp1656
sg71
g1590
sg64
(lp1657
g57
(g78
g59
NtRp1658
(dp1659
g62
(dp1660
g82
g83
ssg71
g1654
sg64
(lp1661
g357
asbag57
(g78
g59
NtRp1662
(dp1663
g62
(dp1664
g89
g90
ssg71
g1654
sg64
(lp1665
S':'
asbag57
(g78
g59
NtRp1666
(dp1667
g62
(dp1668
sg71
g1654
sg64
(lp1669
g57
(g58
g59
NtRp1670
(dp1671
g62
(dp1672
g70
I3
ssg71
g1666
sg64
(lp1673
S''
asbasbasbag57
(g73
g59
NtRp1674
(dp1675
g62
(dp1676
sg71
g1590
sg64
(lp1677
g57
(g78
g59
NtRp1678
(dp1679
g62
(dp1680
g82
g83
ssg71
g1674
sg64
(lp1681
g378
asbag57
(g78
g59
NtRp1682
(dp1683
g62
(dp1684
g89
g90
ssg71
g1674
sg64
(lp1685
S':'
asbag57
(g78
g59
NtRp1686
(dp1687
g62
(dp1688
sg71
g1674
sg64
(lp1689
g57
(g58
g59
NtRp1690
(dp1691
g62
(dp1692
g70
I3
ssg71
g1686
sg64
(lp1693
S''
asbasbasbag57
(g73
g59
NtRp1694
(dp1695
g62
(dp1696
sg71
g1590
sg64
(lp1697
g57
(g78
g59
NtRp1698
(dp1699
g62
(dp1700
g82
g83
ssg71
g1694
sg64
(lp1701
g399
asbag57
(g78
g59
NtRp1702
(dp1703
g62
(dp1704
g89
g90
ssg71
g1694
sg64
(lp1705
S':'
asbag57
(g78
g59
NtRp1706
(dp1707
g62
(dp1708
sg71
g1694
sg64
(lp1709
g57
(g58
g59
NtRp1710
(dp1711
g62
(dp1712
g70
I3
ssg71
g1706
sg64
(lp1713
S''
asbasbasbag57
(g73
g59
NtRp1714
(dp1715
g62
(dp1716
sg71
g1590
sg64
(lp1717
g57
(g78
g59
NtRp1718
(dp1719
g62
(dp1720
g82
g83
ssg71
g1714
sg64
(lp1721
g420
asbag57
(g78
g59
NtRp1722
(dp1723
g62
(dp1724
g89
g90
ssg71
g1714
sg64
(lp1725
S':'
asbag57
(g78
g59
NtRp1726
(dp1727
g62
(dp1728
sg71
g1714
sg64
(lp1729
g57
(g58
g59
NtRp1730
(dp1731
g62
(dp1732
g70
I3
ssg71
g1726
sg64
(lp1733
S''
asbasbasbag57
(g73
g59
NtRp1734
(dp1735
g62
(dp1736
sg71
g1590
sg64
(lp1737
g57
(g78
g59
NtRp1738
(dp1739
g62
(dp1740
g82
g83
ssg71
g1734
sg64
(lp1741
g441
asbag57
(g78
g59
NtRp1742
(dp1743
g62
(dp1744
g89
g90
ssg71
g1734
sg64
(lp1745
S':'
asbag57
(g78
g59
NtRp1746
(dp1747
g62
(dp1748
sg71
g1734
sg64
(lp1749
g57
(g58
g59
NtRp1750
(dp1751
g62
(dp1752
g70
I3
ssg71
g1746
sg64
(lp1753
S''
asbasbasbasbasbasbasbag57
(g73
g59
NtRp1754
(dp1755
g62
(dp1756
sg71
g256
sg64
(lp1757
g57
(g78
g59
NtRp1758
(dp1759
g62
(dp1760
g82
g83
ssg71
g1754
sg64
(lp1761
S'session_id_projeto'
p1762
asbag57
(g78
g59
NtRp1763
(dp1764
g62
(dp1765
g89
g90
ssg71
g1754
sg64
(lp1766
S':'
asbag57
(g78
g59
NtRp1767
(dp1768
g62
(dp1769
sg71
g1754
sg64
(lp1770
g57
(g58
g59
NtRp1771
(dp1772
g62
(dp1773
g70
I4
ssg71
g1767
sg64
(lp1774
S'127.0.0.1-b8c6a9b4-3ce7-4a48-b40d-12b6c8d18d0a'
p1775
ag57
(g66
g59
NtRp1776
(dp1777
g62
(dp1778
g70
I3
ssg71
Nsg64
(lp1779
g57
(g73
g59
NtRp1780
(dp1781
g62
(dp1782
sg71
g1776
sg64
(lp1783
g57
(g78
g59
NtRp1784
(dp1785
g62
(dp1786
g82
g83
ssg71
g1780
sg64
(lp1787
g294
asbag57
(g78
g59
NtRp1788
(dp1789
g62
(dp1790
g89
g90
ssg71
g1780
sg64
(lp1791
S':'
asbag57
(g78
g59
NtRp1792
(dp1793
g62
(dp1794
sg71
g1780
sg64
(lp1795
g57
(g58
g59
NtRp1796
(dp1797
g62
(dp1798
g70
I3
ssg71
g1792
sg64
(lp1799
S''
asbasbasbag57
(g73
g59
NtRp1800
(dp1801
g62
(dp1802
sg71
g1776
sg64
(lp1803
g57
(g78
g59
NtRp1804
(dp1805
g62
(dp1806
g82
g83
ssg71
g1800
sg64
(lp1807
g315
asbag57
(g78
g59
NtRp1808
(dp1809
g62
(dp1810
g89
g90
ssg71
g1800
sg64
(lp1811
S':'
asbag57
(g78
g59
NtRp1812
(dp1813
g62
(dp1814
sg71
g1800
sg64
(lp1815
g57
(g58
g59
NtRp1816
(dp1817
g62
(dp1818
g70
I3
ssg71
g1812
sg64
(lp1819
S''
asbasbasbag57
(g73
g59
NtRp1820
(dp1821
g62
(dp1822
sg71
g1776
sg64
(lp1823
g57
(g78
g59
NtRp1824
(dp1825
g62
(dp1826
g82
g83
ssg71
g1820
sg64
(lp1827
g336
asbag57
(g78
g59
NtRp1828
(dp1829
g62
(dp1830
g89
g90
ssg71
g1820
sg64
(lp1831
S':'
asbag57
(g78
g59
NtRp1832
(dp1833
g62
(dp1834
sg71
g1820
sg64
(lp1835
g57
(g58
g59
NtRp1836
(dp1837
g62
(dp1838
g70
I3
ssg71
g1832
sg64
(lp1839
S''
asbasbasbag57
(g73
g59
NtRp1840
(dp1841
g62
(dp1842
sg71
g1776
sg64
(lp1843
g57
(g78
g59
NtRp1844
(dp1845
g62
(dp1846
g82
g83
ssg71
g1840
sg64
(lp1847
g357
asbag57
(g78
g59
NtRp1848
(dp1849
g62
(dp1850
g89
g90
ssg71
g1840
sg64
(lp1851
S':'
asbag57
(g78
g59
NtRp1852
(dp1853
g62
(dp1854
sg71
g1840
sg64
(lp1855
g57
(g58
g59
NtRp1856
(dp1857
g62
(dp1858
g70
I3
ssg71
g1852
sg64
(lp1859
S''
asbasbasbag57
(g73
g59
NtRp1860
(dp1861
g62
(dp1862
sg71
g1776
sg64
(lp1863
g57
(g78
g59
NtRp1864
(dp1865
g62
(dp1866
g82
g83
ssg71
g1860
sg64
(lp1867
g378
asbag57
(g78
g59
NtRp1868
(dp1869
g62
(dp1870
g89
g90
ssg71
g1860
sg64
(lp1871
S':'
asbag57
(g78
g59
NtRp1872
(dp1873
g62
(dp1874
sg71
g1860
sg64
(lp1875
g57
(g58
g59
NtRp1876
(dp1877
g62
(dp1878
g70
I3
ssg71
g1872
sg64
(lp1879
S''
asbasbasbag57
(g73
g59
NtRp1880
(dp1881
g62
(dp1882
sg71
g1776
sg64
(lp1883
g57
(g78
g59
NtRp1884
(dp1885
g62
(dp1886
g82
g83
ssg71
g1880
sg64
(lp1887
g399
asbag57
(g78
g59
NtRp1888
(dp1889
g62
(dp1890
g89
g90
ssg71
g1880
sg64
(lp1891
S':'
asbag57
(g78
g59
NtRp1892
(dp1893
g62
(dp1894
sg71
g1880
sg64
(lp1895
g57
(g58
g59
NtRp1896
(dp1897
g62
(dp1898
g70
I3
ssg71
g1892
sg64
(lp1899
S''
asbasbasbag57
(g73
g59
NtRp1900
(dp1901
g62
(dp1902
sg71
g1776
sg64
(lp1903
g57
(g78
g59
NtRp1904
(dp1905
g62
(dp1906
g82
g83
ssg71
g1900
sg64
(lp1907
g420
asbag57
(g78
g59
NtRp1908
(dp1909
g62
(dp1910
g89
g90
ssg71
g1900
sg64
(lp1911
S':'
asbag57
(g78
g59
NtRp1912
(dp1913
g62
(dp1914
sg71
g1900
sg64
(lp1915
g57
(g58
g59
NtRp1916
(dp1917
g62
(dp1918
g70
I3
ssg71
g1912
sg64
(lp1919
S''
asbasbasbag57
(g73
g59
NtRp1920
(dp1921
g62
(dp1922
sg71
g1776
sg64
(lp1923
g57
(g78
g59
NtRp1924
(dp1925
g62
(dp1926
g82
g83
ssg71
g1920
sg64
(lp1927
g441
asbag57
(g78
g59
NtRp1928
(dp1929
g62
(dp1930
g89
g90
ssg71
g1920
sg64
(lp1931
S':'
asbag57
(g78
g59
NtRp1932
(dp1933
g62
(dp1934
sg71
g1920
sg64
(lp1935
g57
(g58
g59
NtRp1936
(dp1937
g62
(dp1938
g70
I3
ssg71
g1932
sg64
(lp1939
S''
asbasbasbasbasbasbasbag57
(g73
g59
NtRp1940
(dp1941
g62
(dp1942
sg71
g256
sg64
(lp1943
g57
(g78
g59
NtRp1944
(dp1945
g62
(dp1946
g82
g83
ssg71
g1940
sg64
(lp1947
S'types'
p1948
asbag57
(g78
g59
NtRp1949
(dp1950
g62
(dp1951
g89
g90
ssg71
g1940
sg64
(lp1952
S':'
asbag57
(g78
g59
NtRp1953
(dp1954
g62
(dp1955
sg71
g1940
sg64
(lp1956
g57
(g58
g59
NtRp1957
(dp1958
g62
(dp1959
g70
I4
ssg71
g1953
sg64
(lp1960
S'Rev%201.0.1%20MX60-32S%20%20Kernel%201.0.11%20%28F%29'
p1961
ag57
(g66
g59
NtRp1962
(dp1963
g62
(dp1964
g70
I3
ssg71
Nsg64
(lp1965
g57
(g73
g59
NtRp1966
(dp1967
g62
(dp1968
sg71
g1962
sg64
(lp1969
g57
(g78
g59
NtRp1970
(dp1971
g62
(dp1972
g82
g83
ssg71
g1966
sg64
(lp1973
g294
asbag57
(g78
g59
NtRp1974
(dp1975
g62
(dp1976
g89
g90
ssg71
g1966
sg64
(lp1977
S':'
asbag57
(g78
g59
NtRp1978
(dp1979
g62
(dp1980
sg71
g1966
sg64
(lp1981
g57
(g58
g59
NtRp1982
(dp1983
g62
(dp1984
g70
I3
ssg71
g1978
sg64
(lp1985
S''
asbasbasbag57
(g73
g59
NtRp1986
(dp1987
g62
(dp1988
sg71
g1962
sg64
(lp1989
g57
(g78
g59
NtRp1990
(dp1991
g62
(dp1992
g82
g83
ssg71
g1986
sg64
(lp1993
g315
asbag57
(g78
g59
NtRp1994
(dp1995
g62
(dp1996
g89
g90
ssg71
g1986
sg64
(lp1997
S':'
asbag57
(g78
g59
NtRp1998
(dp1999
g62
(dp2000
sg71
g1986
sg64
(lp2001
g57
(g58
g59
NtRp2002
(dp2003
g62
(dp2004
g70
I3
ssg71
g1998
sg64
(lp2005
S''
asbasbasbag57
(g73
g59
NtRp2006
(dp2007
g62
(dp2008
sg71
g1962
sg64
(lp2009
g57
(g78
g59
NtRp2010
(dp2011
g62
(dp2012
g82
g83
ssg71
g2006
sg64
(lp2013
g336
asbag57
(g78
g59
NtRp2014
(dp2015
g62
(dp2016
g89
g90
ssg71
g2006
sg64
(lp2017
S':'
asbag57
(g78
g59
NtRp2018
(dp2019
g62
(dp2020
sg71
g2006
sg64
(lp2021
g57
(g58
g59
NtRp2022
(dp2023
g62
(dp2024
g70
I3
ssg71
g2018
sg64
(lp2025
S''
asbasbasbag57
(g73
g59
NtRp2026
(dp2027
g62
(dp2028
sg71
g1962
sg64
(lp2029
g57
(g78
g59
NtRp2030
(dp2031
g62
(dp2032
g82
g83
ssg71
g2026
sg64
(lp2033
g357
asbag57
(g78
g59
NtRp2034
(dp2035
g62
(dp2036
g89
g90
ssg71
g2026
sg64
(lp2037
S':'
asbag57
(g78
g59
NtRp2038
(dp2039
g62
(dp2040
sg71
g2026
sg64
(lp2041
g57
(g58
g59
NtRp2042
(dp2043
g62
(dp2044
g70
I3
ssg71
g2038
sg64
(lp2045
S''
asbasbasbag57
(g73
g59
NtRp2046
(dp2047
g62
(dp2048
sg71
g1962
sg64
(lp2049
g57
(g78
g59
NtRp2050
(dp2051
g62
(dp2052
g82
g83
ssg71
g2046
sg64
(lp2053
g378
asbag57
(g78
g59
NtRp2054
(dp2055
g62
(dp2056
g89
g90
ssg71
g2046
sg64
(lp2057
S':'
asbag57
(g78
g59
NtRp2058
(dp2059
g62
(dp2060
sg71
g2046
sg64
(lp2061
g57
(g58
g59
NtRp2062
(dp2063
g62
(dp2064
g70
I3
ssg71
g2058
sg64
(lp2065
S''
asbasbasbag57
(g73
g59
NtRp2066
(dp2067
g62
(dp2068
sg71
g1962
sg64
(lp2069
g57
(g78
g59
NtRp2070
(dp2071
g62
(dp2072
g82
g83
ssg71
g2066
sg64
(lp2073
g399
asbag57
(g78
g59
NtRp2074
(dp2075
g62
(dp2076
g89
g90
ssg71
g2066
sg64
(lp2077
S':'
asbag57
(g78
g59
NtRp2078
(dp2079
g62
(dp2080
sg71
g2066
sg64
(lp2081
g57
(g58
g59
NtRp2082
(dp2083
g62
(dp2084
g70
I3
ssg71
g2078
sg64
(lp2085
S''
asbasbasbag57
(g73
g59
NtRp2086
(dp2087
g62
(dp2088
sg71
g1962
sg64
(lp2089
g57
(g78
g59
NtRp2090
(dp2091
g62
(dp2092
g82
g83
ssg71
g2086
sg64
(lp2093
g420
asbag57
(g78
g59
NtRp2094
(dp2095
g62
(dp2096
g89
g90
ssg71
g2086
sg64
(lp2097
S':'
asbag57
(g78
g59
NtRp2098
(dp2099
g62
(dp2100
sg71
g2086
sg64
(lp2101
g57
(g58
g59
NtRp2102
(dp2103
g62
(dp2104
g70
I3
ssg71
g2098
sg64
(lp2105
S''
asbasbasbag57
(g73
g59
NtRp2106
(dp2107
g62
(dp2108
sg71
g1962
sg64
(lp2109
g57
(g78
g59
NtRp2110
(dp2111
g62
(dp2112
g82
g83
ssg71
g2106
sg64
(lp2113
g441
asbag57
(g78
g59
NtRp2114
(dp2115
g62
(dp2116
g89
g90
ssg71
g2106
sg64
(lp2117
S':'
asbag57
(g78
g59
NtRp2118
(dp2119
g62
(dp2120
sg71
g2106
sg64
(lp2121
g57
(g58
g59
NtRp2122
(dp2123
g62
(dp2124
g70
I3
ssg71
g2118
sg64
(lp2125
S''
asbasbasbasbasbasbasbasbasbasbasbag57
(g73
g59
NtRp2126
(dp2127
g62
(dp2128
sg71
g67
sg64
(lp2129
g57
(g78
g59
NtRp2130
(dp2131
g62
(dp2132
g82
g83
ssg71
g2126
sg64
(lp2133
S'env'
p2134
asbag57
(g78
g59
NtRp2135
(dp2136
g62
(dp2137
g89
g90
ssg71
g2126
sg64
(lp2138
S':'
asbag57
(g78
g59
NtRp2139
(dp2140
g62
(dp2141
sg71
g2126
sg64
(lp2142
g57
(g58
g59
NtRp2143
(dp2144
g62
(dp2145
g70
I5
ssg71
g2139
sg64
(lp2146
g57
(g66
g59
NtRp2147
(dp2148
g62
(dp2149
g70
I4
ssg71
Nsg64
(lp2150
g57
(g73
g59
NtRp2151
(dp2152
g62
(dp2153
sg71
g2147
sg64
(lp2154
g57
(g78
g59
NtRp2155
(dp2156
g62
(dp2157
g82
g83
ssg71
g2151
sg64
(lp2158
S'app_folders'
p2159
asbag57
(g78
g59
NtRp2160
(dp2161
g62
(dp2162
g89
g90
ssg71
g2151
sg64
(lp2163
S':'
asbag57
(g78
g59
NtRp2164
(dp2165
g62
(dp2166
sg71
g2151
sg64
(lp2167
g57
(g58
g59
NtRp2168
(dp2169
g62
(dp2170
g70
I4
ssg71
g2164
sg64
(lp2171
S"set(['/var/www/web2py_curso/applications/admin/', '/var/www/web2py_curso/applications/projeto/'])"
p2172
asbasbasbag57
(g73
g59
NtRp2173
(dp2174
g62
(dp2175
sg71
g2147
sg64
(lp2176
g57
(g78
g59
NtRp2177
(dp2178
g62
(dp2179
g82
g83
ssg71
g2173
sg64
(lp2180
S'applications_parent'
p2181
asbag57
(g78
g59
NtRp2182
(dp2183
g62
(dp2184
g89
g90
ssg71
g2173
sg64
(lp2185
S':'
asbag57
(g78
g59
NtRp2186
(dp2187
g62
(dp2188
sg71
g2173
sg64
(lp2189
g57
(g58
g59
NtRp2190
(dp2191
g62
(dp2192
g70
I4
ssg71
g2186
sg64
(lp2193
S'/var/www/web2py_curso'
p2194
asbasbasbag57
(g73
g59
NtRp2195
(dp2196
g62
(dp2197
sg71
g2147
sg64
(lp2198
g57
(g78
g59
NtRp2199
(dp2200
g62
(dp2201
g82
g83
ssg71
g2195
sg64
(lp2202
S'cmd_args'
p2203
asbag57
(g78
g59
NtRp2204
(dp2205
g62
(dp2206
g89
g90
ssg71
g2195
sg64
(lp2207
S':'
asbag57
(g78
g59
NtRp2208
(dp2209
g62
(dp2210
sg71
g2195
sg64
(lp2211
g57
(g58
g59
NtRp2212
(dp2213
g62
(dp2214
g70
I4
ssg71
g2208
sg64
(lp2215
g57
(g66
g59
NtRp2216
(dp2217
g62
(dp2218
g70
I3
ssg71
Nsg64
(lp2219
sbasbasbasbag57
(g73
g59
NtRp2220
(dp2221
g62
(dp2222
sg71
g2147
sg64
(lp2223
g57
(g78
g59
NtRp2224
(dp2225
g62
(dp2226
g82
g83
ssg71
g2220
sg64
(lp2227
S'cmd_options'
p2228
asbag57
(g78
g59
NtRp2229
(dp2230
g62
(dp2231
g89
g90
ssg71
g2220
sg64
(lp2232
S':'
asbag57
(g78
g59
NtRp2233
(dp2234
g62
(dp2235
sg71
g2220
sg64
(lp2236
g57
(g58
g59
NtRp2237
(dp2238
g62
(dp2239
g70
I4
ssg71
g2233
sg64
(lp2240
S"<Values at 0x335a1b8: {'verbose': False, 'ip': '127.0.0.1', 'with_scheduler': False, 'ips': [], 'shutdown_timeout': 5, 'taskbar': False, 'port': 8000, 'maxthreads': None, 'softcron': False, 'server_name': 'fernado-desktop', 'bpython': False, 'nogui': False, 'pid_filename': 'httpserver.pid', 'extcron': False, 'runcron': False, 'run_system_tests': False, 'test': None, 'folder': '/var/www/web2py_curso', 'config': '', 'minthreads': None, 'winservice': '', 'shell': None, 'run': '', 'log_filename': 'httpserver.log', 'debuglevel': 30, 'args': [''], 'socket_timeout': 5, 'ssl_ca_certificate': None, 'scheduler': None, 'profiler_filename': None, 'ssl_private_key': '', 'scheduler_groups': None, 'password': '123456', 'request_queue_size': 5, 'ssl_certificate': '', 'cronjob': False, 'numthreads': None, 'quiet': False, 'interfaces': None, 'import_models': False, 'timeout': 10, 'plain': False, 'nobanner': False}>"
p2241
asbasbasbag57
(g73
g59
NtRp2242
(dp2243
g62
(dp2244
sg71
g2147
sg64
(lp2245
g57
(g78
g59
NtRp2246
(dp2247
g62
(dp2248
g82
g83
ssg71
g2242
sg64
(lp2249
S'db_sessions'
p2250
asbag57
(g78
g59
NtRp2251
(dp2252
g62
(dp2253
g89
g90
ssg71
g2242
sg64
(lp2254
S':'
asbag57
(g78
g59
NtRp2255
(dp2256
g62
(dp2257
sg71
g2242
sg64
(lp2258
g57
(g58
g59
NtRp2259
(dp2260
g62
(dp2261
g70
I4
ssg71
g2255
sg64
(lp2262
S'set([])'
p2263
asbasbasbag57
(g73
g59
NtRp2264
(dp2265
g62
(dp2266
sg71
g2147
sg64
(lp2267
g57
(g78
g59
NtRp2268
(dp2269
g62
(dp2270
g82
g83
ssg71
g2264
sg64
(lp2271
S'debugging'
p2272
asbag57
(g78
g59
NtRp2273
(dp2274
g62
(dp2275
g89
g90
ssg71
g2264
sg64
(lp2276
S':'
asbag57
(g78
g59
NtRp2277
(dp2278
g62
(dp2279
sg71
g2264
sg64
(lp2280
g57
(g58
g59
NtRp2281
(dp2282
g62
(dp2283
g70
I4
ssg71
g2277
sg64
(lp2284
g100
asbasbasbag57
(g73
g59
NtRp2285
(dp2286
g62
(dp2287
sg71
g2147
sg64
(lp2288
g57
(g78
g59
NtRp2289
(dp2290
g62
(dp2291
g82
g83
ssg71
g2285
sg64
(lp2292
S'gluon_parent'
p2293
asbag57
(g78
g59
NtRp2294
(dp2295
g62
(dp2296
g89
g90
ssg71
g2285
sg64
(lp2297
S':'
asbag57
(g78
g59
NtRp2298
(dp2299
g62
(dp2300
sg71
g2285
sg64
(lp2301
g57
(g58
g59
NtRp2302
(dp2303
g62
(dp2304
g70
I4
ssg71
g2298
sg64
(lp2305
S'/var/www/web2py_curso'
p2306
asbasbasbag57
(g73
g59
NtRp2307
(dp2308
g62
(dp2309
sg71
g2147
sg64
(lp2310
g57
(g78
g59
NtRp2311
(dp2312
g62
(dp2313
g82
g83
ssg71
g2307
sg64
(lp2314
S'http_accept'
p2315
asbag57
(g78
g59
NtRp2316
(dp2317
g62
(dp2318
g89
g90
ssg71
g2307
sg64
(lp2319
S':'
asbag57
(g78
g59
NtRp2320
(dp2321
g62
(dp2322
sg71
g2307
sg64
(lp2323
g57
(g58
g59
NtRp2324
(dp2325
g62
(dp2326
g70
I4
ssg71
g2320
sg64
(lp2327
S'text/html,application/xhtml+xml,application/xml;q=0.9,*/*;q=0.8'
p2328
asbasbasbag57
(g73
g59
NtRp2329
(dp2330
g62
(dp2331
sg71
g2147
sg64
(lp2332
g57
(g78
g59
NtRp2333
(dp2334
g62
(dp2335
g82
g83
ssg71
g2329
sg64
(lp2336
S'http_accept_charset'
p2337
asbag57
(g78
g59
NtRp2338
(dp2339
g62
(dp2340
g89
g90
ssg71
g2329
sg64
(lp2341
S':'
asbag57
(g78
g59
NtRp2342
(dp2343
g62
(dp2344
sg71
g2329
sg64
(lp2345
g57
(g58
g59
NtRp2346
(dp2347
g62
(dp2348
g70
I4
ssg71
g2342
sg64
(lp2349
S'ISO-8859-1,utf-8;q=0.7,*;q=0.3'
p2350
asbasbasbag57
(g73
g59
NtRp2351
(dp2352
g62
(dp2353
sg71
g2147
sg64
(lp2354
g57
(g78
g59
NtRp2355
(dp2356
g62
(dp2357
g82
g83
ssg71
g2351
sg64
(lp2358
S'http_accept_encoding'
p2359
asbag57
(g78
g59
NtRp2360
(dp2361
g62
(dp2362
g89
g90
ssg71
g2351
sg64
(lp2363
S':'
asbag57
(g78
g59
NtRp2364
(dp2365
g62
(dp2366
sg71
g2351
sg64
(lp2367
g57
(g58
g59
NtRp2368
(dp2369
g62
(dp2370
g70
I4
ssg71
g2364
sg64
(lp2371
S'gzip,deflate,sdch'
p2372
asbasbasbag57
(g73
g59
NtRp2373
(dp2374
g62
(dp2375
sg71
g2147
sg64
(lp2376
g57
(g78
g59
NtRp2377
(dp2378
g62
(dp2379
g82
g83
ssg71
g2373
sg64
(lp2380
S'http_accept_language'
p2381
asbag57
(g78
g59
NtRp2382
(dp2383
g62
(dp2384
g89
g90
ssg71
g2373
sg64
(lp2385
S':'
asbag57
(g78
g59
NtRp2386
(dp2387
g62
(dp2388
sg71
g2373
sg64
(lp2389
g57
(g58
g59
NtRp2390
(dp2391
g62
(dp2392
g70
I4
ssg71
g2386
sg64
(lp2393
S'pt-BR,pt;q=0.8,en-US;q=0.6,en;q=0.4'
p2394
asbasbasbag57
(g73
g59
NtRp2395
(dp2396
g62
(dp2397
sg71
g2147
sg64
(lp2398
g57
(g78
g59
NtRp2399
(dp2400
g62
(dp2401
g82
g83
ssg71
g2395
sg64
(lp2402
S'http_connection'
p2403
asbag57
(g78
g59
NtRp2404
(dp2405
g62
(dp2406
g89
g90
ssg71
g2395
sg64
(lp2407
S':'
asbag57
(g78
g59
NtRp2408
(dp2409
g62
(dp2410
sg71
g2395
sg64
(lp2411
g57
(g58
g59
NtRp2412
(dp2413
g62
(dp2414
g70
I4
ssg71
g2408
sg64
(lp2415
S'keep-alive'
p2416
asbasbasbag57
(g73
g59
NtRp2417
(dp2418
g62
(dp2419
sg71
g2147
sg64
(lp2420
g57
(g78
g59
NtRp2421
(dp2422
g62
(dp2423
g82
g83
ssg71
g2417
sg64
(lp2424
S'http_cookie'
p2425
asbag57
(g78
g59
NtRp2426
(dp2427
g62
(dp2428
g89
g90
ssg71
g2417
sg64
(lp2429
S':'
asbag57
(g78
g59
NtRp2430
(dp2431
g62
(dp2432
sg71
g2417
sg64
(lp2433
g57
(g58
g59
NtRp2434
(dp2435
g62
(dp2436
g70
I4
ssg71
g2430
sg64
(lp2437
S'hw_type=MX60; hw_version=Rev%201.9.82.316; types=Rev%201.0.1%20MX60-32S%20%20Kernel%201.0.11%20%28F%29; admin=admin; cookie=1649423593; model=MX; nr=1; language=1; session_id_admin=127.0.0.1-2137e5fc-73b0-4fcd-be7b-d2f46e1918b1; session_id_projeto=127.0.0.1-b8c6a9b4-3ce7-4a48-b40d-12b6c8d18d0a'
p2438
asbasbasbag57
(g73
g59
NtRp2439
(dp2440
g62
(dp2441
sg71
g2147
sg64
(lp2442
g57
(g78
g59
NtRp2443
(dp2444
g62
(dp2445
g82
g83
ssg71
g2439
sg64
(lp2446
S'http_host'
p2447
asbag57
(g78
g59
NtRp2448
(dp2449
g62
(dp2450
g89
g90
ssg71
g2439
sg64
(lp2451
S':'
asbag57
(g78
g59
NtRp2452
(dp2453
g62
(dp2454
sg71
g2439
sg64
(lp2455
g57
(g58
g59
NtRp2456
(dp2457
g62
(dp2458
g70
I4
ssg71
g2452
sg64
(lp2459
S'127.0.0.1:8000'
p2460
asbasbasbag57
(g73
g59
NtRp2461
(dp2462
g62
(dp2463
sg71
g2147
sg64
(lp2464
g57
(g78
g59
NtRp2465
(dp2466
g62
(dp2467
g82
g83
ssg71
g2461
sg64
(lp2468
S'http_referer'
p2469
asbag57
(g78
g59
NtRp2470
(dp2471
g62
(dp2472
g89
g90
ssg71
g2461
sg64
(lp2473
S':'
asbag57
(g78
g59
NtRp2474
(dp2475
g62
(dp2476
sg71
g2461
sg64
(lp2477
g57
(g58
g59
NtRp2478
(dp2479
g62
(dp2480
g70
I4
ssg71
g2474
sg64
(lp2481
S'http://127.0.0.1:8000/appadmin/select/db?query=db.post.id%3E0'
p2482
asbasbasbag57
(g73
g59
NtRp2483
(dp2484
g62
(dp2485
sg71
g2147
sg64
(lp2486
g57
(g78
g59
NtRp2487
(dp2488
g62
(dp2489
g82
g83
ssg71
g2483
sg64
(lp2490
S'http_user_agent'
p2491
asbag57
(g78
g59
NtRp2492
(dp2493
g62
(dp2494
g89
g90
ssg71
g2483
sg64
(lp2495
S':'
asbag57
(g78
g59
NtRp2496
(dp2497
g62
(dp2498
sg71
g2483
sg64
(lp2499
g57
(g58
g59
NtRp2500
(dp2501
g62
(dp2502
g70
I4
ssg71
g2496
sg64
(lp2503
S'Mozilla/5.0 (X11; Linux x86_64) AppleWebKit/537.4 (KHTML, like Gecko) Ubuntu/12.10 Chromium/22.0.1229.94 Chrome/22.0.1229.94 Safari/537.4'
p2504
asbasbasbag57
(g73
g59
NtRp2505
(dp2506
g62
(dp2507
sg71
g2147
sg64
(lp2508
g57
(g78
g59
NtRp2509
(dp2510
g62
(dp2511
g82
g83
ssg71
g2505
sg64
(lp2512
S'is_jython'
p2513
asbag57
(g78
g59
NtRp2514
(dp2515
g62
(dp2516
g89
g90
ssg71
g2505
sg64
(lp2517
S':'
asbag57
(g78
g59
NtRp2518
(dp2519
g62
(dp2520
sg71
g2505
sg64
(lp2521
g57
(g58
g59
NtRp2522
(dp2523
g62
(dp2524
g70
I4
ssg71
g2518
sg64
(lp2525
g100
asbasbasbag57
(g73
g59
NtRp2526
(dp2527
g62
(dp2528
sg71
g2147
sg64
(lp2529
g57
(g78
g59
NtRp2530
(dp2531
g62
(dp2532
g82
g83
ssg71
g2526
sg64
(lp2533
S'is_pypy'
p2534
asbag57
(g78
g59
NtRp2535
(dp2536
g62
(dp2537
g89
g90
ssg71
g2526
sg64
(lp2538
S':'
asbag57
(g78
g59
NtRp2539
(dp2540
g62
(dp2541
sg71
g2526
sg64
(lp2542
g57
(g58
g59
NtRp2543
(dp2544
g62
(dp2545
g70
I4
ssg71
g2539
sg64
(lp2546
g100
asbasbasbag57
(g73
g59
NtRp2547
(dp2548
g62
(dp2549
sg71
g2147
sg64
(lp2550
g57
(g78
g59
NtRp2551
(dp2552
g62
(dp2553
g82
g83
ssg71
g2547
sg64
(lp2554
S'local_hosts'
p2555
asbag57
(g78
g59
NtRp2556
(dp2557
g62
(dp2558
g89
g90
ssg71
g2547
sg64
(lp2559
S':'
asbag57
(g78
g59
NtRp2560
(dp2561
g62
(dp2562
sg71
g2547
sg64
(lp2563
g57
(g58
g59
NtRp2564
(dp2565
g62
(dp2566
g70
I4
ssg71
g2560
sg64
(lp2567
g57
(g66
g59
NtRp2568
(dp2569
g62
(dp2570
g70
I3
ssg71
Nsg64
(lp2571
g57
(g73
g59
NtRp2572
(dp2573
g62
(dp2574
sg71
g2568
sg64
(lp2575
g57
(g78
g59
NtRp2576
(dp2577
g62
(dp2578
sg71
g2572
sg64
(lp2579
g57
(g58
g59
NtRp2580
(dp2581
g62
(dp2582
g70
I3
ssg71
g2576
sg64
(lp2583
S'127.0.1.1'
p2584
asbasbasbag57
(g73
g59
NtRp2585
(dp2586
g62
(dp2587
sg71
g2568
sg64
(lp2588
g57
(g78
g59
NtRp2589
(dp2590
g62
(dp2591
sg71
g2585
sg64
(lp2592
g57
(g58
g59
NtRp2593
(dp2594
g62
(dp2595
g70
I3
ssg71
g2589
sg64
(lp2596
S'::1'
p2597
asbasbasbag57
(g73
g59
NtRp2598
(dp2599
g62
(dp2600
sg71
g2568
sg64
(lp2601
g57
(g78
g59
NtRp2602
(dp2603
g62
(dp2604
sg71
g2598
sg64
(lp2605
g57
(g58
g59
NtRp2606
(dp2607
g62
(dp2608
g70
I3
ssg71
g2602
sg64
(lp2609
S'fernado-desktop'
p2610
asbasbasbag57
(g73
g59
NtRp2611
(dp2612
g62
(dp2613
sg71
g2568
sg64
(lp2614
g57
(g78
g59
NtRp2615
(dp2616
g62
(dp2617
sg71
g2611
sg64
(lp2618
g57
(g58
g59
NtRp2619
(dp2620
g62
(dp2621
g70
I3
ssg71
g2615
sg64
(lp2622
S'::ffff:127.0.0.1'
p2623
asbasbasbag57
(g73
g59
NtRp2624
(dp2625
g62
(dp2626
sg71
g2568
sg64
(lp2627
g57
(g78
g59
NtRp2628
(dp2629
g62
(dp2630
sg71
g2624
sg64
(lp2631
g57
(g58
g59
NtRp2632
(dp2633
g62
(dp2634
g70
I3
ssg71
g2628
sg64
(lp2635
S'127.0.0.1'
p2636
asbasbasbasbasbasbasbag57
(g73
g59
NtRp2637
(dp2638
g62
(dp2639
sg71
g2147
sg64
(lp2640
g57
(g78
g59
NtRp2641
(dp2642
g62
(dp2643
g82
g83
ssg71
g2637
sg64
(lp2644
S'path_info'
p2645
asbag57
(g78
g59
NtRp2646
(dp2647
g62
(dp2648
g89
g90
ssg71
g2637
sg64
(lp2649
S':'
asbag57
(g78
g59
NtRp2650
(dp2651
g62
(dp2652
sg71
g2637
sg64
(lp2653
g57
(g58
g59
NtRp2654
(dp2655
g62
(dp2656
g70
I4
ssg71
g2650
sg64
(lp2657
S'/appadmin/index'
p2658
asbasbasbag57
(g73
g59
NtRp2659
(dp2660
g62
(dp2661
sg71
g2147
sg64
(lp2662
g57
(g78
g59
NtRp2663
(dp2664
g62
(dp2665
g82
g83
ssg71
g2659
sg64
(lp2666
S'query_string'
p2667
asbag57
(g78
g59
NtRp2668
(dp2669
g62
(dp2670
g89
g90
ssg71
g2659
sg64
(lp2671
S':'
asbag57
(g78
g59
NtRp2672
(dp2673
g62
(dp2674
sg71
g2659
sg64
(lp2675
g57
(g58
g59
NtRp2676
(dp2677
g62
(dp2678
g70
I4
ssg71
g2672
sg64
(lp2679
S''
asbasbasbag57
(g73
g59
NtRp2680
(dp2681
g62
(dp2682
sg71
g2147
sg64
(lp2683
g57
(g78
g59
NtRp2684
(dp2685
g62
(dp2686
g82
g83
ssg71
g2680
sg64
(lp2687
S'remote_addr'
p2688
asbag57
(g78
g59
NtRp2689
(dp2690
g62
(dp2691
g89
g90
ssg71
g2680
sg64
(lp2692
S':'
asbag57
(g78
g59
NtRp2693
(dp2694
g62
(dp2695
sg71
g2680
sg64
(lp2696
g57
(g58
g59
NtRp2697
(dp2698
g62
(dp2699
g70
I4
ssg71
g2693
sg64
(lp2700
g212
asbasbasbag57
(g73
g59
NtRp2701
(dp2702
g62
(dp2703
sg71
g2147
sg64
(lp2704
g57
(g78
g59
NtRp2705
(dp2706
g62
(dp2707
g82
g83
ssg71
g2701
sg64
(lp2708
S'remote_port'
p2709
asbag57
(g78
g59
NtRp2710
(dp2711
g62
(dp2712
g89
g90
ssg71
g2701
sg64
(lp2713
S':'
asbag57
(g78
g59
NtRp2714
(dp2715
g62
(dp2716
sg71
g2701
sg64
(lp2717
g57
(g58
g59
NtRp2718
(dp2719
g62
(dp2720
g70
I4
ssg71
g2714
sg64
(lp2721
S'37598'
p2722
asbasbasbag57
(g73
g59
NtRp2723
(dp2724
g62
(dp2725
sg71
g2147
sg64
(lp2726
g57
(g78
g59
NtRp2727
(dp2728
g62
(dp2729
g82
g83
ssg71
g2723
sg64
(lp2730
S'request_method'
p2731
asbag57
(g78
g59
NtRp2732
(dp2733
g62
(dp2734
g89
g90
ssg71
g2723
sg64
(lp2735
S':'
asbag57
(g78
g59
NtRp2736
(dp2737
g62
(dp2738
sg71
g2723
sg64
(lp2739
g57
(g58
g59
NtRp2740
(dp2741
g62
(dp2742
g70
I4
ssg71
g2736
sg64
(lp2743
S'GET'
p2744
asbasbasbag57
(g73
g59
NtRp2745
(dp2746
g62
(dp2747
sg71
g2147
sg64
(lp2748
g57
(g78
g59
NtRp2749
(dp2750
g62
(dp2751
g82
g83
ssg71
g2745
sg64
(lp2752
S'request_uri'
p2753
asbag57
(g78
g59
NtRp2754
(dp2755
g62
(dp2756
g89
g90
ssg71
g2745
sg64
(lp2757
S':'
asbag57
(g78
g59
NtRp2758
(dp2759
g62
(dp2760
sg71
g2745
sg64
(lp2761
g57
(g58
g59
NtRp2762
(dp2763
g62
(dp2764
g70
I4
ssg71
g2758
sg64
(lp2765
S'/projeto/appadmin/index'
p2766
asbasbasbag57
(g73
g59
NtRp2767
(dp2768
g62
(dp2769
sg71
g2147
sg64
(lp2770
g57
(g78
g59
NtRp2771
(dp2772
g62
(dp2773
g82
g83
ssg71
g2767
sg64
(lp2774
S'script_name'
p2775
asbag57
(g78
g59
NtRp2776
(dp2777
g62
(dp2778
g89
g90
ssg71
g2767
sg64
(lp2779
S':'
asbag57
(g78
g59
NtRp2780
(dp2781
g62
(dp2782
sg71
g2767
sg64
(lp2783
g57
(g58
g59
NtRp2784
(dp2785
g62
(dp2786
g70
I4
ssg71
g2780
sg64
(lp2787
S''
asbasbasbag57
(g73
g59
NtRp2788
(dp2789
g62
(dp2790
sg71
g2147
sg64
(lp2791
g57
(g78
g59
NtRp2792
(dp2793
g62
(dp2794
g82
g83
ssg71
g2788
sg64
(lp2795
S'server_name'
p2796
asbag57
(g78
g59
NtRp2797
(dp2798
g62
(dp2799
g89
g90
ssg71
g2788
sg64
(lp2800
S':'
asbag57
(g78
g59
NtRp2801
(dp2802
g62
(dp2803
sg71
g2788
sg64
(lp2804
g57
(g58
g59
NtRp2805
(dp2806
g62
(dp2807
g70
I4
ssg71
g2801
sg64
(lp2808
S'fernado-desktop'
p2809
asbasbasbag57
(g73
g59
NtRp2810
(dp2811
g62
(dp2812
sg71
g2147
sg64
(lp2813
g57
(g78
g59
NtRp2814
(dp2815
g62
(dp2816
g82
g83
ssg71
g2810
sg64
(lp2817
S'server_port'
p2818
asbag57
(g78
g59
NtRp2819
(dp2820
g62
(dp2821
g89
g90
ssg71
g2810
sg64
(lp2822
S':'
asbag57
(g78
g59
NtRp2823
(dp2824
g62
(dp2825
sg71
g2810
sg64
(lp2826
g57
(g58
g59
NtRp2827
(dp2828
g62
(dp2829
g70
I4
ssg71
g2823
sg64
(lp2830
S'8000'
p2831
asbasbasbag57
(g73
g59
NtRp2832
(dp2833
g62
(dp2834
sg71
g2147
sg64
(lp2835
g57
(g78
g59
NtRp2836
(dp2837
g62
(dp2838
g82
g83
ssg71
g2832
sg64
(lp2839
S'server_protocol'
p2840
asbag57
(g78
g59
NtRp2841
(dp2842
g62
(dp2843
g89
g90
ssg71
g2832
sg64
(lp2844
S':'
asbag57
(g78
g59
NtRp2845
(dp2846
g62
(dp2847
sg71
g2832
sg64
(lp2848
g57
(g58
g59
NtRp2849
(dp2850
g62
(dp2851
g70
I4
ssg71
g2845
sg64
(lp2852
S'HTTP/1.1'
p2853
asbasbasbag57
(g73
g59
NtRp2854
(dp2855
g62
(dp2856
sg71
g2147
sg64
(lp2857
g57
(g78
g59
NtRp2858
(dp2859
g62
(dp2860
g82
g83
ssg71
g2854
sg64
(lp2861
S'server_software'
p2862
asbag57
(g78
g59
NtRp2863
(dp2864
g62
(dp2865
g89
g90
ssg71
g2854
sg64
(lp2866
S':'
asbag57
(g78
g59
NtRp2867
(dp2868
g62
(dp2869
sg71
g2854
sg64
(lp2870
g57
(g58
g59
NtRp2871
(dp2872
g62
(dp2873
g70
I4
ssg71
g2867
sg64
(lp2874
S'Rocket 1.2.6'
p2875
asbasbasbag57
(g73
g59
NtRp2876
(dp2877
g62
(dp2878
sg71
g2147
sg64
(lp2879
g57
(g78
g59
NtRp2880
(dp2881
g62
(dp2882
g82
g83
ssg71
g2876
sg64
(lp2883
S'web2py_original_uri'
p2884
asbag57
(g78
g59
NtRp2885
(dp2886
g62
(dp2887
g89
g90
ssg71
g2876
sg64
(lp2888
S':'
asbag57
(g78
g59
NtRp2889
(dp2890
g62
(dp2891
sg71
g2876
sg64
(lp2892
g57
(g58
g59
NtRp2893
(dp2894
g62
(dp2895
g70
I4
ssg71
g2889
sg64
(lp2896
g2658
asbasbasbag57
(g73
g59
NtRp2897
(dp2898
g62
(dp2899
sg71
g2147
sg64
(lp2900
g57
(g78
g59
NtRp2901
(dp2902
g62
(dp2903
g82
g83
ssg71
g2897
sg64
(lp2904
S'web2py_path'
p2905
asbag57
(g78
g59
NtRp2906
(dp2907
g62
(dp2908
g89
g90
ssg71
g2897
sg64
(lp2909
S':'
asbag57
(g78
g59
NtRp2910
(dp2911
g62
(dp2912
sg71
g2897
sg64
(lp2913
g57
(g58
g59
NtRp2914
(dp2915
g62
(dp2916
g70
I4
ssg71
g2910
sg64
(lp2917
g2194
asbasbasbag57
(g73
g59
NtRp2918
(dp2919
g62
(dp2920
sg71
g2147
sg64
(lp2921
g57
(g78
g59
NtRp2922
(dp2923
g62
(dp2924
g82
g83
ssg71
g2918
sg64
(lp2925
S'web2py_version'
p2926
asbag57
(g78
g59
NtRp2927
(dp2928
g62
(dp2929
g89
g90
ssg71
g2918
sg64
(lp2930
S':'
asbag57
(g78
g59
NtRp2931
(dp2932
g62
(dp2933
sg71
g2918
sg64
(lp2934
g57
(g58
g59
NtRp2935
(dp2936
g62
(dp2937
g70
I4
ssg71
g2931
sg64
(lp2938
g57
(g66
g59
NtRp2939
(dp2940
g62
(dp2941
g70
I3
ssg71
Nsg64
(lp2942
g57
(g73
g59
NtRp2943
(dp2944
g62
(dp2945
sg71
g2939
sg64
(lp2946
g57
(g78
g59
NtRp2947
(dp2948
g62
(dp2949
sg71
g2943
sg64
(lp2950
g57
(g58
g59
NtRp2951
(dp2952
g62
(dp2953
g70
I3
ssg71
g2947
sg64
(lp2954
S'2'
asbasbasbag57
(g73
g59
NtRp2955
(dp2956
g62
(dp2957
sg71
g2939
sg64
(lp2958
g57
(g78
g59
NtRp2959
(dp2960
g62
(dp2961
sg71
g2955
sg64
(lp2962
g57
(g58
g59
NtRp2963
(dp2964
g62
(dp2965
g70
I3
ssg71
g2959
sg64
(lp2966
S'3'
asbasbasbag57
(g73
g59
NtRp2967
(dp2968
g62
(dp2969
sg71
g2939
sg64
(lp2970
g57
(g78
g59
NtRp2971
(dp2972
g62
(dp2973
sg71
g2967
sg64
(lp2974
g57
(g58
g59
NtRp2975
(dp2976
g62
(dp2977
g70
I3
ssg71
g2971
sg64
(lp2978
S'2'
asbasbasbag57
(g73
g59
NtRp2979
(dp2980
g62
(dp2981
sg71
g2939
sg64
(lp2982
g57
(g78
g59
NtRp2983
(dp2984
g62
(dp2985
sg71
g2979
sg64
(lp2986
g57
(g58
g59
NtRp2987
(dp2988
g62
(dp2989
g70
I3
ssg71
g2983
sg64
(lp2990
S'datetime.datetime(2012, 12, 17, 15, 3, 30)'
p2991
asbasbasbag57
(g73
g59
NtRp2992
(dp2993
g62
(dp2994
sg71
g2939
sg64
(lp2995
g57
(g78
g59
NtRp2996
(dp2997
g62
(dp2998
sg71
g2992
sg64
(lp2999
g57
(g58
g59
NtRp3000
(dp3001
g62
(dp3002
g70
I3
ssg71
g2996
sg64
(lp3003
S'stable'
p3004
asbasbasbasbasbasbasbag57
(g73
g59
NtRp3005
(dp3006
g62
(dp3007
sg71
g2147
sg64
(lp3008
g57
(g78
g59
NtRp3009
(dp3010
g62
(dp3011
g82
g83
ssg71
g3005
sg64
(lp3012
S'wsgi_errors'
p3013
asbag57
(g78
g59
NtRp3014
(dp3015
g62
(dp3016
g89
g90
ssg71
g3005
sg64
(lp3017
S':'
asbag57
(g78
g59
NtRp3018
(dp3019
g62
(dp3020
sg71
g3005
sg64
(lp3021
g57
(g58
g59
NtRp3022
(dp3023
g62
(dp3024
g70
I4
ssg71
g3018
sg64
(lp3025
S"<open file '<stderr>', mode 'w' at 0x7fb4dd175270>"
p3026
asbasbasbag57
(g73
g59
NtRp3027
(dp3028
g62
(dp3029
sg71
g2147
sg64
(lp3030
g57
(g78
g59
NtRp3031
(dp3032
g62
(dp3033
g82
g83
ssg71
g3027
sg64
(lp3034
S'wsgi_file_wrapper'
p3035
asbag57
(g78
g59
NtRp3036
(dp3037
g62
(dp3038
g89
g90
ssg71
g3027
sg64
(lp3039
S':'
asbag57
(g78
g59
NtRp3040
(dp3041
g62
(dp3042
sg71
g3027
sg64
(lp3043
g57
(g58
g59
NtRp3044
(dp3045
g62
(dp3046
g70
I4
ssg71
g3040
sg64
(lp3047
S'<class wsgiref.util.FileWrapper at 0x37136d0>'
p3048
asbasbasbag57
(g73
g59
NtRp3049
(dp3050
g62
(dp3051
sg71
g2147
sg64
(lp3052
g57
(g78
g59
NtRp3053
(dp3054
g62
(dp3055
g82
g83
ssg71
g3049
sg64
(lp3056
S'wsgi_input'
p3057
asbag57
(g78
g59
NtRp3058
(dp3059
g62
(dp3060
g89
g90
ssg71
g3049
sg64
(lp3061
S':'
asbag57
(g78
g59
NtRp3062
(dp3063
g62
(dp3064
sg71
g3049
sg64
(lp3065
g57
(g58
g59
NtRp3066
(dp3067
g62
(dp3068
g70
I4
ssg71
g3062
sg64
(lp3069
S'<socket._fileobject object at 0x32f7cd0>'
p3070
asbasbasbag57
(g73
g59
NtRp3071
(dp3072
g62
(dp3073
sg71
g2147
sg64
(lp3074
g57
(g78
g59
NtRp3075
(dp3076
g62
(dp3077
g82
g83
ssg71
g3071
sg64
(lp3078
S'wsgi_multiprocess'
p3079
asbag57
(g78
g59
NtRp3080
(dp3081
g62
(dp3082
g89
g90
ssg71
g3071
sg64
(lp3083
S':'
asbag57
(g78
g59
NtRp3084
(dp3085
g62
(dp3086
sg71
g3071
sg64
(lp3087
g57
(g58
g59
NtRp3088
(dp3089
g62
(dp3090
g70
I4
ssg71
g3084
sg64
(lp3091
g100
asbasbasbag57
(g73
g59
NtRp3092
(dp3093
g62
(dp3094
sg71
g2147
sg64
(lp3095
g57
(g78
g59
NtRp3096
(dp3097
g62
(dp3098
g82
g83
ssg71
g3092
sg64
(lp3099
S'wsgi_multithread'
p3100
asbag57
(g78
g59
NtRp3101
(dp3102
g62
(dp3103
g89
g90
ssg71
g3092
sg64
(lp3104
S':'
asbag57
(g78
g59
NtRp3105
(dp3106
g62
(dp3107
sg71
g3092
sg64
(lp3108
g57
(g58
g59
NtRp3109
(dp3110
g62
(dp3111
g70
I4
ssg71
g3105
sg64
(lp3112
S'True'
p3113
asbasbasbag57
(g73
g59
NtRp3114
(dp3115
g62
(dp3116
sg71
g2147
sg64
(lp3117
g57
(g78
g59
NtRp3118
(dp3119
g62
(dp3120
g82
g83
ssg71
g3114
sg64
(lp3121
S'wsgi_run_once'
p3122
asbag57
(g78
g59
NtRp3123
(dp3124
g62
(dp3125
g89
g90
ssg71
g3114
sg64
(lp3126
S':'
asbag57
(g78
g59
NtRp3127
(dp3128
g62
(dp3129
sg71
g3114
sg64
(lp3130
g57
(g58
g59
NtRp3131
(dp3132
g62
(dp3133
g70
I4
ssg71
g3127
sg64
(lp3134
g100
asbasbasbag57
(g73
g59
NtRp3135
(dp3136
g62
(dp3137
sg71
g2147
sg64
(lp3138
g57
(g78
g59
NtRp3139
(dp3140
g62
(dp3141
g82
g83
ssg71
g3135
sg64
(lp3142
S'wsgi_url_scheme'
p3143
asbag57
(g78
g59
NtRp3144
(dp3145
g62
(dp3146
g89
g90
ssg71
g3135
sg64
(lp3147
S':'
asbag57
(g78
g59
NtRp3148
(dp3149
g62
(dp3150
sg71
g3135
sg64
(lp3151
g57
(g58
g59
NtRp3152
(dp3153
g62
(dp3154
g70
I4
ssg71
g3148
sg64
(lp3155
S'http'
p3156
asbasbasbag57
(g73
g59
NtRp3157
(dp3158
g62
(dp3159
sg71
g2147
sg64
(lp3160
g57
(g78
g59
NtRp3161
(dp3162
g62
(dp3163
g82
g83
ssg71
g3157
sg64
(lp3164
S'wsgi_version'
p3165
asbag57
(g78
g59
NtRp3166
(dp3167
g62
(dp3168
g89
g90
ssg71
g3157
sg64
(lp3169
S':'
asbag57
(g78
g59
NtRp3170
(dp3171
g62
(dp3172
sg71
g3157
sg64
(lp3173
g57
(g58
g59
NtRp3174
(dp3175
g62
(dp3176
g70
I4
ssg71
g3170
sg64
(lp3177
g57
(g66
g59
NtRp3178
(dp3179
g62
(dp3180
g70
I3
ssg71
Nsg64
(lp3181
g57
(g73
g59
NtRp3182
(dp3183
g62
(dp3184
sg71
g3178
sg64
(lp3185
g57
(g78
g59
NtRp3186
(dp3187
g62
(dp3188
sg71
g3182
sg64
(lp3189
g57
(g58
g59
NtRp3190
(dp3191
g62
(dp3192
g70
I3
ssg71
g3186
sg64
(lp3193
S'1'
asbasbasbag57
(g73
g59
NtRp3194
(dp3195
g62
(dp3196
sg71
g3178
sg64
(lp3197
g57
(g78
g59
NtRp3198
(dp3199
g62
(dp3200
sg71
g3194
sg64
(lp3201
g57
(g58
g59
NtRp3202
(dp3203
g62
(dp3204
g70
I3
ssg71
g3198
sg64
(lp3205
S'0'
asbasbasbasbasbasbasbasbasbasbasbag57
(g73
g59
NtRp3206
(dp3207
g62
(dp3208
sg71
g67
sg64
(lp3209
g57
(g78
g59
NtRp3210
(dp3211
g62
(dp3212
g82
g83
ssg71
g3206
sg64
(lp3213
S'extension'
p3214
asbag57
(g78
g59
NtRp3215
(dp3216
g62
(dp3217
g89
g90
ssg71
g3206
sg64
(lp3218
S':'
asbag57
(g78
g59
NtRp3219
(dp3220
g62
(dp3221
sg71
g3206
sg64
(lp3222
g57
(g58
g59
NtRp3223
(dp3224
g62
(dp3225
g70
I5
ssg71
g3219
sg64
(lp3226
S'html'
p3227
asbasbasbag57
(g73
g59
NtRp3228
(dp3229
g62
(dp3230
sg71
g67
sg64
(lp3231
g57
(g78
g59
NtRp3232
(dp3233
g62
(dp3234
g82
g83
ssg71
g3228
sg64
(lp3235
S'folder'
p3236
asbag57
(g78
g59
NtRp3237
(dp3238
g62
(dp3239
g89
g90
ssg71
g3228
sg64
(lp3240
S':'
asbag57
(g78
g59
NtRp3241
(dp3242
g62
(dp3243
sg71
g3228
sg64
(lp3244
g57
(g58
g59
NtRp3245
(dp3246
g62
(dp3247
g70
I5
ssg71
g3241
sg64
(lp3248
S'/var/www/web2py_curso/applications/projeto/'
p3249
asbasbasbag57
(g73
g59
NtRp3250
(dp3251
g62
(dp3252
sg71
g67
sg64
(lp3253
g57
(g78
g59
NtRp3254
(dp3255
g62
(dp3256
g82
g83
ssg71
g3250
sg64
(lp3257
S'function'
p3258
asbag57
(g78
g59
NtRp3259
(dp3260
g62
(dp3261
g89
g90
ssg71
g3250
sg64
(lp3262
S':'
asbag57
(g78
g59
NtRp3263
(dp3264
g62
(dp3265
sg71
g3250
sg64
(lp3266
g57
(g58
g59
NtRp3267
(dp3268
g62
(dp3269
g70
I5
ssg71
g3263
sg64
(lp3270
S'index'
p3271
asbasbasbag57
(g73
g59
NtRp3272
(dp3273
g62
(dp3274
sg71
g67
sg64
(lp3275
g57
(g78
g59
NtRp3276
(dp3277
g62
(dp3278
g82
g83
ssg71
g3272
sg64
(lp3279
S'get_vars'
p3280
asbag57
(g78
g59
NtRp3281
(dp3282
g62
(dp3283
g89
g90
ssg71
g3272
sg64
(lp3284
S':'
asbag57
(g78
g59
NtRp3285
(dp3286
g62
(dp3287
sg71
g3272
sg64
(lp3288
g57
(g58
g59
NtRp3289
(dp3290
g62
(dp3291
g70
I5
ssg71
g3285
sg64
(lp3292
g57
(g66
g59
NtRp3293
(dp3294
g62
(dp3295
g70
I4
ssg71
Nsg64
(lp3296
sbasbasbasbag57
(g73
g59
NtRp3297
(dp3298
g62
(dp3299
sg71
g67
sg64
(lp3300
g57
(g78
g59
NtRp3301
(dp3302
g62
(dp3303
g82
g83
ssg71
g3297
sg64
(lp3304
S'global_settings'
p3305
asbag57
(g78
g59
NtRp3306
(dp3307
g62
(dp3308
g89
g90
ssg71
g3297
sg64
(lp3309
S':'
asbag57
(g78
g59
NtRp3310
(dp3311
g62
(dp3312
sg71
g3297
sg64
(lp3313
g57
(g58
g59
NtRp3314
(dp3315
g62
(dp3316
g70
I5
ssg71
g3310
sg64
(lp3317
g57
(g66
g59
NtRp3318
(dp3319
g62
(dp3320
g70
I4
ssg71
Nsg64
(lp3321
g57
(g73
g59
NtRp3322
(dp3323
g62
(dp3324
sg71
g3318
sg64
(lp3325
g57
(g78
g59
NtRp3326
(dp3327
g62
(dp3328
g82
g83
ssg71
g3322
sg64
(lp3329
g2159
asbag57
(g78
g59
NtRp3330
(dp3331
g62
(dp3332
g89
g90
ssg71
g3322
sg64
(lp3333
S':'
asbag57
(g78
g59
NtRp3334
(dp3335
g62
(dp3336
sg71
g3322
sg64
(lp3337
g57
(g58
g59
NtRp3338
(dp3339
g62
(dp3340
g70
I4
ssg71
g3334
sg64
(lp3341
S"set(['/var/www/web2py_curso/applications/admin/', '/var/www/web2py_curso/applications/projeto/'])"
p3342
asbasbasbag57
(g73
g59
NtRp3343
(dp3344
g62
(dp3345
sg71
g3318
sg64
(lp3346
g57
(g78
g59
NtRp3347
(dp3348
g62
(dp3349
g82
g83
ssg71
g3343
sg64
(lp3350
g2181
asbag57
(g78
g59
NtRp3351
(dp3352
g62
(dp3353
g89
g90
ssg71
g3343
sg64
(lp3354
S':'
asbag57
(g78
g59
NtRp3355
(dp3356
g62
(dp3357
sg71
g3343
sg64
(lp3358
g57
(g58
g59
NtRp3359
(dp3360
g62
(dp3361
g70
I4
ssg71
g3355
sg64
(lp3362
g2194
asbasbasbag57
(g73
g59
NtRp3363
(dp3364
g62
(dp3365
sg71
g3318
sg64
(lp3366
g57
(g78
g59
NtRp3367
(dp3368
g62
(dp3369
g82
g83
ssg71
g3363
sg64
(lp3370
g2203
asbag57
(g78
g59
NtRp3371
(dp3372
g62
(dp3373
g89
g90
ssg71
g3363
sg64
(lp3374
S':'
asbag57
(g78
g59
NtRp3375
(dp3376
g62
(dp3377
sg71
g3363
sg64
(lp3378
g57
(g58
g59
NtRp3379
(dp3380
g62
(dp3381
g70
I4
ssg71
g3375
sg64
(lp3382
g57
(g66
g59
NtRp3383
(dp3384
g62
(dp3385
g70
I3
ssg71
Nsg64
(lp3386
sbasbasbasbag57
(g73
g59
NtRp3387
(dp3388
g62
(dp3389
sg71
g3318
sg64
(lp3390
g57
(g78
g59
NtRp3391
(dp3392
g62
(dp3393
g82
g83
ssg71
g3387
sg64
(lp3394
g2228
asbag57
(g78
g59
NtRp3395
(dp3396
g62
(dp3397
g89
g90
ssg71
g3387
sg64
(lp3398
S':'
asbag57
(g78
g59
NtRp3399
(dp3400
g62
(dp3401
sg71
g3387
sg64
(lp3402
g57
(g58
g59
NtRp3403
(dp3404
g62
(dp3405
g70
I4
ssg71
g3399
sg64
(lp3406
S"<Values at 0x335a1b8: {'verbose': False, 'ip': '127.0.0.1', 'with_scheduler': False, 'ips': [], 'shutdown_timeout': 5, 'taskbar': False, 'port': 8000, 'maxthreads': None, 'softcron': False, 'server_name': 'fernado-desktop', 'bpython': False, 'nogui': False, 'pid_filename': 'httpserver.pid', 'extcron': False, 'runcron': False, 'run_system_tests': False, 'test': None, 'folder': '/var/www/web2py_curso', 'config': '', 'minthreads': None, 'winservice': '', 'shell': None, 'run': '', 'log_filename': 'httpserver.log', 'debuglevel': 30, 'args': [''], 'socket_timeout': 5, 'ssl_ca_certificate': None, 'scheduler': None, 'profiler_filename': None, 'ssl_private_key': '', 'scheduler_groups': None, 'password': '123456', 'request_queue_size': 5, 'ssl_certificate': '', 'cronjob': False, 'numthreads': None, 'quiet': False, 'interfaces': None, 'import_models': False, 'timeout': 10, 'plain': False, 'nobanner': False}>"
p3407
asbasbasbag57
(g73
g59
NtRp3408
(dp3409
g62
(dp3410
sg71
g3318
sg64
(lp3411
g57
(g78
g59
NtRp3412
(dp3413
g62
(dp3414
g82
g83
ssg71
g3408
sg64
(lp3415
g2250
asbag57
(g78
g59
NtRp3416
(dp3417
g62
(dp3418
g89
g90
ssg71
g3408
sg64
(lp3419
S':'
asbag57
(g78
g59
NtRp3420
(dp3421
g62
(dp3422
sg71
g3408
sg64
(lp3423
g57
(g58
g59
NtRp3424
(dp3425
g62
(dp3426
g70
I4
ssg71
g3420
sg64
(lp3427
S'set([])'
p3428
asbasbasbag57
(g73
g59
NtRp3429
(dp3430
g62
(dp3431
sg71
g3318
sg64
(lp3432
g57
(g78
g59
NtRp3433
(dp3434
g62
(dp3435
g82
g83
ssg71
g3429
sg64
(lp3436
g2272
asbag57
(g78
g59
NtRp3437
(dp3438
g62
(dp3439
g89
g90
ssg71
g3429
sg64
(lp3440
S':'
asbag57
(g78
g59
NtRp3441
(dp3442
g62
(dp3443
sg71
g3429
sg64
(lp3444
g57
(g58
g59
NtRp3445
(dp3446
g62
(dp3447
g70
I4
ssg71
g3441
sg64
(lp3448
g100
asbasbasbag57
(g73
g59
NtRp3449
(dp3450
g62
(dp3451
sg71
g3318
sg64
(lp3452
g57
(g78
g59
NtRp3453
(dp3454
g62
(dp3455
g82
g83
ssg71
g3449
sg64
(lp3456
g2293
asbag57
(g78
g59
NtRp3457
(dp3458
g62
(dp3459
g89
g90
ssg71
g3449
sg64
(lp3460
S':'
asbag57
(g78
g59
NtRp3461
(dp3462
g62
(dp3463
sg71
g3449
sg64
(lp3464
g57
(g58
g59
NtRp3465
(dp3466
g62
(dp3467
g70
I4
ssg71
g3461
sg64
(lp3468
g2306
asbasbasbag57
(g73
g59
NtRp3469
(dp3470
g62
(dp3471
sg71
g3318
sg64
(lp3472
g57
(g78
g59
NtRp3473
(dp3474
g62
(dp3475
g82
g83
ssg71
g3469
sg64
(lp3476
g2513
asbag57
(g78
g59
NtRp3477
(dp3478
g62
(dp3479
g89
g90
ssg71
g3469
sg64
(lp3480
S':'
asbag57
(g78
g59
NtRp3481
(dp3482
g62
(dp3483
sg71
g3469
sg64
(lp3484
g57
(g58
g59
NtRp3485
(dp3486
g62
(dp3487
g70
I4
ssg71
g3481
sg64
(lp3488
g100
asbasbasbag57
(g73
g59
NtRp3489
(dp3490
g62
(dp3491
sg71
g3318
sg64
(lp3492
g57
(g78
g59
NtRp3493
(dp3494
g62
(dp3495
g82
g83
ssg71
g3489
sg64
(lp3496
g2534
asbag57
(g78
g59
NtRp3497
(dp3498
g62
(dp3499
g89
g90
ssg71
g3489
sg64
(lp3500
S':'
asbag57
(g78
g59
NtRp3501
(dp3502
g62
(dp3503
sg71
g3489
sg64
(lp3504
g57
(g58
g59
NtRp3505
(dp3506
g62
(dp3507
g70
I4
ssg71
g3501
sg64
(lp3508
g100
asbasbasbag57
(g73
g59
NtRp3509
(dp3510
g62
(dp3511
sg71
g3318
sg64
(lp3512
g57
(g78
g59
NtRp3513
(dp3514
g62
(dp3515
g82
g83
ssg71
g3509
sg64
(lp3516
g2555
asbag57
(g78
g59
NtRp3517
(dp3518
g62
(dp3519
g89
g90
ssg71
g3509
sg64
(lp3520
S':'
asbag57
(g78
g59
NtRp3521
(dp3522
g62
(dp3523
sg71
g3509
sg64
(lp3524
g57
(g58
g59
NtRp3525
(dp3526
g62
(dp3527
g70
I4
ssg71
g3521
sg64
(lp3528
g57
(g66
g59
NtRp3529
(dp3530
g62
(dp3531
g70
I3
ssg71
Nsg64
(lp3532
g57
(g73
g59
NtRp3533
(dp3534
g62
(dp3535
sg71
g3529
sg64
(lp3536
g57
(g78
g59
NtRp3537
(dp3538
g62
(dp3539
sg71
g3533
sg64
(lp3540
g57
(g58
g59
NtRp3541
(dp3542
g62
(dp3543
g70
I3
ssg71
g3537
sg64
(lp3544
g2584
asbasbasbag57
(g73
g59
NtRp3545
(dp3546
g62
(dp3547
sg71
g3529
sg64
(lp3548
g57
(g78
g59
NtRp3549
(dp3550
g62
(dp3551
sg71
g3545
sg64
(lp3552
g57
(g58
g59
NtRp3553
(dp3554
g62
(dp3555
g70
I3
ssg71
g3549
sg64
(lp3556
g2597
asbasbasbag57
(g73
g59
NtRp3557
(dp3558
g62
(dp3559
sg71
g3529
sg64
(lp3560
g57
(g78
g59
NtRp3561
(dp3562
g62
(dp3563
sg71
g3557
sg64
(lp3564
g57
(g58
g59
NtRp3565
(dp3566
g62
(dp3567
g70
I3
ssg71
g3561
sg64
(lp3568
g2610
asbasbasbag57
(g73
g59
NtRp3569
(dp3570
g62
(dp3571
sg71
g3529
sg64
(lp3572
g57
(g78
g59
NtRp3573
(dp3574
g62
(dp3575
sg71
g3569
sg64
(lp3576
g57
(g58
g59
NtRp3577
(dp3578
g62
(dp3579
g70
I3
ssg71
g3573
sg64
(lp3580
g2623
asbasbasbag57
(g73
g59
NtRp3581
(dp3582
g62
(dp3583
sg71
g3529
sg64
(lp3584
g57
(g78
g59
NtRp3585
(dp3586
g62
(dp3587
sg71
g3581
sg64
(lp3588
g57
(g58
g59
NtRp3589
(dp3590
g62
(dp3591
g70
I3
ssg71
g3585
sg64
(lp3592
g2636
asbasbasbasbasbasbasbag57
(g73
g59
NtRp3593
(dp3594
g62
(dp3595
sg71
g3318
sg64
(lp3596
g57
(g78
g59
NtRp3597
(dp3598
g62
(dp3599
g82
g83
ssg71
g3593
sg64
(lp3600
g2926
asbag57
(g78
g59
NtRp3601
(dp3602
g62
(dp3603
g89
g90
ssg71
g3593
sg64
(lp3604
S':'
asbag57
(g78
g59
NtRp3605
(dp3606
g62
(dp3607
sg71
g3593
sg64
(lp3608
g57
(g58
g59
NtRp3609
(dp3610
g62
(dp3611
g70
I4
ssg71
g3605
sg64
(lp3612
g57
(g66
g59
NtRp3613
(dp3614
g62
(dp3615
g70
I3
ssg71
Nsg64
(lp3616
g57
(g73
g59
NtRp3617
(dp3618
g62
(dp3619
sg71
g3613
sg64
(lp3620
g57
(g78
g59
NtRp3621
(dp3622
g62
(dp3623
sg71
g3617
sg64
(lp3624
g57
(g58
g59
NtRp3625
(dp3626
g62
(dp3627
g70
I3
ssg71
g3621
sg64
(lp3628
S'2'
asbasbasbag57
(g73
g59
NtRp3629
(dp3630
g62
(dp3631
sg71
g3613
sg64
(lp3632
g57
(g78
g59
NtRp3633
(dp3634
g62
(dp3635
sg71
g3629
sg64
(lp3636
g57
(g58
g59
NtRp3637
(dp3638
g62
(dp3639
g70
I3
ssg71
g3633
sg64
(lp3640
S'3'
asbasbasbag57
(g73
g59
NtRp3641
(dp3642
g62
(dp3643
sg71
g3613
sg64
(lp3644
g57
(g78
g59
NtRp3645
(dp3646
g62
(dp3647
sg71
g3641
sg64
(lp3648
g57
(g58
g59
NtRp3649
(dp3650
g62
(dp3651
g70
I3
ssg71
g3645
sg64
(lp3652
S'2'
asbasbasbag57
(g73
g59
NtRp3653
(dp3654
g62
(dp3655
sg71
g3613
sg64
(lp3656
g57
(g78
g59
NtRp3657
(dp3658
g62
(dp3659
sg71
g3653
sg64
(lp3660
g57
(g58
g59
NtRp3661
(dp3662
g62
(dp3663
g70
I3
ssg71
g3657
sg64
(lp3664
S'datetime.datetime(2012, 12, 17, 15, 3, 30)'
p3665
asbasbasbag57
(g73
g59
NtRp3666
(dp3667
g62
(dp3668
sg71
g3613
sg64
(lp3669
g57
(g78
g59
NtRp3670
(dp3671
g62
(dp3672
sg71
g3666
sg64
(lp3673
g57
(g58
g59
NtRp3674
(dp3675
g62
(dp3676
g70
I3
ssg71
g3670
sg64
(lp3677
g3004
asbasbasbasbasbasbasbasbasbasbasbag57
(g73
g59
NtRp3678
(dp3679
g62
(dp3680
sg71
g67
sg64
(lp3681
g57
(g78
g59
NtRp3682
(dp3683
g62
(dp3684
g82
g83
ssg71
g3678
sg64
(lp3685
S'is_https'
p3686
asbag57
(g78
g59
NtRp3687
(dp3688
g62
(dp3689
g89
g90
ssg71
g3678
sg64
(lp3690
S':'
asbag57
(g78
g59
NtRp3691
(dp3692
g62
(dp3693
sg71
g3678
sg64
(lp3694
g57
(g58
g59
NtRp3695
(dp3696
g62
(dp3697
g70
I5
ssg71
g3691
sg64
(lp3698
g100
asbasbasbag57
(g73
g59
NtRp3699
(dp3700
g62
(dp3701
sg71
g67
sg64
(lp3702
g57
(g78
g59
NtRp3703
(dp3704
g62
(dp3705
g82
g83
ssg71
g3699
sg64
(lp3706
S'is_local'
p3707
asbag57
(g78
g59
NtRp3708
(dp3709
g62
(dp3710
g89
g90
ssg71
g3699
sg64
(lp3711
S':'
asbag57
(g78
g59
NtRp3712
(dp3713
g62
(dp3714
sg71
g3699
sg64
(lp3715
g57
(g58
g59
NtRp3716
(dp3717
g62
(dp3718
g70
I5
ssg71
g3712
sg64
(lp3719
g3113
asbasbasbag57
(g73
g59
NtRp3720
(dp3721
g62
(dp3722
sg71
g67
sg64
(lp3723
g57
(g78
g59
NtRp3724
(dp3725
g62
(dp3726
g82
g83
ssg71
g3720
sg64
(lp3727
S'is_restful'
p3728
asbag57
(g78
g59
NtRp3729
(dp3730
g62
(dp3731
g89
g90
ssg71
g3720
sg64
(lp3732
S':'
asbag57
(g78
g59
NtRp3733
(dp3734
g62
(dp3735
sg71
g3720
sg64
(lp3736
g57
(g58
g59
NtRp3737
(dp3738
g62
(dp3739
g70
I5
ssg71
g3733
sg64
(lp3740
g100
asbasbasbag57
(g73
g59
NtRp3741
(dp3742
g62
(dp3743
sg71
g67
sg64
(lp3744
g57
(g78
g59
NtRp3745
(dp3746
g62
(dp3747
g82
g83
ssg71
g3741
sg64
(lp3748
S'now'
p3749
asbag57
(g78
g59
NtRp3750
(dp3751
g62
(dp3752
g89
g90
ssg71
g3741
sg64
(lp3753
S':'
asbag57
(g78
g59
NtRp3754
(dp3755
g62
(dp3756
sg71
g3741
sg64
(lp3757
g57
(g58
g59
NtRp3758
(dp3759
g62
(dp3760
g70
I5
ssg71
g3754
sg64
(lp3761
S'datetime.datetime(2013, 2, 4, 11, 49, 57, 916567)'
p3762
asbasbasbag57
(g73
g59
NtRp3763
(dp3764
g62
(dp3765
sg71
g67
sg64
(lp3766
g57
(g78
g59
NtRp3767
(dp3768
g62
(dp3769
g82
g83
ssg71
g3763
sg64
(lp3770
S'post_vars'
p3771
asbag57
(g78
g59
NtRp3772
(dp3773
g62
(dp3774
g89
g90
ssg71
g3763
sg64
(lp3775
S':'
asbag57
(g78
g59
NtRp3776
(dp3777
g62
(dp3778
sg71
g3763
sg64
(lp3779
g57
(g58
g59
NtRp3780
(dp3781
g62
(dp3782
g70
I5
ssg71
g3776
sg64
(lp3783
g57
(g66
g59
NtRp3784
(dp3785
g62
(dp3786
g70
I4
ssg71
Nsg64
(lp3787
sbasbasbasbag57
(g73
g59
NtRp3788
(dp3789
g62
(dp3790
sg71
g67
sg64
(lp3791
g57
(g78
g59
NtRp3792
(dp3793
g62
(dp3794
g82
g83
ssg71
g3788
sg64
(lp3795
S'url'
p3796
asbag57
(g78
g59
NtRp3797
(dp3798
g62
(dp3799
g89
g90
ssg71
g3788
sg64
(lp3800
S':'
asbag57
(g78
g59
NtRp3801
(dp3802
g62
(dp3803
sg71
g3788
sg64
(lp3804
g57
(g58
g59
NtRp3805
(dp3806
g62
(dp3807
g70
I5
ssg71
g3801
sg64
(lp3808
g2658
asbasbasbag57
(g73
g59
NtRp3809
(dp3810
g62
(dp3811
sg71
g67
sg64
(lp3812
g57
(g78
g59
NtRp3813
(dp3814
g62
(dp3815
g82
g83
ssg71
g3809
sg64
(lp3816
S'utcnow'
p3817
asbag57
(g78
g59
NtRp3818
(dp3819
g62
(dp3820
g89
g90
ssg71
g3809
sg64
(lp3821
S':'
asbag57
(g78
g59
NtRp3822
(dp3823
g62
(dp3824
sg71
g3809
sg64
(lp3825
g57
(g58
g59
NtRp3826
(dp3827
g62
(dp3828
g70
I5
ssg71
g3822
sg64
(lp3829
S'datetime.datetime(2013, 2, 4, 13, 49, 57, 916614)'
p3830
asbasbasbag57
(g73
g59
NtRp3831
(dp3832
g62
(dp3833
sg71
g67
sg64
(lp3834
g57
(g78
g59
NtRp3835
(dp3836
g62
(dp3837
g82
g83
ssg71
g3831
sg64
(lp3838
S'uuid'
p3839
asbag57
(g78
g59
NtRp3840
(dp3841
g62
(dp3842
g89
g90
ssg71
g3831
sg64
(lp3843
S':'
asbag57
(g78
g59
NtRp3844
(dp3845
g62
(dp3846
sg71
g3831
sg64
(lp3847
g57
(g58
g59
NtRp3848
(dp3849
g62
(dp3850
g70
I5
ssg71
g3844
sg64
(lp3851
S'projeto/127.0.0.1.2013-02-04.11-49-57.aac0aa56-716f-4075-beab-5948c2374fc5'
p3852
asbasbasbag57
(g73
g59
NtRp3853
(dp3854
g62
(dp3855
sg71
g67
sg64
(lp3856
g57
(g78
g59
NtRp3857
(dp3858
g62
(dp3859
g82
g83
ssg71
g3853
sg64
(lp3860
S'vars'
p3861
asbag57
(g78
g59
NtRp3862
(dp3863
g62
(dp3864
g89
g90
ssg71
g3853
sg64
(lp3865
S':'
asbag57
(g78
g59
NtRp3866
(dp3867
g62
(dp3868
sg71
g3853
sg64
(lp3869
g57
(g58
g59
NtRp3870
(dp3871
g62
(dp3872
g70
I5
ssg71
g3866
sg64
(lp3873
g57
(g66
g59
NtRp3874
(dp3875
g62
(dp3876
g70
I4
ssg71
Nsg64
(lp3877
sbasbasbasbag57
(g73
g59
NtRp3878
(dp3879
g62
(dp3880
sg71
g67
sg64
(lp3881
g57
(g78
g59
NtRp3882
(dp3883
g62
(dp3884
g82
g83
ssg71
g3878
sg64
(lp3885
S'wsgi'
p3886
asbag57
(g78
g59
NtRp3887
(dp3888
g62
(dp3889
g89
g90
ssg71
g3878
sg64
(lp3890
S':'
asbag57
(g78
g59
NtRp3891
(dp3892
g62
(dp3893
sg71
g3878
sg64
(lp3894
g57
(g58
g59
NtRp3895
(dp3896
g62
(dp3897
g70
I5
ssg71
g3891
sg64
(lp3898
g57
(g66
g59
NtRp3899
(dp3900
g62
(dp3901
g70
I4
ssg71
Nsg64
(lp3902
g57
(g73
g59
NtRp3903
(dp3904
g62
(dp3905
sg71
g3899
sg64
(lp3906
g57
(g78
g59
NtRp3907
(dp3908
g62
(dp3909
g82
g83
ssg71
g3903
sg64
(lp3910
S'environ'
p3911
asbag57
(g78
g59
NtRp3912
(dp3913
g62
(dp3914
g89
g90
ssg71
g3903
sg64
(lp3915
S':'
asbag57
(g78
g59
NtRp3916
(dp3917
g62
(dp3918
sg71
g3903
sg64
(lp3919
g57
(g58
g59
NtRp3920
(dp3921
g62
(dp3922
g70
I4
ssg71
g3916
sg64
(lp3923
g57
(g66
g59
NtRp3924
(dp3925
g62
(dp3926
g70
I3
ssg71
Nsg64
(lp3927
g57
(g73
g59
NtRp3928
(dp3929
g62
(dp3930
sg71
g3924
sg64
(lp3931
g57
(g78
g59
NtRp3932
(dp3933
g62
(dp3934
g82
g83
ssg71
g3928
sg64
(lp3935
S'HTTP_ACCEPT'
p3936
asbag57
(g78
g59
NtRp3937
(dp3938
g62
(dp3939
g89
g90
ssg71
g3928
sg64
(lp3940
S':'
asbag57
(g78
g59
NtRp3941
(dp3942
g62
(dp3943
sg71
g3928
sg64
(lp3944
g57
(g58
g59
NtRp3945
(dp3946
g62
(dp3947
g70
I3
ssg71
g3941
sg64
(lp3948
g2328
asbasbasbag57
(g73
g59
NtRp3949
(dp3950
g62
(dp3951
sg71
g3924
sg64
(lp3952
g57
(g78
g59
NtRp3953
(dp3954
g62
(dp3955
g82
g83
ssg71
g3949
sg64
(lp3956
S'HTTP_ACCEPT_CHARSET'
p3957
asbag57
(g78
g59
NtRp3958
(dp3959
g62
(dp3960
g89
g90
ssg71
g3949
sg64
(lp3961
S':'
asbag57
(g78
g59
NtRp3962
(dp3963
g62
(dp3964
sg71
g3949
sg64
(lp3965
g57
(g58
g59
NtRp3966
(dp3967
g62
(dp3968
g70
I3
ssg71
g3962
sg64
(lp3969
g2350
asbasbasbag57
(g73
g59
NtRp3970
(dp3971
g62
(dp3972
sg71
g3924
sg64
(lp3973
g57
(g78
g59
NtRp3974
(dp3975
g62
(dp3976
g82
g83
ssg71
g3970
sg64
(lp3977
S'HTTP_ACCEPT_ENCODING'
p3978
asbag57
(g78
g59
NtRp3979
(dp3980
g62
(dp3981
g89
g90
ssg71
g3970
sg64
(lp3982
S':'
asbag57
(g78
g59
NtRp3983
(dp3984
g62
(dp3985
sg71
g3970
sg64
(lp3986
g57
(g58
g59
NtRp3987
(dp3988
g62
(dp3989
g70
I3
ssg71
g3983
sg64
(lp3990
g2372
asbasbasbag57
(g73
g59
NtRp3991
(dp3992
g62
(dp3993
sg71
g3924
sg64
(lp3994
g57
(g78
g59
NtRp3995
(dp3996
g62
(dp3997
g82
g83
ssg71
g3991
sg64
(lp3998
S'HTTP_ACCEPT_LANGUAGE'
p3999
asbag57
(g78
g59
NtRp4000
(dp4001
g62
(dp4002
g89
g90
ssg71
g3991
sg64
(lp4003
S':'
asbag57
(g78
g59
NtRp4004
(dp4005
g62
(dp4006
sg71
g3991
sg64
(lp4007
g57
(g58
g59
NtRp4008
(dp4009
g62
(dp4010
g70
I3
ssg71
g4004
sg64
(lp4011
g2394
asbasbasbag57
(g73
g59
NtRp4012
(dp4013
g62
(dp4014
sg71
g3924
sg64
(lp4015
g57
(g78
g59
NtRp4016
(dp4017
g62
(dp4018
g82
g83
ssg71
g4012
sg64
(lp4019
S'HTTP_CONNECTION'
p4020
asbag57
(g78
g59
NtRp4021
(dp4022
g62
(dp4023
g89
g90
ssg71
g4012
sg64
(lp4024
S':'
asbag57
(g78
g59
NtRp4025
(dp4026
g62
(dp4027
sg71
g4012
sg64
(lp4028
g57
(g58
g59
NtRp4029
(dp4030
g62
(dp4031
g70
I3
ssg71
g4025
sg64
(lp4032
g2416
asbasbasbag57
(g73
g59
NtRp4033
(dp4034
g62
(dp4035
sg71
g3924
sg64
(lp4036
g57
(g78
g59
NtRp4037
(dp4038
g62
(dp4039
g82
g83
ssg71
g4033
sg64
(lp4040
S'HTTP_COOKIE'
p4041
asbag57
(g78
g59
NtRp4042
(dp4043
g62
(dp4044
g89
g90
ssg71
g4033
sg64
(lp4045
S':'
asbag57
(g78
g59
NtRp4046
(dp4047
g62
(dp4048
sg71
g4033
sg64
(lp4049
g57
(g58
g59
NtRp4050
(dp4051
g62
(dp4052
g70
I3
ssg71
g4046
sg64
(lp4053
g2438
asbasbasbag57
(g73
g59
NtRp4054
(dp4055
g62
(dp4056
sg71
g3924
sg64
(lp4057
g57
(g78
g59
NtRp4058
(dp4059
g62
(dp4060
g82
g83
ssg71
g4054
sg64
(lp4061
S'HTTP_HOST'
p4062
asbag57
(g78
g59
NtRp4063
(dp4064
g62
(dp4065
g89
g90
ssg71
g4054
sg64
(lp4066
S':'
asbag57
(g78
g59
NtRp4067
(dp4068
g62
(dp4069
sg71
g4054
sg64
(lp4070
g57
(g58
g59
NtRp4071
(dp4072
g62
(dp4073
g70
I3
ssg71
g4067
sg64
(lp4074
g2460
asbasbasbag57
(g73
g59
NtRp4075
(dp4076
g62
(dp4077
sg71
g3924
sg64
(lp4078
g57
(g78
g59
NtRp4079
(dp4080
g62
(dp4081
g82
g83
ssg71
g4075
sg64
(lp4082
S'HTTP_REFERER'
p4083
asbag57
(g78
g59
NtRp4084
(dp4085
g62
(dp4086
g89
g90
ssg71
g4075
sg64
(lp4087
S':'
asbag57
(g78
g59
NtRp4088
(dp4089
g62
(dp4090
sg71
g4075
sg64
(lp4091
g57
(g58
g59
NtRp4092
(dp4093
g62
(dp4094
g70
I3
ssg71
g4088
sg64
(lp4095
g2482
asbasbasbag57
(g73
g59
NtRp4096
(dp4097
g62
(dp4098
sg71
g3924
sg64
(lp4099
g57
(g78
g59
NtRp4100
(dp4101
g62
(dp4102
g82
g83
ssg71
g4096
sg64
(lp4103
S'HTTP_USER_AGENT'
p4104
asbag57
(g78
g59
NtRp4105
(dp4106
g62
(dp4107
g89
g90
ssg71
g4096
sg64
(lp4108
S':'
asbag57
(g78
g59
NtRp4109
(dp4110
g62
(dp4111
sg71
g4096
sg64
(lp4112
g57
(g58
g59
NtRp4113
(dp4114
g62
(dp4115
g70
I3
ssg71
g4109
sg64
(lp4116
g2504
asbasbasbag57
(g73
g59
NtRp4117
(dp4118
g62
(dp4119
sg71
g3924
sg64
(lp4120
g57
(g78
g59
NtRp4121
(dp4122
g62
(dp4123
g82
g83
ssg71
g4117
sg64
(lp4124
S'PATH_INFO'
p4125
asbag57
(g78
g59
NtRp4126
(dp4127
g62
(dp4128
g89
g90
ssg71
g4117
sg64
(lp4129
S':'
asbag57
(g78
g59
NtRp4130
(dp4131
g62
(dp4132
sg71
g4117
sg64
(lp4133
g57
(g58
g59
NtRp4134
(dp4135
g62
(dp4136
g70
I3
ssg71
g4130
sg64
(lp4137
g2658
asbasbasbag57
(g73
g59
NtRp4138
(dp4139
g62
(dp4140
sg71
g3924
sg64
(lp4141
g57
(g78
g59
NtRp4142
(dp4143
g62
(dp4144
g82
g83
ssg71
g4138
sg64
(lp4145
S'QUERY_STRING'
p4146
asbag57
(g78
g59
NtRp4147
(dp4148
g62
(dp4149
g89
g90
ssg71
g4138
sg64
(lp4150
S':'
asbag57
(g78
g59
NtRp4151
(dp4152
g62
(dp4153
sg71
g4138
sg64
(lp4154
g57
(g58
g59
NtRp4155
(dp4156
g62
(dp4157
g70
I3
ssg71
g4151
sg64
(lp4158
S''
asbasbasbag57
(g73
g59
NtRp4159
(dp4160
g62
(dp4161
sg71
g3924
sg64
(lp4162
g57
(g78
g59
NtRp4163
(dp4164
g62
(dp4165
g82
g83
ssg71
g4159
sg64
(lp4166
S'REMOTE_ADDR'
p4167
asbag57
(g78
g59
NtRp4168
(dp4169
g62
(dp4170
g89
g90
ssg71
g4159
sg64
(lp4171
S':'
asbag57
(g78
g59
NtRp4172
(dp4173
g62
(dp4174
sg71
g4159
sg64
(lp4175
g57
(g58
g59
NtRp4176
(dp4177
g62
(dp4178
g70
I3
ssg71
g4172
sg64
(lp4179
g212
asbasbasbag57
(g73
g59
NtRp4180
(dp4181
g62
(dp4182
sg71
g3924
sg64
(lp4183
g57
(g78
g59
NtRp4184
(dp4185
g62
(dp4186
g82
g83
ssg71
g4180
sg64
(lp4187
S'REMOTE_PORT'
p4188
asbag57
(g78
g59
NtRp4189
(dp4190
g62
(dp4191
g89
g90
ssg71
g4180
sg64
(lp4192
S':'
asbag57
(g78
g59
NtRp4193
(dp4194
g62
(dp4195
sg71
g4180
sg64
(lp4196
g57
(g58
g59
NtRp4197
(dp4198
g62
(dp4199
g70
I3
ssg71
g4193
sg64
(lp4200
g2722
asbasbasbag57
(g73
g59
NtRp4201
(dp4202
g62
(dp4203
sg71
g3924
sg64
(lp4204
g57
(g78
g59
NtRp4205
(dp4206
g62
(dp4207
g82
g83
ssg71
g4201
sg64
(lp4208
S'REQUEST_METHOD'
p4209
asbag57
(g78
g59
NtRp4210
(dp4211
g62
(dp4212
g89
g90
ssg71
g4201
sg64
(lp4213
S':'
asbag57
(g78
g59
NtRp4214
(dp4215
g62
(dp4216
sg71
g4201
sg64
(lp4217
g57
(g58
g59
NtRp4218
(dp4219
g62
(dp4220
g70
I3
ssg71
g4214
sg64
(lp4221
g2744
asbasbasbag57
(g73
g59
NtRp4222
(dp4223
g62
(dp4224
sg71
g3924
sg64
(lp4225
g57
(g78
g59
NtRp4226
(dp4227
g62
(dp4228
g82
g83
ssg71
g4222
sg64
(lp4229
S'REQUEST_URI'
p4230
asbag57
(g78
g59
NtRp4231
(dp4232
g62
(dp4233
g89
g90
ssg71
g4222
sg64
(lp4234
S':'
asbag57
(g78
g59
NtRp4235
(dp4236
g62
(dp4237
sg71
g4222
sg64
(lp4238
g57
(g58
g59
NtRp4239
(dp4240
g62
(dp4241
g70
I3
ssg71
g4235
sg64
(lp4242
g2766
asbasbasbag57
(g73
g59
NtRp4243
(dp4244
g62
(dp4245
sg71
g3924
sg64
(lp4246
g57
(g78
g59
NtRp4247
(dp4248
g62
(dp4249
g82
g83
ssg71
g4243
sg64
(lp4250
S'SCRIPT_NAME'
p4251
asbag57
(g78
g59
NtRp4252
(dp4253
g62
(dp4254
g89
g90
ssg71
g4243
sg64
(lp4255
S':'
asbag57
(g78
g59
NtRp4256
(dp4257
g62
(dp4258
sg71
g4243
sg64
(lp4259
g57
(g58
g59
NtRp4260
(dp4261
g62
(dp4262
g70
I3
ssg71
g4256
sg64
(lp4263
S''
asbasbasbag57
(g73
g59
NtRp4264
(dp4265
g62
(dp4266
sg71
g3924
sg64
(lp4267
g57
(g78
g59
NtRp4268
(dp4269
g62
(dp4270
g82
g83
ssg71
g4264
sg64
(lp4271
S'SERVER_NAME'
p4272
asbag57
(g78
g59
NtRp4273
(dp4274
g62
(dp4275
g89
g90
ssg71
g4264
sg64
(lp4276
S':'
asbag57
(g78
g59
NtRp4277
(dp4278
g62
(dp4279
sg71
g4264
sg64
(lp4280
g57
(g58
g59
NtRp4281
(dp4282
g62
(dp4283
g70
I3
ssg71
g4277
sg64
(lp4284
g2809
asbasbasbag57
(g73
g59
NtRp4285
(dp4286
g62
(dp4287
sg71
g3924
sg64
(lp4288
g57
(g78
g59
NtRp4289
(dp4290
g62
(dp4291
g82
g83
ssg71
g4285
sg64
(lp4292
S'SERVER_PORT'
p4293
asbag57
(g78
g59
NtRp4294
(dp4295
g62
(dp4296
g89
g90
ssg71
g4285
sg64
(lp4297
S':'
asbag57
(g78
g59
NtRp4298
(dp4299
g62
(dp4300
sg71
g4285
sg64
(lp4301
g57
(g58
g59
NtRp4302
(dp4303
g62
(dp4304
g70
I3
ssg71
g4298
sg64
(lp4305
g2831
asbasbasbag57
(g73
g59
NtRp4306
(dp4307
g62
(dp4308
sg71
g3924
sg64
(lp4309
g57
(g78
g59
NtRp4310
(dp4311
g62
(dp4312
g82
g83
ssg71
g4306
sg64
(lp4313
S'SERVER_PROTOCOL'
p4314
asbag57
(g78
g59
NtRp4315
(dp4316
g62
(dp4317
g89
g90
ssg71
g4306
sg64
(lp4318
S':'
asbag57
(g78
g59
NtRp4319
(dp4320
g62
(dp4321
sg71
g4306
sg64
(lp4322
g57
(g58
g59
NtRp4323
(dp4324
g62
(dp4325
g70
I3
ssg71
g4319
sg64
(lp4326
g2853
asbasbasbag57
(g73
g59
NtRp4327
(dp4328
g62
(dp4329
sg71
g3924
sg64
(lp4330
g57
(g78
g59
NtRp4331
(dp4332
g62
(dp4333
g82
g83
ssg71
g4327
sg64
(lp4334
S'SERVER_SOFTWARE'
p4335
asbag57
(g78
g59
NtRp4336
(dp4337
g62
(dp4338
g89
g90
ssg71
g4327
sg64
(lp4339
S':'
asbag57
(g78
g59
NtRp4340
(dp4341
g62
(dp4342
sg71
g4327
sg64
(lp4343
g57
(g58
g59
NtRp4344
(dp4345
g62
(dp4346
g70
I3
ssg71
g4340
sg64
(lp4347
g2875
asbasbasbag57
(g73
g59
NtRp4348
(dp4349
g62
(dp4350
sg71
g3924
sg64
(lp4351
g57
(g78
g59
NtRp4352
(dp4353
g62
(dp4354
g82
g83
ssg71
g4348
sg64
(lp4355
S'WEB2PY_ORIGINAL_URI'
p4356
asbag57
(g78
g59
NtRp4357
(dp4358
g62
(dp4359
g89
g90
ssg71
g4348
sg64
(lp4360
S':'
asbag57
(g78
g59
NtRp4361
(dp4362
g62
(dp4363
sg71
g4348
sg64
(lp4364
g57
(g58
g59
NtRp4365
(dp4366
g62
(dp4367
g70
I3
ssg71
g4361
sg64
(lp4368
g2658
asbasbasbag57
(g73
g59
NtRp4369
(dp4370
g62
(dp4371
sg71
g3924
sg64
(lp4372
g57
(g78
g59
NtRp4373
(dp4374
g62
(dp4375
g82
g83
ssg71
g4369
sg64
(lp4376
S'wsgi.errors'
p4377
asbag57
(g78
g59
NtRp4378
(dp4379
g62
(dp4380
g89
g90
ssg71
g4369
sg64
(lp4381
S':'
asbag57
(g78
g59
NtRp4382
(dp4383
g62
(dp4384
sg71
g4369
sg64
(lp4385
g57
(g58
g59
NtRp4386
(dp4387
g62
(dp4388
g70
I3
ssg71
g4382
sg64
(lp4389
S"<open file '<stderr>', mode 'w' at 0x7fb4dd175270>"
p4390
asbasbasbag57
(g73
g59
NtRp4391
(dp4392
g62
(dp4393
sg71
g3924
sg64
(lp4394
g57
(g78
g59
NtRp4395
(dp4396
g62
(dp4397
g82
g83
ssg71
g4391
sg64
(lp4398
S'wsgi.file_wrapper'
p4399
asbag57
(g78
g59
NtRp4400
(dp4401
g62
(dp4402
g89
g90
ssg71
g4391
sg64
(lp4403
S':'
asbag57
(g78
g59
NtRp4404
(dp4405
g62
(dp4406
sg71
g4391
sg64
(lp4407
g57
(g58
g59
NtRp4408
(dp4409
g62
(dp4410
g70
I3
ssg71
g4404
sg64
(lp4411
S'<class wsgiref.util.FileWrapper at 0x37136d0>'
p4412
asbasbasbag57
(g73
g59
NtRp4413
(dp4414
g62
(dp4415
sg71
g3924
sg64
(lp4416
g57
(g78
g59
NtRp4417
(dp4418
g62
(dp4419
g82
g83
ssg71
g4413
sg64
(lp4420
S'wsgi.input'
p4421
asbag57
(g78
g59
NtRp4422
(dp4423
g62
(dp4424
g89
g90
ssg71
g4413
sg64
(lp4425
S':'
asbag57
(g78
g59
NtRp4426
(dp4427
g62
(dp4428
sg71
g4413
sg64
(lp4429
g57
(g58
g59
NtRp4430
(dp4431
g62
(dp4432
g70
I3
ssg71
g4426
sg64
(lp4433
S'<cStringIO.StringO object at 0x7fb4b841a7a0>'
p4434
asbasbasbag57
(g73
g59
NtRp4435
(dp4436
g62
(dp4437
sg71
g3924
sg64
(lp4438
g57
(g78
g59
NtRp4439
(dp4440
g62
(dp4441
g82
g83
ssg71
g4435
sg64
(lp4442
S'wsgi.multiprocess'
p4443
asbag57
(g78
g59
NtRp4444
(dp4445
g62
(dp4446
g89
g90
ssg71
g4435
sg64
(lp4447
S':'
asbag57
(g78
g59
NtRp4448
(dp4449
g62
(dp4450
sg71
g4435
sg64
(lp4451
g57
(g58
g59
NtRp4452
(dp4453
g62
(dp4454
g70
I3
ssg71
g4448
sg64
(lp4455
g100
asbasbasbag57
(g73
g59
NtRp4456
(dp4457
g62
(dp4458
sg71
g3924
sg64
(lp4459
g57
(g78
g59
NtRp4460
(dp4461
g62
(dp4462
g82
g83
ssg71
g4456
sg64
(lp4463
S'wsgi.multithread'
p4464
asbag57
(g78
g59
NtRp4465
(dp4466
g62
(dp4467
g89
g90
ssg71
g4456
sg64
(lp4468
S':'
asbag57
(g78
g59
NtRp4469
(dp4470
g62
(dp4471
sg71
g4456
sg64
(lp4472
g57
(g58
g59
NtRp4473
(dp4474
g62
(dp4475
g70
I3
ssg71
g4469
sg64
(lp4476
g3113
asbasbasbag57
(g73
g59
NtRp4477
(dp4478
g62
(dp4479
sg71
g3924
sg64
(lp4480
g57
(g78
g59
NtRp4481
(dp4482
g62
(dp4483
g82
g83
ssg71
g4477
sg64
(lp4484
S'wsgi.run_once'
p4485
asbag57
(g78
g59
NtRp4486
(dp4487
g62
(dp4488
g89
g90
ssg71
g4477
sg64
(lp4489
S':'
asbag57
(g78
g59
NtRp4490
(dp4491
g62
(dp4492
sg71
g4477
sg64
(lp4493
g57
(g58
g59
NtRp4494
(dp4495
g62
(dp4496
g70
I3
ssg71
g4490
sg64
(lp4497
g100
asbasbasbag57
(g73
g59
NtRp4498
(dp4499
g62
(dp4500
sg71
g3924
sg64
(lp4501
g57
(g78
g59
NtRp4502
(dp4503
g62
(dp4504
g82
g83
ssg71
g4498
sg64
(lp4505
S'wsgi.url_scheme'
p4506
asbag57
(g78
g59
NtRp4507
(dp4508
g62
(dp4509
g89
g90
ssg71
g4498
sg64
(lp4510
S':'
asbag57
(g78
g59
NtRp4511
(dp4512
g62
(dp4513
sg71
g4498
sg64
(lp4514
g57
(g58
g59
NtRp4515
(dp4516
g62
(dp4517
g70
I3
ssg71
g4511
sg64
(lp4518
g3156
asbasbasbag57
(g73
g59
NtRp4519
(dp4520
g62
(dp4521
sg71
g3924
sg64
(lp4522
g57
(g78
g59
NtRp4523
(dp4524
g62
(dp4525
g82
g83
ssg71
g4519
sg64
(lp4526
S'wsgi.version'
p4527
asbag57
(g78
g59
NtRp4528
(dp4529
g62
(dp4530
g89
g90
ssg71
g4519
sg64
(lp4531
S':'
asbag57
(g78
g59
NtRp4532
(dp4533
g62
(dp4534
sg71
g4519
sg64
(lp4535
g57
(g58
g59
NtRp4536
(dp4537
g62
(dp4538
g70
I3
ssg71
g4532
sg64
(lp4539
S'1'
asbasbasbasbasbasbasbasbasbasbasbasbasbsS'frames'
p4540
(lp4541
(dp4542
S'file'
p4543
S'/var/www/web2py_curso/gluon/restricted.py'
p4544
sS'dump'
p4545
(dp4546
S'environment'
p4547
S"{'A': <class 'gluon.html.A'>, 'Auth': <class 'gluon.tools.Auth'>, 'B': <class 'gluon.html.B'>, 'BEAUTIFY': <class 'gluon.html.BEAUTIFY'>, 'BODY': <class 'gluon.html.BODY'>, 'BR': <class 'gluon.html.BR'>, 'BUTTON': <class 'gluon.html.BUTTON'>, 'Blog': <Table blog (id,title,description)>, 'CAT': <class 'gluon.html.CAT'>, 'CENTER': <class 'gluon.html.CENTER'>, ...}"
p4548
sS'ccode'
p4549
S'<code object <module> at 0x7fb4cc33fa30, file "/...plications/projeto/models/validators.py", line 2>'
p4550
ssS'lnum'
p4551
I212
sS'lines'
p4552
(dp4553
I207
S'    try:'
p4554
sI208
S'        if isinstance(code, types.CodeType):'
p4555
sI209
S'            ccode = code'
p4556
sI210
S'        else:'
p4557
sI211
S'            ccode = compile2(code, layer)'
p4558
sI212
S'        exec ccode in environment'
p4559
sI213
S'    except HTTP:'
p4560
sI214
S'        raise'
p4561
sI215
S'    except RestrictedError:'
p4562
sI216
S'        # do not encapsulate (obfuscate) the original RestrictedError'
p4563
ssS'call'
p4564
S'(code=\'\\nPost.blog.requires = IS_IN_DB(db, \\\'blog.id\\\', "%...= IS_IN_DB(db, \\\'auth_user.id\\\', "%(first_name)s")\\n\', environment={\'A\': <class \'gluon.html.A\'>, \'Auth\': <class \'gluon.tools.Auth\'>, \'B\': <class \'gluon.html.B\'>, \'BEAUTIFY\': <class \'gluon.html.BEAUTIFY\'>, \'BODY\': <class \'gluon.html.BODY\'>, \'BR\': <class \'gluon.html.BR\'>, \'BUTTON\': <class \'gluon.html.BUTTON\'>, \'Blog\': <Table blog (id,title,description)>, \'CAT\': <class \'gluon.html.CAT\'>, \'CENTER\': <class \'gluon.html.CENTER\'>, ...}, layer=\'/var/www/web2py_curso/applications/projeto/models/validators.py\')'
p4565
sS'func'
p4566
S'restricted'
p4567
sa(dp4568
g4543
S'/var/www/web2py_curso/applications/projeto/models/validators.py'
p4569
sg4545
(dp4570
S'Post'
p4571
S'<Table post (id,blog,title,slug,post_body,post_d...e,created_on,created_by,modified_on,modified_by)>'
p4572
sS'Post.post'
p4573
S'undefined'
p4574
sS'db'
p4575
S'<DAL uri="sqlite://projeto.sqlite">'
p4576
sS'IS_IN_DB'
p4577
S"<class 'gluon.validators.IS_IN_DB'>"
p4578
ssg4551
I9
sg4552
(dp4579
I1
S''
sI2
S'Post.blog.requires = IS_IN_DB(db, \'blog.id\', "%(title)s")'
p4580
sI3
S'Post.title.requires = [IS_NOT_EMPTY(error_message=T("Esta vazio!")),'
p4581
sI4
S'                       IS_NOT_IN_DB(db, \'post.title\', error_message=T("title already exists"))]'
p4582
sI5
S'Post.category.requires = IS_IN_DB(db, \'category.id\', "%(name)s", multiple=True)'
p4583
sI6
S'#Post.category.widget = SQLFORM.widgets.checkboxes.widget'
p4584
sI7
S'Post.slug.compute = lambda registro: IS_SLUG()(registro.title)[1]'
p4585
sI8
S''
sI9
S'Post.post.created_on = IS_IN_DB(db, \'auth_user.id\', "%(first_name)s")'
p4586
ssg4564
S'()'
p4587
sg4566
S'<module>'
p4588
sa(dp4589
g4543
S'/var/www/web2py_curso/gluon/dal.py'
p4590
sg4545
(dp4591
S'builtinstr'
p4592
S"<type 'str'>"
p4593
sS'self'
p4594
S'<Table post (id,blog,title,slug,post_body,post_d...e,created_on,created_by,modified_on,modified_by)>'
p4595
sS'global ogetattr'
p4596
S"<slot wrapper '__getattribute__' of 'object' objects>"
p4597
sS'key'
p4598
S"'post'"
p4599
ssg4551
I7745
sg4552
(dp4600
I7744
S'        elif key:'
p4601
sI7745
S'            return ogetattr(self, str(key))'
p4602
sI7746
S''
sI7747
S'    def __call__(self, key=DEFAULT, **kwargs):'
p4603
sI7748
S"        for_update = kwargs.get('_for_update',False)"
p4604
sI7749
S"        if '_for_update' in kwargs: del kwargs['_for_update']"
p4605
sI7740
S'                return rows[0]'
p4606
sI7741
S'            return None'
p4607
sI7742
S"        elif str(key).isdigit() or 'google' in DRIVERS and isinstance(key, Key):"
p4608
sI7743
S'            return self._db(self._id == key).select(limitby=(0,1)).first()'
p4609
ssg4564
S"(self=<Table post (id,blog,title,slug,post_body,post_d...e,created_on,created_by,modified_on,modified_by)>, key='post')"
p4610
sg4566
g20
sasS'pyver'
p4611
S'Python 2.7.3: /usr/bin/python'
p4612
sS'session'
p4613
g57
(g58
g59
NtRp4614
(dp4615
g62
(dp4616
sg64
(lp4617
g57
(g66
g59
NtRp4618
(dp4619
g62
(dp4620
g70
I5
ssg71
Nsg64
(lp4621
g57
(g73
g59
NtRp4622
(dp4623
g62
(dp4624
sg71
g4618
sg64
(lp4625
g57
(g78
g59
NtRp4626
(dp4627
g62
(dp4628
g82
g83
ssg71
g4622
sg64
(lp4629
S'auth'
p4630
asbag57
(g78
g59
NtRp4631
(dp4632
g62
(dp4633
g89
g90
ssg71
g4622
sg64
(lp4634
S':'
asbag57
(g78
g59
NtRp4635
(dp4636
g62
(dp4637
sg71
g4622
sg64
(lp4638
g57
(g58
g59
NtRp4639
(dp4640
g62
(dp4641
g70
I5
ssg71
g4635
sg64
(lp4642
g57
(g66
g59
NtRp4643
(dp4644
g62
(dp4645
g70
I4
ssg71
Nsg64
(lp4646
g57
(g73
g59
NtRp4647
(dp4648
g62
(dp4649
sg71
g4643
sg64
(lp4650
g57
(g78
g59
NtRp4651
(dp4652
g62
(dp4653
g82
g83
ssg71
g4647
sg64
(lp4654
S'expiration'
p4655
asbag57
(g78
g59
NtRp4656
(dp4657
g62
(dp4658
g89
g90
ssg71
g4647
sg64
(lp4659
S':'
asbag57
(g78
g59
NtRp4660
(dp4661
g62
(dp4662
sg71
g4647
sg64
(lp4663
g57
(g58
g59
NtRp4664
(dp4665
g62
(dp4666
g70
I4
ssg71
g4660
sg64
(lp4667
S'3600'
p4668
asbasbasbag57
(g73
g59
NtRp4669
(dp4670
g62
(dp4671
sg71
g4643
sg64
(lp4672
g57
(g78
g59
NtRp4673
(dp4674
g62
(dp4675
g82
g83
ssg71
g4669
sg64
(lp4676
S'hmac_key'
p4677
asbag57
(g78
g59
NtRp4678
(dp4679
g62
(dp4680
g89
g90
ssg71
g4669
sg64
(lp4681
S':'
asbag57
(g78
g59
NtRp4682
(dp4683
g62
(dp4684
sg71
g4669
sg64
(lp4685
g57
(g58
g59
NtRp4686
(dp4687
g62
(dp4688
g70
I4
ssg71
g4682
sg64
(lp4689
S'06d5f56b-88f9-4901-9c78-d174d90978a3'
p4690
asbasbasbag57
(g73
g59
NtRp4691
(dp4692
g62
(dp4693
sg71
g4643
sg64
(lp4694
g57
(g78
g59
NtRp4695
(dp4696
g62
(dp4697
g82
g83
ssg71
g4691
sg64
(lp4698
S'last_visit'
p4699
asbag57
(g78
g59
NtRp4700
(dp4701
g62
(dp4702
g89
g90
ssg71
g4691
sg64
(lp4703
S':'
asbag57
(g78
g59
NtRp4704
(dp4705
g62
(dp4706
sg71
g4691
sg64
(lp4707
g57
(g58
g59
NtRp4708
(dp4709
g62
(dp4710
g70
I4
ssg71
g4704
sg64
(lp4711
S'datetime.datetime(2013, 2, 4, 11, 49, 57, 916567)'
p4712
asbasbasbag57
(g73
g59
NtRp4713
(dp4714
g62
(dp4715
sg71
g4643
sg64
(lp4716
g57
(g78
g59
NtRp4717
(dp4718
g62
(dp4719
g82
g83
ssg71
g4713
sg64
(lp4720
S'remember'
p4721
asbag57
(g78
g59
NtRp4722
(dp4723
g62
(dp4724
g89
g90
ssg71
g4713
sg64
(lp4725
S':'
asbag57
(g78
g59
NtRp4726
(dp4727
g62
(dp4728
sg71
g4713
sg64
(lp4729
g57
(g58
g59
NtRp4730
(dp4731
g62
(dp4732
g70
I4
ssg71
g4726
sg64
(lp4733
g100
asbasbasbag57
(g73
g59
NtRp4734
(dp4735
g62
(dp4736
sg71
g4643
sg64
(lp4737
g57
(g78
g59
NtRp4738
(dp4739
g62
(dp4740
g82
g83
ssg71
g4734
sg64
(lp4741
S'user'
p4742
asbag57
(g78
g59
NtRp4743
(dp4744
g62
(dp4745
g89
g90
ssg71
g4734
sg64
(lp4746
S':'
asbag57
(g78
g59
NtRp4747
(dp4748
g62
(dp4749
sg71
g4734
sg64
(lp4750
g57
(g58
g59
NtRp4751
(dp4752
g62
(dp4753
g70
I4
ssg71
g4747
sg64
(lp4754
g57
(g66
g59
NtRp4755
(dp4756
g62
(dp4757
g70
I3
ssg71
Nsg64
(lp4758
g57
(g73
g59
NtRp4759
(dp4760
g62
(dp4761
sg71
g4755
sg64
(lp4762
g57
(g78
g59
NtRp4763
(dp4764
g62
(dp4765
g82
g83
ssg71
g4759
sg64
(lp4766
S'bio'
p4767
asbag57
(g78
g59
NtRp4768
(dp4769
g62
(dp4770
g89
g90
ssg71
g4759
sg64
(lp4771
S':'
asbag57
(g78
g59
NtRp4772
(dp4773
g62
(dp4774
sg71
g4759
sg64
(lp4775
g57
(g58
g59
NtRp4776
(dp4777
g62
(dp4778
g70
I3
ssg71
g4772
sg64
(lp4779
S'None'
p4780
asbasbasbag57
(g73
g59
NtRp4781
(dp4782
g62
(dp4783
sg71
g4755
sg64
(lp4784
g57
(g78
g59
NtRp4785
(dp4786
g62
(dp4787
g82
g83
ssg71
g4781
sg64
(lp4788
S'email'
p4789
asbag57
(g78
g59
NtRp4790
(dp4791
g62
(dp4792
g89
g90
ssg71
g4781
sg64
(lp4793
S':'
asbag57
(g78
g59
NtRp4794
(dp4795
g62
(dp4796
sg71
g4781
sg64
(lp4797
g57
(g58
g59
NtRp4798
(dp4799
g62
(dp4800
g70
I3
ssg71
g4794
sg64
(lp4801
S'fernando@ad2.com.br'
p4802
asbasbasbag57
(g73
g59
NtRp4803
(dp4804
g62
(dp4805
sg71
g4755
sg64
(lp4806
g57
(g78
g59
NtRp4807
(dp4808
g62
(dp4809
g82
g83
ssg71
g4803
sg64
(lp4810
S'first_name'
p4811
asbag57
(g78
g59
NtRp4812
(dp4813
g62
(dp4814
g89
g90
ssg71
g4803
sg64
(lp4815
S':'
asbag57
(g78
g59
NtRp4816
(dp4817
g62
(dp4818
sg71
g4803
sg64
(lp4819
g57
(g58
g59
NtRp4820
(dp4821
g62
(dp4822
g70
I3
ssg71
g4816
sg64
(lp4823
S'Dend'
p4824
asbasbasbag57
(g73
g59
NtRp4825
(dp4826
g62
(dp4827
sg71
g4755
sg64
(lp4828
g57
(g78
g59
NtRp4829
(dp4830
g62
(dp4831
g82
g83
ssg71
g4825
sg64
(lp4832
S'gender'
p4833
asbag57
(g78
g59
NtRp4834
(dp4835
g62
(dp4836
g89
g90
ssg71
g4825
sg64
(lp4837
S':'
asbag57
(g78
g59
NtRp4838
(dp4839
g62
(dp4840
sg71
g4825
sg64
(lp4841
g57
(g58
g59
NtRp4842
(dp4843
g62
(dp4844
g70
I3
ssg71
g4838
sg64
(lp4845
S'masculino'
p4846
asbasbasbag57
(g73
g59
NtRp4847
(dp4848
g62
(dp4849
sg71
g4755
sg64
(lp4850
g57
(g78
g59
NtRp4851
(dp4852
g62
(dp4853
g82
g83
ssg71
g4847
sg64
(lp4854
S'id'
p4855
asbag57
(g78
g59
NtRp4856
(dp4857
g62
(dp4858
g89
g90
ssg71
g4847
sg64
(lp4859
S':'
asbag57
(g78
g59
NtRp4860
(dp4861
g62
(dp4862
sg71
g4847
sg64
(lp4863
g57
(g58
g59
NtRp4864
(dp4865
g62
(dp4866
g70
I3
ssg71
g4860
sg64
(lp4867
S'5'
asbasbasbag57
(g73
g59
NtRp4868
(dp4869
g62
(dp4870
sg71
g4755
sg64
(lp4871
g57
(g78
g59
NtRp4872
(dp4873
g62
(dp4874
g82
g83
ssg71
g4868
sg64
(lp4875
S'last_name'
p4876
asbag57
(g78
g59
NtRp4877
(dp4878
g62
(dp4879
g89
g90
ssg71
g4868
sg64
(lp4880
S':'
asbag57
(g78
g59
NtRp4881
(dp4882
g62
(dp4883
sg71
g4868
sg64
(lp4884
g57
(g58
g59
NtRp4885
(dp4886
g62
(dp4887
g70
I3
ssg71
g4881
sg64
(lp4888
S'delkson'
p4889
asbasbasbag57
(g73
g59
NtRp4890
(dp4891
g62
(dp4892
sg71
g4755
sg64
(lp4893
g57
(g78
g59
NtRp4894
(dp4895
g62
(dp4896
g82
g83
ssg71
g4890
sg64
(lp4897
S'photo'
p4898
asbag57
(g78
g59
NtRp4899
(dp4900
g62
(dp4901
g89
g90
ssg71
g4890
sg64
(lp4902
S':'
asbag57
(g78
g59
NtRp4903
(dp4904
g62
(dp4905
sg71
g4890
sg64
(lp4906
g57
(g58
g59
NtRp4907
(dp4908
g62
(dp4909
g70
I3
ssg71
g4903
sg64
(lp4910
S'auth_user.photo.852c1e9d624a7670.746563686e6f6c6f676965735f7068702e706e67.png'
p4911
asbasbasbag57
(g73
g59
NtRp4912
(dp4913
g62
(dp4914
sg71
g4755
sg64
(lp4915
g57
(g78
g59
NtRp4916
(dp4917
g62
(dp4918
g82
g83
ssg71
g4912
sg64
(lp4919
S'registration_id'
p4920
asbag57
(g78
g59
NtRp4921
(dp4922
g62
(dp4923
g89
g90
ssg71
g4912
sg64
(lp4924
S':'
asbag57
(g78
g59
NtRp4925
(dp4926
g62
(dp4927
sg71
g4912
sg64
(lp4928
g57
(g58
g59
NtRp4929
(dp4930
g62
(dp4931
g70
I3
ssg71
g4925
sg64
(lp4932
S''
asbasbasbag57
(g73
g59
NtRp4933
(dp4934
g62
(dp4935
sg71
g4755
sg64
(lp4936
g57
(g78
g59
NtRp4937
(dp4938
g62
(dp4939
g82
g83
ssg71
g4933
sg64
(lp4940
S'registration_key'
p4941
asbag57
(g78
g59
NtRp4942
(dp4943
g62
(dp4944
g89
g90
ssg71
g4933
sg64
(lp4945
S':'
asbag57
(g78
g59
NtRp4946
(dp4947
g62
(dp4948
sg71
g4933
sg64
(lp4949
g57
(g58
g59
NtRp4950
(dp4951
g62
(dp4952
g70
I3
ssg71
g4946
sg64
(lp4953
S''
asbasbasbag57
(g73
g59
NtRp4954
(dp4955
g62
(dp4956
sg71
g4755
sg64
(lp4957
g57
(g78
g59
NtRp4958
(dp4959
g62
(dp4960
g82
g83
ssg71
g4954
sg64
(lp4961
S'reset_password_key'
p4962
asbag57
(g78
g59
NtRp4963
(dp4964
g62
(dp4965
g89
g90
ssg71
g4954
sg64
(lp4966
S':'
asbag57
(g78
g59
NtRp4967
(dp4968
g62
(dp4969
sg71
g4954
sg64
(lp4970
g57
(g58
g59
NtRp4971
(dp4972
g62
(dp4973
g70
I3
ssg71
g4967
sg64
(lp4974
S''
asbasbasbasbasbasbasbag57
(g73
g59
NtRp4975
(dp4976
g62
(dp4977
sg71
g4643
sg64
(lp4978
g57
(g78
g59
NtRp4979
(dp4980
g62
(dp4981
g82
g83
ssg71
g4975
sg64
(lp4982
S'user_groups'
p4983
asbag57
(g78
g59
NtRp4984
(dp4985
g62
(dp4986
g89
g90
ssg71
g4975
sg64
(lp4987
S':'
asbag57
(g78
g59
NtRp4988
(dp4989
g62
(dp4990
sg71
g4975
sg64
(lp4991
g57
(g58
g59
NtRp4992
(dp4993
g62
(dp4994
g70
I4
ssg71
g4988
sg64
(lp4995
g57
(g66
g59
NtRp4996
(dp4997
g62
(dp4998
g70
I3
ssg71
Nsg64
(lp4999
g57
(g73
g59
NtRp5000
(dp5001
g62
(dp5002
sg71
g4996
sg64
(lp5003
g57
(g78
g59
NtRp5004
(dp5005
g62
(dp5006
g82
g83
ssg71
g5000
sg64
(lp5007
S'5'
asbag57
(g78
g59
NtRp5008
(dp5009
g62
(dp5010
g89
g90
ssg71
g5000
sg64
(lp5011
S':'
asbag57
(g78
g59
NtRp5012
(dp5013
g62
(dp5014
sg71
g5000
sg64
(lp5015
g57
(g58
g59
NtRp5016
(dp5017
g62
(dp5018
g70
I3
ssg71
g5012
sg64
(lp5019
S'user_5'
p5020
asbasbasbag57
(g73
g59
NtRp5021
(dp5022
g62
(dp5023
sg71
g4996
sg64
(lp5024
g57
(g78
g59
NtRp5025
(dp5026
g62
(dp5027
g82
g83
ssg71
g5021
sg64
(lp5028
S'7'
asbag57
(g78
g59
NtRp5029
(dp5030
g62
(dp5031
g89
g90
ssg71
g5021
sg64
(lp5032
S':'
asbag57
(g78
g59
NtRp5033
(dp5034
g62
(dp5035
sg71
g5021
sg64
(lp5036
g57
(g58
g59
NtRp5037
(dp5038
g62
(dp5039
g70
I3
ssg71
g5033
sg64
(lp5040
S'admin'
p5041
asbasbasbasbasbasbasbasbasbasbasbag57
(g73
g59
NtRp5042
(dp5043
g62
(dp5044
sg71
g4618
sg64
(lp5045
g57
(g78
g59
NtRp5046
(dp5047
g62
(dp5048
g82
g83
ssg71
g5042
sg64
(lp5049
S'flash'
p5050
asbag57
(g78
g59
NtRp5051
(dp5052
g62
(dp5053
g89
g90
ssg71
g5042
sg64
(lp5054
S':'
asbag57
(g78
g59
NtRp5055
(dp5056
g62
(dp5057
sg71
g5042
sg64
(lp5058
g57
(g58
g59
NtRp5059
(dp5060
g62
(dp5061
g70
I5
ssg71
g5055
sg64
(lp5062
S'None'
p5063
asbasbasbag57
(g73
g59
NtRp5064
(dp5065
g62
(dp5066
sg71
g4618
sg64
(lp5067
g57
(g78
g59
NtRp5068
(dp5069
g62
(dp5070
g82
g83
ssg71
g5064
sg64
(lp5071
S'last_orderby'
p5072
asbag57
(g78
g59
NtRp5073
(dp5074
g62
(dp5075
g89
g90
ssg71
g5064
sg64
(lp5076
S':'
asbag57
(g78
g59
NtRp5077
(dp5078
g62
(dp5079
sg71
g5064
sg64
(lp5080
g57
(g58
g59
NtRp5081
(dp5082
g62
(dp5083
g70
I5
ssg71
g5077
sg64
(lp5084
S'None'
p5085
asbasbasbag57
(g73
g59
NtRp5086
(dp5087
g62
(dp5088
sg71
g4618
sg64
(lp5089
g57
(g78
g59
NtRp5090
(dp5091
g62
(dp5092
g82
g83
ssg71
g5086
sg64
(lp5093
S'last_query'
p5094
asbag57
(g78
g59
NtRp5095
(dp5096
g62
(dp5097
g89
g90
ssg71
g5086
sg64
(lp5098
S':'
asbag57
(g78
g59
NtRp5099
(dp5100
g62
(dp5101
sg71
g5086
sg64
(lp5102
g57
(g58
g59
NtRp5103
(dp5104
g62
(dp5105
g70
I5
ssg71
g5099
sg64
(lp5106
S'db.auth_user.id>0'
p5107
asbasbasbasbasbsS'etype'
p5108
S"<type 'exceptions.AttributeError'>"
p5109
sS'date'
p5110
S'Mon Feb  4 11:49:57 2013'
p5111
sS'response'
p5112
g57
(g58
g59
NtRp5113
(dp5114
g62
(dp5115
sg64
(lp5116
g57
(g66
g59
NtRp5117
(dp5118
g62
(dp5119
g70
I5
ssg71
Nsg64
(lp5120
g57
(g73
g59
NtRp5121
(dp5122
g62
(dp5123
sg71
g5117
sg64
(lp5124
g57
(g78
g59
NtRp5125
(dp5126
g62
(dp5127
g82
g83
ssg71
g5121
sg64
(lp5128
g155
asbag57
(g78
g59
NtRp5129
(dp5130
g62
(dp5131
g89
g90
ssg71
g5121
sg64
(lp5132
S':'
asbag57
(g78
g59
NtRp5133
(dp5134
g62
(dp5135
sg71
g5121
sg64
(lp5136
g57
(g58
g59
NtRp5137
(dp5138
g62
(dp5139
g70
I5
ssg71
g5133
sg64
(lp5140
S'<cStringIO.StringO object at 0x7fb4bc266340>'
p5141
asbasbasbag57
(g73
g59
NtRp5142
(dp5143
g62
(dp5144
sg71
g5117
sg64
(lp5145
g57
(g78
g59
NtRp5146
(dp5147
g62
(dp5148
g82
g83
ssg71
g5142
sg64
(lp5149
g243
asbag57
(g78
g59
NtRp5150
(dp5151
g62
(dp5152
g89
g90
ssg71
g5142
sg64
(lp5153
S':'
asbag57
(g78
g59
NtRp5154
(dp5155
g62
(dp5156
sg71
g5142
sg64
(lp5157
g57
(g58
g59
NtRp5158
(dp5159
g62
(dp5160
g70
I5
ssg71
g5154
sg64
(lp5161
g57
(g66
g59
NtRp5162
(dp5163
g62
(dp5164
g70
I4
ssg71
Nsg64
(lp5165
g57
(g73
g59
NtRp5166
(dp5167
g62
(dp5168
sg71
g5162
sg64
(lp5169
g57
(g78
g59
NtRp5170
(dp5171
g62
(dp5172
g82
g83
ssg71
g5166
sg64
(lp5173
S'session_id_projeto'
p5174
asbag57
(g78
g59
NtRp5175
(dp5176
g62
(dp5177
g89
g90
ssg71
g5166
sg64
(lp5178
S':'
asbag57
(g78
g59
NtRp5179
(dp5180
g62
(dp5181
sg71
g5166
sg64
(lp5182
g57
(g58
g59
NtRp5183
(dp5184
g62
(dp5185
g70
I4
ssg71
g5179
sg64
(lp5186
g1775
ag57
(g66
g59
NtRp5187
(dp5188
g62
(dp5189
g70
I3
ssg71
Nsg64
(lp5190
g57
(g73
g59
NtRp5191
(dp5192
g62
(dp5193
sg71
g5187
sg64
(lp5194
g57
(g78
g59
NtRp5195
(dp5196
g62
(dp5197
g82
g83
ssg71
g5191
sg64
(lp5198
g294
asbag57
(g78
g59
NtRp5199
(dp5200
g62
(dp5201
g89
g90
ssg71
g5191
sg64
(lp5202
S':'
asbag57
(g78
g59
NtRp5203
(dp5204
g62
(dp5205
sg71
g5191
sg64
(lp5206
g57
(g58
g59
NtRp5207
(dp5208
g62
(dp5209
g70
I3
ssg71
g5203
sg64
(lp5210
S''
asbasbasbag57
(g73
g59
NtRp5211
(dp5212
g62
(dp5213
sg71
g5187
sg64
(lp5214
g57
(g78
g59
NtRp5215
(dp5216
g62
(dp5217
g82
g83
ssg71
g5211
sg64
(lp5218
g315
asbag57
(g78
g59
NtRp5219
(dp5220
g62
(dp5221
g89
g90
ssg71
g5211
sg64
(lp5222
S':'
asbag57
(g78
g59
NtRp5223
(dp5224
g62
(dp5225
sg71
g5211
sg64
(lp5226
g57
(g58
g59
NtRp5227
(dp5228
g62
(dp5229
g70
I3
ssg71
g5223
sg64
(lp5230
S''
asbasbasbag57
(g73
g59
NtRp5231
(dp5232
g62
(dp5233
sg71
g5187
sg64
(lp5234
g57
(g78
g59
NtRp5235
(dp5236
g62
(dp5237
g82
g83
ssg71
g5231
sg64
(lp5238
g336
asbag57
(g78
g59
NtRp5239
(dp5240
g62
(dp5241
g89
g90
ssg71
g5231
sg64
(lp5242
S':'
asbag57
(g78
g59
NtRp5243
(dp5244
g62
(dp5245
sg71
g5231
sg64
(lp5246
g57
(g58
g59
NtRp5247
(dp5248
g62
(dp5249
g70
I3
ssg71
g5243
sg64
(lp5250
S''
asbasbasbag57
(g73
g59
NtRp5251
(dp5252
g62
(dp5253
sg71
g5187
sg64
(lp5254
g57
(g78
g59
NtRp5255
(dp5256
g62
(dp5257
g82
g83
ssg71
g5251
sg64
(lp5258
g357
asbag57
(g78
g59
NtRp5259
(dp5260
g62
(dp5261
g89
g90
ssg71
g5251
sg64
(lp5262
S':'
asbag57
(g78
g59
NtRp5263
(dp5264
g62
(dp5265
sg71
g5251
sg64
(lp5266
g57
(g58
g59
NtRp5267
(dp5268
g62
(dp5269
g70
I3
ssg71
g5263
sg64
(lp5270
S''
asbasbasbag57
(g73
g59
NtRp5271
(dp5272
g62
(dp5273
sg71
g5187
sg64
(lp5274
g57
(g78
g59
NtRp5275
(dp5276
g62
(dp5277
g82
g83
ssg71
g5271
sg64
(lp5278
g378
asbag57
(g78
g59
NtRp5279
(dp5280
g62
(dp5281
g89
g90
ssg71
g5271
sg64
(lp5282
S':'
asbag57
(g78
g59
NtRp5283
(dp5284
g62
(dp5285
sg71
g5271
sg64
(lp5286
g57
(g58
g59
NtRp5287
(dp5288
g62
(dp5289
g70
I3
ssg71
g5283
sg64
(lp5290
S''
asbasbasbag57
(g73
g59
NtRp5291
(dp5292
g62
(dp5293
sg71
g5187
sg64
(lp5294
g57
(g78
g59
NtRp5295
(dp5296
g62
(dp5297
g82
g83
ssg71
g5291
sg64
(lp5298
g399
asbag57
(g78
g59
NtRp5299
(dp5300
g62
(dp5301
g89
g90
ssg71
g5291
sg64
(lp5302
S':'
asbag57
(g78
g59
NtRp5303
(dp5304
g62
(dp5305
sg71
g5291
sg64
(lp5306
g57
(g58
g59
NtRp5307
(dp5308
g62
(dp5309
g70
I3
ssg71
g5303
sg64
(lp5310
S'/'
asbasbasbag57
(g73
g59
NtRp5311
(dp5312
g62
(dp5313
sg71
g5187
sg64
(lp5314
g57
(g78
g59
NtRp5315
(dp5316
g62
(dp5317
g82
g83
ssg71
g5311
sg64
(lp5318
g420
asbag57
(g78
g59
NtRp5319
(dp5320
g62
(dp5321
g89
g90
ssg71
g5311
sg64
(lp5322
S':'
asbag57
(g78
g59
NtRp5323
(dp5324
g62
(dp5325
sg71
g5311
sg64
(lp5326
g57
(g58
g59
NtRp5327
(dp5328
g62
(dp5329
g70
I3
ssg71
g5323
sg64
(lp5330
S''
asbasbasbag57
(g73
g59
NtRp5331
(dp5332
g62
(dp5333
sg71
g5187
sg64
(lp5334
g57
(g78
g59
NtRp5335
(dp5336
g62
(dp5337
g82
g83
ssg71
g5331
sg64
(lp5338
g441
asbag57
(g78
g59
NtRp5339
(dp5340
g62
(dp5341
g89
g90
ssg71
g5331
sg64
(lp5342
S':'
asbag57
(g78
g59
NtRp5343
(dp5344
g62
(dp5345
sg71
g5331
sg64
(lp5346
g57
(g58
g59
NtRp5347
(dp5348
g62
(dp5349
g70
I3
ssg71
g5343
sg64
(lp5350
S''
asbasbasbasbasbasbasbasbasbasbasbag57
(g73
g59
NtRp5351
(dp5352
g62
(dp5353
sg71
g5117
sg64
(lp5354
g57
(g78
g59
NtRp5355
(dp5356
g62
(dp5357
g82
g83
ssg71
g5351
sg64
(lp5358
S'delimiters'
p5359
asbag57
(g78
g59
NtRp5360
(dp5361
g62
(dp5362
g89
g90
ssg71
g5351
sg64
(lp5363
S':'
asbag57
(g78
g59
NtRp5364
(dp5365
g62
(dp5366
sg71
g5351
sg64
(lp5367
g57
(g58
g59
NtRp5368
(dp5369
g62
(dp5370
g70
I5
ssg71
g5364
sg64
(lp5371
g57
(g66
g59
NtRp5372
(dp5373
g62
(dp5374
g70
I4
ssg71
Nsg64
(lp5375
g57
(g73
g59
NtRp5376
(dp5377
g62
(dp5378
sg71
g5372
sg64
(lp5379
g57
(g78
g59
NtRp5380
(dp5381
g62
(dp5382
sg71
g5376
sg64
(lp5383
g57
(g58
g59
NtRp5384
(dp5385
g62
(dp5386
g70
I4
ssg71
g5380
sg64
(lp5387
S'{{'
p5388
asbasbasbag57
(g73
g59
NtRp5389
(dp5390
g62
(dp5391
sg71
g5372
sg64
(lp5392
g57
(g78
g59
NtRp5393
(dp5394
g62
(dp5395
sg71
g5389
sg64
(lp5396
g57
(g58
g59
NtRp5397
(dp5398
g62
(dp5399
g70
I4
ssg71
g5393
sg64
(lp5400
S'}}'
p5401
asbasbasbasbasbasbasbag57
(g73
g59
NtRp5402
(dp5403
g62
(dp5404
sg71
g5117
sg64
(lp5405
g57
(g78
g59
NtRp5406
(dp5407
g62
(dp5408
g82
g83
ssg71
g5402
sg64
(lp5409
S'files'
p5410
asbag57
(g78
g59
NtRp5411
(dp5412
g62
(dp5413
g89
g90
ssg71
g5402
sg64
(lp5414
S':'
asbag57
(g78
g59
NtRp5415
(dp5416
g62
(dp5417
sg71
g5402
sg64
(lp5418
g57
(g58
g59
NtRp5419
(dp5420
g62
(dp5421
g70
I5
ssg71
g5415
sg64
(lp5422
g57
(g66
g59
NtRp5423
(dp5424
g62
(dp5425
g70
I4
ssg71
Nsg64
(lp5426
sbasbasbasbag57
(g73
g59
NtRp5427
(dp5428
g62
(dp5429
sg71
g5117
sg64
(lp5430
g57
(g78
g59
NtRp5431
(dp5432
g62
(dp5433
g82
g83
ssg71
g5427
sg64
(lp5434
S'flash'
p5435
asbag57
(g78
g59
NtRp5436
(dp5437
g62
(dp5438
g89
g90
ssg71
g5427
sg64
(lp5439
S':'
asbag57
(g78
g59
NtRp5440
(dp5441
g62
(dp5442
sg71
g5427
sg64
(lp5443
g57
(g58
g59
NtRp5444
(dp5445
g62
(dp5446
g70
I5
ssg71
g5440
sg64
(lp5447
S''
asbasbasbag57
(g73
g59
NtRp5448
(dp5449
g62
(dp5450
sg71
g5117
sg64
(lp5451
g57
(g78
g59
NtRp5452
(dp5453
g62
(dp5454
g82
g83
ssg71
g5448
sg64
(lp5455
S'generic_patterns'
p5456
asbag57
(g78
g59
NtRp5457
(dp5458
g62
(dp5459
g89
g90
ssg71
g5448
sg64
(lp5460
S':'
asbag57
(g78
g59
NtRp5461
(dp5462
g62
(dp5463
sg71
g5448
sg64
(lp5464
g57
(g58
g59
NtRp5465
(dp5466
g62
(dp5467
g70
I5
ssg71
g5461
sg64
(lp5468
g57
(g66
g59
NtRp5469
(dp5470
g62
(dp5471
g70
I4
ssg71
Nsg64
(lp5472
g57
(g73
g59
NtRp5473
(dp5474
g62
(dp5475
sg71
g5469
sg64
(lp5476
g57
(g78
g59
NtRp5477
(dp5478
g62
(dp5479
sg71
g5473
sg64
(lp5480
g57
(g58
g59
NtRp5481
(dp5482
g62
(dp5483
g70
I4
ssg71
g5477
sg64
(lp5484
S'*'
asbasbasbasbasbasbasbag57
(g73
g59
NtRp5485
(dp5486
g62
(dp5487
sg71
g5117
sg64
(lp5488
g57
(g78
g59
NtRp5489
(dp5490
g62
(dp5491
g82
g83
ssg71
g5485
sg64
(lp5492
S'headers'
p5493
asbag57
(g78
g59
NtRp5494
(dp5495
g62
(dp5496
g89
g90
ssg71
g5485
sg64
(lp5497
S':'
asbag57
(g78
g59
NtRp5498
(dp5499
g62
(dp5500
sg71
g5485
sg64
(lp5501
g57
(g58
g59
NtRp5502
(dp5503
g62
(dp5504
g70
I5
ssg71
g5498
sg64
(lp5505
g57
(g66
g59
NtRp5506
(dp5507
g62
(dp5508
g70
I4
ssg71
Nsg64
(lp5509
g57
(g73
g59
NtRp5510
(dp5511
g62
(dp5512
sg71
g5506
sg64
(lp5513
g57
(g78
g59
NtRp5514
(dp5515
g62
(dp5516
g82
g83
ssg71
g5510
sg64
(lp5517
S'X-Powered-By'
p5518
asbag57
(g78
g59
NtRp5519
(dp5520
g62
(dp5521
g89
g90
ssg71
g5510
sg64
(lp5522
S':'
asbag57
(g78
g59
NtRp5523
(dp5524
g62
(dp5525
sg71
g5510
sg64
(lp5526
g57
(g58
g59
NtRp5527
(dp5528
g62
(dp5529
g70
I4
ssg71
g5523
sg64
(lp5530
S'web2py'
p5531
asbasbasbasbasbasbasbag57
(g73
g59
NtRp5532
(dp5533
g62
(dp5534
sg71
g5117
sg64
(lp5535
g57
(g78
g59
NtRp5536
(dp5537
g62
(dp5538
g82
g83
ssg71
g5532
sg64
(lp5539
S'menu'
p5540
asbag57
(g78
g59
NtRp5541
(dp5542
g62
(dp5543
g89
g90
ssg71
g5532
sg64
(lp5544
S':'
asbag57
(g78
g59
NtRp5545
(dp5546
g62
(dp5547
sg71
g5532
sg64
(lp5548
g57
(g58
g59
NtRp5549
(dp5550
g62
(dp5551
g70
I5
ssg71
g5545
sg64
(lp5552
g57
(g66
g59
NtRp5553
(dp5554
g62
(dp5555
g70
I4
ssg71
Nsg64
(lp5556
sbasbasbasbag57
(g73
g59
NtRp5557
(dp5558
g62
(dp5559
sg71
g5117
sg64
(lp5560
g57
(g78
g59
NtRp5561
(dp5562
g62
(dp5563
g82
g83
ssg71
g5557
sg64
(lp5564
S'meta'
p5565
asbag57
(g78
g59
NtRp5566
(dp5567
g62
(dp5568
g89
g90
ssg71
g5557
sg64
(lp5569
S':'
asbag57
(g78
g59
NtRp5570
(dp5571
g62
(dp5572
sg71
g5557
sg64
(lp5573
g57
(g58
g59
NtRp5574
(dp5575
g62
(dp5576
g70
I5
ssg71
g5570
sg64
(lp5577
g57
(g66
g59
NtRp5578
(dp5579
g62
(dp5580
g70
I4
ssg71
Nsg64
(lp5581
g57
(g73
g59
NtRp5582
(dp5583
g62
(dp5584
sg71
g5578
sg64
(lp5585
g57
(g78
g59
NtRp5586
(dp5587
g62
(dp5588
g82
g83
ssg71
g5582
sg64
(lp5589
S'description'
p5590
asbag57
(g78
g59
NtRp5591
(dp5592
g62
(dp5593
g89
g90
ssg71
g5582
sg64
(lp5594
S':'
asbag57
(g78
g59
NtRp5595
(dp5596
g62
(dp5597
sg71
g5582
sg64
(lp5598
g57
(g58
g59
NtRp5599
(dp5600
g62
(dp5601
g70
I4
ssg71
g5595
sg64
(lp5602
S'blog do shedon'
p5603
asbasbasbag57
(g73
g59
NtRp5604
(dp5605
g62
(dp5606
sg71
g5578
sg64
(lp5607
g57
(g78
g59
NtRp5608
(dp5609
g62
(dp5610
g82
g83
ssg71
g5604
sg64
(lp5611
S'keywords'
p5612
asbag57
(g78
g59
NtRp5613
(dp5614
g62
(dp5615
g89
g90
ssg71
g5604
sg64
(lp5616
S':'
asbag57
(g78
g59
NtRp5617
(dp5618
g62
(dp5619
sg71
g5604
sg64
(lp5620
g57
(g58
g59
NtRp5621
(dp5622
g62
(dp5623
g70
I4
ssg71
g5617
sg64
(lp5624
S'chave, outra, e utra'
p5625
asbasbasbasbasbasbasbag57
(g73
g59
NtRp5626
(dp5627
g62
(dp5628
sg71
g5117
sg64
(lp5629
g57
(g78
g59
NtRp5630
(dp5631
g62
(dp5632
g82
g83
ssg71
g5626
sg64
(lp5633
S'models_to_run'
p5634
asbag57
(g78
g59
NtRp5635
(dp5636
g62
(dp5637
g89
g90
ssg71
g5626
sg64
(lp5638
S':'
asbag57
(g78
g59
NtRp5639
(dp5640
g62
(dp5641
sg71
g5626
sg64
(lp5642
g57
(g58
g59
NtRp5643
(dp5644
g62
(dp5645
g70
I5
ssg71
g5639
sg64
(lp5646
g57
(g66
g59
NtRp5647
(dp5648
g62
(dp5649
g70
I4
ssg71
Nsg64
(lp5650
g57
(g73
g59
NtRp5651
(dp5652
g62
(dp5653
sg71
g5647
sg64
(lp5654
g57
(g78
g59
NtRp5655
(dp5656
g62
(dp5657
sg71
g5651
sg64
(lp5658
g57
(g58
g59
NtRp5659
(dp5660
g62
(dp5661
g70
I4
ssg71
g5655
sg64
(lp5662
S'^\\w+\\.py$'
p5663
asbasbasbag57
(g73
g59
NtRp5664
(dp5665
g62
(dp5666
sg71
g5647
sg64
(lp5667
g57
(g78
g59
NtRp5668
(dp5669
g62
(dp5670
sg71
g5664
sg64
(lp5671
g57
(g58
g59
NtRp5672
(dp5673
g62
(dp5674
g70
I4
ssg71
g5668
sg64
(lp5675
S'^appadmin/\\w+\\.py$'
p5676
asbasbasbag57
(g73
g59
NtRp5677
(dp5678
g62
(dp5679
sg71
g5647
sg64
(lp5680
g57
(g78
g59
NtRp5681
(dp5682
g62
(dp5683
sg71
g5677
sg64
(lp5684
g57
(g58
g59
NtRp5685
(dp5686
g62
(dp5687
g70
I4
ssg71
g5681
sg64
(lp5688
S'^appadmin/index/\\w+\\.py$'
p5689
asbasbasbasbasbasbasbag57
(g73
g59
NtRp5690
(dp5691
g62
(dp5692
sg71
g5117
sg64
(lp5693
g57
(g78
g59
NtRp5694
(dp5695
g62
(dp5696
g82
g83
ssg71
g5690
sg64
(lp5697
S'postprocessing'
p5698
asbag57
(g78
g59
NtRp5699
(dp5700
g62
(dp5701
g89
g90
ssg71
g5690
sg64
(lp5702
S':'
asbag57
(g78
g59
NtRp5703
(dp5704
g62
(dp5705
sg71
g5690
sg64
(lp5706
g57
(g58
g59
NtRp5707
(dp5708
g62
(dp5709
g70
I5
ssg71
g5703
sg64
(lp5710
g57
(g66
g59
NtRp5711
(dp5712
g62
(dp5713
g70
I4
ssg71
Nsg64
(lp5714
sbasbasbasbag57
(g73
g59
NtRp5715
(dp5716
g62
(dp5717
sg71
g5117
sg64
(lp5718
g57
(g78
g59
NtRp5719
(dp5720
g62
(dp5721
g82
g83
ssg71
g5715
sg64
(lp5722
S'session_cookie_expires'
p5723
asbag57
(g78
g59
NtRp5724
(dp5725
g62
(dp5726
g89
g90
ssg71
g5715
sg64
(lp5727
S':'
asbag57
(g78
g59
NtRp5728
(dp5729
g62
(dp5730
sg71
g5715
sg64
(lp5731
g57
(g58
g59
NtRp5732
(dp5733
g62
(dp5734
g70
I5
ssg71
g5728
sg64
(lp5735
S'None'
p5736
asbasbasbag57
(g73
g59
NtRp5737
(dp5738
g62
(dp5739
sg71
g5117
sg64
(lp5740
g57
(g78
g59
NtRp5741
(dp5742
g62
(dp5743
g82
g83
ssg71
g5737
sg64
(lp5744
S'session_data_name'
p5745
asbag57
(g78
g59
NtRp5746
(dp5747
g62
(dp5748
g89
g90
ssg71
g5737
sg64
(lp5749
S':'
asbag57
(g78
g59
NtRp5750
(dp5751
g62
(dp5752
sg71
g5737
sg64
(lp5753
g57
(g58
g59
NtRp5754
(dp5755
g62
(dp5756
g70
I5
ssg71
g5750
sg64
(lp5757
S'session_data_projeto'
p5758
asbasbasbag57
(g73
g59
NtRp5759
(dp5760
g62
(dp5761
sg71
g5117
sg64
(lp5762
g57
(g78
g59
NtRp5763
(dp5764
g62
(dp5765
g82
g83
ssg71
g5759
sg64
(lp5766
S'session_file'
p5767
asbag57
(g78
g59
NtRp5768
(dp5769
g62
(dp5770
g89
g90
ssg71
g5759
sg64
(lp5771
S':'
asbag57
(g78
g59
NtRp5772
(dp5773
g62
(dp5774
sg71
g5759
sg64
(lp5775
g57
(g58
g59
NtRp5776
(dp5777
g62
(dp5778
g70
I5
ssg71
g5772
sg64
(lp5779
S"<open file '/var/www/web2py_curso/applications/projeto/sessions/127.0.0.1-b8c6a9b4-3ce7-4a48-b40d-12b6c8d18d0a', mode 'rb+' at 0x7fb4b045dae0>"
p5780
asbasbasbag57
(g73
g59
NtRp5781
(dp5782
g62
(dp5783
sg71
g5117
sg64
(lp5784
g57
(g78
g59
NtRp5785
(dp5786
g62
(dp5787
g82
g83
ssg71
g5781
sg64
(lp5788
S'session_filename'
p5789
asbag57
(g78
g59
NtRp5790
(dp5791
g62
(dp5792
g89
g90
ssg71
g5781
sg64
(lp5793
S':'
asbag57
(g78
g59
NtRp5794
(dp5795
g62
(dp5796
sg71
g5781
sg64
(lp5797
g57
(g58
g59
NtRp5798
(dp5799
g62
(dp5800
g70
I5
ssg71
g5794
sg64
(lp5801
S'/var/www/web2py_curso/applications/projeto/sessions/127.0.0.1-b8c6a9b4-3ce7-4a48-b40d-12b6c8d18d0a'
p5802
asbasbasbag57
(g73
g59
NtRp5803
(dp5804
g62
(dp5805
sg71
g5117
sg64
(lp5806
g57
(g78
g59
NtRp5807
(dp5808
g62
(dp5809
g82
g83
ssg71
g5803
sg64
(lp5810
S'session_id'
p5811
asbag57
(g78
g59
NtRp5812
(dp5813
g62
(dp5814
g89
g90
ssg71
g5803
sg64
(lp5815
S':'
asbag57
(g78
g59
NtRp5816
(dp5817
g62
(dp5818
sg71
g5803
sg64
(lp5819
g57
(g58
g59
NtRp5820
(dp5821
g62
(dp5822
g70
I5
ssg71
g5816
sg64
(lp5823
g1775
asbasbasbag57
(g73
g59
NtRp5824
(dp5825
g62
(dp5826
sg71
g5117
sg64
(lp5827
g57
(g78
g59
NtRp5828
(dp5829
g62
(dp5830
g82
g83
ssg71
g5824
sg64
(lp5831
S'session_id_name'
p5832
asbag57
(g78
g59
NtRp5833
(dp5834
g62
(dp5835
g89
g90
ssg71
g5824
sg64
(lp5836
S':'
asbag57
(g78
g59
NtRp5837
(dp5838
g62
(dp5839
sg71
g5824
sg64
(lp5840
g57
(g58
g59
NtRp5841
(dp5842
g62
(dp5843
g70
I5
ssg71
g5837
sg64
(lp5844
g5174
asbasbasbag57
(g73
g59
NtRp5845
(dp5846
g62
(dp5847
sg71
g5117
sg64
(lp5848
g57
(g78
g59
NtRp5849
(dp5850
g62
(dp5851
g82
g83
ssg71
g5845
sg64
(lp5852
S'session_locked'
p5853
asbag57
(g78
g59
NtRp5854
(dp5855
g62
(dp5856
g89
g90
ssg71
g5845
sg64
(lp5857
S':'
asbag57
(g78
g59
NtRp5858
(dp5859
g62
(dp5860
sg71
g5845
sg64
(lp5861
g57
(g58
g59
NtRp5862
(dp5863
g62
(dp5864
g70
I5
ssg71
g5858
sg64
(lp5865
g3113
asbasbasbag57
(g73
g59
NtRp5866
(dp5867
g62
(dp5868
sg71
g5117
sg64
(lp5869
g57
(g78
g59
NtRp5870
(dp5871
g62
(dp5872
g82
g83
ssg71
g5866
sg64
(lp5873
S'session_new'
p5874
asbag57
(g78
g59
NtRp5875
(dp5876
g62
(dp5877
g89
g90
ssg71
g5866
sg64
(lp5878
S':'
asbag57
(g78
g59
NtRp5879
(dp5880
g62
(dp5881
sg71
g5866
sg64
(lp5882
g57
(g58
g59
NtRp5883
(dp5884
g62
(dp5885
g70
I5
ssg71
g5879
sg64
(lp5886
g100
asbasbasbag57
(g73
g59
NtRp5887
(dp5888
g62
(dp5889
sg71
g5117
sg64
(lp5890
g57
(g78
g59
NtRp5891
(dp5892
g62
(dp5893
g82
g83
ssg71
g5887
sg64
(lp5894
S'session_storage_type'
p5895
asbag57
(g78
g59
NtRp5896
(dp5897
g62
(dp5898
g89
g90
ssg71
g5887
sg64
(lp5899
S':'
asbag57
(g78
g59
NtRp5900
(dp5901
g62
(dp5902
sg71
g5887
sg64
(lp5903
g57
(g58
g59
NtRp5904
(dp5905
g62
(dp5906
g70
I5
ssg71
g5900
sg64
(lp5907
g4543
asbasbasbag57
(g73
g59
NtRp5908
(dp5909
g62
(dp5910
sg71
g5117
sg64
(lp5911
g57
(g78
g59
NtRp5912
(dp5913
g62
(dp5914
g82
g83
ssg71
g5908
sg64
(lp5915
S'status'
p5916
asbag57
(g78
g59
NtRp5917
(dp5918
g62
(dp5919
g89
g90
ssg71
g5908
sg64
(lp5920
S':'
asbag57
(g78
g59
NtRp5921
(dp5922
g62
(dp5923
sg71
g5908
sg64
(lp5924
g57
(g58
g59
NtRp5925
(dp5926
g62
(dp5927
g70
I5
ssg71
g5921
sg64
(lp5928
S'200'
p5929
asbasbasbag57
(g73
g59
NtRp5930
(dp5931
g62
(dp5932
sg71
g5117
sg64
(lp5933
g57
(g78
g59
NtRp5934
(dp5935
g62
(dp5936
g82
g83
ssg71
g5930
sg64
(lp5937
S'subtitle'
p5938
asbag57
(g78
g59
NtRp5939
(dp5940
g62
(dp5941
g89
g90
ssg71
g5930
sg64
(lp5942
S':'
asbag57
(g78
g59
NtRp5943
(dp5944
g62
(dp5945
sg71
g5930
sg64
(lp5946
g57
(g58
g59
NtRp5947
(dp5948
g62
(dp5949
g70
I5
ssg71
g5943
sg64
(lp5950
S'O blog do sheldon'
p5951
asbasbasbag57
(g73
g59
NtRp5952
(dp5953
g62
(dp5954
sg71
g5117
sg64
(lp5955
g57
(g78
g59
NtRp5956
(dp5957
g62
(dp5958
g82
g83
ssg71
g5952
sg64
(lp5959
S'title'
p5960
asbag57
(g78
g59
NtRp5961
(dp5962
g62
(dp5963
g89
g90
ssg71
g5952
sg64
(lp5964
S':'
asbag57
(g78
g59
NtRp5965
(dp5966
g62
(dp5967
sg71
g5952
sg64
(lp5968
g57
(g58
g59
NtRp5969
(dp5970
g62
(dp5971
g70
I5
ssg71
g5965
sg64
(lp5972
S'Meu site magnifico'
p5973
asbasbasbag57
(g73
g59
NtRp5974
(dp5975
g62
(dp5976
sg71
g5117
sg64
(lp5977
g57
(g78
g59
NtRp5978
(dp5979
g62
(dp5980
g82
g83
ssg71
g5974
sg64
(lp5981
S'view'
p5982
asbag57
(g78
g59
NtRp5983
(dp5984
g62
(dp5985
g89
g90
ssg71
g5974
sg64
(lp5986
S':'
asbag57
(g78
g59
NtRp5987
(dp5988
g62
(dp5989
sg71
g5974
sg64
(lp5990
g57
(g58
g59
NtRp5991
(dp5992
g62
(dp5993
g70
I5
ssg71
g5987
sg64
(lp5994
S'appadmin/index.html'
p5995
asbasbasbasbasbsS'locals'
p5996
(dp5997
S'self'
p5998
S'<Table post (id,blog,title,slug,post_body,post_d...e,created_on,created_by,modified_on,modified_by)>'
p5999
sS'key'
p6000
S"'post'"
p6001
sssS'traceback'
p6002
S'Traceback (most recent call last):\n  File "/var/www/web2py_curso/gluon/restricted.py", line 212, in restricted\n    exec ccode in environment\n  File "/var/www/web2py_curso/applications/projeto/models/validators.py", line 9, in <module>\n    Post.post.created_on = IS_IN_DB(db, \'auth_user.id\', "%(first_name)s")\n  File "/var/www/web2py_curso/gluon/dal.py", line 7745, in __getitem__\n    return ogetattr(self, str(key))\nAttributeError: \'Table\' object has no attribute \'post\'\n'
p6003
s.