(dp1
S'output'
p2
S"<type 'exceptions.SyntaxError'> invalid syntax (post.py, line 13)"
p3
sS'layer'
p4
S'/var/www/web2py_curso/applications/projeto/controllers/post.py'
p5
sS'code'
p6
S'def show():\n\treturn "post"\n\ndef edit():\n\treturn "edit post"\n\ndef delete():\n\treturn "delete"\n\ndef add():\n\tlogger.debug("execute funcao add")\n\tlogger.info(str(request.vars))\n\ttry\n\t\t1/0\n\texcept ZeroDivisionError as erro:\n\tlogger.error(str(erro))\n\treturn "add"\n\nresponse._vars=response._caller(add)\n'
p7
sS'snapshot'
p8
(dp9
S'exception'
p10
(dp11
S'__getslice__'
p12
S"<method-wrapper '__getslice__' of exceptions.SyntaxError object>"
p13
sS'text'
p14
S"'\\ttry\\n'"
p15
sS'__str__'
p16
S"<method-wrapper '__str__' of exceptions.SyntaxError object>"
p17
sS'__reduce__'
p18
S'<built-in method __reduce__ of exceptions.SyntaxError object>'
p19
sS'__dict__'
p20
S'{}'
p21
sS'__sizeof__'
p22
S'<built-in method __sizeof__ of exceptions.SyntaxError object>'
p23
sS'__init__'
p24
S"<method-wrapper '__init__' of exceptions.SyntaxError object>"
p25
sS'__setattr__'
p26
S"<method-wrapper '__setattr__' of exceptions.SyntaxError object>"
p27
sS'__reduce_ex__'
p28
S'<built-in method __reduce_ex__ of exceptions.SyntaxError object>'
p29
sS'__new__'
p30
S'<built-in method __new__ of type object>'
p31
sS'__format__'
p32
S'<built-in method __format__ of exceptions.SyntaxError object>'
p33
sS'__class__'
p34
S"<type 'exceptions.SyntaxError'>"
p35
sS'filename'
p36
S"'/var/www/web2py_curso/applications/projeto/controllers/post.py'"
p37
sS'lineno'
p38
S'13'
p39
sS'msg'
p40
S"'invalid syntax'"
p41
sS'__doc__'
p42
S"'Invalid syntax.'"
p43
sS'__getitem__'
p44
S"<method-wrapper '__getitem__' of exceptions.SyntaxError object>"
p45
sS'__setstate__'
p46
S'<built-in method __setstate__ of exceptions.SyntaxError object>'
p47
sS'__getattribute__'
p48
S"<method-wrapper '__getattribute__' of exceptions.SyntaxError object>"
p49
sS'print_file_and_line'
p50
S'None'
p51
sS'args'
p52
S"('invalid syntax', ('/var/www/web2py_curso/applications/projeto/controllers/post.py', 13, 5, '\\ttry\\n'))"
p53
sS'__subclasshook__'
p54
S'<built-in method __subclasshook__ of type object>'
p55
sS'offset'
p56
S'5'
sS'__unicode__'
p57
S'<built-in method __unicode__ of exceptions.SyntaxError object>'
p58
sS'__delattr__'
p59
S"<method-wrapper '__delattr__' of exceptions.SyntaxError object>"
p60
sS'__repr__'
p61
S"<method-wrapper '__repr__' of exceptions.SyntaxError object>"
p62
sS'__hash__'
p63
S"<method-wrapper '__hash__' of exceptions.SyntaxError object>"
p64
ssS'evalue'
p65
S'invalid syntax (post.py, line 13)'
p66
sS'request'
p67
ccopy_reg
_reconstructor
p68
(cgluon.html
BEAUTIFY
p69
c__builtin__
object
p70
NtRp71
(dp72
S'attributes'
p73
(dp74
sS'components'
p75
(lp76
g68
(cgluon.html
TABLE
p77
g70
NtRp78
(dp79
g73
(dp80
S'level'
p81
I5
ssS'parent'
p82
Nsg75
(lp83
g68
(cgluon.html
TR
p84
g70
NtRp85
(dp86
g73
(dp87
sg82
g78
sg75
(lp88
g68
(cgluon.html
TD
p89
g70
NtRp90
(dp91
g73
(dp92
S'_style'
p93
S'font-weight:bold;vertical-align:top'
p94
ssg82
g85
sg75
(lp95
S'ajax'
p96
asbag68
(g89
g70
NtRp97
(dp98
g73
(dp99
S'_valign'
p100
S'top'
p101
ssg82
g85
sg75
(lp102
S':'
asbag68
(g89
g70
NtRp103
(dp104
g73
(dp105
sg82
g85
sg75
(lp106
g68
(g69
g70
NtRp107
(dp108
g73
(dp109
g81
I5
ssg82
g103
sg75
(lp110
S'False'
p111
asbasbasbag68
(g84
g70
NtRp112
(dp113
g73
(dp114
sg82
g78
sg75
(lp115
g68
(g89
g70
NtRp116
(dp117
g73
(dp118
g93
g94
ssg82
g112
sg75
(lp119
S'application'
p120
asbag68
(g89
g70
NtRp121
(dp122
g73
(dp123
g100
g101
ssg82
g112
sg75
(lp124
S':'
asbag68
(g89
g70
NtRp125
(dp126
g73
(dp127
sg82
g112
sg75
(lp128
g68
(g69
g70
NtRp129
(dp130
g73
(dp131
g81
I5
ssg82
g125
sg75
(lp132
S'projeto'
p133
asbasbasbag68
(g84
g70
NtRp134
(dp135
g73
(dp136
sg82
g78
sg75
(lp137
g68
(g89
g70
NtRp138
(dp139
g73
(dp140
g93
g94
ssg82
g134
sg75
(lp141
g52
asbag68
(g89
g70
NtRp142
(dp143
g73
(dp144
g100
g101
ssg82
g134
sg75
(lp145
S':'
asbag68
(g89
g70
NtRp146
(dp147
g73
(dp148
sg82
g134
sg75
(lp149
g68
(g69
g70
NtRp150
(dp151
g73
(dp152
g81
I5
ssg82
g146
sg75
(lp153
g68
(g77
g70
NtRp154
(dp155
g73
(dp156
g81
I4
ssg82
Nsg75
(lp157
sbasbasbasbag68
(g84
g70
NtRp158
(dp159
g73
(dp160
sg82
g78
sg75
(lp161
g68
(g89
g70
NtRp162
(dp163
g73
(dp164
g93
g94
ssg82
g158
sg75
(lp165
S'body'
p166
asbag68
(g89
g70
NtRp167
(dp168
g73
(dp169
g100
g101
ssg82
g158
sg75
(lp170
S':'
asbag68
(g89
g70
NtRp171
(dp172
g73
(dp173
sg82
g158
sg75
(lp174
g68
(g69
g70
NtRp175
(dp176
g73
(dp177
g81
I5
ssg82
g171
sg75
(lp178
S'<cStringIO.StringO object at 0x7fd3d419a618>'
p179
asbasbasbag68
(g84
g70
NtRp180
(dp181
g73
(dp182
sg82
g78
sg75
(lp183
g68
(g89
g70
NtRp184
(dp185
g73
(dp186
g93
g94
ssg82
g180
sg75
(lp187
S'cid'
p188
asbag68
(g89
g70
NtRp189
(dp190
g73
(dp191
g100
g101
ssg82
g180
sg75
(lp192
S':'
asbag68
(g89
g70
NtRp193
(dp194
g73
(dp195
sg82
g180
sg75
(lp196
g68
(g69
g70
NtRp197
(dp198
g73
(dp199
g81
I5
ssg82
g193
sg75
(lp200
S'None'
p201
asbasbasbag68
(g84
g70
NtRp202
(dp203
g73
(dp204
sg82
g78
sg75
(lp205
g68
(g89
g70
NtRp206
(dp207
g73
(dp208
g93
g94
ssg82
g202
sg75
(lp209
S'client'
p210
asbag68
(g89
g70
NtRp211
(dp212
g73
(dp213
g100
g101
ssg82
g202
sg75
(lp214
S':'
asbag68
(g89
g70
NtRp215
(dp216
g73
(dp217
sg82
g202
sg75
(lp218
g68
(g69
g70
NtRp219
(dp220
g73
(dp221
g81
I5
ssg82
g215
sg75
(lp222
S'127.0.0.1'
p223
asbasbasbag68
(g84
g70
NtRp224
(dp225
g73
(dp226
sg82
g78
sg75
(lp227
g68
(g89
g70
NtRp228
(dp229
g73
(dp230
g93
g94
ssg82
g224
sg75
(lp231
S'controller'
p232
asbag68
(g89
g70
NtRp233
(dp234
g73
(dp235
g100
g101
ssg82
g224
sg75
(lp236
S':'
asbag68
(g89
g70
NtRp237
(dp238
g73
(dp239
sg82
g224
sg75
(lp240
g68
(g69
g70
NtRp241
(dp242
g73
(dp243
g81
I5
ssg82
g237
sg75
(lp244
S'post'
p245
asbasbasbag68
(g84
g70
NtRp246
(dp247
g73
(dp248
sg82
g78
sg75
(lp249
g68
(g89
g70
NtRp250
(dp251
g73
(dp252
g93
g94
ssg82
g246
sg75
(lp253
S'cookies'
p254
asbag68
(g89
g70
NtRp255
(dp256
g73
(dp257
g100
g101
ssg82
g246
sg75
(lp258
S':'
asbag68
(g89
g70
NtRp259
(dp260
g73
(dp261
sg82
g246
sg75
(lp262
g68
(g69
g70
NtRp263
(dp264
g73
(dp265
g81
I5
ssg82
g259
sg75
(lp266
g68
(g77
g70
NtRp267
(dp268
g73
(dp269
g81
I4
ssg82
Nsg75
(lp270
g68
(g84
g70
NtRp271
(dp272
g73
(dp273
sg82
g267
sg75
(lp274
g68
(g89
g70
NtRp275
(dp276
g73
(dp277
g93
g94
ssg82
g271
sg75
(lp278
S'session_id_projeto'
p279
asbag68
(g89
g70
NtRp280
(dp281
g73
(dp282
g100
g101
ssg82
g271
sg75
(lp283
S':'
asbag68
(g89
g70
NtRp284
(dp285
g73
(dp286
sg82
g271
sg75
(lp287
g68
(g69
g70
NtRp288
(dp289
g73
(dp290
g81
I4
ssg82
g284
sg75
(lp291
S'127.0.0.1-e368b264-444a-4dee-8b41-31155ff54a04'
p292
ag68
(g77
g70
NtRp293
(dp294
g73
(dp295
g81
I3
ssg82
Nsg75
(lp296
g68
(g84
g70
NtRp297
(dp298
g73
(dp299
sg82
g293
sg75
(lp300
g68
(g89
g70
NtRp301
(dp302
g73
(dp303
g93
g94
ssg82
g297
sg75
(lp304
S'comment'
p305
asbag68
(g89
g70
NtRp306
(dp307
g73
(dp308
g100
g101
ssg82
g297
sg75
(lp309
S':'
asbag68
(g89
g70
NtRp310
(dp311
g73
(dp312
sg82
g297
sg75
(lp313
g68
(g69
g70
NtRp314
(dp315
g73
(dp316
g81
I3
ssg82
g310
sg75
(lp317
S''
asbasbasbag68
(g84
g70
NtRp318
(dp319
g73
(dp320
sg82
g293
sg75
(lp321
g68
(g89
g70
NtRp322
(dp323
g73
(dp324
g93
g94
ssg82
g318
sg75
(lp325
S'domain'
p326
asbag68
(g89
g70
NtRp327
(dp328
g73
(dp329
g100
g101
ssg82
g318
sg75
(lp330
S':'
asbag68
(g89
g70
NtRp331
(dp332
g73
(dp333
sg82
g318
sg75
(lp334
g68
(g69
g70
NtRp335
(dp336
g73
(dp337
g81
I3
ssg82
g331
sg75
(lp338
S''
asbasbasbag68
(g84
g70
NtRp339
(dp340
g73
(dp341
sg82
g293
sg75
(lp342
g68
(g89
g70
NtRp343
(dp344
g73
(dp345
g93
g94
ssg82
g339
sg75
(lp346
S'expires'
p347
asbag68
(g89
g70
NtRp348
(dp349
g73
(dp350
g100
g101
ssg82
g339
sg75
(lp351
S':'
asbag68
(g89
g70
NtRp352
(dp353
g73
(dp354
sg82
g339
sg75
(lp355
g68
(g69
g70
NtRp356
(dp357
g73
(dp358
g81
I3
ssg82
g352
sg75
(lp359
S''
asbasbasbag68
(g84
g70
NtRp360
(dp361
g73
(dp362
sg82
g293
sg75
(lp363
g68
(g89
g70
NtRp364
(dp365
g73
(dp366
g93
g94
ssg82
g360
sg75
(lp367
S'httponly'
p368
asbag68
(g89
g70
NtRp369
(dp370
g73
(dp371
g100
g101
ssg82
g360
sg75
(lp372
S':'
asbag68
(g89
g70
NtRp373
(dp374
g73
(dp375
sg82
g360
sg75
(lp376
g68
(g69
g70
NtRp377
(dp378
g73
(dp379
g81
I3
ssg82
g373
sg75
(lp380
S''
asbasbasbag68
(g84
g70
NtRp381
(dp382
g73
(dp383
sg82
g293
sg75
(lp384
g68
(g89
g70
NtRp385
(dp386
g73
(dp387
g93
g94
ssg82
g381
sg75
(lp388
S'max-age'
p389
asbag68
(g89
g70
NtRp390
(dp391
g73
(dp392
g100
g101
ssg82
g381
sg75
(lp393
S':'
asbag68
(g89
g70
NtRp394
(dp395
g73
(dp396
sg82
g381
sg75
(lp397
g68
(g69
g70
NtRp398
(dp399
g73
(dp400
g81
I3
ssg82
g394
sg75
(lp401
S''
asbasbasbag68
(g84
g70
NtRp402
(dp403
g73
(dp404
sg82
g293
sg75
(lp405
g68
(g89
g70
NtRp406
(dp407
g73
(dp408
g93
g94
ssg82
g402
sg75
(lp409
S'path'
p410
asbag68
(g89
g70
NtRp411
(dp412
g73
(dp413
g100
g101
ssg82
g402
sg75
(lp414
S':'
asbag68
(g89
g70
NtRp415
(dp416
g73
(dp417
sg82
g402
sg75
(lp418
g68
(g69
g70
NtRp419
(dp420
g73
(dp421
g81
I3
ssg82
g415
sg75
(lp422
S''
asbasbasbag68
(g84
g70
NtRp423
(dp424
g73
(dp425
sg82
g293
sg75
(lp426
g68
(g89
g70
NtRp427
(dp428
g73
(dp429
g93
g94
ssg82
g423
sg75
(lp430
S'secure'
p431
asbag68
(g89
g70
NtRp432
(dp433
g73
(dp434
g100
g101
ssg82
g423
sg75
(lp435
S':'
asbag68
(g89
g70
NtRp436
(dp437
g73
(dp438
sg82
g423
sg75
(lp439
g68
(g69
g70
NtRp440
(dp441
g73
(dp442
g81
I3
ssg82
g436
sg75
(lp443
S''
asbasbasbag68
(g84
g70
NtRp444
(dp445
g73
(dp446
sg82
g293
sg75
(lp447
g68
(g89
g70
NtRp448
(dp449
g73
(dp450
g93
g94
ssg82
g444
sg75
(lp451
S'version'
p452
asbag68
(g89
g70
NtRp453
(dp454
g73
(dp455
g100
g101
ssg82
g444
sg75
(lp456
S':'
asbag68
(g89
g70
NtRp457
(dp458
g73
(dp459
sg82
g444
sg75
(lp460
g68
(g69
g70
NtRp461
(dp462
g73
(dp463
g81
I3
ssg82
g457
sg75
(lp464
S''
asbasbasbasbasbasbasbasbasbasbasbag68
(g84
g70
NtRp465
(dp466
g73
(dp467
sg82
g78
sg75
(lp468
g68
(g89
g70
NtRp469
(dp470
g73
(dp471
g93
g94
ssg82
g465
sg75
(lp472
S'env'
p473
asbag68
(g89
g70
NtRp474
(dp475
g73
(dp476
g100
g101
ssg82
g465
sg75
(lp477
S':'
asbag68
(g89
g70
NtRp478
(dp479
g73
(dp480
sg82
g465
sg75
(lp481
g68
(g69
g70
NtRp482
(dp483
g73
(dp484
g81
I5
ssg82
g478
sg75
(lp485
g68
(g77
g70
NtRp486
(dp487
g73
(dp488
g81
I4
ssg82
Nsg75
(lp489
g68
(g84
g70
NtRp490
(dp491
g73
(dp492
sg82
g486
sg75
(lp493
g68
(g89
g70
NtRp494
(dp495
g73
(dp496
g93
g94
ssg82
g490
sg75
(lp497
S'app_folders'
p498
asbag68
(g89
g70
NtRp499
(dp500
g73
(dp501
g100
g101
ssg82
g490
sg75
(lp502
S':'
asbag68
(g89
g70
NtRp503
(dp504
g73
(dp505
sg82
g490
sg75
(lp506
g68
(g69
g70
NtRp507
(dp508
g73
(dp509
g81
I4
ssg82
g503
sg75
(lp510
S"set(['/var/www/web2py_curso/applications/projeto/'])"
p511
asbasbasbag68
(g84
g70
NtRp512
(dp513
g73
(dp514
sg82
g486
sg75
(lp515
g68
(g89
g70
NtRp516
(dp517
g73
(dp518
g93
g94
ssg82
g512
sg75
(lp519
S'applications_parent'
p520
asbag68
(g89
g70
NtRp521
(dp522
g73
(dp523
g100
g101
ssg82
g512
sg75
(lp524
S':'
asbag68
(g89
g70
NtRp525
(dp526
g73
(dp527
sg82
g512
sg75
(lp528
g68
(g69
g70
NtRp529
(dp530
g73
(dp531
g81
I4
ssg82
g525
sg75
(lp532
S'/var/www/web2py_curso'
p533
asbasbasbag68
(g84
g70
NtRp534
(dp535
g73
(dp536
sg82
g486
sg75
(lp537
g68
(g89
g70
NtRp538
(dp539
g73
(dp540
g93
g94
ssg82
g534
sg75
(lp541
S'cmd_args'
p542
asbag68
(g89
g70
NtRp543
(dp544
g73
(dp545
g100
g101
ssg82
g534
sg75
(lp546
S':'
asbag68
(g89
g70
NtRp547
(dp548
g73
(dp549
sg82
g534
sg75
(lp550
g68
(g69
g70
NtRp551
(dp552
g73
(dp553
g81
I4
ssg82
g547
sg75
(lp554
g68
(g77
g70
NtRp555
(dp556
g73
(dp557
g81
I3
ssg82
Nsg75
(lp558
sbasbasbasbag68
(g84
g70
NtRp559
(dp560
g73
(dp561
sg82
g486
sg75
(lp562
g68
(g89
g70
NtRp563
(dp564
g73
(dp565
g93
g94
ssg82
g559
sg75
(lp566
S'cmd_options'
p567
asbag68
(g89
g70
NtRp568
(dp569
g73
(dp570
g100
g101
ssg82
g559
sg75
(lp571
S':'
asbag68
(g89
g70
NtRp572
(dp573
g73
(dp574
sg82
g559
sg75
(lp575
g68
(g69
g70
NtRp576
(dp577
g73
(dp578
g81
I4
ssg82
g572
sg75
(lp579
S"<Values at 0x33c6488: {'verbose': False, 'ip': '127.0.0.1', 'with_scheduler': False, 'ips': [], 'shutdown_timeout': 5, 'taskbar': False, 'port': 8000, 'maxthreads': None, 'softcron': False, 'server_name': 'fernado-desktop', 'bpython': False, 'nogui': False, 'pid_filename': 'httpserver.pid', 'extcron': False, 'runcron': False, 'run_system_tests': False, 'test': None, 'folder': '/var/www/web2py_curso', 'config': '', 'minthreads': None, 'winservice': '', 'shell': None, 'run': '', 'log_filename': 'httpserver.log', 'debuglevel': 30, 'args': [''], 'socket_timeout': 5, 'ssl_ca_certificate': None, 'scheduler': None, 'profiler_filename': None, 'ssl_private_key': '', 'scheduler_groups': None, 'password': '123456', 'request_queue_size': 5, 'ssl_certificate': '', 'cronjob': False, 'numthreads': None, 'quiet': False, 'interfaces': None, 'import_models': False, 'timeout': 10, 'plain': False, 'nobanner': False}>"
p580
asbasbasbag68
(g84
g70
NtRp581
(dp582
g73
(dp583
sg82
g486
sg75
(lp584
g68
(g89
g70
NtRp585
(dp586
g73
(dp587
g93
g94
ssg82
g581
sg75
(lp588
S'db_sessions'
p589
asbag68
(g89
g70
NtRp590
(dp591
g73
(dp592
g100
g101
ssg82
g581
sg75
(lp593
S':'
asbag68
(g89
g70
NtRp594
(dp595
g73
(dp596
sg82
g581
sg75
(lp597
g68
(g69
g70
NtRp598
(dp599
g73
(dp600
g81
I4
ssg82
g594
sg75
(lp601
S'set([])'
p602
asbasbasbag68
(g84
g70
NtRp603
(dp604
g73
(dp605
sg82
g486
sg75
(lp606
g68
(g89
g70
NtRp607
(dp608
g73
(dp609
g93
g94
ssg82
g603
sg75
(lp610
S'debugging'
p611
asbag68
(g89
g70
NtRp612
(dp613
g73
(dp614
g100
g101
ssg82
g603
sg75
(lp615
S':'
asbag68
(g89
g70
NtRp616
(dp617
g73
(dp618
sg82
g603
sg75
(lp619
g68
(g69
g70
NtRp620
(dp621
g73
(dp622
g81
I4
ssg82
g616
sg75
(lp623
g111
asbasbasbag68
(g84
g70
NtRp624
(dp625
g73
(dp626
sg82
g486
sg75
(lp627
g68
(g89
g70
NtRp628
(dp629
g73
(dp630
g93
g94
ssg82
g624
sg75
(lp631
S'gluon_parent'
p632
asbag68
(g89
g70
NtRp633
(dp634
g73
(dp635
g100
g101
ssg82
g624
sg75
(lp636
S':'
asbag68
(g89
g70
NtRp637
(dp638
g73
(dp639
sg82
g624
sg75
(lp640
g68
(g69
g70
NtRp641
(dp642
g73
(dp643
g81
I4
ssg82
g637
sg75
(lp644
S'/var/www/web2py_curso'
p645
asbasbasbag68
(g84
g70
NtRp646
(dp647
g73
(dp648
sg82
g486
sg75
(lp649
g68
(g89
g70
NtRp650
(dp651
g73
(dp652
g93
g94
ssg82
g646
sg75
(lp653
S'http_accept'
p654
asbag68
(g89
g70
NtRp655
(dp656
g73
(dp657
g100
g101
ssg82
g646
sg75
(lp658
S':'
asbag68
(g89
g70
NtRp659
(dp660
g73
(dp661
sg82
g646
sg75
(lp662
g68
(g69
g70
NtRp663
(dp664
g73
(dp665
g81
I4
ssg82
g659
sg75
(lp666
S'text/html,application/xhtml+xml,application/xml;q=0.9,*/*;q=0.8'
p667
asbasbasbag68
(g84
g70
NtRp668
(dp669
g73
(dp670
sg82
g486
sg75
(lp671
g68
(g89
g70
NtRp672
(dp673
g73
(dp674
g93
g94
ssg82
g668
sg75
(lp675
S'http_accept_charset'
p676
asbag68
(g89
g70
NtRp677
(dp678
g73
(dp679
g100
g101
ssg82
g668
sg75
(lp680
S':'
asbag68
(g89
g70
NtRp681
(dp682
g73
(dp683
sg82
g668
sg75
(lp684
g68
(g69
g70
NtRp685
(dp686
g73
(dp687
g81
I4
ssg82
g681
sg75
(lp688
S'ISO-8859-1,utf-8;q=0.7,*;q=0.3'
p689
asbasbasbag68
(g84
g70
NtRp690
(dp691
g73
(dp692
sg82
g486
sg75
(lp693
g68
(g89
g70
NtRp694
(dp695
g73
(dp696
g93
g94
ssg82
g690
sg75
(lp697
S'http_accept_encoding'
p698
asbag68
(g89
g70
NtRp699
(dp700
g73
(dp701
g100
g101
ssg82
g690
sg75
(lp702
S':'
asbag68
(g89
g70
NtRp703
(dp704
g73
(dp705
sg82
g690
sg75
(lp706
g68
(g69
g70
NtRp707
(dp708
g73
(dp709
g81
I4
ssg82
g703
sg75
(lp710
S'gzip,deflate,sdch'
p711
asbasbasbag68
(g84
g70
NtRp712
(dp713
g73
(dp714
sg82
g486
sg75
(lp715
g68
(g89
g70
NtRp716
(dp717
g73
(dp718
g93
g94
ssg82
g712
sg75
(lp719
S'http_accept_language'
p720
asbag68
(g89
g70
NtRp721
(dp722
g73
(dp723
g100
g101
ssg82
g712
sg75
(lp724
S':'
asbag68
(g89
g70
NtRp725
(dp726
g73
(dp727
sg82
g712
sg75
(lp728
g68
(g69
g70
NtRp729
(dp730
g73
(dp731
g81
I4
ssg82
g725
sg75
(lp732
S'pt-BR,pt;q=0.8,en-US;q=0.6,en;q=0.4'
p733
asbasbasbag68
(g84
g70
NtRp734
(dp735
g73
(dp736
sg82
g486
sg75
(lp737
g68
(g89
g70
NtRp738
(dp739
g73
(dp740
g93
g94
ssg82
g734
sg75
(lp741
S'http_cache_control'
p742
asbag68
(g89
g70
NtRp743
(dp744
g73
(dp745
g100
g101
ssg82
g734
sg75
(lp746
S':'
asbag68
(g89
g70
NtRp747
(dp748
g73
(dp749
sg82
g734
sg75
(lp750
g68
(g69
g70
NtRp751
(dp752
g73
(dp753
g81
I4
ssg82
g747
sg75
(lp754
S'max-age=0'
p755
asbasbasbag68
(g84
g70
NtRp756
(dp757
g73
(dp758
sg82
g486
sg75
(lp759
g68
(g89
g70
NtRp760
(dp761
g73
(dp762
g93
g94
ssg82
g756
sg75
(lp763
S'http_connection'
p764
asbag68
(g89
g70
NtRp765
(dp766
g73
(dp767
g100
g101
ssg82
g756
sg75
(lp768
S':'
asbag68
(g89
g70
NtRp769
(dp770
g73
(dp771
sg82
g756
sg75
(lp772
g68
(g69
g70
NtRp773
(dp774
g73
(dp775
g81
I4
ssg82
g769
sg75
(lp776
S'keep-alive'
p777
asbasbasbag68
(g84
g70
NtRp778
(dp779
g73
(dp780
sg82
g486
sg75
(lp781
g68
(g89
g70
NtRp782
(dp783
g73
(dp784
g93
g94
ssg82
g778
sg75
(lp785
S'http_cookie'
p786
asbag68
(g89
g70
NtRp787
(dp788
g73
(dp789
g100
g101
ssg82
g778
sg75
(lp790
S':'
asbag68
(g89
g70
NtRp791
(dp792
g73
(dp793
sg82
g778
sg75
(lp794
g68
(g69
g70
NtRp795
(dp796
g73
(dp797
g81
I4
ssg82
g791
sg75
(lp798
S'session_id_projeto=127.0.0.1-e368b264-444a-4dee-8b41-31155ff54a04'
p799
asbasbasbag68
(g84
g70
NtRp800
(dp801
g73
(dp802
sg82
g486
sg75
(lp803
g68
(g89
g70
NtRp804
(dp805
g73
(dp806
g93
g94
ssg82
g800
sg75
(lp807
S'http_host'
p808
asbag68
(g89
g70
NtRp809
(dp810
g73
(dp811
g100
g101
ssg82
g800
sg75
(lp812
S':'
asbag68
(g89
g70
NtRp813
(dp814
g73
(dp815
sg82
g800
sg75
(lp816
g68
(g69
g70
NtRp817
(dp818
g73
(dp819
g81
I4
ssg82
g813
sg75
(lp820
S'127.0.0.1:8000'
p821
asbasbasbag68
(g84
g70
NtRp822
(dp823
g73
(dp824
sg82
g486
sg75
(lp825
g68
(g89
g70
NtRp826
(dp827
g73
(dp828
g93
g94
ssg82
g822
sg75
(lp829
S'http_user_agent'
p830
asbag68
(g89
g70
NtRp831
(dp832
g73
(dp833
g100
g101
ssg82
g822
sg75
(lp834
S':'
asbag68
(g89
g70
NtRp835
(dp836
g73
(dp837
sg82
g822
sg75
(lp838
g68
(g69
g70
NtRp839
(dp840
g73
(dp841
g81
I4
ssg82
g835
sg75
(lp842
S'Mozilla/5.0 (X11; Linux x86_64) AppleWebKit/537.4 (KHTML, like Gecko) Ubuntu/12.10 Chromium/22.0.1229.94 Chrome/22.0.1229.94 Safari/537.4'
p843
asbasbasbag68
(g84
g70
NtRp844
(dp845
g73
(dp846
sg82
g486
sg75
(lp847
g68
(g89
g70
NtRp848
(dp849
g73
(dp850
g93
g94
ssg82
g844
sg75
(lp851
S'is_jython'
p852
asbag68
(g89
g70
NtRp853
(dp854
g73
(dp855
g100
g101
ssg82
g844
sg75
(lp856
S':'
asbag68
(g89
g70
NtRp857
(dp858
g73
(dp859
sg82
g844
sg75
(lp860
g68
(g69
g70
NtRp861
(dp862
g73
(dp863
g81
I4
ssg82
g857
sg75
(lp864
g111
asbasbasbag68
(g84
g70
NtRp865
(dp866
g73
(dp867
sg82
g486
sg75
(lp868
g68
(g89
g70
NtRp869
(dp870
g73
(dp871
g93
g94
ssg82
g865
sg75
(lp872
S'is_pypy'
p873
asbag68
(g89
g70
NtRp874
(dp875
g73
(dp876
g100
g101
ssg82
g865
sg75
(lp877
S':'
asbag68
(g89
g70
NtRp878
(dp879
g73
(dp880
sg82
g865
sg75
(lp881
g68
(g69
g70
NtRp882
(dp883
g73
(dp884
g81
I4
ssg82
g878
sg75
(lp885
g111
asbasbasbag68
(g84
g70
NtRp886
(dp887
g73
(dp888
sg82
g486
sg75
(lp889
g68
(g89
g70
NtRp890
(dp891
g73
(dp892
g93
g94
ssg82
g886
sg75
(lp893
S'local_hosts'
p894
asbag68
(g89
g70
NtRp895
(dp896
g73
(dp897
g100
g101
ssg82
g886
sg75
(lp898
S':'
asbag68
(g89
g70
NtRp899
(dp900
g73
(dp901
sg82
g886
sg75
(lp902
g68
(g69
g70
NtRp903
(dp904
g73
(dp905
g81
I4
ssg82
g899
sg75
(lp906
g68
(g77
g70
NtRp907
(dp908
g73
(dp909
g81
I3
ssg82
Nsg75
(lp910
g68
(g84
g70
NtRp911
(dp912
g73
(dp913
sg82
g907
sg75
(lp914
g68
(g89
g70
NtRp915
(dp916
g73
(dp917
sg82
g911
sg75
(lp918
g68
(g69
g70
NtRp919
(dp920
g73
(dp921
g81
I3
ssg82
g915
sg75
(lp922
S'127.0.1.1'
p923
asbasbasbag68
(g84
g70
NtRp924
(dp925
g73
(dp926
sg82
g907
sg75
(lp927
g68
(g89
g70
NtRp928
(dp929
g73
(dp930
sg82
g924
sg75
(lp931
g68
(g69
g70
NtRp932
(dp933
g73
(dp934
g81
I3
ssg82
g928
sg75
(lp935
S'::1'
p936
asbasbasbag68
(g84
g70
NtRp937
(dp938
g73
(dp939
sg82
g907
sg75
(lp940
g68
(g89
g70
NtRp941
(dp942
g73
(dp943
sg82
g937
sg75
(lp944
g68
(g69
g70
NtRp945
(dp946
g73
(dp947
g81
I3
ssg82
g941
sg75
(lp948
S'fernado-desktop'
p949
asbasbasbag68
(g84
g70
NtRp950
(dp951
g73
(dp952
sg82
g907
sg75
(lp953
g68
(g89
g70
NtRp954
(dp955
g73
(dp956
sg82
g950
sg75
(lp957
g68
(g69
g70
NtRp958
(dp959
g73
(dp960
g81
I3
ssg82
g954
sg75
(lp961
S'::ffff:127.0.0.1'
p962
asbasbasbag68
(g84
g70
NtRp963
(dp964
g73
(dp965
sg82
g907
sg75
(lp966
g68
(g89
g70
NtRp967
(dp968
g73
(dp969
sg82
g963
sg75
(lp970
g68
(g69
g70
NtRp971
(dp972
g73
(dp973
g81
I3
ssg82
g967
sg75
(lp974
S'127.0.0.1'
p975
asbasbasbasbasbasbasbag68
(g84
g70
NtRp976
(dp977
g73
(dp978
sg82
g486
sg75
(lp979
g68
(g89
g70
NtRp980
(dp981
g73
(dp982
g93
g94
ssg82
g976
sg75
(lp983
S'path_info'
p984
asbag68
(g89
g70
NtRp985
(dp986
g73
(dp987
g100
g101
ssg82
g976
sg75
(lp988
S':'
asbag68
(g89
g70
NtRp989
(dp990
g73
(dp991
sg82
g976
sg75
(lp992
g68
(g69
g70
NtRp993
(dp994
g73
(dp995
g81
I4
ssg82
g989
sg75
(lp996
S'/post/add'
p997
asbasbasbag68
(g84
g70
NtRp998
(dp999
g73
(dp1000
sg82
g486
sg75
(lp1001
g68
(g89
g70
NtRp1002
(dp1003
g73
(dp1004
g93
g94
ssg82
g998
sg75
(lp1005
S'query_string'
p1006
asbag68
(g89
g70
NtRp1007
(dp1008
g73
(dp1009
g100
g101
ssg82
g998
sg75
(lp1010
S':'
asbag68
(g89
g70
NtRp1011
(dp1012
g73
(dp1013
sg82
g998
sg75
(lp1014
g68
(g69
g70
NtRp1015
(dp1016
g73
(dp1017
g81
I4
ssg82
g1011
sg75
(lp1018
S'nome=fernadoou'
p1019
asbasbasbag68
(g84
g70
NtRp1020
(dp1021
g73
(dp1022
sg82
g486
sg75
(lp1023
g68
(g89
g70
NtRp1024
(dp1025
g73
(dp1026
g93
g94
ssg82
g1020
sg75
(lp1027
S'remote_addr'
p1028
asbag68
(g89
g70
NtRp1029
(dp1030
g73
(dp1031
g100
g101
ssg82
g1020
sg75
(lp1032
S':'
asbag68
(g89
g70
NtRp1033
(dp1034
g73
(dp1035
sg82
g1020
sg75
(lp1036
g68
(g69
g70
NtRp1037
(dp1038
g73
(dp1039
g81
I4
ssg82
g1033
sg75
(lp1040
g223
asbasbasbag68
(g84
g70
NtRp1041
(dp1042
g73
(dp1043
sg82
g486
sg75
(lp1044
g68
(g89
g70
NtRp1045
(dp1046
g73
(dp1047
g93
g94
ssg82
g1041
sg75
(lp1048
S'remote_port'
p1049
asbag68
(g89
g70
NtRp1050
(dp1051
g73
(dp1052
g100
g101
ssg82
g1041
sg75
(lp1053
S':'
asbag68
(g89
g70
NtRp1054
(dp1055
g73
(dp1056
sg82
g1041
sg75
(lp1057
g68
(g69
g70
NtRp1058
(dp1059
g73
(dp1060
g81
I4
ssg82
g1054
sg75
(lp1061
S'57622'
p1062
asbasbasbag68
(g84
g70
NtRp1063
(dp1064
g73
(dp1065
sg82
g486
sg75
(lp1066
g68
(g89
g70
NtRp1067
(dp1068
g73
(dp1069
g93
g94
ssg82
g1063
sg75
(lp1070
S'request_method'
p1071
asbag68
(g89
g70
NtRp1072
(dp1073
g73
(dp1074
g100
g101
ssg82
g1063
sg75
(lp1075
S':'
asbag68
(g89
g70
NtRp1076
(dp1077
g73
(dp1078
sg82
g1063
sg75
(lp1079
g68
(g69
g70
NtRp1080
(dp1081
g73
(dp1082
g81
I4
ssg82
g1076
sg75
(lp1083
S'GET'
p1084
asbasbasbag68
(g84
g70
NtRp1085
(dp1086
g73
(dp1087
sg82
g486
sg75
(lp1088
g68
(g89
g70
NtRp1089
(dp1090
g73
(dp1091
g93
g94
ssg82
g1085
sg75
(lp1092
S'request_uri'
p1093
asbag68
(g89
g70
NtRp1094
(dp1095
g73
(dp1096
g100
g101
ssg82
g1085
sg75
(lp1097
S':'
asbag68
(g89
g70
NtRp1098
(dp1099
g73
(dp1100
sg82
g1085
sg75
(lp1101
g68
(g69
g70
NtRp1102
(dp1103
g73
(dp1104
g81
I4
ssg82
g1098
sg75
(lp1105
S'/projeto/post/add?nome=fernadoou'
p1106
asbasbasbag68
(g84
g70
NtRp1107
(dp1108
g73
(dp1109
sg82
g486
sg75
(lp1110
g68
(g89
g70
NtRp1111
(dp1112
g73
(dp1113
g93
g94
ssg82
g1107
sg75
(lp1114
S'script_name'
p1115
asbag68
(g89
g70
NtRp1116
(dp1117
g73
(dp1118
g100
g101
ssg82
g1107
sg75
(lp1119
S':'
asbag68
(g89
g70
NtRp1120
(dp1121
g73
(dp1122
sg82
g1107
sg75
(lp1123
g68
(g69
g70
NtRp1124
(dp1125
g73
(dp1126
g81
I4
ssg82
g1120
sg75
(lp1127
S''
asbasbasbag68
(g84
g70
NtRp1128
(dp1129
g73
(dp1130
sg82
g486
sg75
(lp1131
g68
(g89
g70
NtRp1132
(dp1133
g73
(dp1134
g93
g94
ssg82
g1128
sg75
(lp1135
S'server_name'
p1136
asbag68
(g89
g70
NtRp1137
(dp1138
g73
(dp1139
g100
g101
ssg82
g1128
sg75
(lp1140
S':'
asbag68
(g89
g70
NtRp1141
(dp1142
g73
(dp1143
sg82
g1128
sg75
(lp1144
g68
(g69
g70
NtRp1145
(dp1146
g73
(dp1147
g81
I4
ssg82
g1141
sg75
(lp1148
S'fernado-desktop'
p1149
asbasbasbag68
(g84
g70
NtRp1150
(dp1151
g73
(dp1152
sg82
g486
sg75
(lp1153
g68
(g89
g70
NtRp1154
(dp1155
g73
(dp1156
g93
g94
ssg82
g1150
sg75
(lp1157
S'server_port'
p1158
asbag68
(g89
g70
NtRp1159
(dp1160
g73
(dp1161
g100
g101
ssg82
g1150
sg75
(lp1162
S':'
asbag68
(g89
g70
NtRp1163
(dp1164
g73
(dp1165
sg82
g1150
sg75
(lp1166
g68
(g69
g70
NtRp1167
(dp1168
g73
(dp1169
g81
I4
ssg82
g1163
sg75
(lp1170
S'8000'
p1171
asbasbasbag68
(g84
g70
NtRp1172
(dp1173
g73
(dp1174
sg82
g486
sg75
(lp1175
g68
(g89
g70
NtRp1176
(dp1177
g73
(dp1178
g93
g94
ssg82
g1172
sg75
(lp1179
S'server_protocol'
p1180
asbag68
(g89
g70
NtRp1181
(dp1182
g73
(dp1183
g100
g101
ssg82
g1172
sg75
(lp1184
S':'
asbag68
(g89
g70
NtRp1185
(dp1186
g73
(dp1187
sg82
g1172
sg75
(lp1188
g68
(g69
g70
NtRp1189
(dp1190
g73
(dp1191
g81
I4
ssg82
g1185
sg75
(lp1192
S'HTTP/1.1'
p1193
asbasbasbag68
(g84
g70
NtRp1194
(dp1195
g73
(dp1196
sg82
g486
sg75
(lp1197
g68
(g89
g70
NtRp1198
(dp1199
g73
(dp1200
g93
g94
ssg82
g1194
sg75
(lp1201
S'server_software'
p1202
asbag68
(g89
g70
NtRp1203
(dp1204
g73
(dp1205
g100
g101
ssg82
g1194
sg75
(lp1206
S':'
asbag68
(g89
g70
NtRp1207
(dp1208
g73
(dp1209
sg82
g1194
sg75
(lp1210
g68
(g69
g70
NtRp1211
(dp1212
g73
(dp1213
g81
I4
ssg82
g1207
sg75
(lp1214
S'Rocket 1.2.6'
p1215
asbasbasbag68
(g84
g70
NtRp1216
(dp1217
g73
(dp1218
sg82
g486
sg75
(lp1219
g68
(g89
g70
NtRp1220
(dp1221
g73
(dp1222
g93
g94
ssg82
g1216
sg75
(lp1223
S'web2py_original_uri'
p1224
asbag68
(g89
g70
NtRp1225
(dp1226
g73
(dp1227
g100
g101
ssg82
g1216
sg75
(lp1228
S':'
asbag68
(g89
g70
NtRp1229
(dp1230
g73
(dp1231
sg82
g1216
sg75
(lp1232
g68
(g69
g70
NtRp1233
(dp1234
g73
(dp1235
g81
I4
ssg82
g1229
sg75
(lp1236
S'/post/add?nome=fernadoou'
p1237
asbasbasbag68
(g84
g70
NtRp1238
(dp1239
g73
(dp1240
sg82
g486
sg75
(lp1241
g68
(g89
g70
NtRp1242
(dp1243
g73
(dp1244
g93
g94
ssg82
g1238
sg75
(lp1245
S'web2py_path'
p1246
asbag68
(g89
g70
NtRp1247
(dp1248
g73
(dp1249
g100
g101
ssg82
g1238
sg75
(lp1250
S':'
asbag68
(g89
g70
NtRp1251
(dp1252
g73
(dp1253
sg82
g1238
sg75
(lp1254
g68
(g69
g70
NtRp1255
(dp1256
g73
(dp1257
g81
I4
ssg82
g1251
sg75
(lp1258
g533
asbasbasbag68
(g84
g70
NtRp1259
(dp1260
g73
(dp1261
sg82
g486
sg75
(lp1262
g68
(g89
g70
NtRp1263
(dp1264
g73
(dp1265
g93
g94
ssg82
g1259
sg75
(lp1266
S'web2py_version'
p1267
asbag68
(g89
g70
NtRp1268
(dp1269
g73
(dp1270
g100
g101
ssg82
g1259
sg75
(lp1271
S':'
asbag68
(g89
g70
NtRp1272
(dp1273
g73
(dp1274
sg82
g1259
sg75
(lp1275
g68
(g69
g70
NtRp1276
(dp1277
g73
(dp1278
g81
I4
ssg82
g1272
sg75
(lp1279
g68
(g77
g70
NtRp1280
(dp1281
g73
(dp1282
g81
I3
ssg82
Nsg75
(lp1283
g68
(g84
g70
NtRp1284
(dp1285
g73
(dp1286
sg82
g1280
sg75
(lp1287
g68
(g89
g70
NtRp1288
(dp1289
g73
(dp1290
sg82
g1284
sg75
(lp1291
g68
(g69
g70
NtRp1292
(dp1293
g73
(dp1294
g81
I3
ssg82
g1288
sg75
(lp1295
S'2'
asbasbasbag68
(g84
g70
NtRp1296
(dp1297
g73
(dp1298
sg82
g1280
sg75
(lp1299
g68
(g89
g70
NtRp1300
(dp1301
g73
(dp1302
sg82
g1296
sg75
(lp1303
g68
(g69
g70
NtRp1304
(dp1305
g73
(dp1306
g81
I3
ssg82
g1300
sg75
(lp1307
S'3'
asbasbasbag68
(g84
g70
NtRp1308
(dp1309
g73
(dp1310
sg82
g1280
sg75
(lp1311
g68
(g89
g70
NtRp1312
(dp1313
g73
(dp1314
sg82
g1308
sg75
(lp1315
g68
(g69
g70
NtRp1316
(dp1317
g73
(dp1318
g81
I3
ssg82
g1312
sg75
(lp1319
S'2'
asbasbasbag68
(g84
g70
NtRp1320
(dp1321
g73
(dp1322
sg82
g1280
sg75
(lp1323
g68
(g89
g70
NtRp1324
(dp1325
g73
(dp1326
sg82
g1320
sg75
(lp1327
g68
(g69
g70
NtRp1328
(dp1329
g73
(dp1330
g81
I3
ssg82
g1324
sg75
(lp1331
S'datetime.datetime(2012, 12, 17, 15, 3, 30)'
p1332
asbasbasbag68
(g84
g70
NtRp1333
(dp1334
g73
(dp1335
sg82
g1280
sg75
(lp1336
g68
(g89
g70
NtRp1337
(dp1338
g73
(dp1339
sg82
g1333
sg75
(lp1340
g68
(g69
g70
NtRp1341
(dp1342
g73
(dp1343
g81
I3
ssg82
g1337
sg75
(lp1344
S'stable'
p1345
asbasbasbasbasbasbasbag68
(g84
g70
NtRp1346
(dp1347
g73
(dp1348
sg82
g486
sg75
(lp1349
g68
(g89
g70
NtRp1350
(dp1351
g73
(dp1352
g93
g94
ssg82
g1346
sg75
(lp1353
S'wsgi_errors'
p1354
asbag68
(g89
g70
NtRp1355
(dp1356
g73
(dp1357
g100
g101
ssg82
g1346
sg75
(lp1358
S':'
asbag68
(g89
g70
NtRp1359
(dp1360
g73
(dp1361
sg82
g1346
sg75
(lp1362
g68
(g69
g70
NtRp1363
(dp1364
g73
(dp1365
g81
I4
ssg82
g1359
sg75
(lp1366
S"<open file '<stderr>', mode 'w' at 0x7fd3f50ee270>"
p1367
asbasbasbag68
(g84
g70
NtRp1368
(dp1369
g73
(dp1370
sg82
g486
sg75
(lp1371
g68
(g89
g70
NtRp1372
(dp1373
g73
(dp1374
g93
g94
ssg82
g1368
sg75
(lp1375
S'wsgi_file_wrapper'
p1376
asbag68
(g89
g70
NtRp1377
(dp1378
g73
(dp1379
g100
g101
ssg82
g1368
sg75
(lp1380
S':'
asbag68
(g89
g70
NtRp1381
(dp1382
g73
(dp1383
sg82
g1368
sg75
(lp1384
g68
(g69
g70
NtRp1385
(dp1386
g73
(dp1387
g81
I4
ssg82
g1381
sg75
(lp1388
S'<class wsgiref.util.FileWrapper at 0x331ba10>'
p1389
asbasbasbag68
(g84
g70
NtRp1390
(dp1391
g73
(dp1392
sg82
g486
sg75
(lp1393
g68
(g89
g70
NtRp1394
(dp1395
g73
(dp1396
g93
g94
ssg82
g1390
sg75
(lp1397
S'wsgi_input'
p1398
asbag68
(g89
g70
NtRp1399
(dp1400
g73
(dp1401
g100
g101
ssg82
g1390
sg75
(lp1402
S':'
asbag68
(g89
g70
NtRp1403
(dp1404
g73
(dp1405
sg82
g1390
sg75
(lp1406
g68
(g69
g70
NtRp1407
(dp1408
g73
(dp1409
g81
I4
ssg82
g1403
sg75
(lp1410
S'<socket._fileobject object at 0x7fd3d4199250>'
p1411
asbasbasbag68
(g84
g70
NtRp1412
(dp1413
g73
(dp1414
sg82
g486
sg75
(lp1415
g68
(g89
g70
NtRp1416
(dp1417
g73
(dp1418
g93
g94
ssg82
g1412
sg75
(lp1419
S'wsgi_multiprocess'
p1420
asbag68
(g89
g70
NtRp1421
(dp1422
g73
(dp1423
g100
g101
ssg82
g1412
sg75
(lp1424
S':'
asbag68
(g89
g70
NtRp1425
(dp1426
g73
(dp1427
sg82
g1412
sg75
(lp1428
g68
(g69
g70
NtRp1429
(dp1430
g73
(dp1431
g81
I4
ssg82
g1425
sg75
(lp1432
g111
asbasbasbag68
(g84
g70
NtRp1433
(dp1434
g73
(dp1435
sg82
g486
sg75
(lp1436
g68
(g89
g70
NtRp1437
(dp1438
g73
(dp1439
g93
g94
ssg82
g1433
sg75
(lp1440
S'wsgi_multithread'
p1441
asbag68
(g89
g70
NtRp1442
(dp1443
g73
(dp1444
g100
g101
ssg82
g1433
sg75
(lp1445
S':'
asbag68
(g89
g70
NtRp1446
(dp1447
g73
(dp1448
sg82
g1433
sg75
(lp1449
g68
(g69
g70
NtRp1450
(dp1451
g73
(dp1452
g81
I4
ssg82
g1446
sg75
(lp1453
S'True'
p1454
asbasbasbag68
(g84
g70
NtRp1455
(dp1456
g73
(dp1457
sg82
g486
sg75
(lp1458
g68
(g89
g70
NtRp1459
(dp1460
g73
(dp1461
g93
g94
ssg82
g1455
sg75
(lp1462
S'wsgi_run_once'
p1463
asbag68
(g89
g70
NtRp1464
(dp1465
g73
(dp1466
g100
g101
ssg82
g1455
sg75
(lp1467
S':'
asbag68
(g89
g70
NtRp1468
(dp1469
g73
(dp1470
sg82
g1455
sg75
(lp1471
g68
(g69
g70
NtRp1472
(dp1473
g73
(dp1474
g81
I4
ssg82
g1468
sg75
(lp1475
g111
asbasbasbag68
(g84
g70
NtRp1476
(dp1477
g73
(dp1478
sg82
g486
sg75
(lp1479
g68
(g89
g70
NtRp1480
(dp1481
g73
(dp1482
g93
g94
ssg82
g1476
sg75
(lp1483
S'wsgi_url_scheme'
p1484
asbag68
(g89
g70
NtRp1485
(dp1486
g73
(dp1487
g100
g101
ssg82
g1476
sg75
(lp1488
S':'
asbag68
(g89
g70
NtRp1489
(dp1490
g73
(dp1491
sg82
g1476
sg75
(lp1492
g68
(g69
g70
NtRp1493
(dp1494
g73
(dp1495
g81
I4
ssg82
g1489
sg75
(lp1496
S'http'
p1497
asbasbasbag68
(g84
g70
NtRp1498
(dp1499
g73
(dp1500
sg82
g486
sg75
(lp1501
g68
(g89
g70
NtRp1502
(dp1503
g73
(dp1504
g93
g94
ssg82
g1498
sg75
(lp1505
S'wsgi_version'
p1506
asbag68
(g89
g70
NtRp1507
(dp1508
g73
(dp1509
g100
g101
ssg82
g1498
sg75
(lp1510
S':'
asbag68
(g89
g70
NtRp1511
(dp1512
g73
(dp1513
sg82
g1498
sg75
(lp1514
g68
(g69
g70
NtRp1515
(dp1516
g73
(dp1517
g81
I4
ssg82
g1511
sg75
(lp1518
g68
(g77
g70
NtRp1519
(dp1520
g73
(dp1521
g81
I3
ssg82
Nsg75
(lp1522
g68
(g84
g70
NtRp1523
(dp1524
g73
(dp1525
sg82
g1519
sg75
(lp1526
g68
(g89
g70
NtRp1527
(dp1528
g73
(dp1529
sg82
g1523
sg75
(lp1530
g68
(g69
g70
NtRp1531
(dp1532
g73
(dp1533
g81
I3
ssg82
g1527
sg75
(lp1534
S'1'
asbasbasbag68
(g84
g70
NtRp1535
(dp1536
g73
(dp1537
sg82
g1519
sg75
(lp1538
g68
(g89
g70
NtRp1539
(dp1540
g73
(dp1541
sg82
g1535
sg75
(lp1542
g68
(g69
g70
NtRp1543
(dp1544
g73
(dp1545
g81
I3
ssg82
g1539
sg75
(lp1546
S'0'
asbasbasbasbasbasbasbasbasbasbasbag68
(g84
g70
NtRp1547
(dp1548
g73
(dp1549
sg82
g78
sg75
(lp1550
g68
(g89
g70
NtRp1551
(dp1552
g73
(dp1553
g93
g94
ssg82
g1547
sg75
(lp1554
S'extension'
p1555
asbag68
(g89
g70
NtRp1556
(dp1557
g73
(dp1558
g100
g101
ssg82
g1547
sg75
(lp1559
S':'
asbag68
(g89
g70
NtRp1560
(dp1561
g73
(dp1562
sg82
g1547
sg75
(lp1563
g68
(g69
g70
NtRp1564
(dp1565
g73
(dp1566
g81
I5
ssg82
g1560
sg75
(lp1567
S'html'
p1568
asbasbasbag68
(g84
g70
NtRp1569
(dp1570
g73
(dp1571
sg82
g78
sg75
(lp1572
g68
(g89
g70
NtRp1573
(dp1574
g73
(dp1575
g93
g94
ssg82
g1569
sg75
(lp1576
S'folder'
p1577
asbag68
(g89
g70
NtRp1578
(dp1579
g73
(dp1580
g100
g101
ssg82
g1569
sg75
(lp1581
S':'
asbag68
(g89
g70
NtRp1582
(dp1583
g73
(dp1584
sg82
g1569
sg75
(lp1585
g68
(g69
g70
NtRp1586
(dp1587
g73
(dp1588
g81
I5
ssg82
g1582
sg75
(lp1589
S'/var/www/web2py_curso/applications/projeto/'
p1590
asbasbasbag68
(g84
g70
NtRp1591
(dp1592
g73
(dp1593
sg82
g78
sg75
(lp1594
g68
(g89
g70
NtRp1595
(dp1596
g73
(dp1597
g93
g94
ssg82
g1591
sg75
(lp1598
S'function'
p1599
asbag68
(g89
g70
NtRp1600
(dp1601
g73
(dp1602
g100
g101
ssg82
g1591
sg75
(lp1603
S':'
asbag68
(g89
g70
NtRp1604
(dp1605
g73
(dp1606
sg82
g1591
sg75
(lp1607
g68
(g69
g70
NtRp1608
(dp1609
g73
(dp1610
g81
I5
ssg82
g1604
sg75
(lp1611
S'add'
p1612
asbasbasbag68
(g84
g70
NtRp1613
(dp1614
g73
(dp1615
sg82
g78
sg75
(lp1616
g68
(g89
g70
NtRp1617
(dp1618
g73
(dp1619
g93
g94
ssg82
g1613
sg75
(lp1620
S'get_vars'
p1621
asbag68
(g89
g70
NtRp1622
(dp1623
g73
(dp1624
g100
g101
ssg82
g1613
sg75
(lp1625
S':'
asbag68
(g89
g70
NtRp1626
(dp1627
g73
(dp1628
sg82
g1613
sg75
(lp1629
g68
(g69
g70
NtRp1630
(dp1631
g73
(dp1632
g81
I5
ssg82
g1626
sg75
(lp1633
g68
(g77
g70
NtRp1634
(dp1635
g73
(dp1636
g81
I4
ssg82
Nsg75
(lp1637
g68
(g84
g70
NtRp1638
(dp1639
g73
(dp1640
sg82
g1634
sg75
(lp1641
g68
(g89
g70
NtRp1642
(dp1643
g73
(dp1644
g93
g94
ssg82
g1638
sg75
(lp1645
S'nome'
p1646
asbag68
(g89
g70
NtRp1647
(dp1648
g73
(dp1649
g100
g101
ssg82
g1638
sg75
(lp1650
S':'
asbag68
(g89
g70
NtRp1651
(dp1652
g73
(dp1653
sg82
g1638
sg75
(lp1654
g68
(g69
g70
NtRp1655
(dp1656
g73
(dp1657
g81
I4
ssg82
g1651
sg75
(lp1658
S'fernadoou'
p1659
asbasbasbasbasbasbasbag68
(g84
g70
NtRp1660
(dp1661
g73
(dp1662
sg82
g78
sg75
(lp1663
g68
(g89
g70
NtRp1664
(dp1665
g73
(dp1666
g93
g94
ssg82
g1660
sg75
(lp1667
S'global_settings'
p1668
asbag68
(g89
g70
NtRp1669
(dp1670
g73
(dp1671
g100
g101
ssg82
g1660
sg75
(lp1672
S':'
asbag68
(g89
g70
NtRp1673
(dp1674
g73
(dp1675
sg82
g1660
sg75
(lp1676
g68
(g69
g70
NtRp1677
(dp1678
g73
(dp1679
g81
I5
ssg82
g1673
sg75
(lp1680
g68
(g77
g70
NtRp1681
(dp1682
g73
(dp1683
g81
I4
ssg82
Nsg75
(lp1684
g68
(g84
g70
NtRp1685
(dp1686
g73
(dp1687
sg82
g1681
sg75
(lp1688
g68
(g89
g70
NtRp1689
(dp1690
g73
(dp1691
g93
g94
ssg82
g1685
sg75
(lp1692
g498
asbag68
(g89
g70
NtRp1693
(dp1694
g73
(dp1695
g100
g101
ssg82
g1685
sg75
(lp1696
S':'
asbag68
(g89
g70
NtRp1697
(dp1698
g73
(dp1699
sg82
g1685
sg75
(lp1700
g68
(g69
g70
NtRp1701
(dp1702
g73
(dp1703
g81
I4
ssg82
g1697
sg75
(lp1704
S"set(['/var/www/web2py_curso/applications/projeto/'])"
p1705
asbasbasbag68
(g84
g70
NtRp1706
(dp1707
g73
(dp1708
sg82
g1681
sg75
(lp1709
g68
(g89
g70
NtRp1710
(dp1711
g73
(dp1712
g93
g94
ssg82
g1706
sg75
(lp1713
g520
asbag68
(g89
g70
NtRp1714
(dp1715
g73
(dp1716
g100
g101
ssg82
g1706
sg75
(lp1717
S':'
asbag68
(g89
g70
NtRp1718
(dp1719
g73
(dp1720
sg82
g1706
sg75
(lp1721
g68
(g69
g70
NtRp1722
(dp1723
g73
(dp1724
g81
I4
ssg82
g1718
sg75
(lp1725
g533
asbasbasbag68
(g84
g70
NtRp1726
(dp1727
g73
(dp1728
sg82
g1681
sg75
(lp1729
g68
(g89
g70
NtRp1730
(dp1731
g73
(dp1732
g93
g94
ssg82
g1726
sg75
(lp1733
g542
asbag68
(g89
g70
NtRp1734
(dp1735
g73
(dp1736
g100
g101
ssg82
g1726
sg75
(lp1737
S':'
asbag68
(g89
g70
NtRp1738
(dp1739
g73
(dp1740
sg82
g1726
sg75
(lp1741
g68
(g69
g70
NtRp1742
(dp1743
g73
(dp1744
g81
I4
ssg82
g1738
sg75
(lp1745
g68
(g77
g70
NtRp1746
(dp1747
g73
(dp1748
g81
I3
ssg82
Nsg75
(lp1749
sbasbasbasbag68
(g84
g70
NtRp1750
(dp1751
g73
(dp1752
sg82
g1681
sg75
(lp1753
g68
(g89
g70
NtRp1754
(dp1755
g73
(dp1756
g93
g94
ssg82
g1750
sg75
(lp1757
g567
asbag68
(g89
g70
NtRp1758
(dp1759
g73
(dp1760
g100
g101
ssg82
g1750
sg75
(lp1761
S':'
asbag68
(g89
g70
NtRp1762
(dp1763
g73
(dp1764
sg82
g1750
sg75
(lp1765
g68
(g69
g70
NtRp1766
(dp1767
g73
(dp1768
g81
I4
ssg82
g1762
sg75
(lp1769
S"<Values at 0x33c6488: {'verbose': False, 'ip': '127.0.0.1', 'with_scheduler': False, 'ips': [], 'shutdown_timeout': 5, 'taskbar': False, 'port': 8000, 'maxthreads': None, 'softcron': False, 'server_name': 'fernado-desktop', 'bpython': False, 'nogui': False, 'pid_filename': 'httpserver.pid', 'extcron': False, 'runcron': False, 'run_system_tests': False, 'test': None, 'folder': '/var/www/web2py_curso', 'config': '', 'minthreads': None, 'winservice': '', 'shell': None, 'run': '', 'log_filename': 'httpserver.log', 'debuglevel': 30, 'args': [''], 'socket_timeout': 5, 'ssl_ca_certificate': None, 'scheduler': None, 'profiler_filename': None, 'ssl_private_key': '', 'scheduler_groups': None, 'password': '123456', 'request_queue_size': 5, 'ssl_certificate': '', 'cronjob': False, 'numthreads': None, 'quiet': False, 'interfaces': None, 'import_models': False, 'timeout': 10, 'plain': False, 'nobanner': False}>"
p1770
asbasbasbag68
(g84
g70
NtRp1771
(dp1772
g73
(dp1773
sg82
g1681
sg75
(lp1774
g68
(g89
g70
NtRp1775
(dp1776
g73
(dp1777
g93
g94
ssg82
g1771
sg75
(lp1778
g589
asbag68
(g89
g70
NtRp1779
(dp1780
g73
(dp1781
g100
g101
ssg82
g1771
sg75
(lp1782
S':'
asbag68
(g89
g70
NtRp1783
(dp1784
g73
(dp1785
sg82
g1771
sg75
(lp1786
g68
(g69
g70
NtRp1787
(dp1788
g73
(dp1789
g81
I4
ssg82
g1783
sg75
(lp1790
S'set([])'
p1791
asbasbasbag68
(g84
g70
NtRp1792
(dp1793
g73
(dp1794
sg82
g1681
sg75
(lp1795
g68
(g89
g70
NtRp1796
(dp1797
g73
(dp1798
g93
g94
ssg82
g1792
sg75
(lp1799
g611
asbag68
(g89
g70
NtRp1800
(dp1801
g73
(dp1802
g100
g101
ssg82
g1792
sg75
(lp1803
S':'
asbag68
(g89
g70
NtRp1804
(dp1805
g73
(dp1806
sg82
g1792
sg75
(lp1807
g68
(g69
g70
NtRp1808
(dp1809
g73
(dp1810
g81
I4
ssg82
g1804
sg75
(lp1811
g111
asbasbasbag68
(g84
g70
NtRp1812
(dp1813
g73
(dp1814
sg82
g1681
sg75
(lp1815
g68
(g89
g70
NtRp1816
(dp1817
g73
(dp1818
g93
g94
ssg82
g1812
sg75
(lp1819
g632
asbag68
(g89
g70
NtRp1820
(dp1821
g73
(dp1822
g100
g101
ssg82
g1812
sg75
(lp1823
S':'
asbag68
(g89
g70
NtRp1824
(dp1825
g73
(dp1826
sg82
g1812
sg75
(lp1827
g68
(g69
g70
NtRp1828
(dp1829
g73
(dp1830
g81
I4
ssg82
g1824
sg75
(lp1831
g645
asbasbasbag68
(g84
g70
NtRp1832
(dp1833
g73
(dp1834
sg82
g1681
sg75
(lp1835
g68
(g89
g70
NtRp1836
(dp1837
g73
(dp1838
g93
g94
ssg82
g1832
sg75
(lp1839
g852
asbag68
(g89
g70
NtRp1840
(dp1841
g73
(dp1842
g100
g101
ssg82
g1832
sg75
(lp1843
S':'
asbag68
(g89
g70
NtRp1844
(dp1845
g73
(dp1846
sg82
g1832
sg75
(lp1847
g68
(g69
g70
NtRp1848
(dp1849
g73
(dp1850
g81
I4
ssg82
g1844
sg75
(lp1851
g111
asbasbasbag68
(g84
g70
NtRp1852
(dp1853
g73
(dp1854
sg82
g1681
sg75
(lp1855
g68
(g89
g70
NtRp1856
(dp1857
g73
(dp1858
g93
g94
ssg82
g1852
sg75
(lp1859
g873
asbag68
(g89
g70
NtRp1860
(dp1861
g73
(dp1862
g100
g101
ssg82
g1852
sg75
(lp1863
S':'
asbag68
(g89
g70
NtRp1864
(dp1865
g73
(dp1866
sg82
g1852
sg75
(lp1867
g68
(g69
g70
NtRp1868
(dp1869
g73
(dp1870
g81
I4
ssg82
g1864
sg75
(lp1871
g111
asbasbasbag68
(g84
g70
NtRp1872
(dp1873
g73
(dp1874
sg82
g1681
sg75
(lp1875
g68
(g89
g70
NtRp1876
(dp1877
g73
(dp1878
g93
g94
ssg82
g1872
sg75
(lp1879
g894
asbag68
(g89
g70
NtRp1880
(dp1881
g73
(dp1882
g100
g101
ssg82
g1872
sg75
(lp1883
S':'
asbag68
(g89
g70
NtRp1884
(dp1885
g73
(dp1886
sg82
g1872
sg75
(lp1887
g68
(g69
g70
NtRp1888
(dp1889
g73
(dp1890
g81
I4
ssg82
g1884
sg75
(lp1891
g68
(g77
g70
NtRp1892
(dp1893
g73
(dp1894
g81
I3
ssg82
Nsg75
(lp1895
g68
(g84
g70
NtRp1896
(dp1897
g73
(dp1898
sg82
g1892
sg75
(lp1899
g68
(g89
g70
NtRp1900
(dp1901
g73
(dp1902
sg82
g1896
sg75
(lp1903
g68
(g69
g70
NtRp1904
(dp1905
g73
(dp1906
g81
I3
ssg82
g1900
sg75
(lp1907
g923
asbasbasbag68
(g84
g70
NtRp1908
(dp1909
g73
(dp1910
sg82
g1892
sg75
(lp1911
g68
(g89
g70
NtRp1912
(dp1913
g73
(dp1914
sg82
g1908
sg75
(lp1915
g68
(g69
g70
NtRp1916
(dp1917
g73
(dp1918
g81
I3
ssg82
g1912
sg75
(lp1919
g936
asbasbasbag68
(g84
g70
NtRp1920
(dp1921
g73
(dp1922
sg82
g1892
sg75
(lp1923
g68
(g89
g70
NtRp1924
(dp1925
g73
(dp1926
sg82
g1920
sg75
(lp1927
g68
(g69
g70
NtRp1928
(dp1929
g73
(dp1930
g81
I3
ssg82
g1924
sg75
(lp1931
g949
asbasbasbag68
(g84
g70
NtRp1932
(dp1933
g73
(dp1934
sg82
g1892
sg75
(lp1935
g68
(g89
g70
NtRp1936
(dp1937
g73
(dp1938
sg82
g1932
sg75
(lp1939
g68
(g69
g70
NtRp1940
(dp1941
g73
(dp1942
g81
I3
ssg82
g1936
sg75
(lp1943
g962
asbasbasbag68
(g84
g70
NtRp1944
(dp1945
g73
(dp1946
sg82
g1892
sg75
(lp1947
g68
(g89
g70
NtRp1948
(dp1949
g73
(dp1950
sg82
g1944
sg75
(lp1951
g68
(g69
g70
NtRp1952
(dp1953
g73
(dp1954
g81
I3
ssg82
g1948
sg75
(lp1955
g975
asbasbasbasbasbasbasbag68
(g84
g70
NtRp1956
(dp1957
g73
(dp1958
sg82
g1681
sg75
(lp1959
g68
(g89
g70
NtRp1960
(dp1961
g73
(dp1962
g93
g94
ssg82
g1956
sg75
(lp1963
g1267
asbag68
(g89
g70
NtRp1964
(dp1965
g73
(dp1966
g100
g101
ssg82
g1956
sg75
(lp1967
S':'
asbag68
(g89
g70
NtRp1968
(dp1969
g73
(dp1970
sg82
g1956
sg75
(lp1971
g68
(g69
g70
NtRp1972
(dp1973
g73
(dp1974
g81
I4
ssg82
g1968
sg75
(lp1975
g68
(g77
g70
NtRp1976
(dp1977
g73
(dp1978
g81
I3
ssg82
Nsg75
(lp1979
g68
(g84
g70
NtRp1980
(dp1981
g73
(dp1982
sg82
g1976
sg75
(lp1983
g68
(g89
g70
NtRp1984
(dp1985
g73
(dp1986
sg82
g1980
sg75
(lp1987
g68
(g69
g70
NtRp1988
(dp1989
g73
(dp1990
g81
I3
ssg82
g1984
sg75
(lp1991
S'2'
asbasbasbag68
(g84
g70
NtRp1992
(dp1993
g73
(dp1994
sg82
g1976
sg75
(lp1995
g68
(g89
g70
NtRp1996
(dp1997
g73
(dp1998
sg82
g1992
sg75
(lp1999
g68
(g69
g70
NtRp2000
(dp2001
g73
(dp2002
g81
I3
ssg82
g1996
sg75
(lp2003
S'3'
asbasbasbag68
(g84
g70
NtRp2004
(dp2005
g73
(dp2006
sg82
g1976
sg75
(lp2007
g68
(g89
g70
NtRp2008
(dp2009
g73
(dp2010
sg82
g2004
sg75
(lp2011
g68
(g69
g70
NtRp2012
(dp2013
g73
(dp2014
g81
I3
ssg82
g2008
sg75
(lp2015
S'2'
asbasbasbag68
(g84
g70
NtRp2016
(dp2017
g73
(dp2018
sg82
g1976
sg75
(lp2019
g68
(g89
g70
NtRp2020
(dp2021
g73
(dp2022
sg82
g2016
sg75
(lp2023
g68
(g69
g70
NtRp2024
(dp2025
g73
(dp2026
g81
I3
ssg82
g2020
sg75
(lp2027
S'datetime.datetime(2012, 12, 17, 15, 3, 30)'
p2028
asbasbasbag68
(g84
g70
NtRp2029
(dp2030
g73
(dp2031
sg82
g1976
sg75
(lp2032
g68
(g89
g70
NtRp2033
(dp2034
g73
(dp2035
sg82
g2029
sg75
(lp2036
g68
(g69
g70
NtRp2037
(dp2038
g73
(dp2039
g81
I3
ssg82
g2033
sg75
(lp2040
g1345
asbasbasbasbasbasbasbasbasbasbasbag68
(g84
g70
NtRp2041
(dp2042
g73
(dp2043
sg82
g78
sg75
(lp2044
g68
(g89
g70
NtRp2045
(dp2046
g73
(dp2047
g93
g94
ssg82
g2041
sg75
(lp2048
S'is_https'
p2049
asbag68
(g89
g70
NtRp2050
(dp2051
g73
(dp2052
g100
g101
ssg82
g2041
sg75
(lp2053
S':'
asbag68
(g89
g70
NtRp2054
(dp2055
g73
(dp2056
sg82
g2041
sg75
(lp2057
g68
(g69
g70
NtRp2058
(dp2059
g73
(dp2060
g81
I5
ssg82
g2054
sg75
(lp2061
g111
asbasbasbag68
(g84
g70
NtRp2062
(dp2063
g73
(dp2064
sg82
g78
sg75
(lp2065
g68
(g89
g70
NtRp2066
(dp2067
g73
(dp2068
g93
g94
ssg82
g2062
sg75
(lp2069
S'is_local'
p2070
asbag68
(g89
g70
NtRp2071
(dp2072
g73
(dp2073
g100
g101
ssg82
g2062
sg75
(lp2074
S':'
asbag68
(g89
g70
NtRp2075
(dp2076
g73
(dp2077
sg82
g2062
sg75
(lp2078
g68
(g69
g70
NtRp2079
(dp2080
g73
(dp2081
g81
I5
ssg82
g2075
sg75
(lp2082
g1454
asbasbasbag68
(g84
g70
NtRp2083
(dp2084
g73
(dp2085
sg82
g78
sg75
(lp2086
g68
(g89
g70
NtRp2087
(dp2088
g73
(dp2089
g93
g94
ssg82
g2083
sg75
(lp2090
S'is_restful'
p2091
asbag68
(g89
g70
NtRp2092
(dp2093
g73
(dp2094
g100
g101
ssg82
g2083
sg75
(lp2095
S':'
asbag68
(g89
g70
NtRp2096
(dp2097
g73
(dp2098
sg82
g2083
sg75
(lp2099
g68
(g69
g70
NtRp2100
(dp2101
g73
(dp2102
g81
I5
ssg82
g2096
sg75
(lp2103
g111
asbasbasbag68
(g84
g70
NtRp2104
(dp2105
g73
(dp2106
sg82
g78
sg75
(lp2107
g68
(g89
g70
NtRp2108
(dp2109
g73
(dp2110
g93
g94
ssg82
g2104
sg75
(lp2111
S'now'
p2112
asbag68
(g89
g70
NtRp2113
(dp2114
g73
(dp2115
g100
g101
ssg82
g2104
sg75
(lp2116
S':'
asbag68
(g89
g70
NtRp2117
(dp2118
g73
(dp2119
sg82
g2104
sg75
(lp2120
g68
(g69
g70
NtRp2121
(dp2122
g73
(dp2123
g81
I5
ssg82
g2117
sg75
(lp2124
S'datetime.datetime(2013, 1, 24, 9, 16, 31, 879266)'
p2125
asbasbasbag68
(g84
g70
NtRp2126
(dp2127
g73
(dp2128
sg82
g78
sg75
(lp2129
g68
(g89
g70
NtRp2130
(dp2131
g73
(dp2132
g93
g94
ssg82
g2126
sg75
(lp2133
S'post_vars'
p2134
asbag68
(g89
g70
NtRp2135
(dp2136
g73
(dp2137
g100
g101
ssg82
g2126
sg75
(lp2138
S':'
asbag68
(g89
g70
NtRp2139
(dp2140
g73
(dp2141
sg82
g2126
sg75
(lp2142
g68
(g69
g70
NtRp2143
(dp2144
g73
(dp2145
g81
I5
ssg82
g2139
sg75
(lp2146
g68
(g77
g70
NtRp2147
(dp2148
g73
(dp2149
g81
I4
ssg82
Nsg75
(lp2150
sbasbasbasbag68
(g84
g70
NtRp2151
(dp2152
g73
(dp2153
sg82
g78
sg75
(lp2154
g68
(g89
g70
NtRp2155
(dp2156
g73
(dp2157
g93
g94
ssg82
g2151
sg75
(lp2158
S'url'
p2159
asbag68
(g89
g70
NtRp2160
(dp2161
g73
(dp2162
g100
g101
ssg82
g2151
sg75
(lp2163
S':'
asbag68
(g89
g70
NtRp2164
(dp2165
g73
(dp2166
sg82
g2151
sg75
(lp2167
g68
(g69
g70
NtRp2168
(dp2169
g73
(dp2170
g81
I5
ssg82
g2164
sg75
(lp2171
g997
asbasbasbag68
(g84
g70
NtRp2172
(dp2173
g73
(dp2174
sg82
g78
sg75
(lp2175
g68
(g89
g70
NtRp2176
(dp2177
g73
(dp2178
g93
g94
ssg82
g2172
sg75
(lp2179
S'utcnow'
p2180
asbag68
(g89
g70
NtRp2181
(dp2182
g73
(dp2183
g100
g101
ssg82
g2172
sg75
(lp2184
S':'
asbag68
(g89
g70
NtRp2185
(dp2186
g73
(dp2187
sg82
g2172
sg75
(lp2188
g68
(g69
g70
NtRp2189
(dp2190
g73
(dp2191
g81
I5
ssg82
g2185
sg75
(lp2192
S'datetime.datetime(2013, 1, 24, 11, 16, 31, 879312)'
p2193
asbasbasbag68
(g84
g70
NtRp2194
(dp2195
g73
(dp2196
sg82
g78
sg75
(lp2197
g68
(g89
g70
NtRp2198
(dp2199
g73
(dp2200
g93
g94
ssg82
g2194
sg75
(lp2201
S'uuid'
p2202
asbag68
(g89
g70
NtRp2203
(dp2204
g73
(dp2205
g100
g101
ssg82
g2194
sg75
(lp2206
S':'
asbag68
(g89
g70
NtRp2207
(dp2208
g73
(dp2209
sg82
g2194
sg75
(lp2210
g68
(g69
g70
NtRp2211
(dp2212
g73
(dp2213
g81
I5
ssg82
g2207
sg75
(lp2214
S'projeto/127.0.0.1.2013-01-24.09-16-31.7a1e0145-0350-4a1e-8faa-31c250868e53'
p2215
asbasbasbag68
(g84
g70
NtRp2216
(dp2217
g73
(dp2218
sg82
g78
sg75
(lp2219
g68
(g89
g70
NtRp2220
(dp2221
g73
(dp2222
g93
g94
ssg82
g2216
sg75
(lp2223
S'vars'
p2224
asbag68
(g89
g70
NtRp2225
(dp2226
g73
(dp2227
g100
g101
ssg82
g2216
sg75
(lp2228
S':'
asbag68
(g89
g70
NtRp2229
(dp2230
g73
(dp2231
sg82
g2216
sg75
(lp2232
g68
(g69
g70
NtRp2233
(dp2234
g73
(dp2235
g81
I5
ssg82
g2229
sg75
(lp2236
g68
(g77
g70
NtRp2237
(dp2238
g73
(dp2239
g81
I4
ssg82
Nsg75
(lp2240
g68
(g84
g70
NtRp2241
(dp2242
g73
(dp2243
sg82
g2237
sg75
(lp2244
g68
(g89
g70
NtRp2245
(dp2246
g73
(dp2247
g93
g94
ssg82
g2241
sg75
(lp2248
g1646
asbag68
(g89
g70
NtRp2249
(dp2250
g73
(dp2251
g100
g101
ssg82
g2241
sg75
(lp2252
S':'
asbag68
(g89
g70
NtRp2253
(dp2254
g73
(dp2255
sg82
g2241
sg75
(lp2256
g68
(g69
g70
NtRp2257
(dp2258
g73
(dp2259
g81
I4
ssg82
g2253
sg75
(lp2260
g1659
asbasbasbasbasbasbasbag68
(g84
g70
NtRp2261
(dp2262
g73
(dp2263
sg82
g78
sg75
(lp2264
g68
(g89
g70
NtRp2265
(dp2266
g73
(dp2267
g93
g94
ssg82
g2261
sg75
(lp2268
S'wsgi'
p2269
asbag68
(g89
g70
NtRp2270
(dp2271
g73
(dp2272
g100
g101
ssg82
g2261
sg75
(lp2273
S':'
asbag68
(g89
g70
NtRp2274
(dp2275
g73
(dp2276
sg82
g2261
sg75
(lp2277
g68
(g69
g70
NtRp2278
(dp2279
g73
(dp2280
g81
I5
ssg82
g2274
sg75
(lp2281
g68
(g77
g70
NtRp2282
(dp2283
g73
(dp2284
g81
I4
ssg82
Nsg75
(lp2285
g68
(g84
g70
NtRp2286
(dp2287
g73
(dp2288
sg82
g2282
sg75
(lp2289
g68
(g89
g70
NtRp2290
(dp2291
g73
(dp2292
g93
g94
ssg82
g2286
sg75
(lp2293
S'environ'
p2294
asbag68
(g89
g70
NtRp2295
(dp2296
g73
(dp2297
g100
g101
ssg82
g2286
sg75
(lp2298
S':'
asbag68
(g89
g70
NtRp2299
(dp2300
g73
(dp2301
sg82
g2286
sg75
(lp2302
g68
(g69
g70
NtRp2303
(dp2304
g73
(dp2305
g81
I4
ssg82
g2299
sg75
(lp2306
g68
(g77
g70
NtRp2307
(dp2308
g73
(dp2309
g81
I3
ssg82
Nsg75
(lp2310
g68
(g84
g70
NtRp2311
(dp2312
g73
(dp2313
sg82
g2307
sg75
(lp2314
g68
(g89
g70
NtRp2315
(dp2316
g73
(dp2317
g93
g94
ssg82
g2311
sg75
(lp2318
S'HTTP_ACCEPT'
p2319
asbag68
(g89
g70
NtRp2320
(dp2321
g73
(dp2322
g100
g101
ssg82
g2311
sg75
(lp2323
S':'
asbag68
(g89
g70
NtRp2324
(dp2325
g73
(dp2326
sg82
g2311
sg75
(lp2327
g68
(g69
g70
NtRp2328
(dp2329
g73
(dp2330
g81
I3
ssg82
g2324
sg75
(lp2331
g667
asbasbasbag68
(g84
g70
NtRp2332
(dp2333
g73
(dp2334
sg82
g2307
sg75
(lp2335
g68
(g89
g70
NtRp2336
(dp2337
g73
(dp2338
g93
g94
ssg82
g2332
sg75
(lp2339
S'HTTP_ACCEPT_CHARSET'
p2340
asbag68
(g89
g70
NtRp2341
(dp2342
g73
(dp2343
g100
g101
ssg82
g2332
sg75
(lp2344
S':'
asbag68
(g89
g70
NtRp2345
(dp2346
g73
(dp2347
sg82
g2332
sg75
(lp2348
g68
(g69
g70
NtRp2349
(dp2350
g73
(dp2351
g81
I3
ssg82
g2345
sg75
(lp2352
g689
asbasbasbag68
(g84
g70
NtRp2353
(dp2354
g73
(dp2355
sg82
g2307
sg75
(lp2356
g68
(g89
g70
NtRp2357
(dp2358
g73
(dp2359
g93
g94
ssg82
g2353
sg75
(lp2360
S'HTTP_ACCEPT_ENCODING'
p2361
asbag68
(g89
g70
NtRp2362
(dp2363
g73
(dp2364
g100
g101
ssg82
g2353
sg75
(lp2365
S':'
asbag68
(g89
g70
NtRp2366
(dp2367
g73
(dp2368
sg82
g2353
sg75
(lp2369
g68
(g69
g70
NtRp2370
(dp2371
g73
(dp2372
g81
I3
ssg82
g2366
sg75
(lp2373
g711
asbasbasbag68
(g84
g70
NtRp2374
(dp2375
g73
(dp2376
sg82
g2307
sg75
(lp2377
g68
(g89
g70
NtRp2378
(dp2379
g73
(dp2380
g93
g94
ssg82
g2374
sg75
(lp2381
S'HTTP_ACCEPT_LANGUAGE'
p2382
asbag68
(g89
g70
NtRp2383
(dp2384
g73
(dp2385
g100
g101
ssg82
g2374
sg75
(lp2386
S':'
asbag68
(g89
g70
NtRp2387
(dp2388
g73
(dp2389
sg82
g2374
sg75
(lp2390
g68
(g69
g70
NtRp2391
(dp2392
g73
(dp2393
g81
I3
ssg82
g2387
sg75
(lp2394
g733
asbasbasbag68
(g84
g70
NtRp2395
(dp2396
g73
(dp2397
sg82
g2307
sg75
(lp2398
g68
(g89
g70
NtRp2399
(dp2400
g73
(dp2401
g93
g94
ssg82
g2395
sg75
(lp2402
S'HTTP_CACHE_CONTROL'
p2403
asbag68
(g89
g70
NtRp2404
(dp2405
g73
(dp2406
g100
g101
ssg82
g2395
sg75
(lp2407
S':'
asbag68
(g89
g70
NtRp2408
(dp2409
g73
(dp2410
sg82
g2395
sg75
(lp2411
g68
(g69
g70
NtRp2412
(dp2413
g73
(dp2414
g81
I3
ssg82
g2408
sg75
(lp2415
g755
asbasbasbag68
(g84
g70
NtRp2416
(dp2417
g73
(dp2418
sg82
g2307
sg75
(lp2419
g68
(g89
g70
NtRp2420
(dp2421
g73
(dp2422
g93
g94
ssg82
g2416
sg75
(lp2423
S'HTTP_CONNECTION'
p2424
asbag68
(g89
g70
NtRp2425
(dp2426
g73
(dp2427
g100
g101
ssg82
g2416
sg75
(lp2428
S':'
asbag68
(g89
g70
NtRp2429
(dp2430
g73
(dp2431
sg82
g2416
sg75
(lp2432
g68
(g69
g70
NtRp2433
(dp2434
g73
(dp2435
g81
I3
ssg82
g2429
sg75
(lp2436
g777
asbasbasbag68
(g84
g70
NtRp2437
(dp2438
g73
(dp2439
sg82
g2307
sg75
(lp2440
g68
(g89
g70
NtRp2441
(dp2442
g73
(dp2443
g93
g94
ssg82
g2437
sg75
(lp2444
S'HTTP_COOKIE'
p2445
asbag68
(g89
g70
NtRp2446
(dp2447
g73
(dp2448
g100
g101
ssg82
g2437
sg75
(lp2449
S':'
asbag68
(g89
g70
NtRp2450
(dp2451
g73
(dp2452
sg82
g2437
sg75
(lp2453
g68
(g69
g70
NtRp2454
(dp2455
g73
(dp2456
g81
I3
ssg82
g2450
sg75
(lp2457
g799
asbasbasbag68
(g84
g70
NtRp2458
(dp2459
g73
(dp2460
sg82
g2307
sg75
(lp2461
g68
(g89
g70
NtRp2462
(dp2463
g73
(dp2464
g93
g94
ssg82
g2458
sg75
(lp2465
S'HTTP_HOST'
p2466
asbag68
(g89
g70
NtRp2467
(dp2468
g73
(dp2469
g100
g101
ssg82
g2458
sg75
(lp2470
S':'
asbag68
(g89
g70
NtRp2471
(dp2472
g73
(dp2473
sg82
g2458
sg75
(lp2474
g68
(g69
g70
NtRp2475
(dp2476
g73
(dp2477
g81
I3
ssg82
g2471
sg75
(lp2478
g821
asbasbasbag68
(g84
g70
NtRp2479
(dp2480
g73
(dp2481
sg82
g2307
sg75
(lp2482
g68
(g89
g70
NtRp2483
(dp2484
g73
(dp2485
g93
g94
ssg82
g2479
sg75
(lp2486
S'HTTP_USER_AGENT'
p2487
asbag68
(g89
g70
NtRp2488
(dp2489
g73
(dp2490
g100
g101
ssg82
g2479
sg75
(lp2491
S':'
asbag68
(g89
g70
NtRp2492
(dp2493
g73
(dp2494
sg82
g2479
sg75
(lp2495
g68
(g69
g70
NtRp2496
(dp2497
g73
(dp2498
g81
I3
ssg82
g2492
sg75
(lp2499
g843
asbasbasbag68
(g84
g70
NtRp2500
(dp2501
g73
(dp2502
sg82
g2307
sg75
(lp2503
g68
(g89
g70
NtRp2504
(dp2505
g73
(dp2506
g93
g94
ssg82
g2500
sg75
(lp2507
S'PATH_INFO'
p2508
asbag68
(g89
g70
NtRp2509
(dp2510
g73
(dp2511
g100
g101
ssg82
g2500
sg75
(lp2512
S':'
asbag68
(g89
g70
NtRp2513
(dp2514
g73
(dp2515
sg82
g2500
sg75
(lp2516
g68
(g69
g70
NtRp2517
(dp2518
g73
(dp2519
g81
I3
ssg82
g2513
sg75
(lp2520
g997
asbasbasbag68
(g84
g70
NtRp2521
(dp2522
g73
(dp2523
sg82
g2307
sg75
(lp2524
g68
(g89
g70
NtRp2525
(dp2526
g73
(dp2527
g93
g94
ssg82
g2521
sg75
(lp2528
S'QUERY_STRING'
p2529
asbag68
(g89
g70
NtRp2530
(dp2531
g73
(dp2532
g100
g101
ssg82
g2521
sg75
(lp2533
S':'
asbag68
(g89
g70
NtRp2534
(dp2535
g73
(dp2536
sg82
g2521
sg75
(lp2537
g68
(g69
g70
NtRp2538
(dp2539
g73
(dp2540
g81
I3
ssg82
g2534
sg75
(lp2541
g1019
asbasbasbag68
(g84
g70
NtRp2542
(dp2543
g73
(dp2544
sg82
g2307
sg75
(lp2545
g68
(g89
g70
NtRp2546
(dp2547
g73
(dp2548
g93
g94
ssg82
g2542
sg75
(lp2549
S'REMOTE_ADDR'
p2550
asbag68
(g89
g70
NtRp2551
(dp2552
g73
(dp2553
g100
g101
ssg82
g2542
sg75
(lp2554
S':'
asbag68
(g89
g70
NtRp2555
(dp2556
g73
(dp2557
sg82
g2542
sg75
(lp2558
g68
(g69
g70
NtRp2559
(dp2560
g73
(dp2561
g81
I3
ssg82
g2555
sg75
(lp2562
g223
asbasbasbag68
(g84
g70
NtRp2563
(dp2564
g73
(dp2565
sg82
g2307
sg75
(lp2566
g68
(g89
g70
NtRp2567
(dp2568
g73
(dp2569
g93
g94
ssg82
g2563
sg75
(lp2570
S'REMOTE_PORT'
p2571
asbag68
(g89
g70
NtRp2572
(dp2573
g73
(dp2574
g100
g101
ssg82
g2563
sg75
(lp2575
S':'
asbag68
(g89
g70
NtRp2576
(dp2577
g73
(dp2578
sg82
g2563
sg75
(lp2579
g68
(g69
g70
NtRp2580
(dp2581
g73
(dp2582
g81
I3
ssg82
g2576
sg75
(lp2583
g1062
asbasbasbag68
(g84
g70
NtRp2584
(dp2585
g73
(dp2586
sg82
g2307
sg75
(lp2587
g68
(g89
g70
NtRp2588
(dp2589
g73
(dp2590
g93
g94
ssg82
g2584
sg75
(lp2591
S'REQUEST_METHOD'
p2592
asbag68
(g89
g70
NtRp2593
(dp2594
g73
(dp2595
g100
g101
ssg82
g2584
sg75
(lp2596
S':'
asbag68
(g89
g70
NtRp2597
(dp2598
g73
(dp2599
sg82
g2584
sg75
(lp2600
g68
(g69
g70
NtRp2601
(dp2602
g73
(dp2603
g81
I3
ssg82
g2597
sg75
(lp2604
g1084
asbasbasbag68
(g84
g70
NtRp2605
(dp2606
g73
(dp2607
sg82
g2307
sg75
(lp2608
g68
(g89
g70
NtRp2609
(dp2610
g73
(dp2611
g93
g94
ssg82
g2605
sg75
(lp2612
S'REQUEST_URI'
p2613
asbag68
(g89
g70
NtRp2614
(dp2615
g73
(dp2616
g100
g101
ssg82
g2605
sg75
(lp2617
S':'
asbag68
(g89
g70
NtRp2618
(dp2619
g73
(dp2620
sg82
g2605
sg75
(lp2621
g68
(g69
g70
NtRp2622
(dp2623
g73
(dp2624
g81
I3
ssg82
g2618
sg75
(lp2625
g1106
asbasbasbag68
(g84
g70
NtRp2626
(dp2627
g73
(dp2628
sg82
g2307
sg75
(lp2629
g68
(g89
g70
NtRp2630
(dp2631
g73
(dp2632
g93
g94
ssg82
g2626
sg75
(lp2633
S'SCRIPT_NAME'
p2634
asbag68
(g89
g70
NtRp2635
(dp2636
g73
(dp2637
g100
g101
ssg82
g2626
sg75
(lp2638
S':'
asbag68
(g89
g70
NtRp2639
(dp2640
g73
(dp2641
sg82
g2626
sg75
(lp2642
g68
(g69
g70
NtRp2643
(dp2644
g73
(dp2645
g81
I3
ssg82
g2639
sg75
(lp2646
S''
asbasbasbag68
(g84
g70
NtRp2647
(dp2648
g73
(dp2649
sg82
g2307
sg75
(lp2650
g68
(g89
g70
NtRp2651
(dp2652
g73
(dp2653
g93
g94
ssg82
g2647
sg75
(lp2654
S'SERVER_NAME'
p2655
asbag68
(g89
g70
NtRp2656
(dp2657
g73
(dp2658
g100
g101
ssg82
g2647
sg75
(lp2659
S':'
asbag68
(g89
g70
NtRp2660
(dp2661
g73
(dp2662
sg82
g2647
sg75
(lp2663
g68
(g69
g70
NtRp2664
(dp2665
g73
(dp2666
g81
I3
ssg82
g2660
sg75
(lp2667
g1149
asbasbasbag68
(g84
g70
NtRp2668
(dp2669
g73
(dp2670
sg82
g2307
sg75
(lp2671
g68
(g89
g70
NtRp2672
(dp2673
g73
(dp2674
g93
g94
ssg82
g2668
sg75
(lp2675
S'SERVER_PORT'
p2676
asbag68
(g89
g70
NtRp2677
(dp2678
g73
(dp2679
g100
g101
ssg82
g2668
sg75
(lp2680
S':'
asbag68
(g89
g70
NtRp2681
(dp2682
g73
(dp2683
sg82
g2668
sg75
(lp2684
g68
(g69
g70
NtRp2685
(dp2686
g73
(dp2687
g81
I3
ssg82
g2681
sg75
(lp2688
g1171
asbasbasbag68
(g84
g70
NtRp2689
(dp2690
g73
(dp2691
sg82
g2307
sg75
(lp2692
g68
(g89
g70
NtRp2693
(dp2694
g73
(dp2695
g93
g94
ssg82
g2689
sg75
(lp2696
S'SERVER_PROTOCOL'
p2697
asbag68
(g89
g70
NtRp2698
(dp2699
g73
(dp2700
g100
g101
ssg82
g2689
sg75
(lp2701
S':'
asbag68
(g89
g70
NtRp2702
(dp2703
g73
(dp2704
sg82
g2689
sg75
(lp2705
g68
(g69
g70
NtRp2706
(dp2707
g73
(dp2708
g81
I3
ssg82
g2702
sg75
(lp2709
g1193
asbasbasbag68
(g84
g70
NtRp2710
(dp2711
g73
(dp2712
sg82
g2307
sg75
(lp2713
g68
(g89
g70
NtRp2714
(dp2715
g73
(dp2716
g93
g94
ssg82
g2710
sg75
(lp2717
S'SERVER_SOFTWARE'
p2718
asbag68
(g89
g70
NtRp2719
(dp2720
g73
(dp2721
g100
g101
ssg82
g2710
sg75
(lp2722
S':'
asbag68
(g89
g70
NtRp2723
(dp2724
g73
(dp2725
sg82
g2710
sg75
(lp2726
g68
(g69
g70
NtRp2727
(dp2728
g73
(dp2729
g81
I3
ssg82
g2723
sg75
(lp2730
g1215
asbasbasbag68
(g84
g70
NtRp2731
(dp2732
g73
(dp2733
sg82
g2307
sg75
(lp2734
g68
(g89
g70
NtRp2735
(dp2736
g73
(dp2737
g93
g94
ssg82
g2731
sg75
(lp2738
S'WEB2PY_ORIGINAL_URI'
p2739
asbag68
(g89
g70
NtRp2740
(dp2741
g73
(dp2742
g100
g101
ssg82
g2731
sg75
(lp2743
S':'
asbag68
(g89
g70
NtRp2744
(dp2745
g73
(dp2746
sg82
g2731
sg75
(lp2747
g68
(g69
g70
NtRp2748
(dp2749
g73
(dp2750
g81
I3
ssg82
g2744
sg75
(lp2751
g1237
asbasbasbag68
(g84
g70
NtRp2752
(dp2753
g73
(dp2754
sg82
g2307
sg75
(lp2755
g68
(g89
g70
NtRp2756
(dp2757
g73
(dp2758
g93
g94
ssg82
g2752
sg75
(lp2759
S'wsgi.errors'
p2760
asbag68
(g89
g70
NtRp2761
(dp2762
g73
(dp2763
g100
g101
ssg82
g2752
sg75
(lp2764
S':'
asbag68
(g89
g70
NtRp2765
(dp2766
g73
(dp2767
sg82
g2752
sg75
(lp2768
g68
(g69
g70
NtRp2769
(dp2770
g73
(dp2771
g81
I3
ssg82
g2765
sg75
(lp2772
S"<open file '<stderr>', mode 'w' at 0x7fd3f50ee270>"
p2773
asbasbasbag68
(g84
g70
NtRp2774
(dp2775
g73
(dp2776
sg82
g2307
sg75
(lp2777
g68
(g89
g70
NtRp2778
(dp2779
g73
(dp2780
g93
g94
ssg82
g2774
sg75
(lp2781
S'wsgi.file_wrapper'
p2782
asbag68
(g89
g70
NtRp2783
(dp2784
g73
(dp2785
g100
g101
ssg82
g2774
sg75
(lp2786
S':'
asbag68
(g89
g70
NtRp2787
(dp2788
g73
(dp2789
sg82
g2774
sg75
(lp2790
g68
(g69
g70
NtRp2791
(dp2792
g73
(dp2793
g81
I3
ssg82
g2787
sg75
(lp2794
S'<class wsgiref.util.FileWrapper at 0x331ba10>'
p2795
asbasbasbag68
(g84
g70
NtRp2796
(dp2797
g73
(dp2798
sg82
g2307
sg75
(lp2799
g68
(g89
g70
NtRp2800
(dp2801
g73
(dp2802
g93
g94
ssg82
g2796
sg75
(lp2803
S'wsgi.input'
p2804
asbag68
(g89
g70
NtRp2805
(dp2806
g73
(dp2807
g100
g101
ssg82
g2796
sg75
(lp2808
S':'
asbag68
(g89
g70
NtRp2809
(dp2810
g73
(dp2811
sg82
g2796
sg75
(lp2812
g68
(g69
g70
NtRp2813
(dp2814
g73
(dp2815
g81
I3
ssg82
g2809
sg75
(lp2816
S'<cStringIO.StringO object at 0x7fd3d419a618>'
p2817
asbasbasbag68
(g84
g70
NtRp2818
(dp2819
g73
(dp2820
sg82
g2307
sg75
(lp2821
g68
(g89
g70
NtRp2822
(dp2823
g73
(dp2824
g93
g94
ssg82
g2818
sg75
(lp2825
S'wsgi.multiprocess'
p2826
asbag68
(g89
g70
NtRp2827
(dp2828
g73
(dp2829
g100
g101
ssg82
g2818
sg75
(lp2830
S':'
asbag68
(g89
g70
NtRp2831
(dp2832
g73
(dp2833
sg82
g2818
sg75
(lp2834
g68
(g69
g70
NtRp2835
(dp2836
g73
(dp2837
g81
I3
ssg82
g2831
sg75
(lp2838
g111
asbasbasbag68
(g84
g70
NtRp2839
(dp2840
g73
(dp2841
sg82
g2307
sg75
(lp2842
g68
(g89
g70
NtRp2843
(dp2844
g73
(dp2845
g93
g94
ssg82
g2839
sg75
(lp2846
S'wsgi.multithread'
p2847
asbag68
(g89
g70
NtRp2848
(dp2849
g73
(dp2850
g100
g101
ssg82
g2839
sg75
(lp2851
S':'
asbag68
(g89
g70
NtRp2852
(dp2853
g73
(dp2854
sg82
g2839
sg75
(lp2855
g68
(g69
g70
NtRp2856
(dp2857
g73
(dp2858
g81
I3
ssg82
g2852
sg75
(lp2859
g1454
asbasbasbag68
(g84
g70
NtRp2860
(dp2861
g73
(dp2862
sg82
g2307
sg75
(lp2863
g68
(g89
g70
NtRp2864
(dp2865
g73
(dp2866
g93
g94
ssg82
g2860
sg75
(lp2867
S'wsgi.run_once'
p2868
asbag68
(g89
g70
NtRp2869
(dp2870
g73
(dp2871
g100
g101
ssg82
g2860
sg75
(lp2872
S':'
asbag68
(g89
g70
NtRp2873
(dp2874
g73
(dp2875
sg82
g2860
sg75
(lp2876
g68
(g69
g70
NtRp2877
(dp2878
g73
(dp2879
g81
I3
ssg82
g2873
sg75
(lp2880
g111
asbasbasbag68
(g84
g70
NtRp2881
(dp2882
g73
(dp2883
sg82
g2307
sg75
(lp2884
g68
(g89
g70
NtRp2885
(dp2886
g73
(dp2887
g93
g94
ssg82
g2881
sg75
(lp2888
S'wsgi.url_scheme'
p2889
asbag68
(g89
g70
NtRp2890
(dp2891
g73
(dp2892
g100
g101
ssg82
g2881
sg75
(lp2893
S':'
asbag68
(g89
g70
NtRp2894
(dp2895
g73
(dp2896
sg82
g2881
sg75
(lp2897
g68
(g69
g70
NtRp2898
(dp2899
g73
(dp2900
g81
I3
ssg82
g2894
sg75
(lp2901
g1497
asbasbasbag68
(g84
g70
NtRp2902
(dp2903
g73
(dp2904
sg82
g2307
sg75
(lp2905
g68
(g89
g70
NtRp2906
(dp2907
g73
(dp2908
g93
g94
ssg82
g2902
sg75
(lp2909
S'wsgi.version'
p2910
asbag68
(g89
g70
NtRp2911
(dp2912
g73
(dp2913
g100
g101
ssg82
g2902
sg75
(lp2914
S':'
asbag68
(g89
g70
NtRp2915
(dp2916
g73
(dp2917
sg82
g2902
sg75
(lp2918
g68
(g69
g70
NtRp2919
(dp2920
g73
(dp2921
g81
I3
ssg82
g2915
sg75
(lp2922
S'1'
asbasbasbasbasbasbasbasbasbasbasbasbasbsS'frames'
p2923
(lp2924
(dp2925
S'file'
p2926
S'/var/www/web2py_curso/gluon/restricted.py'
p2927
sS'dump'
p2928
(dp2929
S'code'
p2930
S'\'def show():\\n\\treturn "post"\\n\\ndef edit():\\n\\treturn ...turn "add"\\n\\nresponse._vars=response._caller(add)\\n\''
p2931
sS'layer'
p2932
S"'/var/www/web2py_curso/applications/projeto/controllers/post.py'"
p2933
sS'global compile2'
p2934
S'<function compile2>'
p2935
sS'ccode'
p2936
S'undefined'
p2937
ssS'lnum'
p2938
I211
sS'lines'
p2939
(dp2940
I206
S"    environment['__name__'] = '__restricted__'"
p2941
sI207
S'    try:'
p2942
sI208
S'        if isinstance(code, types.CodeType):'
p2943
sI209
S'            ccode = code'
p2944
sI210
S'        else:'
p2945
sI211
S'            ccode = compile2(code, layer)'
p2946
sI212
S'        exec ccode in environment'
p2947
sI213
S'    except HTTP:'
p2948
sI214
S'        raise'
p2949
sI215
S'    except RestrictedError:'
p2950
ssS'call'
p2951
S'(code=\'def show():\\n\\treturn "post"\\n\\ndef edit():\\n\\treturn ...turn "add"\\n\\nresponse._vars=response._caller(add)\\n\', environment={\'A\': <class \'gluon.html.A\'>, \'B\': <class \'gluon.html.B\'>, \'BEAUTIFY\': <class \'gluon.html.BEAUTIFY\'>, \'BODY\': <class \'gluon.html.BODY\'>, \'BR\': <class \'gluon.html.BR\'>, \'BUTTON\': <class \'gluon.html.BUTTON\'>, \'Blog\': <Table blog (id,title,description)>, \'CAT\': <class \'gluon.html.CAT\'>, \'CENTER\': <class \'gluon.html.CENTER\'>, \'CLEANUP\': <class \'gluon.validators.CLEANUP\'>, ...}, layer=\'/var/www/web2py_curso/applications/projeto/controllers/post.py\')'
p2952
sS'func'
p2953
S'restricted'
p2954
sa(dp2955
g2926
S'/var/www/web2py_curso/gluon/restricted.py'
p2956
sg2928
(dp2957
S'builtincompile'
p2958
S'<built-in function compile>'
p2959
sS'code'
p2960
S'\'def show():\\n\\treturn "post"\\n\\ndef edit():\\n\\treturn ...turn "add"\\n\\nresponse._vars=response._caller(add)\\n\''
p2961
sS'code.rstrip'
p2962
S'<built-in method rstrip of str object>'
p2963
sS').replace'
p2964
g2937
sS'layer'
p2965
S"'/var/www/web2py_curso/applications/projeto/controllers/post.py'"
p2966
ssg2938
I194
sg2939
(dp2967
I192
S"    The +'\\n' is necessary else compile fails when code ends in a comment."
p2968
sI193
S'    """'
p2969
sI194
S"    return compile(code.rstrip().replace('\\r\\n', '\\n') + '\\n', layer, 'exec')"
p2970
sI195
S''
sI196
S''
sI197
S"def restricted(code, environment=None, layer='Unknown'):"
p2971
sI198
S'    """'
p2972
sI189
S''
sI190
S'def compile2(code, layer):'
p2973
sI191
S'    """'
p2974
ssg2951
S'(code=\'def show():\\n\\treturn "post"\\n\\ndef edit():\\n\\treturn ...turn "add"\\n\\nresponse._vars=response._caller(add)\\n\', layer=\'/var/www/web2py_curso/applications/projeto/controllers/post.py\')'
p2975
sg2953
S'compile2'
p2976
sasS'pyver'
p2977
S'Python 2.7.3: /usr/bin/python'
p2978
sS'session'
p2979
g68
(g69
g70
NtRp2980
(dp2981
g73
(dp2982
sg75
(lp2983
g68
(g77
g70
NtRp2984
(dp2985
g73
(dp2986
g81
I5
ssg82
Nsg75
(lp2987
sbasbsS'etype'
p2988
S"<type 'exceptions.SyntaxError'>"
p2989
sS'date'
p2990
S'Thu Jan 24 09:16:31 2013'
p2991
sS'response'
p2992
g68
(g69
g70
NtRp2993
(dp2994
g73
(dp2995
sg75
(lp2996
g68
(g77
g70
NtRp2997
(dp2998
g73
(dp2999
g81
I5
ssg82
Nsg75
(lp3000
g68
(g84
g70
NtRp3001
(dp3002
g73
(dp3003
sg82
g2997
sg75
(lp3004
g68
(g89
g70
NtRp3005
(dp3006
g73
(dp3007
g93
g94
ssg82
g3001
sg75
(lp3008
g166
asbag68
(g89
g70
NtRp3009
(dp3010
g73
(dp3011
g100
g101
ssg82
g3001
sg75
(lp3012
S':'
asbag68
(g89
g70
NtRp3013
(dp3014
g73
(dp3015
sg82
g3001
sg75
(lp3016
g68
(g69
g70
NtRp3017
(dp3018
g73
(dp3019
g81
I5
ssg82
g3013
sg75
(lp3020
S'<cStringIO.StringO object at 0x7fd3d419a500>'
p3021
asbasbasbag68
(g84
g70
NtRp3022
(dp3023
g73
(dp3024
sg82
g2997
sg75
(lp3025
g68
(g89
g70
NtRp3026
(dp3027
g73
(dp3028
g93
g94
ssg82
g3022
sg75
(lp3029
g254
asbag68
(g89
g70
NtRp3030
(dp3031
g73
(dp3032
g100
g101
ssg82
g3022
sg75
(lp3033
S':'
asbag68
(g89
g70
NtRp3034
(dp3035
g73
(dp3036
sg82
g3022
sg75
(lp3037
g68
(g69
g70
NtRp3038
(dp3039
g73
(dp3040
g81
I5
ssg82
g3034
sg75
(lp3041
g68
(g77
g70
NtRp3042
(dp3043
g73
(dp3044
g81
I4
ssg82
Nsg75
(lp3045
g68
(g84
g70
NtRp3046
(dp3047
g73
(dp3048
sg82
g3042
sg75
(lp3049
g68
(g89
g70
NtRp3050
(dp3051
g73
(dp3052
g93
g94
ssg82
g3046
sg75
(lp3053
S'session_id_projeto'
p3054
asbag68
(g89
g70
NtRp3055
(dp3056
g73
(dp3057
g100
g101
ssg82
g3046
sg75
(lp3058
S':'
asbag68
(g89
g70
NtRp3059
(dp3060
g73
(dp3061
sg82
g3046
sg75
(lp3062
g68
(g69
g70
NtRp3063
(dp3064
g73
(dp3065
g81
I4
ssg82
g3059
sg75
(lp3066
g292
ag68
(g77
g70
NtRp3067
(dp3068
g73
(dp3069
g81
I3
ssg82
Nsg75
(lp3070
g68
(g84
g70
NtRp3071
(dp3072
g73
(dp3073
sg82
g3067
sg75
(lp3074
g68
(g89
g70
NtRp3075
(dp3076
g73
(dp3077
g93
g94
ssg82
g3071
sg75
(lp3078
g305
asbag68
(g89
g70
NtRp3079
(dp3080
g73
(dp3081
g100
g101
ssg82
g3071
sg75
(lp3082
S':'
asbag68
(g89
g70
NtRp3083
(dp3084
g73
(dp3085
sg82
g3071
sg75
(lp3086
g68
(g69
g70
NtRp3087
(dp3088
g73
(dp3089
g81
I3
ssg82
g3083
sg75
(lp3090
S''
asbasbasbag68
(g84
g70
NtRp3091
(dp3092
g73
(dp3093
sg82
g3067
sg75
(lp3094
g68
(g89
g70
NtRp3095
(dp3096
g73
(dp3097
g93
g94
ssg82
g3091
sg75
(lp3098
g326
asbag68
(g89
g70
NtRp3099
(dp3100
g73
(dp3101
g100
g101
ssg82
g3091
sg75
(lp3102
S':'
asbag68
(g89
g70
NtRp3103
(dp3104
g73
(dp3105
sg82
g3091
sg75
(lp3106
g68
(g69
g70
NtRp3107
(dp3108
g73
(dp3109
g81
I3
ssg82
g3103
sg75
(lp3110
S''
asbasbasbag68
(g84
g70
NtRp3111
(dp3112
g73
(dp3113
sg82
g3067
sg75
(lp3114
g68
(g89
g70
NtRp3115
(dp3116
g73
(dp3117
g93
g94
ssg82
g3111
sg75
(lp3118
g347
asbag68
(g89
g70
NtRp3119
(dp3120
g73
(dp3121
g100
g101
ssg82
g3111
sg75
(lp3122
S':'
asbag68
(g89
g70
NtRp3123
(dp3124
g73
(dp3125
sg82
g3111
sg75
(lp3126
g68
(g69
g70
NtRp3127
(dp3128
g73
(dp3129
g81
I3
ssg82
g3123
sg75
(lp3130
S''
asbasbasbag68
(g84
g70
NtRp3131
(dp3132
g73
(dp3133
sg82
g3067
sg75
(lp3134
g68
(g89
g70
NtRp3135
(dp3136
g73
(dp3137
g93
g94
ssg82
g3131
sg75
(lp3138
g368
asbag68
(g89
g70
NtRp3139
(dp3140
g73
(dp3141
g100
g101
ssg82
g3131
sg75
(lp3142
S':'
asbag68
(g89
g70
NtRp3143
(dp3144
g73
(dp3145
sg82
g3131
sg75
(lp3146
g68
(g69
g70
NtRp3147
(dp3148
g73
(dp3149
g81
I3
ssg82
g3143
sg75
(lp3150
S''
asbasbasbag68
(g84
g70
NtRp3151
(dp3152
g73
(dp3153
sg82
g3067
sg75
(lp3154
g68
(g89
g70
NtRp3155
(dp3156
g73
(dp3157
g93
g94
ssg82
g3151
sg75
(lp3158
g389
asbag68
(g89
g70
NtRp3159
(dp3160
g73
(dp3161
g100
g101
ssg82
g3151
sg75
(lp3162
S':'
asbag68
(g89
g70
NtRp3163
(dp3164
g73
(dp3165
sg82
g3151
sg75
(lp3166
g68
(g69
g70
NtRp3167
(dp3168
g73
(dp3169
g81
I3
ssg82
g3163
sg75
(lp3170
S''
asbasbasbag68
(g84
g70
NtRp3171
(dp3172
g73
(dp3173
sg82
g3067
sg75
(lp3174
g68
(g89
g70
NtRp3175
(dp3176
g73
(dp3177
g93
g94
ssg82
g3171
sg75
(lp3178
g410
asbag68
(g89
g70
NtRp3179
(dp3180
g73
(dp3181
g100
g101
ssg82
g3171
sg75
(lp3182
S':'
asbag68
(g89
g70
NtRp3183
(dp3184
g73
(dp3185
sg82
g3171
sg75
(lp3186
g68
(g69
g70
NtRp3187
(dp3188
g73
(dp3189
g81
I3
ssg82
g3183
sg75
(lp3190
S'/'
asbasbasbag68
(g84
g70
NtRp3191
(dp3192
g73
(dp3193
sg82
g3067
sg75
(lp3194
g68
(g89
g70
NtRp3195
(dp3196
g73
(dp3197
g93
g94
ssg82
g3191
sg75
(lp3198
g431
asbag68
(g89
g70
NtRp3199
(dp3200
g73
(dp3201
g100
g101
ssg82
g3191
sg75
(lp3202
S':'
asbag68
(g89
g70
NtRp3203
(dp3204
g73
(dp3205
sg82
g3191
sg75
(lp3206
g68
(g69
g70
NtRp3207
(dp3208
g73
(dp3209
g81
I3
ssg82
g3203
sg75
(lp3210
S''
asbasbasbag68
(g84
g70
NtRp3211
(dp3212
g73
(dp3213
sg82
g3067
sg75
(lp3214
g68
(g89
g70
NtRp3215
(dp3216
g73
(dp3217
g93
g94
ssg82
g3211
sg75
(lp3218
g452
asbag68
(g89
g70
NtRp3219
(dp3220
g73
(dp3221
g100
g101
ssg82
g3211
sg75
(lp3222
S':'
asbag68
(g89
g70
NtRp3223
(dp3224
g73
(dp3225
sg82
g3211
sg75
(lp3226
g68
(g69
g70
NtRp3227
(dp3228
g73
(dp3229
g81
I3
ssg82
g3223
sg75
(lp3230
S''
asbasbasbasbasbasbasbasbasbasbasbag68
(g84
g70
NtRp3231
(dp3232
g73
(dp3233
sg82
g2997
sg75
(lp3234
g68
(g89
g70
NtRp3235
(dp3236
g73
(dp3237
g93
g94
ssg82
g3231
sg75
(lp3238
S'delimiters'
p3239
asbag68
(g89
g70
NtRp3240
(dp3241
g73
(dp3242
g100
g101
ssg82
g3231
sg75
(lp3243
S':'
asbag68
(g89
g70
NtRp3244
(dp3245
g73
(dp3246
sg82
g3231
sg75
(lp3247
g68
(g69
g70
NtRp3248
(dp3249
g73
(dp3250
g81
I5
ssg82
g3244
sg75
(lp3251
g68
(g77
g70
NtRp3252
(dp3253
g73
(dp3254
g81
I4
ssg82
Nsg75
(lp3255
g68
(g84
g70
NtRp3256
(dp3257
g73
(dp3258
sg82
g3252
sg75
(lp3259
g68
(g89
g70
NtRp3260
(dp3261
g73
(dp3262
sg82
g3256
sg75
(lp3263
g68
(g69
g70
NtRp3264
(dp3265
g73
(dp3266
g81
I4
ssg82
g3260
sg75
(lp3267
S'{{'
p3268
asbasbasbag68
(g84
g70
NtRp3269
(dp3270
g73
(dp3271
sg82
g3252
sg75
(lp3272
g68
(g89
g70
NtRp3273
(dp3274
g73
(dp3275
sg82
g3269
sg75
(lp3276
g68
(g69
g70
NtRp3277
(dp3278
g73
(dp3279
g81
I4
ssg82
g3273
sg75
(lp3280
S'}}'
p3281
asbasbasbasbasbasbasbag68
(g84
g70
NtRp3282
(dp3283
g73
(dp3284
sg82
g2997
sg75
(lp3285
g68
(g89
g70
NtRp3286
(dp3287
g73
(dp3288
g93
g94
ssg82
g3282
sg75
(lp3289
S'files'
p3290
asbag68
(g89
g70
NtRp3291
(dp3292
g73
(dp3293
g100
g101
ssg82
g3282
sg75
(lp3294
S':'
asbag68
(g89
g70
NtRp3295
(dp3296
g73
(dp3297
sg82
g3282
sg75
(lp3298
g68
(g69
g70
NtRp3299
(dp3300
g73
(dp3301
g81
I5
ssg82
g3295
sg75
(lp3302
g68
(g77
g70
NtRp3303
(dp3304
g73
(dp3305
g81
I4
ssg82
Nsg75
(lp3306
sbasbasbasbag68
(g84
g70
NtRp3307
(dp3308
g73
(dp3309
sg82
g2997
sg75
(lp3310
g68
(g89
g70
NtRp3311
(dp3312
g73
(dp3313
g93
g94
ssg82
g3307
sg75
(lp3314
S'flash'
p3315
asbag68
(g89
g70
NtRp3316
(dp3317
g73
(dp3318
g100
g101
ssg82
g3307
sg75
(lp3319
S':'
asbag68
(g89
g70
NtRp3320
(dp3321
g73
(dp3322
sg82
g3307
sg75
(lp3323
g68
(g69
g70
NtRp3324
(dp3325
g73
(dp3326
g81
I5
ssg82
g3320
sg75
(lp3327
S''
asbasbasbag68
(g84
g70
NtRp3328
(dp3329
g73
(dp3330
sg82
g2997
sg75
(lp3331
g68
(g89
g70
NtRp3332
(dp3333
g73
(dp3334
g93
g94
ssg82
g3328
sg75
(lp3335
S'generic_patterns'
p3336
asbag68
(g89
g70
NtRp3337
(dp3338
g73
(dp3339
g100
g101
ssg82
g3328
sg75
(lp3340
S':'
asbag68
(g89
g70
NtRp3341
(dp3342
g73
(dp3343
sg82
g3328
sg75
(lp3344
g68
(g69
g70
NtRp3345
(dp3346
g73
(dp3347
g81
I5
ssg82
g3341
sg75
(lp3348
g68
(g77
g70
NtRp3349
(dp3350
g73
(dp3351
g81
I4
ssg82
Nsg75
(lp3352
sbasbasbasbag68
(g84
g70
NtRp3353
(dp3354
g73
(dp3355
sg82
g2997
sg75
(lp3356
g68
(g89
g70
NtRp3357
(dp3358
g73
(dp3359
g93
g94
ssg82
g3353
sg75
(lp3360
S'headers'
p3361
asbag68
(g89
g70
NtRp3362
(dp3363
g73
(dp3364
g100
g101
ssg82
g3353
sg75
(lp3365
S':'
asbag68
(g89
g70
NtRp3366
(dp3367
g73
(dp3368
sg82
g3353
sg75
(lp3369
g68
(g69
g70
NtRp3370
(dp3371
g73
(dp3372
g81
I5
ssg82
g3366
sg75
(lp3373
g68
(g77
g70
NtRp3374
(dp3375
g73
(dp3376
g81
I4
ssg82
Nsg75
(lp3377
g68
(g84
g70
NtRp3378
(dp3379
g73
(dp3380
sg82
g3374
sg75
(lp3381
g68
(g89
g70
NtRp3382
(dp3383
g73
(dp3384
g93
g94
ssg82
g3378
sg75
(lp3385
S'X-Powered-By'
p3386
asbag68
(g89
g70
NtRp3387
(dp3388
g73
(dp3389
g100
g101
ssg82
g3378
sg75
(lp3390
S':'
asbag68
(g89
g70
NtRp3391
(dp3392
g73
(dp3393
sg82
g3378
sg75
(lp3394
g68
(g69
g70
NtRp3395
(dp3396
g73
(dp3397
g81
I4
ssg82
g3391
sg75
(lp3398
S'web2py'
p3399
asbasbasbasbasbasbasbag68
(g84
g70
NtRp3400
(dp3401
g73
(dp3402
sg82
g2997
sg75
(lp3403
g68
(g89
g70
NtRp3404
(dp3405
g73
(dp3406
g93
g94
ssg82
g3400
sg75
(lp3407
S'menu'
p3408
asbag68
(g89
g70
NtRp3409
(dp3410
g73
(dp3411
g100
g101
ssg82
g3400
sg75
(lp3412
S':'
asbag68
(g89
g70
NtRp3413
(dp3414
g73
(dp3415
sg82
g3400
sg75
(lp3416
g68
(g69
g70
NtRp3417
(dp3418
g73
(dp3419
g81
I5
ssg82
g3413
sg75
(lp3420
g68
(g77
g70
NtRp3421
(dp3422
g73
(dp3423
g81
I4
ssg82
Nsg75
(lp3424
sbasbasbasbag68
(g84
g70
NtRp3425
(dp3426
g73
(dp3427
sg82
g2997
sg75
(lp3428
g68
(g89
g70
NtRp3429
(dp3430
g73
(dp3431
g93
g94
ssg82
g3425
sg75
(lp3432
S'meta'
p3433
asbag68
(g89
g70
NtRp3434
(dp3435
g73
(dp3436
g100
g101
ssg82
g3425
sg75
(lp3437
S':'
asbag68
(g89
g70
NtRp3438
(dp3439
g73
(dp3440
sg82
g3425
sg75
(lp3441
g68
(g69
g70
NtRp3442
(dp3443
g73
(dp3444
g81
I5
ssg82
g3438
sg75
(lp3445
g68
(g77
g70
NtRp3446
(dp3447
g73
(dp3448
g81
I4
ssg82
Nsg75
(lp3449
sbasbasbasbag68
(g84
g70
NtRp3450
(dp3451
g73
(dp3452
sg82
g2997
sg75
(lp3453
g68
(g89
g70
NtRp3454
(dp3455
g73
(dp3456
g93
g94
ssg82
g3450
sg75
(lp3457
S'models_to_run'
p3458
asbag68
(g89
g70
NtRp3459
(dp3460
g73
(dp3461
g100
g101
ssg82
g3450
sg75
(lp3462
S':'
asbag68
(g89
g70
NtRp3463
(dp3464
g73
(dp3465
sg82
g3450
sg75
(lp3466
g68
(g69
g70
NtRp3467
(dp3468
g73
(dp3469
g81
I5
ssg82
g3463
sg75
(lp3470
g68
(g77
g70
NtRp3471
(dp3472
g73
(dp3473
g81
I4
ssg82
Nsg75
(lp3474
g68
(g84
g70
NtRp3475
(dp3476
g73
(dp3477
sg82
g3471
sg75
(lp3478
g68
(g89
g70
NtRp3479
(dp3480
g73
(dp3481
sg82
g3475
sg75
(lp3482
g68
(g69
g70
NtRp3483
(dp3484
g73
(dp3485
g81
I4
ssg82
g3479
sg75
(lp3486
S'^\\w+\\.py$'
p3487
asbasbasbag68
(g84
g70
NtRp3488
(dp3489
g73
(dp3490
sg82
g3471
sg75
(lp3491
g68
(g89
g70
NtRp3492
(dp3493
g73
(dp3494
sg82
g3488
sg75
(lp3495
g68
(g69
g70
NtRp3496
(dp3497
g73
(dp3498
g81
I4
ssg82
g3492
sg75
(lp3499
S'^post/\\w+\\.py$'
p3500
asbasbasbag68
(g84
g70
NtRp3501
(dp3502
g73
(dp3503
sg82
g3471
sg75
(lp3504
g68
(g89
g70
NtRp3505
(dp3506
g73
(dp3507
sg82
g3501
sg75
(lp3508
g68
(g69
g70
NtRp3509
(dp3510
g73
(dp3511
g81
I4
ssg82
g3505
sg75
(lp3512
S'^post/add/\\w+\\.py$'
p3513
asbasbasbasbasbasbasbag68
(g84
g70
NtRp3514
(dp3515
g73
(dp3516
sg82
g2997
sg75
(lp3517
g68
(g89
g70
NtRp3518
(dp3519
g73
(dp3520
g93
g94
ssg82
g3514
sg75
(lp3521
S'postprocessing'
p3522
asbag68
(g89
g70
NtRp3523
(dp3524
g73
(dp3525
g100
g101
ssg82
g3514
sg75
(lp3526
S':'
asbag68
(g89
g70
NtRp3527
(dp3528
g73
(dp3529
sg82
g3514
sg75
(lp3530
g68
(g69
g70
NtRp3531
(dp3532
g73
(dp3533
g81
I5
ssg82
g3527
sg75
(lp3534
g68
(g77
g70
NtRp3535
(dp3536
g73
(dp3537
g81
I4
ssg82
Nsg75
(lp3538
sbasbasbasbag68
(g84
g70
NtRp3539
(dp3540
g73
(dp3541
sg82
g2997
sg75
(lp3542
g68
(g89
g70
NtRp3543
(dp3544
g73
(dp3545
g93
g94
ssg82
g3539
sg75
(lp3546
S'session_cookie_expires'
p3547
asbag68
(g89
g70
NtRp3548
(dp3549
g73
(dp3550
g100
g101
ssg82
g3539
sg75
(lp3551
S':'
asbag68
(g89
g70
NtRp3552
(dp3553
g73
(dp3554
sg82
g3539
sg75
(lp3555
g68
(g69
g70
NtRp3556
(dp3557
g73
(dp3558
g81
I5
ssg82
g3552
sg75
(lp3559
S'None'
p3560
asbasbasbag68
(g84
g70
NtRp3561
(dp3562
g73
(dp3563
sg82
g2997
sg75
(lp3564
g68
(g89
g70
NtRp3565
(dp3566
g73
(dp3567
g93
g94
ssg82
g3561
sg75
(lp3568
S'session_data_name'
p3569
asbag68
(g89
g70
NtRp3570
(dp3571
g73
(dp3572
g100
g101
ssg82
g3561
sg75
(lp3573
S':'
asbag68
(g89
g70
NtRp3574
(dp3575
g73
(dp3576
sg82
g3561
sg75
(lp3577
g68
(g69
g70
NtRp3578
(dp3579
g73
(dp3580
g81
I5
ssg82
g3574
sg75
(lp3581
S'session_data_projeto'
p3582
asbasbasbag68
(g84
g70
NtRp3583
(dp3584
g73
(dp3585
sg82
g2997
sg75
(lp3586
g68
(g89
g70
NtRp3587
(dp3588
g73
(dp3589
g93
g94
ssg82
g3583
sg75
(lp3590
S'session_file'
p3591
asbag68
(g89
g70
NtRp3592
(dp3593
g73
(dp3594
g100
g101
ssg82
g3583
sg75
(lp3595
S':'
asbag68
(g89
g70
NtRp3596
(dp3597
g73
(dp3598
sg82
g3583
sg75
(lp3599
g68
(g69
g70
NtRp3600
(dp3601
g73
(dp3602
g81
I5
ssg82
g3596
sg75
(lp3603
S'None'
p3604
asbasbasbag68
(g84
g70
NtRp3605
(dp3606
g73
(dp3607
sg82
g2997
sg75
(lp3608
g68
(g89
g70
NtRp3609
(dp3610
g73
(dp3611
g93
g94
ssg82
g3605
sg75
(lp3612
S'session_filename'
p3613
asbag68
(g89
g70
NtRp3614
(dp3615
g73
(dp3616
g100
g101
ssg82
g3605
sg75
(lp3617
S':'
asbag68
(g89
g70
NtRp3618
(dp3619
g73
(dp3620
sg82
g3605
sg75
(lp3621
g68
(g69
g70
NtRp3622
(dp3623
g73
(dp3624
g81
I5
ssg82
g3618
sg75
(lp3625
S'/var/www/web2py_curso/applications/projeto/sessions/127.0.0.1-e368b264-444a-4dee-8b41-31155ff54a04'
p3626
asbasbasbag68
(g84
g70
NtRp3627
(dp3628
g73
(dp3629
sg82
g2997
sg75
(lp3630
g68
(g89
g70
NtRp3631
(dp3632
g73
(dp3633
g93
g94
ssg82
g3627
sg75
(lp3634
S'session_id'
p3635
asbag68
(g89
g70
NtRp3636
(dp3637
g73
(dp3638
g100
g101
ssg82
g3627
sg75
(lp3639
S':'
asbag68
(g89
g70
NtRp3640
(dp3641
g73
(dp3642
sg82
g3627
sg75
(lp3643
g68
(g69
g70
NtRp3644
(dp3645
g73
(dp3646
g81
I5
ssg82
g3640
sg75
(lp3647
g292
asbasbasbag68
(g84
g70
NtRp3648
(dp3649
g73
(dp3650
sg82
g2997
sg75
(lp3651
g68
(g89
g70
NtRp3652
(dp3653
g73
(dp3654
g93
g94
ssg82
g3648
sg75
(lp3655
S'session_id_name'
p3656
asbag68
(g89
g70
NtRp3657
(dp3658
g73
(dp3659
g100
g101
ssg82
g3648
sg75
(lp3660
S':'
asbag68
(g89
g70
NtRp3661
(dp3662
g73
(dp3663
sg82
g3648
sg75
(lp3664
g68
(g69
g70
NtRp3665
(dp3666
g73
(dp3667
g81
I5
ssg82
g3661
sg75
(lp3668
g3054
asbasbasbag68
(g84
g70
NtRp3669
(dp3670
g73
(dp3671
sg82
g2997
sg75
(lp3672
g68
(g89
g70
NtRp3673
(dp3674
g73
(dp3675
g93
g94
ssg82
g3669
sg75
(lp3676
S'session_new'
p3677
asbag68
(g89
g70
NtRp3678
(dp3679
g73
(dp3680
g100
g101
ssg82
g3669
sg75
(lp3681
S':'
asbag68
(g89
g70
NtRp3682
(dp3683
g73
(dp3684
sg82
g3669
sg75
(lp3685
g68
(g69
g70
NtRp3686
(dp3687
g73
(dp3688
g81
I5
ssg82
g3682
sg75
(lp3689
g111
asbasbasbag68
(g84
g70
NtRp3690
(dp3691
g73
(dp3692
sg82
g2997
sg75
(lp3693
g68
(g89
g70
NtRp3694
(dp3695
g73
(dp3696
g93
g94
ssg82
g3690
sg75
(lp3697
S'session_storage_type'
p3698
asbag68
(g89
g70
NtRp3699
(dp3700
g73
(dp3701
g100
g101
ssg82
g3690
sg75
(lp3702
S':'
asbag68
(g89
g70
NtRp3703
(dp3704
g73
(dp3705
sg82
g3690
sg75
(lp3706
g68
(g69
g70
NtRp3707
(dp3708
g73
(dp3709
g81
I5
ssg82
g3703
sg75
(lp3710
g2926
asbasbasbag68
(g84
g70
NtRp3711
(dp3712
g73
(dp3713
sg82
g2997
sg75
(lp3714
g68
(g89
g70
NtRp3715
(dp3716
g73
(dp3717
g93
g94
ssg82
g3711
sg75
(lp3718
S'status'
p3719
asbag68
(g89
g70
NtRp3720
(dp3721
g73
(dp3722
g100
g101
ssg82
g3711
sg75
(lp3723
S':'
asbag68
(g89
g70
NtRp3724
(dp3725
g73
(dp3726
sg82
g3711
sg75
(lp3727
g68
(g69
g70
NtRp3728
(dp3729
g73
(dp3730
g81
I5
ssg82
g3724
sg75
(lp3731
S'200'
p3732
asbasbasbag68
(g84
g70
NtRp3733
(dp3734
g73
(dp3735
sg82
g2997
sg75
(lp3736
g68
(g89
g70
NtRp3737
(dp3738
g73
(dp3739
g93
g94
ssg82
g3733
sg75
(lp3740
S'view'
p3741
asbag68
(g89
g70
NtRp3742
(dp3743
g73
(dp3744
g100
g101
ssg82
g3733
sg75
(lp3745
S':'
asbag68
(g89
g70
NtRp3746
(dp3747
g73
(dp3748
sg82
g3733
sg75
(lp3749
g68
(g69
g70
NtRp3750
(dp3751
g73
(dp3752
g81
I5
ssg82
g3746
sg75
(lp3753
S'post/add.html'
p3754
asbasbasbasbasbsS'locals'
p3755
(dp3756
g4
S"'/var/www/web2py_curso/applications/projeto/controllers/post.py'"
p3757
sg6
S'\'def show():\\n\\treturn "post"\\n\\ndef edit():\\n\\treturn ...turn "add"\\n\\nresponse._vars=response._caller(add)\\n\''
p3758
sssS'traceback'
p3759
S'Traceback (most recent call last):\n  File "/var/www/web2py_curso/gluon/restricted.py", line 211, in restricted\n    ccode = compile2(code, layer)\n  File "/var/www/web2py_curso/gluon/restricted.py", line 194, in compile2\n    return compile(code.rstrip().replace(\'\\r\\n\', \'\\n\') + \'\\n\', layer, \'exec\')\n  File "/var/www/web2py_curso/applications/projeto/controllers/post.py", line 13\n    try\n      ^\nSyntaxError: invalid syntax\n'
p3760
s.